(dp1
S'2a0p'
p2
(lp3
F8.5
aF0
asS'1d7c'
p4
(lp5
F20.199999999999999
aF1.5
asS'1rwo'
p6
(lp7
F9
aF2.1000000000000001
asS'3q72'
p8
(lp9
F37.600000000000001
aF16.100000000000001
asS'2rbw'
p10
(lp11
F11
aF3.1000000000000001
asS'2jem'
p12
(lp13
F15.5
aF3.3999999999999999
asS'285d'
p14
(lp15
F23.300000000000001
aF15.800000000000001
asS'2xz6'
p16
(lp17
F25.100000000000001
aF6.7999999999999998
asS'1fnt'
p18
(lp19
F35.200000000000003
aF17.699999999999999
asS'4bft'
p20
(lp21
F22.600000000000001
aF7.4000000000000004
asS'3ttu'
p22
(lp23
F16.100000000000001
aF2.7999999999999998
asS'2oob'
p24
(lp25
F14.4
aF2.1000000000000001
asS'1vgw'
p26
(lp27
F19.199999999999999
aF4.7000000000000002
asS'2aov'
p28
(lp29
F21.800000000000001
aF7.2000000000000002
asS'1fnz'
p30
(lp31
F21.199999999999999
aF2
asS'1rxg'
p32
(lp33
F9.6999999999999993
aF2.1000000000000001
asS'4auu'
p34
(lp35
F15.9
aF5.7000000000000002
asS'2lpf'
p36
(lp37
F7.7000000000000002
aF0
asS'4f3i'
p38
(lp39
F17.5
aF2.7000000000000002
asS'1mcs'
p40
(lp41
F43.700000000000003
aF23.100000000000001
asS'3cx8'
p42
(lp43
F21.699999999999999
aF6.7000000000000002
asS'1esv'
p44
(lp45
F32.5
aF11.4
asS'4dfj'
p46
(lp47
F16.699999999999999
aF3.6000000000000001
asS'3pvi'
p48
(lp49
F12.699999999999999
aF2.8999999999999999
asS'2ah5'
p50
(lp51
F11.300000000000001
aF0.59999999999999998
asS'2bnq'
p52
(lp53
F20.899999999999999
aF7.5
asS'2c6j'
p54
(lp55
F35.100000000000001
aF28.300000000000001
asS'3g4v'
p56
(lp57
F17.199999999999999
aF3.3999999999999999
asS'1esk'
p58
(lp59
F11.800000000000001
aF0
asS'1g5b'
p60
(lp61
F21.5
aF6.5
asS'4jyv'
p62
(lp63
F9.8000000000000007
aF2.8999999999999999
asS'2evo'
p64
(lp65
F24.800000000000001
aF3.7999999999999998
asS'3tt7'
p66
(lp67
F25.100000000000001
aF4.2000000000000002
asS'2l4e'
p68
(lp69
F17.899999999999999
aF0
asS'1wdk'
p70
(lp71
F28.600000000000001
aF9
asS'1a91'
p72
(lp73
F6.0999999999999996
aF0
asS'1a97'
p74
(lp75
F22.199999999999999
aF3.2000000000000002
asS'2eon'
p76
(lp77
F38.100000000000001
aF14.199999999999999
asS'3u9z'
p78
(lp79
F29.300000000000001
aF17.600000000000001
asS'3u9x'
p80
(lp81
F21.699999999999999
aF9.5999999999999996
asS'3suj'
p82
(lp83
F16.399999999999999
aF3.2999999999999998
asS'3kv4'
p84
(lp85
F26.899999999999999
aF7.7999999999999998
asS'1s4i'
p86
(lp87
F38.399999999999999
aF23.100000000000001
asS'3m98'
p88
(lp89
F15.800000000000001
aF2.8999999999999999
asS'1s4o'
p90
(lp91
F22
aF5.7999999999999998
asS'3q03'
p92
(lp93
F27.800000000000001
aF5.9000000000000004
asS'4hf7'
p94
(lp95
F5.9000000000000004
aF0.90000000000000002
asS'4ei2'
p96
(lp97
F24
aF4.7000000000000002
asS'4j9s'
p98
(lp99
F17.199999999999999
aF4.7999999999999998
asS'3p13'
p100
(lp101
F13.1
aF1.3999999999999999
asS'3uvx'
p102
(lp103
F12.699999999999999
aF1.8
asS'3p8a'
p104
(lp105
F8.5999999999999996
aF2.5
asS'2vey'
p106
(lp107
F18
aF3.5
asS'2lgf'
p108
(lp109
F44.799999999999997
aF24.199999999999999
asS'4dh9'
p110
(lp111
F29.399999999999999
aF15.699999999999999
asS'1rei'
p112
(lp113
F42.299999999999997
aF20.300000000000001
asS'4e9t'
p114
(lp115
F19.899999999999999
aF1.8
asS'2w72'
p116
(lp117
F28.399999999999999
aF19.699999999999999
asS'1p2b'
p118
(lp119
F20.800000000000001
aF4.0999999999999996
asS'2jln'
p120
(lp121
F25.300000000000001
aF8.3000000000000007
asS'1q3u'
p122
(lp123
F33.799999999999997
aF15.800000000000001
asS'3ivd'
p124
(lp125
F12.300000000000001
aF1.6000000000000001
asS'1dj0'
p126
(lp127
F15.6
aF2
asS'3kvx'
p128
(lp129
F17.399999999999999
aF11.4
asS'3gdd'
p130
(lp131
F8.6999999999999993
aF5.9000000000000004
asS'3re7'
p132
(lp133
F17.100000000000001
aF4
asS'2w86'
p134
(lp135
F24.300000000000001
aF5.5
asS'3tki'
p136
(lp137
F8.5
aF1.1000000000000001
asS'3sge'
p138
(lp139
F7.2000000000000002
aF1.2
asS'7cgt'
p140
(lp141
F27.5
aF9.4000000000000004
asS'1t3g'
p142
(lp143
F23
aF6.7999999999999998
asS'3m0v'
p144
(lp145
F17.399999999999999
aF3
asS'4b9u'
p146
(lp147
F12.4
aF1.8999999999999999
asS'4b9t'
p148
(lp149
F20.399999999999999
aF7.5
asS'2wel'
p150
(lp151
F11.6
aF1.1000000000000001
asS'1juu'
p152
(lp153
F7.7999999999999998
aF0
asS'2y2q'
p154
(lp155
F22.199999999999999
aF6.5
asS'3d9c'
p156
(lp157
F27.399999999999999
aF11.5
asS'2dw1'
p158
(lp159
F25.5
aF7
asS'2bgh'
p160
(lp161
F23.699999999999999
aF6.5
asS'1ddg'
p162
(lp163
F30.5
aF9.5999999999999996
asS'3f5v'
p164
(lp165
F11.300000000000001
aF1.2
asS'2msi'
p166
(lp167
F12
aF1
asS'3fgd'
p168
(lp169
F12.9
aF0.40000000000000002
asS'1d8c'
p170
(lp171
F26
aF7.9000000000000004
asS'4fkv'
p172
(lp173
F14
aF0.80000000000000004
asS'1d8d'
p174
(lp175
F18.199999999999999
aF2.7000000000000002
asS'3ct7'
p176
(lp177
F40.700000000000003
aF12.4
asS'1tsh'
p178
(lp179
F22.100000000000001
aF7.7999999999999998
asS'3mn2'
p180
(lp181
F27.399999999999999
aF9.5999999999999996
asS'1txe'
p182
(lp183
F25.899999999999999
aF8.4000000000000004
asS'4fbi'
p184
(lp185
F26.399999999999999
aF12.4
asS'2b51'
p186
(lp187
F18.199999999999999
aF7.5
asS'2yve'
p188
(lp189
F22.300000000000001
aF5.4000000000000004
asS'2pal'
p190
(lp191
F23.600000000000001
aF3.7999999999999998
asS'2rhz'
p192
(lp193
F20.399999999999999
aF4.7999999999999998
asS'3g13'
p194
(lp195
F14.6
aF10.300000000000001
asS'4dzh'
p196
(lp197
F15.300000000000001
aF2.1000000000000001
asS'4iz6'
p198
(lp199
F20.199999999999999
aF4.5999999999999996
asS'3d90'
p200
(lp201
F25.199999999999999
aF7.2000000000000002
asS'2pmb'
p202
(lp203
F10.4
aF1.3
asS'1hm5'
p204
(lp205
F18.800000000000001
aF5.2999999999999998
asS'1ayo'
p206
(lp207
F21.600000000000001
aF5.0999999999999996
asS'1lt4'
p208
(lp209
F17.300000000000001
aF3.2999999999999998
asS'3sze'
p210
(lp211
F14.6
aF1.8999999999999999
asS'3mp2'
p212
(lp213
F15.9
aF7.9000000000000004
asS'1lju'
p214
(lp215
F10.9
aF5.7999999999999998
asS'3dwq'
p216
(lp217
F12
aF3.2999999999999998
asS'3mof'
p218
(lp219
F17
aF5.2999999999999998
asS'1jfc'
p220
(lp221
F18.199999999999999
aF3.8999999999999999
asS'1ldf'
p222
(lp223
F19
aF3.5
asS'2vpq'
p224
(lp225
F17
aF2.2000000000000002
asS'3sqn'
p226
(lp227
F23.5
aF7.7999999999999998
asS'3m53'
p228
(lp229
F19.899999999999999
aF7.2999999999999998
asS'4ae0'
p230
(lp231
F17.100000000000001
aF3.2000000000000002
asS'3ft2'
p232
(lp233
F9.3000000000000007
aF2.3999999999999999
asS'1izd'
p234
(lp235
F18.100000000000001
aF2.6000000000000001
asS'3b7t'
p236
(lp237
F19.399999999999999
aF4.2000000000000002
asS'2jst'
p238
(lp239
F22.5
aF2
asS'3ekp'
p240
(lp241
F21.199999999999999
aF4.2000000000000002
asS'2ckr'
p242
(lp243
F12
aF3.6000000000000001
asS'3h2q'
p244
(lp245
F13.1
aF1.8999999999999999
asS'3ayq'
p246
(lp247
F20.300000000000001
aF4.7000000000000002
asS'1gho'
p248
(lp249
F30.100000000000001
aF10.4
asS'4c92'
p250
(lp251
F17.699999999999999
aF4
asS'1j9m'
p252
(lp253
F16.399999999999999
aF3.7000000000000002
asS'2k79'
p254
(lp255
F28.800000000000001
aF16.399999999999999
asS'4fpa'
p256
(lp257
F28.199999999999999
aF11.1
asS'3gh3'
p258
(lp259
F19.899999999999999
aF4.5
asS'3kro'
p260
(lp261
F29.699999999999999
aF12.6
asS'4bq5'
p262
(lp263
F15.199999999999999
aF4.5
asS'2cdf'
p264
(lp265
F14.6
aF4.5999999999999996
asS'286d'
p266
(lp267
F16.100000000000001
aF14.6
asS'4hk7'
p268
(lp269
F12.5
aF1.3999999999999999
asS'3s5r'
p270
(lp271
F5
aF2.2000000000000002
asS'3dei'
p272
(lp273
F22.100000000000001
aF9.1999999999999993
asS'4dlh'
p274
(lp275
F13.699999999999999
aF1.1000000000000001
asS'2pwj'
p276
(lp277
F31.199999999999999
aF18
asS'4f4b'
p278
(lp279
F15.300000000000001
aF3
asS'2iu7'
p280
(lp281
F20.699999999999999
aF8.4000000000000004
asS'2bhl'
p282
(lp283
F37.600000000000001
aF21
asS'4ah7'
p284
(lp285
F16
aF4.0999999999999996
asS'1xmp'
p286
(lp287
F14.199999999999999
aF2.2000000000000002
asS'2pwx'
p288
(lp289
F33.399999999999999
aF13.5
asS'3l2w'
p290
(lp291
F20.199999999999999
aF6.4000000000000004
asS'3pxw'
p292
(lp293
F11.4
aF2.2999999999999998
asS'4gtv'
p294
(lp295
F13.300000000000001
aF2
asS'4f4t'
p296
(lp297
F25.899999999999999
aF6
asS'2awp'
p298
(lp299
F9.5999999999999996
aF3.3999999999999999
asS'4jwp'
p300
(lp301
F11.699999999999999
aF1.6000000000000001
asS'3uej'
p302
(lp303
F11.5
aF2.3999999999999999
asS'1f8b'
p304
(lp305
F21
aF3.2000000000000002
asS'4lcs'
p306
(lp307
F15.300000000000001
aF3.7000000000000002
asS'4m3s'
p308
(lp309
F11.6
aF1.5
asS'2kwb'
p310
(lp311
F23.5
aF8.3000000000000007
asS'2ct4'
p312
(lp313
F26.199999999999999
aF1
asS'3fcu'
p314
(lp315
F15.5
aF0.40000000000000002
asS'3bnm'
p316
(lp317
F20.800000000000001
aF5.2000000000000002
asS'2p04'
p318
(lp319
F16.100000000000001
aF3.2000000000000002
asS'4fy8'
p320
(lp321
F37.399999999999999
aF15
asS'3uk2'
p322
(lp323
F12.4
aF1.3
asS'2gao'
p324
(lp325
F17
aF3.7000000000000002
asS'3eev'
p326
(lp327
F18.699999999999999
aF6
asS'4ga7'
p328
(lp329
F16.399999999999999
aF5
asS'1nd2'
p330
(lp331
F17.800000000000001
aF4.0999999999999996
asS'1bvz'
p332
(lp333
F19
aF4.7000000000000002
asS'2gbt'
p334
(lp335
F8.5999999999999996
aF0.90000000000000002
asS'4pep'
p336
(lp337
F20.100000000000001
aF3.6000000000000001
asS'2f0x'
p338
(lp339
F29.5
aF10.9
asS'3i7o'
p340
(lp341
F44.600000000000001
aF34.299999999999997
asS'1cb1'
p342
(lp343
F13
aF0.80000000000000004
asS'4io3'
p344
(lp345
F14.9
aF1.7
asS'1x2p'
p346
(lp347
F35.899999999999999
aF10.199999999999999
asS'1tmt'
p348
(lp349
F26.300000000000001
aF5.7000000000000002
asS'2i82'
p350
(lp351
F21.199999999999999
aF4.7999999999999998
asS'1aeg'
p352
(lp353
F12
aF1.3
asS'2kpj'
p354
(lp355
F19.699999999999999
aF2.6000000000000001
asS'4f39'
p356
(lp357
F11.199999999999999
aF3.1000000000000001
asS'2kcn'
p358
(lp359
F20
aF0
asS'2e08'
p360
(lp361
F20.100000000000001
aF4.4000000000000004
asS'1wsu'
p362
(lp363
F30.399999999999999
aF16
asS'2zfs'
p364
(lp365
F16.800000000000001
aF0.59999999999999998
asS'1ct0'
p366
(lp367
F9.9000000000000004
aF2.3999999999999999
asS'1ct1'
p368
(lp369
F22.199999999999999
aF6.5999999999999996
asS'1ct5'
p370
(lp371
F12.9
aF0.80000000000000004
asS'1gdr'
p372
(lp373
F9.5
aF0
asS'1t2q'
p374
(lp375
F19.699999999999999
aF3.1000000000000001
asS'3dab'
p376
(lp377
F17.899999999999999
aF1.8999999999999999
asS'1e4c'
p378
(lp379
F16.899999999999999
aF2.1000000000000001
asS'4gx9'
p380
(lp381
F18.300000000000001
aF5.7999999999999998
asS'3ndi'
p382
(lp383
F13.9
aF3.1000000000000001
asS'2aag'
p384
(lp385
F17.600000000000001
aF8.5
asS'1n64'
p386
(lp387
F29.699999999999999
aF9.4000000000000004
asS'4blp'
p388
(lp389
F10.5
aF1.1000000000000001
asS'1j98'
p390
(lp391
F13.1
aF4.0999999999999996
asS'2jm0'
p392
(lp393
F23.699999999999999
aF8.5999999999999996
asS'3iw4'
p394
(lp395
F30.899999999999999
aF12.699999999999999
asS'4b1l'
p396
(lp397
F10.300000000000001
aF1.2
asS'1hz3'
p398
(lp399
F5.5999999999999996
aF0
asS'3qrw'
p400
(lp401
F18.800000000000001
aF5.5999999999999996
asS'1d6d'
p402
(lp403
F49.899999999999999
aF33.600000000000001
asS'1xhc'
p404
(lp405
F10.6
aF0.90000000000000002
asS'1zf1'
p406
(lp407
F51.5
aF43
asS'1sg4'
p408
(lp409
F20.600000000000001
aF5.9000000000000004
asS'3e39'
p410
(lp411
F15.699999999999999
aF2.7000000000000002
asS'1xqy'
p412
(lp413
F54.299999999999997
aF32.5
asS'1w2l'
p414
(lp415
F33.899999999999999
aF12
asS'3fjw'
p416
(lp417
F27
aF6.4000000000000004
asS'1ef0'
p418
(lp419
F33.299999999999997
aF14.800000000000001
asS'1w2b'
p420
(lp421
F36.399999999999999
aF23.199999999999999
asS'3nd8'
p422
(lp423
F20.399999999999999
aF7.7000000000000002
asS'3qsc'
p424
(lp425
F19.300000000000001
aF6.7999999999999998
asS'3v2n'
p426
(lp427
F37.700000000000003
aF14.1
asS'3qsi'
p428
(lp429
F23.699999999999999
aF5.2999999999999998
asS'3rd9'
p430
(lp431
F17.100000000000001
aF6.0999999999999996
asS'1ni8'
p432
(lp433
F47.899999999999999
aF5.2999999999999998
asS'2fxj'
p434
(lp435
F11.5
aF2.2999999999999998
asS'4geb'
p436
(lp437
F9
aF0.69999999999999996
asS'2k8t'
p438
(lp439
F0
aF0
asS'1fbl'
p440
(lp441
F24.899999999999999
aF11.800000000000001
asS'2l1i'
p442
(lp443
F11.300000000000001
aF4.2000000000000002
asS'2p45'
p444
(lp445
F10.199999999999999
aF3.7999999999999998
asS'3oba'
p446
(lp447
F14.800000000000001
aF4.0999999999999996
asS'1m3x'
p448
(lp449
F23.199999999999999
aF7.9000000000000004
asS'4kb9'
p450
(lp451
F24
aF8.6999999999999993
asS'2qrx'
p452
(lp453
F25.899999999999999
aF13.300000000000001
asS'2klg'
p454
(lp455
F41.899999999999999
aF4.9000000000000004
asS'4m8u'
p456
(lp457
F12.4
aF1.8
asS'1ley'
p458
(lp459
F38.899999999999999
aF17.199999999999999
asS'2q60'
p460
(lp461
F15.9
aF1.6000000000000001
asS'4kez'
p462
(lp463
F22.199999999999999
aF9.0999999999999996
asS'3k3j'
p464
(lp465
F17.300000000000001
aF5
asS'2dme'
p466
(lp467
F30.600000000000001
aF5.7000000000000002
asS'1ztm'
p468
(lp469
F40.299999999999997
aF15.6
asS'2g2b'
p470
(lp471
F25.199999999999999
aF6.7000000000000002
asS'3bnx'
p472
(lp473
F27.800000000000001
aF11.9
asS'4ge1'
p474
(lp475
F16.300000000000001
aF4.0999999999999996
asS'2f4y'
p476
(lp477
F12.699999999999999
aF3.7000000000000002
asS'3qs6'
p478
(lp479
F27.100000000000001
aF9.1999999999999993
asS'4jbe'
p480
(lp481
F14
aF2.3999999999999999
asS'3aie'
p482
(lp483
F15.4
aF4.9000000000000004
asS'4fuv'
p484
(lp485
F17.800000000000001
aF3
asS'1x10'
p486
(lp487
F33.299999999999997
aF8.3000000000000007
asS'1i25'
p488
(lp489
F11.1
aF0
asS'1x12'
p490
(lp491
F29.100000000000001
aF6.5999999999999996
asS'3lqg'
p492
(lp493
F12.6
aF2.6000000000000001
asS'3uww'
p494
(lp495
F11.199999999999999
aF3
asS'1dl4'
p496
(lp497
F47.799999999999997
aF13.699999999999999
asS'1jat'
p498
(lp499
F26.399999999999999
aF5.2000000000000002
asS'1t5k'
p500
(lp501
F18.899999999999999
aF7.4000000000000004
asS'1u1z'
p502
(lp503
F30.199999999999999
aF8.1999999999999993
asS'3b2t'
p504
(lp505
F17
aF2.2999999999999998
asS'2dew'
p506
(lp507
F19.899999999999999
aF3.5
asS'1lbe'
p508
(lp509
F32.399999999999999
aF11.6
asS'1cx9'
p510
(lp511
F25.5
aF5.5999999999999996
asS'1w8p'
p512
(lp513
F24.899999999999999
aF10
asS'3paf'
p514
(lp515
F20.100000000000001
aF3.5
asS'4jio'
p516
(lp517
F4.7000000000000002
aF2.2999999999999998
asS'1pem'
p518
(lp519
F27.300000000000001
aF10.4
asS'1e1m'
p520
(lp521
F16.899999999999999
aF3.2999999999999998
asS'1a0d'
p522
(lp523
F20
aF5
asS'3m6n'
p524
(lp525
F25.399999999999999
aF12.1
asS'3u44'
p526
(lp527
F34.399999999999999
aF14.9
asS'3u45'
p528
(lp529
F16.899999999999999
aF2.3999999999999999
asS'1tuf'
p530
(lp531
F27
aF5.7999999999999998
asS'1hge'
p532
(lp533
F21.300000000000001
aF3.5
asS'1g9m'
p534
(lp535
F51.100000000000001
aF18.5
asS'1p7v'
p536
(lp537
F11.9
aF2.7999999999999998
asS'4ap8'
p538
(lp539
F19.5
aF3.2000000000000002
asS'1p7t'
p540
(lp541
F30.600000000000001
aF13.4
asS'1xu5'
p542
(lp543
F21.5
aF7
asS'2zil'
p544
(lp545
F7.9000000000000004
aF3.5
asS'2ijq'
p546
(lp547
F13.199999999999999
aF4.2999999999999998
asS'1d2v'
p548
(lp549
F24.899999999999999
aF4.5999999999999996
asS'3ar3'
p550
(lp551
F30.800000000000001
aF9.3000000000000007
asS'2lro'
p552
(lp553
F7.2999999999999998
aF0
asS'1qjd'
p554
(lp555
F22.100000000000001
aF4.9000000000000004
asS'1atd'
p556
(lp557
F22.699999999999999
aF3.2999999999999998
asS'1ema'
p558
(lp559
F20.399999999999999
aF5.5
asS'3hvd'
p560
(lp561
F34.600000000000001
aF10.199999999999999
asS'1srb'
p562
(lp563
F13.5
aF6
asS'2gr6'
p564
(lp565
F27.5
aF6.0999999999999996
asS'2ajz'
p566
(lp567
F28.699999999999999
aF8.9000000000000004
asS'2pwq'
p568
(lp569
F19.300000000000001
aF3.6000000000000001
asS'1j3l'
p570
(lp571
F35.100000000000001
aF12.1
asS'3mig'
p572
(lp573
F17.399999999999999
aF4.2000000000000002
asS'1j3a'
p574
(lp575
F19.899999999999999
aF7.4000000000000004
asS'1v0v'
p576
(lp577
F13.800000000000001
aF3.1000000000000001
asS'3et4'
p578
(lp579
F7.7999999999999998
aF2.3999999999999999
asS'2obl'
p580
(lp581
F20.399999999999999
aF8.3000000000000007
asS'2c1x'
p582
(lp583
F14.699999999999999
aF5.9000000000000004
asS'1v0a'
p584
(lp585
F7.2000000000000002
aF0.40000000000000002
asS'1yeh'
p586
(lp587
F27.800000000000001
aF6.7000000000000002
asS'1qc5'
p588
(lp589
F22.5
aF8
asS'3par'
p590
(lp591
F26.100000000000001
aF8.0999999999999996
asS'2bl8'
p592
(lp593
F22.399999999999999
aF5.5
asS'1xvc'
p594
(lp595
F20.199999999999999
aF6.7000000000000002
asS'3oi0'
p596
(lp597
F35.700000000000003
aF23.300000000000001
asS'2i0t'
p598
(lp599
F11.300000000000001
aF1.3999999999999999
asS'3it0'
p600
(lp601
F15.800000000000001
aF2.2000000000000002
asS'4kai'
p602
(lp603
F11.199999999999999
aF1.2
asS'1las'
p604
(lp605
F53.200000000000003
aF15.699999999999999
asS'1ms9'
p606
(lp607
F13
aF4
asS'2cqd'
p608
(lp609
F19.899999999999999
aF7.7000000000000002
asS'2vjt'
p610
(lp611
F14.199999999999999
aF4
asS'3lts'
p612
(lp613
F18.5
aF2.1000000000000001
asS'1mxy'
p614
(lp615
F16.699999999999999
aF3.6000000000000001
asS'3b7m'
p616
(lp617
F10
aF2.3999999999999999
asS'2g6j'
p618
(lp619
F22.300000000000001
aF7.2999999999999998
asS'4kng'
p620
(lp621
F30.300000000000001
aF10.9
asS'2g6n'
p622
(lp623
F21.399999999999999
aF6.5
asS'1tg9'
p624
(lp625
F19.300000000000001
aF4.9000000000000004
asS'3qw8'
p626
(lp627
F19.5
aF1.8999999999999999
asS'1p9a'
p628
(lp629
F24.899999999999999
aF6.2999999999999998
asS'3lms'
p630
(lp631
F14.300000000000001
aF2
asS'3e0j'
p632
(lp633
F49.299999999999997
aF29.199999999999999
asS'1ecd'
p634
(lp635
F16.5
aF2.8999999999999999
asS'1ukj'
p636
(lp637
F40.200000000000003
aF17.100000000000001
asS'2li6'
p638
(lp639
F30
aF0.5
asS'2ado'
p640
(lp641
F23.800000000000001
aF4.5
asS'4gn5'
p642
(lp643
F17.5
aF6.7999999999999998
asS'1plf'
p644
(lp645
F34.100000000000001
aF16
asS'1x57'
p646
(lp647
F8.9000000000000004
aF0
asS'2ciu'
p648
(lp649
F19.399999999999999
aF2
asS'2qlz'
p650
(lp651
F13.699999999999999
aF3.7999999999999998
asS'1rg0'
p652
(lp653
F26.600000000000001
aF9.8000000000000007
asS'2p14'
p654
(lp655
F12.699999999999999
aF3.3999999999999999
asS'2nsn'
p656
(lp657
F12
aF0.59999999999999998
asS'1bge'
p658
(lp659
F20.699999999999999
aF2.2999999999999998
asS'3hqe'
p660
(lp661
F34.5
aF11.1
asS'4aj0'
p662
(lp663
F28.600000000000001
aF10.300000000000001
asS'2e3v'
p664
(lp665
F14.4
aF3.5
asS'1yoz'
p666
(lp667
F20.600000000000001
aF7.7999999999999998
asS'1bli'
p668
(lp669
F14.5
aF2.8999999999999999
asS'2yt9'
p670
(lp671
F17.699999999999999
aF0.69999999999999996
asS'2rmh'
p672
(lp673
F18.5
aF11.800000000000001
asS'2flv'
p674
(lp675
F23.800000000000001
aF4
asS'1g7c'
p676
(lp677
F23.600000000000001
aF5.7999999999999998
asS'4daq'
p678
(lp679
F20.5
aF12.199999999999999
asS'1xpf'
p680
(lp681
F8
aF9.0999999999999996
asS'4daj'
p682
(lp683
F32.600000000000001
aF13.6
asS'4ius'
p684
(lp685
F15.800000000000001
aF9.5999999999999996
asS'3r1l'
p686
(lp687
F22.699999999999999
aF10.4
asS'1hb4'
p688
(lp689
F12.6
aF0.20000000000000001
asS'2avj'
p690
(lp691
F4.7999999999999998
aF5.0999999999999996
asS'4a81'
p692
(lp693
F21.699999999999999
aF9.5999999999999996
asS'266d'
p694
(lp695
F41.200000000000003
aF24.899999999999999
asS'3r0l'
p696
(lp697
F10.6
aF4.7999999999999998
asS'3c28'
p698
(lp699
F21.899999999999999
aF5.7000000000000002
asS'1q0z'
p700
(lp701
F15.699999999999999
aF4
asS'2o5y'
p702
(lp703
F17.300000000000001
aF4
asS'1wfk'
p704
(lp705
F30.100000000000001
aF14.1
asS'1qqu'
p706
(lp707
F23.800000000000001
aF12.6
asS'3qy0'
p708
(lp709
F18.800000000000001
aF7
asS'1exv'
p710
(lp711
F24.300000000000001
aF6.5
asS'3t6j'
p712
(lp713
F37.100000000000001
aF22.699999999999999
asS'2vu1'
p714
(lp715
F19.5
aF5.4000000000000004
asS'1egh'
p716
(lp717
F19.800000000000001
aF2.5
asS'1e28'
p718
(lp719
F28.199999999999999
aF12.699999999999999
asS'2bxz'
p720
(lp721
F13.9
aF2.7000000000000002
asS'2mca'
p722
(lp723
F11.9
aF0
asS'3f11'
p724
(lp725
F21
aF6.0999999999999996
asS'1hxp'
p726
(lp727
F21
aF7
asS'1dth'
p728
(lp729
F13.800000000000001
aF6.5999999999999996
asS'1nq6'
p730
(lp731
F4.7999999999999998
aF0.40000000000000002
asS'2yb9'
p732
(lp733
F9
aF1.8
asS'3bl1'
p734
(lp735
F25.699999999999999
aF10.300000000000001
asS'1gnv'
p736
(lp737
F12.4
aF3.2000000000000002
asS'3aa7'
p738
(lp739
F14.800000000000001
aF2.2000000000000002
asS'3ajk'
p740
(lp741
F20.100000000000001
aF18.300000000000001
asS'3rlh'
p742
(lp743
F12
aF5.0999999999999996
asS'3rlm'
p744
(lp745
F16.699999999999999
aF4.2000000000000002
asS'3bgv'
p746
(lp747
F15.699999999999999
aF4.7000000000000002
asS'3upj'
p748
(lp749
F21.300000000000001
aF3.2999999999999998
asS'4g6m'
p750
(lp751
F6.5999999999999996
aF0
asS'3n54'
p752
(lp753
F19.399999999999999
aF2.7999999999999998
asS'1cn7'
p754
(lp755
F13
aF0
asS'3gam'
p756
(lp757
F24.899999999999999
aF11.800000000000001
asS'3cod'
p758
(lp759
F34
aF7.4000000000000004
asS'2kdd'
p760
(lp761
F26.899999999999999
aF1.1000000000000001
asS'1rlv'
p762
(lp763
F42.399999999999999
aF16.399999999999999
asS'1p2t'
p764
(lp765
F15.5
aF2.7999999999999998
asS'3fwx'
p766
(lp767
F11.300000000000001
aF2.7999999999999998
asS'2p09'
p768
(lp769
F9.5999999999999996
aF1.6000000000000001
asS'1q8z'
p770
(lp771
F32.799999999999997
aF11.300000000000001
asS'3aar'
p772
(lp773
F12.4
aF2.6000000000000001
asS'2nww'
p774
(lp775
F16.600000000000001
aF3.6000000000000001
asS'1kk0'
p776
(lp777
F23.5
aF5.7999999999999998
asS'1h0w'
p778
(lp779
F28.5
aF15.9
asS'2lwx'
p780
(lp781
F23.5
aF9
asS'2bnj'
p782
(lp783
F13.1
aF2.6000000000000001
asS'2pqw'
p784
(lp785
F13.800000000000001
aF1.3999999999999999
asS'3d2t'
p786
(lp787
F15
aF1.7
asS'1lvf'
p788
(lp789
F19.5
aF5.7000000000000002
asS'2c7y'
p790
(lp791
F14.199999999999999
aF3.1000000000000001
asS'1lvn'
p792
(lp793
F26.399999999999999
aF8.1999999999999993
asS'3hub'
p794
(lp795
F19.300000000000001
aF6.5
asS'4ixh'
p796
(lp797
F16.699999999999999
aF2.8999999999999999
asS'2zqq'
p798
(lp799
F29
aF6.5999999999999996
asS'1prw'
p800
(lp801
F27.399999999999999
aF8.3000000000000007
asS'2c0m'
p802
(lp803
F20.100000000000001
aF5.2999999999999998
asS'2o7w'
p804
(lp805
F1.8
aF0
asS'3r5q'
p806
(lp807
F39.700000000000003
aF26.399999999999999
asS'2jjt'
p808
(lp809
F18
aF1.3999999999999999
asS'1xtp'
p810
(lp811
F10.699999999999999
aF0.80000000000000004
asS'4epy'
p812
(lp813
F14.300000000000001
aF1.8
asS'2oaw'
p814
(lp815
F17.699999999999999
aF3.6000000000000001
asS'2z59'
p816
(lp817
F15.5
aF4
asS'3ui2'
p818
(lp819
F29.699999999999999
aF12.9
asS'1euv'
p820
(lp821
F19.300000000000001
aF3.2999999999999998
asS'1cci'
p822
(lp823
F14.699999999999999
aF0.40000000000000002
asS'1ao0'
p824
(lp825
F33
aF8.4000000000000004
asS'1noq'
p826
(lp827
F16.300000000000001
aF0
asS'3syq'
p828
(lp829
F13.199999999999999
aF4.2000000000000002
asS'4e2y'
p830
(lp831
F15.4
aF4.0999999999999996
asS'1cy8'
p832
(lp833
F25.199999999999999
aF10.699999999999999
asS'2v2x'
p834
(lp835
F10.1
aF3.1000000000000001
asS'4gdv'
p836
(lp837
F16.699999999999999
aF3.5
asS'1qk6'
p838
(lp839
F21.800000000000001
aF3.8999999999999999
asS'4l8j'
p840
(lp841
F5.4000000000000004
aF0.40000000000000002
asS'4dg8'
p842
(lp843
F19
aF5.2000000000000002
asS'4fi9'
p844
(lp845
F16.800000000000001
aF6.7999999999999998
asS'1k49'
p846
(lp847
F21.699999999999999
aF2.8999999999999999
asS'1ldc'
p848
(lp849
F37.799999999999997
aF10.6
asS'3gsq'
p850
(lp851
F10.4
aF1.6000000000000001
asS'3gx1'
p852
(lp853
F23.399999999999999
aF5.5
asS'3gsk'
p854
(lp855
F12
aF14.300000000000001
asS'2zp1'
p856
(lp857
F22.100000000000001
aF3.7999999999999998
asS'2z5o'
p858
(lp859
F15.4
aF5.7000000000000002
asS'2xe5'
p860
(lp861
F10.1
aF3.3999999999999999
asS'3bya'
p862
(lp863
F24.800000000000001
aF11.6
asS'3q9y'
p864
(lp865
F14
aF2.8999999999999999
asS'1us8'
p866
(lp867
F23.100000000000001
aF5.7000000000000002
asS'1bo8'
p868
(lp869
F22.600000000000001
aF4.7000000000000002
asS'3pnl'
p870
(lp871
F20.5
aF6.5999999999999996
asS'1jd1'
p872
(lp873
F22.699999999999999
aF5.5999999999999996
asS'4kis'
p874
(lp875
F40.5
aF23.800000000000001
asS'4lu0'
p876
(lp877
F20.100000000000001
aF5.2000000000000002
asS'2y76'
p878
(lp879
F10.4
aF7.4000000000000004
asS'1w01'
p880
(lp881
F27.600000000000001
aF8
asS'1e97'
p882
(lp883
F31.199999999999999
aF12.800000000000001
asS'2ntt'
p884
(lp885
F16.300000000000001
aF9.5
asS'2iwr'
p886
(lp887
F12.1
aF7.9000000000000004
asS'1isy'
p888
(lp889
F17.699999999999999
aF5
asS'3rpz'
p890
(lp891
F13.300000000000001
aF0.20000000000000001
asS'3nc9'
p892
(lp893
F21.800000000000001
aF7.4000000000000004
asS'3bkz'
p894
(lp895
F13.1
aF5.2000000000000002
asS'4i4v'
p896
(lp897
F10.6
aF1.6000000000000001
asS'2hyx'
p898
(lp899
F16.899999999999999
aF2.1000000000000001
asS'4h2v'
p900
(lp901
F15.300000000000001
aF2.2999999999999998
asS'1yyl'
p902
(lp903
F34.200000000000003
aF11.800000000000001
asS'2m0y'
p904
(lp905
F39
aF9
asS'2a1x'
p906
(lp907
F14.6
aF3.1000000000000001
asS'1w0p'
p908
(lp909
F18.300000000000001
aF3.6000000000000001
asS'1od2'
p910
(lp911
F33.399999999999999
aF14.1
asS'1aj7'
p912
(lp913
F17.699999999999999
aF2.2999999999999998
asS'3sj4'
p914
(lp915
F29.300000000000001
aF12.800000000000001
asS'4efo'
p916
(lp917
F20.399999999999999
aF2.5
asS'1d4z'
p918
(lp919
F17.5
aF5.7000000000000002
asS'3on0'
p920
(lp921
F36.399999999999999
aF29.300000000000001
asS'3q43'
p922
(lp923
F11
aF1.2
asS'2zd1'
p924
(lp925
F22.800000000000001
aF6.0999999999999996
asS'3q47'
p926
(lp927
F16.699999999999999
aF2.2000000000000002
asS'1crz'
p928
(lp929
F32.600000000000001
aF11.800000000000001
asS'2d54'
p930
(lp931
F27.199999999999999
aF11.300000000000001
asS'1a8n'
p932
(lp933
F44.100000000000001
aF20.899999999999999
asS'1dy5'
p934
(lp935
F23.699999999999999
aF9.4000000000000004
asS'1po8'
p936
(lp937
F26.800000000000001
aF16.399999999999999
asS'3sav'
p938
(lp939
F21.600000000000001
aF3.7999999999999998
asS'1ywb'
p940
(lp941
F12.199999999999999
aF1.8999999999999999
asS'2lx5'
p942
(lp943
F14.9
aF0
asS'2ohx'
p944
(lp945
F11.800000000000001
aF1.3999999999999999
asS'1o6y'
p946
(lp947
F17.100000000000001
aF2.6000000000000001
asS'2kib'
p948
(lp949
F22.800000000000001
aF1.2
asS'1kks'
p950
(lp951
F8.1999999999999993
aF0
asS'1jvl'
p952
(lp953
F16.899999999999999
aF2
asS'1y0j'
p954
(lp955
F28.600000000000001
aF9.6999999999999993
asS'1o9j'
p956
(lp957
F10.300000000000001
aF1.1000000000000001
asS'3un1'
p958
(lp959
F20.600000000000001
aF8
asS'4lgl'
p960
(lp961
F14.4
aF1.3999999999999999
asS'3ntb'
p962
(lp963
F10.199999999999999
aF0.80000000000000004
asS'3lz3'
p964
(lp965
F14.4
aF3
asS'4l5p'
p966
(lp967
F11.800000000000001
aF1.5
asS'2vk9'
p968
(lp969
F13.9
aF1.8999999999999999
asS'3r9s'
p970
(lp971
F12
aF1.7
asS'1jjf'
p972
(lp973
F21.399999999999999
aF6.4000000000000004
asS'1ge4'
p974
(lp975
F11.9
aF2.5
asS'2q46'
p976
(lp977
F28.699999999999999
aF10.4
asS'3awd'
p978
(lp979
F10.699999999999999
aF1.3
asS'1to5'
p980
(lp981
F15.9
aF2.5
asS'2dqq'
p982
(lp983
F30.300000000000001
aF17.399999999999999
asS'3hko'
p984
(lp985
F12.300000000000001
aF2.2999999999999998
asS'2xpo'
p986
(lp987
F15.6
aF2.6000000000000001
asS'1f63'
p988
(lp989
F12.4
aF1.2
asS'4gof'
p990
(lp991
F17
aF4.2999999999999998
asS'2gha'
p992
(lp993
F14.199999999999999
aF1.5
asS'1s3k'
p994
(lp995
F25.300000000000001
aF5.9000000000000004
asS'1kf6'
p996
(lp997
F30.5
aF11.4
asS'1hto'
p998
(lp999
F21.5
aF7.0999999999999996
asS'2w0g'
p1000
(lp1001
F22.600000000000001
aF4.7000000000000002
asS'1kf0'
p1002
(lp1003
F24.199999999999999
aF4.7000000000000002
asS'3t52'
p1004
(lp1005
F10.4
aF3.1000000000000001
asS'2k8b'
p1006
(lp1007
F19.300000000000001
aF2.3999999999999999
asS'2l38'
p1008
(lp1009
F17.100000000000001
aF1.5
asS'2wbo'
p1010
(lp1011
F11.199999999999999
aF2.5
asS'3ppv'
p1012
(lp1013
F29.300000000000001
aF6.2999999999999998
asS'3qov'
p1014
(lp1015
F8.6999999999999993
aF0.90000000000000002
asS'2ew3'
p1016
(lp1017
F30.100000000000001
aF5.4000000000000004
asS'2xtk'
p1018
(lp1019
F14.5
aF2.3999999999999999
asS'2gf0'
p1020
(lp1021
F15.5
aF3.6000000000000001
asS'2b48'
p1022
(lp1023
F32.700000000000003
aF26.899999999999999
asS'2jym'
p1024
(lp1025
F1.5
aF0
asS'2jyu'
p1026
(lp1027
F25.199999999999999
aF1.1000000000000001
asS'2r0p'
p1028
(lp1029
F19.600000000000001
aF4.5999999999999996
asS'3g9n'
p1030
(lp1031
F23.399999999999999
aF11.5
asS'1h3f'
p1032
(lp1033
F22
aF6.5999999999999996
asS'1khb'
p1034
(lp1035
F17.199999999999999
aF2.2000000000000002
asS'1frk'
p1036
(lp1037
F26.5
aF2.5
asS'4jkv'
p1038
(lp1039
F7.0999999999999996
aF3.2000000000000002
asS'4k9d'
p1040
(lp1041
F15.5
aF1.8999999999999999
asS'1khh'
p1042
(lp1043
F31
aF15.4
asS'3doc'
p1044
(lp1045
F20.899999999999999
aF8.8000000000000007
asS'2bol'
p1046
(lp1047
F25.800000000000001
aF6.2999999999999998
asS'2pvz'
p1048
(lp1049
F9.9000000000000004
aF3
asS'3sbg'
p1050
(lp1051
F25.300000000000001
aF4
asS'2xja'
p1052
(lp1053
F27.600000000000001
aF11.199999999999999
asS'1frx'
p1054
(lp1055
F27.800000000000001
aF3.1000000000000001
asS'2okx'
p1056
(lp1057
F20.300000000000001
aF5.4000000000000004
asS'1npn'
p1058
(lp1059
F18.800000000000001
aF6.5
asS'2o0u'
p1060
(lp1061
F20.100000000000001
aF5.5999999999999996
asS'2bfh'
p1062
(lp1063
F27.199999999999999
aF17.899999999999999
asS'9jdw'
p1064
(lp1065
F28.5
aF14.4
asS'3o29'
p1066
(lp1067
F18
aF7.2000000000000002
asS'3ids'
p1068
(lp1069
F12.5
aF3.6000000000000001
asS'2q98'
p1070
(lp1071
F22.399999999999999
aF7.7000000000000002
asS'1p59'
p1072
(lp1073
F29.5
aF7.9000000000000004
asS'1fks'
p1074
(lp1075
F21.699999999999999
aF13.800000000000001
asS'2jox'
p1076
(lp1077
F7.0999999999999996
aF0
asS'1whg'
p1078
(lp1079
F22.399999999999999
aF1.2
asS'3cj8'
p1080
(lp1081
F12
aF2.6000000000000001
asS'2olj'
p1082
(lp1083
F39.399999999999999
aF19
asS'3fdq'
p1084
(lp1085
F16.399999999999999
aF2
asS'2f27'
p1086
(lp1087
F23.300000000000001
aF4
asS'3k06'
p1088
(lp1089
F30.5
aF10.199999999999999
asS'2w3d'
p1090
(lp1091
F12.800000000000001
aF3.2999999999999998
asS'1ibu'
p1092
(lp1093
F28.300000000000001
aF7.7999999999999998
asS'2oyn'
p1094
(lp1095
F11.300000000000001
aF0.80000000000000004
asS'4hj9'
p1096
(lp1097
F14.1
aF1.8999999999999999
asS'4fxf'
p1098
(lp1099
F8.5
aF1.3
asS'3o90'
p1100
(lp1101
F4.7000000000000002
aF0.59999999999999998
asS'4glt'
p1102
(lp1103
F31.699999999999999
aF13.699999999999999
asS'3br5'
p1104
(lp1105
F14.4
aF4.2000000000000002
asS'1wq8'
p1106
(lp1107
F20.899999999999999
aF5.5999999999999996
asS'3gpi'
p1108
(lp1109
F14.9
aF4.2000000000000002
asS'3j21'
p1110
(lp1111
F20.100000000000001
aF5.7999999999999998
asS'4j5w'
p1112
(lp1113
F24.399999999999999
aF6.7999999999999998
asS'3j28'
p1114
(lp1115
F20
aF9.5
asS'3gkw'
p1116
(lp1117
F30.800000000000001
aF15.9
asS'2a83'
p1118
(lp1119
F11.4
aF4
asS'3rfu'
p1120
(lp1121
F46.200000000000003
aF20.600000000000001
asS'3spa'
p1122
(lp1123
F10
aF1.8999999999999999
asS'2obg'
p1124
(lp1125
F13.300000000000001
aF1.6000000000000001
asS'3o6m'
p1126
(lp1127
F18.600000000000001
aF7.9000000000000004
asS'2gk2'
p1128
(lp1129
F34.399999999999999
aF12.6
asS'3s6y'
p1130
(lp1131
F24.199999999999999
aF4.5
asS'1bas'
p1132
(lp1133
F18.800000000000001
aF1.6000000000000001
asS'1nwl'
p1134
(lp1135
F10.4
aF2.6000000000000001
asS'3gp3'
p1136
(lp1137
F14.1
aF6
asS'1kab'
p1138
(lp1139
F16.300000000000001
aF1.3999999999999999
asS'3l10'
p1140
(lp1141
F37.700000000000003
aF29.100000000000001
asS'3b4r'
p1142
(lp1143
F41.799999999999997
aF22.300000000000001
asS'1kq2'
p1144
(lp1145
F24.5
aF10.800000000000001
asS'3gbs'
p1146
(lp1147
F18.600000000000001
aF2.6000000000000001
as.