(dp1
S'1es6'
p2
(lp3
F9.8000000000000007
aF7.2999999999999998
asS'3dby'
p4
(lp5
F6.2999999999999998
aF5
asS'3d98'
p6
(lp7
F9.4000000000000004
aF5.5
asS'1t8e'
p8
(lp9
F12.1
aF10.300000000000001
asS'1smh'
p10
(lp11
F1.6000000000000001
aF2.3999999999999999
asS'4kqt'
p12
(lp13
F0.40000000000000002
aF0.40000000000000002
asS'1j80'
p14
(lp15
F11
aF10.1
asS'3ovv'
p16
(lp17
F0.29999999999999999
aF0.69999999999999996
asS'2pae'
p18
(lp19
F20.100000000000001
aF18.300000000000001
asS'2ioa'
p20
(lp21
F13.9
aF12.800000000000001
asS'4b0z'
p22
(lp23
F5.2999999999999998
aF4.5
asS'3u60'
p24
(lp25
F29.800000000000001
aF25.899999999999999
asS'4ew4'
p26
(lp27
F14
aF12.4
asS'2jlg'
p28
(lp29
F17.699999999999999
aF13.1
asS'3kxc'
p30
(lp31
F8.5
aF2.7999999999999998
asS'4fot'
p32
(lp33
F7
aF5.7000000000000002
asS'1okc'
p34
(lp35
F13.5
aF9.5
asS'1ehd'
p36
(lp37
F4
aF1.7
asS'1nqv'
p38
(lp39
F2.1000000000000001
aF0.80000000000000004
asS'3nkh'
p40
(lp41
F9.1999999999999993
aF6
asS'2j9j'
p42
(lp43
F14.4
aF4.0999999999999996
asS'1gb3'
p44
(lp45
F2.6000000000000001
aF3
asS'1g5n'
p46
(lp47
F3.6000000000000001
aF3.6000000000000001
asS'2gp0'
p48
(lp49
F4.2999999999999998
aF3
asS'385d'
p50
(lp51
F48.799999999999997
aF38.5
asS'1j1l'
p52
(lp53
F6.5
aF5.2000000000000002
asS'1tw2'
p54
(lp55
F5.9000000000000004
aF6
asS'2xza'
p56
(lp57
F13.1
aF10.1
asS'2xzc'
p58
(lp59
F15.699999999999999
aF11.800000000000001
asS'2i9p'
p60
(lp61
F2.1000000000000001
aF1.6000000000000001
asS'3qiw'
p62
(lp63
F13.699999999999999
aF9.6999999999999993
asS'3sl1'
p64
(lp65
F5.7999999999999998
aF5
asS'4acr'
p66
(lp67
F4.2000000000000002
aF2.2000000000000002
asS'4lor'
p68
(lp69
F2.8999999999999999
aF1.3999999999999999
asS'1r2y'
p70
(lp71
F11.199999999999999
aF10.5
asS'1be7'
p72
(lp73
F1.2
aF1.3
asS'3q54'
p74
(lp75
F3.3999999999999999
aF1.8999999999999999
asS'2we2'
p76
(lp77
F7.9000000000000004
aF4.5
asS'4ftq'
p78
(lp79
F1.2
aF1
asS'1rej'
p80
(lp81
F2.7000000000000002
aF1.7
asS'1ea3'
p82
(lp83
F20.600000000000001
aF16.5
asS'2q21'
p84
(lp85
F27
aF25.300000000000001
asS'1gkc'
p86
(lp87
F6.0999999999999996
aF4.9000000000000004
asS'1a7b'
p88
(lp89
F22.5
aF8.8000000000000007
asS'2vst'
p90
(lp91
F7.2000000000000002
aF5
asS'2vl5'
p92
(lp93
F5.7000000000000002
aF5
asS'3j1b'
p94
(lp95
F0.69999999999999996
aF0.29999999999999999
asS'4kc5'
p96
(lp97
F1.6000000000000001
aF1.5
asS'4e2k'
p98
(lp99
F3.1000000000000001
aF2.6000000000000001
asS'2psh'
p100
(lp101
F2.2999999999999998
aF2.2000000000000002
asS'2o14'
p102
(lp103
F4.4000000000000004
aF3.8999999999999999
asS'4g43'
p104
(lp105
F7.7000000000000002
aF6.2000000000000002
asS'3p84'
p106
(lp107
F2.3999999999999999
aF1.6000000000000001
asS'2psx'
p108
(lp109
F14
aF9
asS'3myo'
p110
(lp111
F2.6000000000000001
aF2.5
asS'2y2p'
p112
(lp113
F6.5999999999999996
aF4.5
asS'2y2w'
p114
(lp115
F3
aF2.1000000000000001
asS'2c9j'
p116
(lp117
F6.7999999999999998
aF7.4000000000000004
asS'4aqv'
p118
(lp119
F2.7999999999999998
aF2.1000000000000001
asS'1g1f'
p120
(lp121
F1
aF0.20000000000000001
asS'1rgy'
p122
(lp123
F3.7000000000000002
aF2.8999999999999999
asS'3kdc'
p124
(lp125
F2.1000000000000001
aF4.2000000000000002
asS'4lao'
p126
(lp127
F1.7
aF1.1000000000000001
asS'4hp9'
p128
(lp129
F5.7000000000000002
aF4.4000000000000004
asS'1o3k'
p130
(lp131
F1.6000000000000001
aF1.8
asS'1ec2'
p132
(lp133
F3.8999999999999999
aF4
asS'3eyd'
p134
(lp135
F6.5
aF5
asS'3qnq'
p136
(lp137
F21.399999999999999
aF18
asS'2ode'
p138
(lp139
F2.6000000000000001
aF2.1000000000000001
asS'3pjf'
p140
(lp141
F4.7999999999999998
aF3.8999999999999999
asS'3eyq'
p142
(lp143
F24.399999999999999
aF19.899999999999999
asS'1el8'
p144
(lp145
F5.0999999999999996
aF3.7999999999999998
asS'3d96'
p146
(lp147
F1.8999999999999999
aF3.2000000000000002
asS'3ih6'
p148
(lp149
F5.7000000000000002
aF6.7000000000000002
asS'2ayq'
p150
(lp151
F7.0999999999999996
aF5.4000000000000004
asS'1m2p'
p152
(lp153
F5.7999999999999998
aF4.4000000000000004
asS'3t4p'
p154
(lp155
F5.9000000000000004
aF3.7000000000000002
asS'2hl5'
p156
(lp157
F7.5
aF5.7000000000000002
asS'4ip7'
p158
(lp159
F6.5
aF6.2999999999999998
asS'3qrl'
p160
(lp161
F4.9000000000000004
aF3.8999999999999999
asS'1i5l'
p162
(lp163
F23.5
aF19
asS'1ayw'
p164
(lp165
F8.9000000000000004
aF9.5999999999999996
asS'3qxo'
p166
(lp167
F9.6999999999999993
aF7.7000000000000002
asS'3de4'
p168
(lp169
F13.5
aF4.0999999999999996
asS'3m58'
p170
(lp171
F3.5
aF1.8999999999999999
asS'2ecf'
p172
(lp173
F9
aF7.5
asS'7prn'
p174
(lp175
F6.2999999999999998
aF4.0999999999999996
asS'3o5o'
p176
(lp177
F14.300000000000001
aF4.2999999999999998
asS'4mpq'
p178
(lp179
F0.40000000000000002
aF0.40000000000000002
asS'3ia7'
p180
(lp181
F4.5
aF3.7999999999999998
asS'3q2x'
p182
(lp183
F10.4
aF0
asS'3d02'
p184
(lp185
F8
aF9.1999999999999993
asS'1riv'
p186
(lp187
F3.1000000000000001
aF2.7000000000000002
asS'3ekh'
p188
(lp189
F1.5
aF1.8999999999999999
asS'2cpz'
p190
(lp191
F41.799999999999997
aF15.300000000000001
asS'1ki0'
p192
(lp193
F7.4000000000000004
aF7.9000000000000004
asS'2rhu'
p194
(lp195
F4.7999999999999998
aF4.2999999999999998
asS'3qm8'
p196
(lp197
F29.300000000000001
aF12.300000000000001
asS'1xdc'
p198
(lp199
F8.4000000000000004
aF5.7000000000000002
asS'1xda'
p200
(lp201
F26.5
aF6.9000000000000004
asS'3krg'
p202
(lp203
F6.2999999999999998
aF8.0999999999999996
asS'3is8'
p204
(lp205
F9.0999999999999996
aF8.0999999999999996
asS'1acb'
p206
(lp207
F16.699999999999999
aF11.5
asS'2irp'
p208
(lp209
F19.5
aF14.4
asS'3um0'
p210
(lp211
F15.5
aF11.300000000000001
asS'3m5c'
p212
(lp213
F5
aF4
asS'2bhp'
p214
(lp215
F2.1000000000000001
aF1.8
asS'4bcc'
p216
(lp217
F2.2000000000000002
aF2.5
asS'4dlz'
p218
(lp219
F1.7
aF2.2000000000000002
asS'2f8o'
p220
(lp221
F2.1000000000000001
aF1
asS'2qm1'
p222
(lp223
F8.8000000000000007
aF7.7999999999999998
asS'3zn7'
p224
(lp225
F37.700000000000003
aF35.399999999999999
asS'3bre'
p226
(lp227
F11.5
aF9.5999999999999996
asS'2jyk'
p228
(lp229
F4.4000000000000004
aF7.5
asS'3fck'
p230
(lp231
F4.5
aF2.2000000000000002
asS'2p09'
p232
(lp233
F3.7000000000000002
aF1.6000000000000001
asS'1s1w'
p234
(lp235
F22.600000000000001
aF17.699999999999999
asS'3eer'
p236
(lp237
F2.2000000000000002
aF2.2999999999999998
asS'2bc5'
p238
(lp239
F17.899999999999999
aF9.0999999999999996
asS'3mkw'
p240
(lp241
F18.899999999999999
aF15.699999999999999
asS'3qvu'
p242
(lp243
F16.699999999999999
aF13.6
asS'1krc'
p244
(lp245
F4.2000000000000002
aF2.8999999999999999
asS'1pt9'
p246
(lp247
F8.3000000000000007
aF6.7999999999999998
asS'3cph'
p248
(lp249
F1.8999999999999999
aF2
asS'2plf'
p250
(lp251
F25.899999999999999
aF22.300000000000001
asS'1qui'
p252
(lp253
F4.2000000000000002
aF3.8999999999999999
asS'1lfk'
p254
(lp255
F4.7999999999999998
aF3.2000000000000002
asS'2dab'
p256
(lp257
F4
aF1.3
asS'3lc9'
p258
(lp259
F9.4000000000000004
aF6.7000000000000002
asS'3iwz'
p260
(lp261
F10.9
aF8.8000000000000007
asS'4ed8'
p262
(lp263
F2.7999999999999998
aF2.2000000000000002
asS'2xi3'
p264
(lp265
F2.3999999999999999
aF2.5
asS'3nm8'
p266
(lp267
F16.5
aF14.1
asS'2a84'
p268
(lp269
F1.1000000000000001
aF0.5
asS'2lve'
p270
(lp271
F2.2999999999999998
aF1.8
asS'1e4l'
p272
(lp273
F6.4000000000000004
aF5.5999999999999996
asS'4ecw'
p274
(lp275
F3.6000000000000001
aF1.6000000000000001
asS'1unc'
p276
(lp277
F6.2000000000000002
aF20.800000000000001
asS'1jst'
p278
(lp279
F19.300000000000001
aF14.1
asS'1ywd'
p280
(lp281
F4.7999999999999998
aF3.6000000000000001
asS'3ew3'
p282
(lp283
F19.800000000000001
aF14.4
asS'2y1j'
p284
(lp285
F2.6000000000000001
aF1.8999999999999999
asS'3vm8'
p286
(lp287
F6.2999999999999998
aF5
asS'1zf1'
p288
(lp289
F58
aF43
asS'3vce'
p290
(lp291
F3.3999999999999999
aF2.8999999999999999
asS'3cgq'
p292
(lp293
F2.2999999999999998
aF3.7000000000000002
asS'1z3m'
p294
(lp295
F17.199999999999999
aF16.600000000000001
asS'6std'
p296
(lp297
F2.6000000000000001
aF2.2999999999999998
asS'4bl0'
p298
(lp299
F1.5
aF1.5
asS'3fjv'
p300
(lp301
F2.6000000000000001
aF2.5
asS'3g2a'
p302
(lp303
F12.5
aF8
asS'4fcc'
p304
(lp305
F2.6000000000000001
aF4.0999999999999996
asS'2v1x'
p306
(lp307
F2.7999999999999998
aF3.6000000000000001
asS'3txm'
p308
(lp309
F10.199999999999999
aF6.2000000000000002
asS'1m3q'
p310
(lp311
F5.9000000000000004
aF5.9000000000000004
asS'2fxj'
p312
(lp313
F2.2999999999999998
aF2.2999999999999998
asS'4hza'
p314
(lp315
F5.5999999999999996
aF3.2000000000000002
asS'1rcc'
p316
(lp317
F8.5999999999999996
aF4.4000000000000004
asS'2qry'
p318
(lp319
F9.0999999999999996
aF8.3000000000000007
asS'4g78'
p320
(lp321
F21.600000000000001
aF17.100000000000001
asS'3rm3'
p322
(lp323
F4.4000000000000004
aF3.1000000000000001
asS'2i4h'
p324
(lp325
F7
aF4.0999999999999996
asS'3src'
p326
(lp327
F2.7999999999999998
aF2.5
asS'1s5w'
p328
(lp329
F1.3
aF1.2
asS'4fc8'
p330
(lp331
F6
aF4
asS'2cud'
p332
(lp333
F33.700000000000003
aF11.4
asS'1lbz'
p334
(lp335
F25.800000000000001
aF26.699999999999999
asS'1huc'
p336
(lp337
F10.9
aF5.7999999999999998
asS'1t5t'
p338
(lp339
F8.4000000000000004
aF7.4000000000000004
asS'3uh8'
p340
(lp341
F1.1000000000000001
aF0
asS'1w8x'
p342
(lp343
F64.200000000000003
aF34.799999999999997
asS'4fyx'
p344
(lp345
F2.2000000000000002
aF1.8999999999999999
asS'4jim'
p346
(lp347
F3.1000000000000001
aF2.7999999999999998
asS'2zq7'
p348
(lp349
F5.0999999999999996
aF5
asS'4hcr'
p350
(lp351
F6.7999999999999998
aF6.5
asS'3pp1'
p352
(lp353
F5
aF4.2999999999999998
asS'3ztv'
p354
(lp355
F2.8999999999999999
aF2.2999999999999998
asS'1fpn'
p356
(lp357
F7.4000000000000004
aF5.4000000000000004
asS'1p7t'
p358
(lp359
F15.300000000000001
aF13.4
asS'3ke3'
p360
(lp361
F0.5
aF0.90000000000000002
asS'1qcz'
p362
(lp363
F5
aF4.9000000000000004
asS'1vsc'
p364
(lp365
F11.9
aF9.6999999999999993
asS'2qu0'
p366
(lp367
F8.9000000000000004
aF6.2999999999999998
asS'2c14'
p368
(lp369
F9.6999999999999993
aF8.4000000000000004
asS'3op2'
p370
(lp371
F2.7000000000000002
aF2
asS'4c1b'
p372
(lp373
F0.5
aF0.5
asS'1rq4'
p374
(lp375
F6.7000000000000002
aF5.2000000000000002
asS'4b5n'
p376
(lp377
F3.7000000000000002
aF3.7999999999999998
asS'1qjp'
p378
(lp379
F38.399999999999999
aF19.100000000000001
asS'4aw2'
p380
(lp381
F2.6000000000000001
aF2
asS'2dpt'
p382
(lp383
F13.699999999999999
aF11.9
asS'4aej'
p384
(lp385
F8.9000000000000004
aF7
asS'2kx0'
p386
(lp387
F5.2999999999999998
aF0
asS'1lap'
p388
(lp389
F7.0999999999999996
aF4.5
asS'1u58'
p390
(lp391
F5.2000000000000002
aF3.6000000000000001
asS'1abi'
p392
(lp393
F40
aF32.5
asS'1u2q'
p394
(lp395
F9.8000000000000007
aF8
asS'2p1z'
p396
(lp397
F8.9000000000000004
aF8
asS'1jlk'
p398
(lp399
F12
aF9.6999999999999993
asS'4gnd'
p400
(lp401
F4.2000000000000002
aF2
asS'3oid'
p402
(lp403
F3.2000000000000002
aF2.8999999999999999
asS'3js8'
p404
(lp405
F10.1
aF7.2000000000000002
asS'3oia'
p406
(lp407
F4.2000000000000002
aF2.8999999999999999
asS'2cx4'
p408
(lp409
F23.399999999999999
aF18.5
asS'2g6d'
p410
(lp411
F6.2999999999999998
aF5
asS'2f8n'
p412
(lp413
F20
aF17.800000000000001
asS'3v8x'
p414
(lp415
F12.4
aF6.2999999999999998
asS'3oiq'
p416
(lp417
F10.4
aF7.7000000000000002
asS'1ukk'
p418
(lp419
F3.8999999999999999
aF4.7999999999999998
asS'1t1o'
p420
(lp421
F0
aF0
asS'1t1x'
p422
(lp423
F3.7000000000000002
aF3.2999999999999998
asS'1obw'
p424
(lp425
F4.4000000000000004
aF2.7999999999999998
asS'2kar'
p426
(lp427
F0
aF0
asS'2ady'
p428
(lp429
F11.6
aF9.8000000000000007
asS'3hz8'
p430
(lp431
F1.2
aF1.3
asS'1f76'
p432
(lp433
F6.2999999999999998
aF6.2000000000000002
asS'2znv'
p434
(lp435
F3
aF2.5
asS'1nzm'
p436
(lp437
F3.3999999999999999
aF3.1000000000000001
asS'2div'
p438
(lp439
F37.700000000000003
aF14.300000000000001
asS'2aix'
p440
(lp441
F7.7999999999999998
aF6.2999999999999998
asS'4l45'
p442
(lp443
F13.6
aF9.9000000000000004
asS'2chd'
p444
(lp445
F11.4
aF10.800000000000001
asS'1k0n'
p446
(lp447
F5
aF4.5
asS'1sve'
p448
(lp449
F1.3999999999999999
aF1.5
asS'1w3q'
p450
(lp451
F3.2000000000000002
aF3.7999999999999998
asS'1jk0'
p452
(lp453
F16.800000000000001
aF13.5
asS'3pm0'
p454
(lp455
F23.300000000000001
aF18.800000000000001
asS'3vbq'
p456
(lp457
F4.4000000000000004
aF3.2000000000000002
asS'1kea'
p458
(lp459
F9.0999999999999996
aF7.4000000000000004
asS'2hnk'
p460
(lp461
F1.6000000000000001
aF1.3999999999999999
asS'1f0o'
p462
(lp463
F13
aF8.5999999999999996
asS'3buc'
p464
(lp465
F5.7999999999999998
aF4.4000000000000004
asS'2vi7'
p466
(lp467
F6
aF3.5
asS'3w3g'
p468
(lp469
F11
aF4
asS'3kt4'
p470
(lp471
F3.2000000000000002
aF2.7000000000000002
asS'4a2d'
p472
(lp473
F6.7000000000000002
aF2.5
asS'4elr'
p474
(lp475
F5.5999999999999996
aF3.2999999999999998
asS'3fw6'
p476
(lp477
F7.7999999999999998
aF6.4000000000000004
asS'3o8g'
p478
(lp479
F7.7000000000000002
aF7.9000000000000004
asS'1rks'
p480
(lp481
F5.4000000000000004
aF3.2999999999999998
asS'3ng5'
p482
(lp483
F3.7999999999999998
aF3.5
asS'3ng9'
p484
(lp485
F14
aF11.300000000000001
asS'2x8o'
p486
(lp487
F8.0999999999999996
aF8.4000000000000004
asS'2d0g'
p488
(lp489
F8.3000000000000007
aF6.7000000000000002
asS'1uiv'
p490
(lp491
F9.9000000000000004
aF8.0999999999999996
asS'1a5y'
p492
(lp493
F8.0999999999999996
aF6.2999999999999998
asS'1jro'
p494
(lp495
F26.899999999999999
aF16.899999999999999
asS'1but'
p496
(lp497
F0
aF0
asS'3oa6'
p498
(lp499
F25.800000000000001
aF26.899999999999999
asS'3pzp'
p500
(lp501
F13.800000000000001
aF12.1
asS'1x1z'
p502
(lp503
F4.2999999999999998
aF2.6000000000000001
asS'1qkw'
p504
(lp505
F11.9
aF4.4000000000000004
asS'2g07'
p506
(lp507
F5
aF3.7999999999999998
asS'1i33'
p508
(lp509
F11.9
aF8.5
asS'3fau'
p510
(lp511
F10.800000000000001
aF8
asS'1ybw'
p512
(lp513
F15.6
aF13.4
asS'3kbs'
p514
(lp515
F6.7000000000000002
aF3.5
asS'2z58'
p516
(lp517
F10.4
aF5.7000000000000002
asS'1kbl'
p518
(lp519
F10
aF8.8000000000000007
asS'2l7v'
p520
(lp521
F4.2000000000000002
aF0
asS'3du8'
p522
(lp523
F3.3999999999999999
aF2.8999999999999999
asS'2ozu'
p524
(lp525
F4.4000000000000004
aF4.7999999999999998
asS'3php'
p526
(lp527
F11.699999999999999
aF6.7000000000000002
asS'2pgh'
p528
(lp529
F15.4
aF13
asS'3qtv'
p530
(lp531
F2.1000000000000001
aF1
asS'2oa8'
p532
(lp533
F8.8000000000000007
aF8.3000000000000007
asS'2o74'
p534
(lp535
F3.7999999999999998
aF4.5
asS'3crw'
p536
(lp537
F39.600000000000001
aF31.800000000000001
asS'2ljc'
p538
(lp539
F52.299999999999997
aF23.600000000000001
asS'4g1h'
p540
(lp541
F3.7999999999999998
aF2.5
asS'4lc0'
p542
(lp543
F2.2999999999999998
aF1.6000000000000001
asS'1ho0'
p544
(lp545
F5.9000000000000004
aF0
asS'2kry'
p546
(lp547
F22.100000000000001
aF9.1999999999999993
asS'3pay'
p548
(lp549
F1.1000000000000001
aF1.7
asS'3dut'
p550
(lp551
F11.699999999999999
aF10.9
asS'3par'
p552
(lp553
F9.3000000000000007
aF8.0999999999999996
asS'2i7g'
p554
(lp555
F11.6
aF9.5
asS'1xf6'
p556
(lp557
F6.5
aF5.5
asS'3l75'
p558
(lp559
F23.100000000000001
aF16.600000000000001
asS'2f9j'
p560
(lp561
F6.4000000000000004
aF5.2000000000000002
asS'1t96'
p562
(lp563
F5.9000000000000004
aF3.6000000000000001
asS'1jv7'
p564
(lp565
F22.600000000000001
aF12.6
asS'1tuu'
p566
(lp567
F10.1
aF7.7000000000000002
asS'4e3d'
p568
(lp569
F1.2
aF5.2999999999999998
asS'2iwp'
p570
(lp571
F3.6000000000000001
aF4
asS'1isx'
p572
(lp573
F7.4000000000000004
aF7.7000000000000002
asS'4gqk'
p574
(lp575
F2.6000000000000001
aF1.6000000000000001
asS'4fn0'
p576
(lp577
F28.5
aF14.199999999999999
asS'4b8w'
p578
(lp579
F1.5
aF1.2
asS'2yb1'
p580
(lp581
F2.2000000000000002
aF1.2
asS'2ziw'
p582
(lp583
F23.899999999999999
aF20.300000000000001
asS'1yyj'
p584
(lp585
F53.700000000000003
aF22
asS'1kk2'
p586
(lp587
F9.4000000000000004
aF5.5
asS'2kg5'
p588
(lp589
F6.7999999999999998
aF0
asS'2ee7'
p590
(lp591
F34.5
aF5.2999999999999998
asS'2ee8'
p592
(lp593
F27.5
aF5.9000000000000004
asS'3vhb'
p594
(lp595
F26.5
aF25.399999999999999
asS'2yev'
p596
(lp597
F8.5999999999999996
aF5.4000000000000004
asS'4kvv'
p598
(lp599
F4.2999999999999998
aF3.2999999999999998
asS'1ypb'
p600
(lp601
F0.90000000000000002
aF0
asS'1mkz'
p602
(lp603
F3.2000000000000002
aF2.7999999999999998
asS'3mye'
p604
(lp605
F3.6000000000000001
aF3
asS'1slv'
p606
(lp607
F8.0999999999999996
aF6.0999999999999996
asS'2pup'
p608
(lp609
F4.2000000000000002
aF3.2999999999999998
asS'2w4z'
p610
(lp611
F18.699999999999999
aF13.699999999999999
asS'1jvy'
p612
(lp613
F12.5
aF9.9000000000000004
asS'4fno'
p614
(lp615
F10.800000000000001
aF9.4000000000000004
asS'1lyg'
p616
(lp617
F6.0999999999999996
aF4.2000000000000002
asS'3cik'
p618
(lp619
F2.6000000000000001
aF2.2000000000000002
asS'1bt5'
p620
(lp621
F3.5
aF2.6000000000000001
asS'4hxn'
p622
(lp623
F0.90000000000000002
aF0.90000000000000002
asS'3o6y'
p624
(lp625
F6.5
aF5.7000000000000002
asS'3r9d'
p626
(lp627
F11.699999999999999
aF9.6999999999999993
asS'3f3d'
p628
(lp629
F1.8999999999999999
aF1.5
asS'1bso'
p630
(lp631
F3.2999999999999998
aF1.8999999999999999
asS'2aqu'
p632
(lp633
F19
aF18.600000000000001
asS'3exq'
p634
(lp635
F8.9000000000000004
aF4.0999999999999996
asS'2fvo'
p636
(lp637
F0
aF0
asS'1ova'
p638
(lp639
F4.7999999999999998
aF2.7999999999999998
asS'1jjk'
p640
(lp641
F30.800000000000001
aF22.600000000000001
asS'3p93'
p642
(lp643
F3.2999999999999998
aF2.7000000000000002
asS'2q45'
p644
(lp645
F23.600000000000001
aF5.9000000000000004
asS'1axx'
p646
(lp647
F6.9000000000000004
aF0
asS'1nki'
p648
(lp649
F1.3
aF1.8999999999999999
asS'3p98'
p650
(lp651
F7.2000000000000002
aF6.7000000000000002
asS'3btv'
p652
(lp653
F8.5999999999999996
aF6.5999999999999996
asS'1nkn'
p654
(lp655
F10.9
aF9.6999999999999993
asS'1eyj'
p656
(lp657
F9.8000000000000007
aF8.5999999999999996
asS'2dqs'
p658
(lp659
F14.800000000000001
aF11.5
asS'1l6f'
p660
(lp661
F6.2999999999999998
aF4.7999999999999998
asS'2aq2'
p662
(lp663
F4.9000000000000004
aF4
asS'2w0p'
p664
(lp665
F8.5
aF5.9000000000000004
asS'1zvr'
p666
(lp667
F14.5
aF10.699999999999999
asS'1wg1'
p668
(lp669
F30.300000000000001
aF8.1999999999999993
asS'3hky'
p670
(lp671
F0.80000000000000004
aF1.1000000000000001
asS'3vsi'
p672
(lp673
F3.5
aF3
asS'3ege'
p674
(lp675
F0.5
aF0.5
asS'1ppj'
p676
(lp677
F12
aF8.5
asS'1r4e'
p678
(lp679
F4.0999999999999996
aF10.1
asS'2q4i'
p680
(lp681
F30.100000000000001
aF14.699999999999999
asS'1lk7'
p682
(lp683
F8.6999999999999993
aF9.0999999999999996
asS'3bt8'
p684
(lp685
F7.9000000000000004
aF6.4000000000000004
asS'2pk9'
p686
(lp687
F9.5999999999999996
aF4.9000000000000004
asS'2elb'
p688
(lp689
F22.5
aF14.6
asS'2ew1'
p690
(lp691
F16.300000000000001
aF15.4
asS'2isn'
p692
(lp693
F12.800000000000001
aF9.4000000000000004
asS'3sks'
p694
(lp695
F2
aF2.1000000000000001
asS'4hac'
p696
(lp697
F4.2000000000000002
aF4.2000000000000002
asS'3o8e'
p698
(lp699
F2.8999999999999999
aF0.90000000000000002
asS'3orh'
p700
(lp701
F1.8
aF1.3999999999999999
asS'2oka'
p702
(lp703
F13
aF6.4000000000000004
asS'4bba'
p704
(lp705
F0.5
aF0.29999999999999999
asS'4bbb'
p706
(lp707
F1.2
aF1.8
asS'3m3x'
p708
(lp709
F4.0999999999999996
aF4.5999999999999996
asS'3our'
p710
(lp711
F10.1
aF8.8000000000000007
asS'3sbm'
p712
(lp713
F0.20000000000000001
aF0.69999999999999996
asS'1wh6'
p714
(lp715
F1.6000000000000001
aF0
asS'4e7o'
p716
(lp717
F10.1
aF8.3000000000000007
asS'2guv'
p718
(lp719
F4.7999999999999998
aF4.4000000000000004
asS'1avg'
p720
(lp721
F9.5
aF7.4000000000000004
asS'2ywg'
p722
(lp723
F17.600000000000001
aF13.6
asS'3sz0'
p724
(lp725
F6.9000000000000004
aF6
asS'1avv'
p726
(lp727
F17.600000000000001
aF15.800000000000001
asS'4jub'
p728
(lp729
F2.2000000000000002
aF1.7
asS'3s40'
p730
(lp731
F7.5
aF5.2999999999999998
asS'2e21'
p732
(lp733
F22.699999999999999
aF18.600000000000001
asS'1v2n'
p734
(lp735
F2.3999999999999999
aF0.90000000000000002
asS'1w50'
p736
(lp737
F6.5
aF5.9000000000000004
asS'4iie'
p738
(lp739
F17.399999999999999
aF2
asS'3gk1'
p740
(lp741
F12.199999999999999
aF4.9000000000000004
asS'3mji'
p742
(lp743
F8.8000000000000007
aF6.9000000000000004
asS'2oyh'
p744
(lp745
F12.800000000000001
aF9
asS'1qse'
p746
(lp747
F25
aF21.300000000000001
asS'1rad'
p748
(lp749
F6.7999999999999998
aF3.7000000000000002
asS'3csy'
p750
(lp751
F14.699999999999999
aF8.6999999999999993
asS'1bxi'
p752
(lp753
F10.800000000000001
aF7.7999999999999998
asS'4g0h'
p754
(lp755
F1.7
aF3.2000000000000002
asS'1wzw'
p756
(lp757
F7.5999999999999996
aF4
asS'1gpw'
p758
(lp759
F20.899999999999999
aF16.800000000000001
asS'1vrk'
p760
(lp761
F8.1999999999999993
aF6.4000000000000004
asS'2uuk'
p762
(lp763
F6.7000000000000002
aF6.5999999999999996
asS'3tff'
p764
(lp765
F29.5
aF18.600000000000001
asS'1dwq'
p766
(lp767
F9.9000000000000004
aF3.1000000000000001
asS'1te2'
p768
(lp769
F3
aF3.6000000000000001
asS'2g0f'
p770
(lp771
F8.1999999999999993
aF5.5
asS'1q7a'
p772
(lp773
F10.9
aF11
asS'4dt1'
p774
(lp775
F5.2000000000000002
aF3.8999999999999999
asS'1zcn'
p776
(lp777
F7.5
aF6.0999999999999996
asS'2po6'
p778
(lp779
F7.2999999999999998
aF4.9000000000000004
asS'2dda'
p780
(lp781
F1.3
aF1.5
asS'4g03'
p782
(lp783
F4.7000000000000002
aF4.2999999999999998
as.