(lp1
(lp2
F6.2999999999999998
aF4.7999999999999998
aa(lp3
F4.2000000000000002
aF3.8999999999999999
aa(lp4
F19
aF18.600000000000001
aa(lp5
F10.9
aF11
aa(lp6
F23.899999999999999
aF20.300000000000001
aa(lp7
F12.4
aF6.2999999999999998
aa(lp8
F4.9000000000000004
aF4
aa(lp9
F0.5
aF0.5
aa(lp10
F12.5
aF9.9000000000000004
aa(lp11
F2.2000000000000002
aF2.5
aa(lp12
F2.2999999999999998
aF2.2999999999999998
aa(lp13
F3.7999999999999998
aF4.5
aa(lp14
F29.800000000000001
aF25.899999999999999
aa(lp15
F17.600000000000001
aF13.6
aa(lp16
F2.6000000000000001
aF3
aa(lp17
F0.90000000000000002
aF0.90000000000000002
aa(lp18
F7.2999999999999998
aF4.9000000000000004
aa(lp19
F1.3
aF1.8999999999999999
aa(lp20
F20.100000000000001
aF18.300000000000001
aa(lp21
F1.1000000000000001
aF0.5
aa(lp22
F1.3
aF1.2
aa(lp23
F3.3999999999999999
aF1.8999999999999999
aa(lp24
F8.6999999999999993
aF9.0999999999999996
aa(lp25
F10.1
aF8.8000000000000007
aa(lp26
F1
aF0.20000000000000001
aa(lp27
F30.300000000000001
aF8.1999999999999993
aa(lp28
F1.5
aF1.5
aa(lp29
F4.4000000000000004
aF3.1000000000000001
aa(lp30
F4.4000000000000004
aF7.5
aa(lp31
F2.3999999999999999
aF1.6000000000000001
aa(lp32
F6.2999999999999998
aF5
aa(lp33
F40
aF32.5
aa(lp34
F23.399999999999999
aF18.5
aa(lp35
F17.399999999999999
aF2
aa(lp36
F12.1
aF10.300000000000001
aa(lp37
F4.9000000000000004
aF3.8999999999999999
aa(lp38
F17.600000000000001
aF15.800000000000001
aa(lp39
F11.9
aF9.6999999999999993
aa(lp40
F0.90000000000000002
aF0
aa(lp41
F6.2999999999999998
aF8.0999999999999996
aa(lp42
F0.69999999999999996
aF0.29999999999999999
aa(lp43
F4.7999999999999998
aF2.7999999999999998
aa(lp44
F8.8000000000000007
aF6.9000000000000004
aa(lp45
F3.1000000000000001
aF2.6000000000000001
aa(lp46
F1.8999999999999999
aF2
aa(lp47
F11.9
aF8.5
aa(lp48
F8.5999999999999996
aF4.4000000000000004
aa(lp49
F1.6000000000000001
aF2.3999999999999999
aa(lp50
F9.4000000000000004
aF5.5
aa(lp51
F1.7
aF1.1000000000000001
aa(lp52
F3.5
aF3
aa(lp53
F3
aF3.6000000000000001
aa(lp54
F1.2
aF1
aa(lp55
F7.0999999999999996
aF4.5
aa(lp56
F11.5
aF9.5999999999999996
aa(lp57
F4.4000000000000004
aF3.2000000000000002
aa(lp58
F48.799999999999997
aF38.5
aa(lp59
F2.2999999999999998
aF1.8
aa(lp60
F3.2000000000000002
aF2.7999999999999998
aa(lp61
F17.899999999999999
aF9.0999999999999996
aa(lp62
F14.800000000000001
aF11.5
aa(lp63
F9.9000000000000004
aF8.0999999999999996
aa(lp64
F27.5
aF5.9000000000000004
aa(lp65
F4.4000000000000004
aF4.7999999999999998
aa(lp66
F2.1000000000000001
aF0.80000000000000004
aa(lp67
F6
aF3.5
aa(lp68
F3.3999999999999999
aF2.8999999999999999
aa(lp69
F13.9
aF12.800000000000001
aa(lp70
F12
aF8.5
aa(lp71
F5.9000000000000004
aF3.7000000000000002
aa(lp72
F5.7999999999999998
aF5
aa(lp73
F1.6000000000000001
aF1.5
aa(lp74
F1.2
aF1.8
aa(lp75
F26.5
aF25.399999999999999
aa(lp76
F6.5
aF5.7000000000000002
aa(lp77
F14
aF9
aa(lp78
F8.9000000000000004
aF7
aa(lp79
F13
aF6.4000000000000004
aa(lp80
F19.5
aF14.4
aa(lp81
F58
aF43
aa(lp82
F5.9000000000000004
aF6
aa(lp83
F11.699999999999999
aF10.9
aa(lp84
F6.5
aF5.5
aa(lp85
F3.1000000000000001
aF2.7999999999999998
aa(lp86
F22.5
aF14.6
aa(lp87
F13
aF8.5999999999999996
aa(lp88
F10
aF8.8000000000000007
aa(lp89
F2.6000000000000001
aF2.1000000000000001
aa(lp90
F4.7999999999999998
aF3.2000000000000002
aa(lp91
F14.4
aF4.0999999999999996
aa(lp92
F5
aF4.9000000000000004
aa(lp93
F10.4
aF5.7000000000000002
aa(lp94
F12.800000000000001
aF9.4000000000000004
aa(lp95
F16.5
aF14.1
aa(lp96
F2.7999999999999998
aF3.6000000000000001
aa(lp97
F7.2000000000000002
aF5
aa(lp98
F2.7999999999999998
aF2.1000000000000001
aa(lp99
F19.800000000000001
aF14.4
aa(lp100
F3.2000000000000002
aF2.8999999999999999
aa(lp101
F11
aF4
aa(lp102
F7.0999999999999996
aF5.4000000000000004
aa(lp103
F22.600000000000001
aF17.699999999999999
aa(lp104
F4.7999999999999998
aF3.6000000000000001
aa(lp105
F2.3999999999999999
aF0.90000000000000002
aa(lp106
F10.800000000000001
aF9.4000000000000004
aa(lp107
F9.9000000000000004
aF3.1000000000000001
aa(lp108
F3.2000000000000002
aF2.7000000000000002
aa(lp109
F0.29999999999999999
aF0.69999999999999996
aa(lp110
F3.3999999999999999
aF3.1000000000000001
aa(lp111
F1.7
aF3.2000000000000002
aa(lp112
F4.2000000000000002
aF2
aa(lp113
F5.7000000000000002
aF4.4000000000000004
aa(lp114
F15.4
aF13
aa(lp115
F9.4000000000000004
aF5.5
aa(lp116
F5.7000000000000002
aF6.7000000000000002
aa(lp117
F7.4000000000000004
aF7.9000000000000004
aa(lp118
F11
aF10.1
aa(lp119
F19.300000000000001
aF14.1
aa(lp120
F4.2000000000000002
aF4.2000000000000002
aa(lp121
F41.799999999999997
aF15.300000000000001
aa(lp122
F1.3
aF1.5
aa(lp123
F8.9000000000000004
aF6.2999999999999998
aa(lp124
F10.9
aF5.7999999999999998
aa(lp125
F3.6000000000000001
aF3
aa(lp126
F9.0999999999999996
aF8.3000000000000007
aa(lp127
F8.5
aF5.9000000000000004
aa(lp128
F7.4000000000000004
aF7.7000000000000002
aa(lp129
F28.5
aF14.199999999999999
aa(lp130
F9.8000000000000007
aF8.5999999999999996
aa(lp131
F4.2999999999999998
aF2.6000000000000001
aa(lp132
F2.2000000000000002
aF1.2
aa(lp133
F4.2000000000000002
aF2.8999999999999999
aa(lp134
F11.9
aF4.4000000000000004
aa(lp135
F30.800000000000001
aF22.600000000000001
aa(lp136
F7.5
aF5.2999999999999998
aa(lp137
F0
aF0
aa(lp138
F3.7000000000000002
aF3.7999999999999998
aa(lp139
F4.2000000000000002
aF0
aa(lp140
F8.5999999999999996
aF6.5999999999999996
aa(lp141
F2
aF2.1000000000000001
aa(lp142
F8.0999999999999996
aF6.0999999999999996
aa(lp143
F6.5
aF5.9000000000000004
aa(lp144
F12.800000000000001
aF9
aa(lp145
F7.9000000000000004
aF4.5
aa(lp146
F2.6000000000000001
aF4.0999999999999996
aa(lp147
F23.600000000000001
aF5.9000000000000004
aa(lp148
F7.7000000000000002
aF7.9000000000000004
aa(lp149
F39.600000000000001
aF31.800000000000001
aa(lp150
F8.9000000000000004
aF8
aa(lp151
F9.0999999999999996
aF8.0999999999999996
aa(lp152
F13.699999999999999
aF9.6999999999999993
aa(lp153
F10.9
aF9.6999999999999993
aa(lp154
F6.5
aF5.2000000000000002
aa(lp155
F6.2999999999999998
aF5
aa(lp156
F10.9
aF8.8000000000000007
aa(lp157
F7.9000000000000004
aF6.4000000000000004
aa(lp158
F6.2999999999999998
aF5
aa(lp159
F1.8999999999999999
aF1.5
aa(lp160
F4.2999999999999998
aF3.2999999999999998
aa(lp161
F4.2000000000000002
aF3.2999999999999998
aa(lp162
F52.299999999999997
aF23.600000000000001
aa(lp163
F5.7000000000000002
aF5
aa(lp164
F9.1999999999999993
aF6
aa(lp165
F9.5999999999999996
aF4.9000000000000004
aa(lp166
F8.3000000000000007
aF6.7999999999999998
aa(lp167
F8.8000000000000007
aF8.3000000000000007
aa(lp168
F10.800000000000001
aF7.7999999999999998
aa(lp169
F14
aF12.4
aa(lp170
F3.5
aF1.8999999999999999
aa(lp171
F9
aF7.5
aa(lp172
F17.199999999999999
aF16.600000000000001
aa(lp173
F0
aF0
aa(lp174
F7.4000000000000004
aF5.4000000000000004
aa(lp175
F1.5
aF1.2
aa(lp176
F3.7000000000000002
aF3.2999999999999998
aa(lp177
F20.899999999999999
aF16.800000000000001
aa(lp178
F9.0999999999999996
aF7.4000000000000004
aa(lp179
F9.6999999999999993
aF7.7000000000000002
aa(lp180
F6.2999999999999998
aF6.2000000000000002
aa(lp181
F10.1
aF8.3000000000000007
aa(lp182
F29.5
aF18.600000000000001
aa(lp183
F2.7000000000000002
aF1.7
aa(lp184
F16.699999999999999
aF13.6
aa(lp185
F15.5
aF11.300000000000001
aa(lp186
F3.6000000000000001
aF4
aa(lp187
F6.7000000000000002
aF5.2000000000000002
aa(lp188
F37.700000000000003
aF35.399999999999999
aa(lp189
F26.899999999999999
aF16.899999999999999
aa(lp190
F7
aF4.0999999999999996
aa(lp191
F25
aF21.300000000000001
aa(lp192
F5.7999999999999998
aF4.4000000000000004
aa(lp193
F7.7999999999999998
aF6.4000000000000004
aa(lp194
F30.100000000000001
aF14.699999999999999
aa(lp195
F5.2999999999999998
aF0
aa(lp196
F16.800000000000001
aF13.5
aa(lp197
F13.699999999999999
aF11.9
aa(lp198
F4.4000000000000004
aF3.8999999999999999
aa(lp199
F4.2000000000000002
aF2.8999999999999999
aa(lp200
F13.6
aF9.9000000000000004
aa(lp201
F11.4
aF10.800000000000001
aa(lp202
F23.5
aF19
aa(lp203
F1.8999999999999999
aF3.2000000000000002
aa(lp204
F10.800000000000001
aF8
aa(lp205
F7.7999999999999998
aF6.2999999999999998
aa(lp206
F20.600000000000001
aF16.5
aa(lp207
F9.8000000000000007
aF7.2999999999999998
aa(lp208
F9.5
aF7.4000000000000004
aa(lp209
F6.4000000000000004
aF5.5999999999999996
aa(lp210
F8.0999999999999996
aF6.2999999999999998
aa(lp211
F25.800000000000001
aF26.699999999999999
aa(lp212
F3.8999999999999999
aF4.7999999999999998
aa(lp213
F1.5
aF1.8999999999999999
aa(lp214
F7.5999999999999996
aF4
aa(lp215
F1.2
aF1.3
aa(lp216
F8.9000000000000004
aF4.0999999999999996
aa(lp217
F1.6000000000000001
aF1.8
aa(lp218
F1.6000000000000001
aF0
aa(lp219
F5.9000000000000004
aF0
aa(lp220
F18.899999999999999
aF15.699999999999999
aa(lp221
F18.699999999999999
aF13.699999999999999
aa(lp222
F14
aF11.300000000000001
aa(lp223
F3.2999999999999998
aF1.8999999999999999
aa(lp224
F7
aF5.7000000000000002
aa(lp225
F33.700000000000003
aF11.4
aa(lp226
F2.8999999999999999
aF1.3999999999999999
aa(lp227
F2.2000000000000002
aF1.7
aa(lp228
F2.6000000000000001
aF1.8999999999999999
aa(lp229
F2.2999999999999998
aF1.6000000000000001
aa(lp230
F5.4000000000000004
aF3.2999999999999998
aa(lp231
F6.0999999999999996
aF4.2000000000000002
aa(lp232
F8
aF9.1999999999999993
aa(lp233
F10.199999999999999
aF6.2000000000000002
aa(lp234
F21.600000000000001
aF17.100000000000001
aa(lp235
F3.7999999999999998
aF3.5
aa(lp236
F10.4
aF0
aa(lp237
F22.5
aF8.8000000000000007
aa(lp238
F20
aF17.800000000000001
aa(lp239
F0.5
aF0.29999999999999999
aa(lp240
F11.6
aF9.5
aa(lp241
F4.2000000000000002
aF2.2000000000000002
aa(lp242
F4
aF1.3
aa(lp243
F23.300000000000001
aF18.800000000000001
aa(lp244
F7.5
aF5.7000000000000002
aa(lp245
F2.3999999999999999
aF2.5
aa(lp246
F3
aF2.1000000000000001
aa(lp247
F15.6
aF13.4
aa(lp248
F7.2000000000000002
aF6.7000000000000002
aa(lp249
F13.5
aF9.5
aa(lp250
F6.7999999999999998
aF3.7000000000000002
aa(lp251
F8.9000000000000004
aF9.5999999999999996
aa(lp252
F2.2999999999999998
aF3.7000000000000002
aa(lp253
F5.2000000000000002
aF3.6000000000000001
aa(lp254
F5
aF4
aa(lp255
F4.7999999999999998
aF4.4000000000000004
aa(lp256
F8.4000000000000004
aF5.7000000000000002
aa(lp257
F6.7000000000000002
aF6.5999999999999996
aa(lp258
F1.3999999999999999
aF1.5
aa(lp259
F13.800000000000001
aF12.1
aa(lp260
F12
aF9.6999999999999993
aa(lp261
F0.40000000000000002
aF0.40000000000000002
aa(lp262
F2.7000000000000002
aF2
aa(lp263
F0.80000000000000004
aF1.1000000000000001
aa(lp264
F6.0999999999999996
aF4.9000000000000004
aa(lp265
F26.5
aF6.9000000000000004
aa(lp266
F2.7999999999999998
aF2.2000000000000002
aa(lp267
F16.699999999999999
aF11.5
aa(lp268
F6.5999999999999996
aF4.5
aa(lp269
F5
aF4.2999999999999998
aa(lp270
F8.4000000000000004
aF7.4000000000000004
aa(lp271
F4.7999999999999998
aF4.2999999999999998
aa(lp272
F4.7999999999999998
aF3.8999999999999999
aa(lp273
F37.700000000000003
aF14.300000000000001
aa(lp274
F3
aF2.5
aa(lp275
F16.300000000000001
aF15.4
aa(lp276
F3.7000000000000002
aF1.6000000000000001
aa(lp277
F10.4
aF7.7000000000000002
aa(lp278
F9.6999999999999993
aF8.4000000000000004
aa(lp279
F6.5
aF5
aa(lp280
F5.2000000000000002
aF3.8999999999999999
aa(lp281
F1.2
aF5.2999999999999998
aa(lp282
F6.2000000000000002
aF20.800000000000001
aa(lp283
F4.4000000000000004
aF2.7999999999999998
aa(lp284
F2.7999999999999998
aF2.5
aa(lp285
F2.1000000000000001
aF1.6000000000000001
aa(lp286
F5
aF3.7999999999999998
aa(lp287
F2.1000000000000001
aF4.2000000000000002
aa(lp288
F14.300000000000001
aF4.2999999999999998
aa(lp289
F3.8999999999999999
aF4
aa(lp290
F11.699999999999999
aF9.6999999999999993
aa(lp291
F0.20000000000000001
aF0.69999999999999996
aa(lp292
F53.700000000000003
aF22
aa(lp293
F38.399999999999999
aF19.100000000000001
aa(lp294
F22.100000000000001
aF9.1999999999999993
aa(lp295
F3.6000000000000001
aF1.6000000000000001
aa(lp296
F1.8
aF1.3999999999999999
aa(lp297
F6.7999999999999998
aF0
aa(lp298
F3.6000000000000001
aF3.6000000000000001
aa(lp299
F2.6000000000000001
aF1.6000000000000001
aa(lp300
F2.8999999999999999
aF2.2999999999999998
aa(lp301
F2.6000000000000001
aF2.2999999999999998
aa(lp302
F10.1
aF7.2000000000000002
aa(lp303
F3.7999999999999998
aF2.5
aa(lp304
F10.1
aF7.7000000000000002
aa(lp305
F4
aF1.7
aa(lp306
F8.8000000000000007
aF7.7999999999999998
aa(lp307
F6.7000000000000002
aF3.5
aa(lp308
F6
aF4
aa(lp309
F22.699999999999999
aF18.600000000000001
aa(lp310
F6.4000000000000004
aF5.2000000000000002
aa(lp311
F0.5
aF0.5
aa(lp312
F17.699999999999999
aF13.1
aa(lp313
F2.6000000000000001
aF2.5
aa(lp314
F3.3999999999999999
aF2.8999999999999999
aa(lp315
F13.5
aF4.0999999999999996
aa(lp316
F1.6000000000000001
aF1.3999999999999999
aa(lp317
F34.5
aF5.2999999999999998
aa(lp318
F5.5999999999999996
aF3.2000000000000002
aa(lp319
F13.1
aF10.1
aa(lp320
F6.5
aF6.2999999999999998
aa(lp321
F3.2000000000000002
aF3.7999999999999998
aa(lp322
F9.4000000000000004
aF6.7000000000000002
aa(lp323
F8.3000000000000007
aF6.7000000000000002
aa(lp324
F9.8000000000000007
aF8
aa(lp325
F2.2999999999999998
aF2.2000000000000002
aa(lp326
F15.300000000000001
aF13.4
aa(lp327
F1.1000000000000001
aF1.7
aa(lp328
F5.9000000000000004
aF5.9000000000000004
aa(lp329
F2.6000000000000001
aF2.5
aa(lp330
F9.3000000000000007
aF8.0999999999999996
aa(lp331
F3.7000000000000002
aF2.8999999999999999
aa(lp332
F0.40000000000000002
aF0.40000000000000002
aa(lp333
F4.0999999999999996
aF4.5999999999999996
aa(lp334
F29.300000000000001
aF12.300000000000001
aa(lp335
F11.199999999999999
aF10.5
aa(lp336
F4.0999999999999996
aF10.1
aa(lp337
F7.7000000000000002
aF6.2000000000000002
aa(lp338
F11.6
aF9.8000000000000007
aa(lp339
F4.5
aF2.2000000000000002
aa(lp340
F7.5
aF6.0999999999999996
aa(lp341
F5.0999999999999996
aF3.7999999999999998
aa(lp342
F8.0999999999999996
aF8.4000000000000004
aa(lp343
F21.399999999999999
aF18
aa(lp344
F6.2999999999999998
aF4.0999999999999996
aa(lp345
F2.8999999999999999
aF0.90000000000000002
aa(lp346
F5.2999999999999998
aF4.5
aa(lp347
F4.7000000000000002
aF4.2999999999999998
aa(lp348
F6.9000000000000004
aF6
aa(lp349
F2.2000000000000002
aF2.2999999999999998
aa(lp350
F3.5
aF2.6000000000000001
aa(lp351
F5.0999999999999996
aF5
aa(lp352
F2.6000000000000001
aF2
aa(lp353
F6.7999999999999998
aF7.4000000000000004
aa(lp354
F25.800000000000001
aF26.899999999999999
aa(lp355
F11.699999999999999
aF6.7000000000000002
aa(lp356
F1.1000000000000001
aF0
aa(lp357
F4.5
aF3.7999999999999998
aa(lp358
F8.5999999999999996
aF5.4000000000000004
aa(lp359
F12.5
aF8
aa(lp360
F64.200000000000003
aF34.799999999999997
aa(lp361
F6.9000000000000004
aF0
aa(lp362
F22.600000000000001
aF12.6
aa(lp363
F8.5
aF2.7999999999999998
aa(lp364
F8.1999999999999993
aF6.4000000000000004
aa(lp365
F5.7999999999999998
aF4.4000000000000004
aa(lp366
F6.7000000000000002
aF2.5
aa(lp367
F12.199999999999999
aF4.9000000000000004
aa(lp368
F0
aF0
aa(lp369
F6.7999999999999998
aF6.5
aa(lp370
F23.100000000000001
aF16.600000000000001
aa(lp371
F5
aF4.5
aa(lp372
F5.9000000000000004
aF3.6000000000000001
aa(lp373
F27
aF25.300000000000001
aa(lp374
F2.2000000000000002
aF1.8999999999999999
aa(lp375
F8.1999999999999993
aF5.5
aa(lp376
F3.2999999999999998
aF2.7000000000000002
aa(lp377
F2.1000000000000001
aF1
aa(lp378
F24.399999999999999
aF19.899999999999999
aa(lp379
F2.6000000000000001
aF2.2000000000000002
aa(lp380
F0.5
aF0.90000000000000002
aa(lp381
F15.699999999999999
aF11.800000000000001
aa(lp382
F25.899999999999999
aF22.300000000000001
aa(lp383
F2.1000000000000001
aF1
aa(lp384
F5.5999999999999996
aF3.2999999999999998
aa(lp385
F14.699999999999999
aF8.6999999999999993
aa(lp386
F2.1000000000000001
aF1.8
aa(lp387
F1.7
aF2.2000000000000002
aa(lp388
F1.2
aF1.3
aa(lp389
F14.5
aF10.699999999999999
aa(lp390
F4.2999999999999998
aF3
aa(lp391
F0
aF0
aa(lp392
F3.1000000000000001
aF2.7000000000000002
aa.