(lp1
S'1v9g'
p2
aS'3q3l'
p3
aS'6rsa'
p4
aS'1c57'
p5
aS'1gkt'
p6
aS'3ins'
p7
aS'2inq'
p8
aS'1lzn'
p9
aS'1io5'
p10
aS'1ssj'
p11
aS'1o1v'
p12
aS'2axx'
p13
aS'1b6y'
p14
aS'1rqu'
p15
aS'2m1a'
p16
aS'2k4b'
p17
aS'1jjd'
p18
aS'2vxf'
p19
aS'2h3v'
p20
aS'4a4f'
p21
aS'2m33'
p22
aS'2jti'
p23
aS'2lle'
p24
aS'1vfc'
p25
aS'2kpy'
p26
aS'2l04'
p27
aS'1xhj'
p28
aS'2aby'
p29
aS'1il8'
p30
aS'1cfh'
p31
aS'1z9q'
p32
aS'2dl7'
p33
aS'1zgu'
p34
aS'2lln'
p35
aS'1niq'
p36
aS'1fv7'
p37
aS'1whg'
p38
aS'2jvb'
p39
aS'1ul5'
p40
aS'1exl'
p41
aS'2rno'
p42
aS'2yua'
p43
aS'1cql'
p44
aS'1ica'
p45
aS'1j4y'
p46
aS'2k5d'
p47
aS'1pqx'
p48
aS'2kbk'
p49
aS'2l6z'
p50
aS'2dbg'
p51
aS'2eza'
p52
aS'1fv8'
p53
aS'2ax5'
p54
aS'1whr'
p55
aS'1roq'
p56
aS'2m8x'
p57
aS'2ll9'
p58
aS'2k33'
p59
aS'2d8b'
p60
aS'1unc'
p61
aS'2yuq'
p62
aS'2lxh'
p63
aS'2bbi'
p64
aS'2kt0'
p65
aS'1f4i'
p66
aS'2m02'
p67
aS'2jrf'
p68
aS'2eny'
p69
aS'2l4r'
p70
aS'2jrs'
p71
aS'1yfv'
p72
aS'2dmq'
p73
aS'2ezp'
p74
aS'2l9p'
p75
aS'2eok'
p76
aS'185d'
p77
aS'1i8x'
p78
aS'2wwv'
p79
aS'2l0a'
p80
aS'2m0o'
p81
aS'2cs4'
p82
aS'2ma8'
p83
aS'1bcv'
p84
aS'2dny'
p85
aS'2k25'
p86
aS'2kqy'
p87
aS'1s6w'
p88
aS'2l33'
p89
aS'2jqp'
p90
aS'2kp7'
p91
aS'2em7'
p92
aS'2k2c'
p93
aS'2jol'
p94
aS'2lkj'
p95
aS'2kvo'
p96
aS'2l0b'
p97
aS'2ak0'
p98
aS'1la8'
p99
aS'1fja'
p100
aS'2kw8'
p101
aS'2coy'
p102
aS'1x6f'
p103
aS'1hiq'
p104
aS'2hdm'
p105
aS'2dmt'
p106
aS'2yrl'
p107
aS'2ep4'
p108
aS'2fqc'
p109
aS'1plp'
p110
aS'1r9u'
p111
aS'2in2'
p112
aS'1fks'
p113
aS'2lhr'
p114
aS'2ky6'
p115
aS'2jxt'
p116
aS'2kaw'
p117
aS'2ldj'
p118
aS'2ytj'
p119
aS'1khm'
p120
aS'6i1b'
p121
aS'1x5j'
p122
aS'2lx7'
p123
aS'2rn4'
p124
aS'2k6b'
p125
aS'1trv'
p126
aS'2jsm'
p127
aS'2b6f'
p128
aS'2jpy'
p129
aS'2jo5'
p130
aS'2djv'
p131
aS'2lm1'
p132
aS'2kud'
p133
aS'2jqk'
p134
aS'1bld'
p135
aS'2cow'
p136
aS'4a4e'
p137
aS'2kno'
p138
aS'1peh'
p139
aS'2ytp'
p140
aS'2gd3'
p141
aS'4ar0'
p142
aS'2kkl'
p143
aS'2ezq'
p144
aS'2m3s'
p145
aS'2l2v'
p146
aS'2l6u'
p147
aS'2l8d'
p148
aS'2kaa'
p149
aS'2k5h'
p150
aS'2cqf'
p151
aS'1cwz'
p152
aS'2k5b'
p153
aS'2lch'
p154
aS'1we6'
p155
aS'1xzy'
p156
aS'2k16'
p157
aS'2ezo'
p158
aS'2ldz'
p159
aS'2m58'
p160
aS'2kec'
p161
aS'1n9j'
p162
aS'2k1i'
p163
aS'2k5e'
p164
aS'3gbq'
p165
aS'2bbl'
p166
aS'2hfr'
p167
aS'1vf9'
p168
aS'2lfv'
p169
aS'2k17'
p170
aS'1du9'
p171
aS'2edj'
p172
aS'2gip'
p173
aS'2lq7'
p174
aS'2lv8'
p175
aS'2lj2'
p176
aS'4b6u'
p177
aS'1yn1'
p178
aS'2j0z'
p179
aS'2l3w'
p180
aS'2lz6'
p181
aS'2l5g'
p182
aS'2x8n'
p183
aS'2cp7'
p184
aS'2das'
p185
aS'1jua'
p186
aS'1wt7'
p187
aS'2k8m'
p188
aS'1mwn'
p189
aS'2kmz'
p190
aS'2e9i'
p191
aS'2kj6'
p192
aS'2yrd'
p193
aS'2eo9'
p194
aS'1xwh'
p195
aS'2kdo'
p196
aS'2ixy'
p197
aS'2lbx'
p198
aS'2eoo'
p199
aS'2l05'
p200
aS'2dl1'
p201
aS'2m85'
p202
aS'1pgc'
p203
aS'2ed0'
p204
aS'2l35'
p205
aS'1fzs'
p206
aS'2ain'
p207
aS'2jzh'
p208
aS'2kpp'
p209
aS'3ncm'
p210
aS'2yr3'
p211
aS'2bbm'
p212
aS'2kqc'
p213
aS'1z9b'
p214
aS'1agh'
p215
aS'1r7f'
p216
aS'2rsh'
p217
aS'2els'
p218
aS'1cmz'
p219
aS'1q9p'
p220
aS'1wh3'
p221
aS'2loa'
p222
aS'2jsl'
p223
aS'2dgr'
p224
aS'2lp6'
p225
aS'2env'
p226
aS'1nya'
p227
aS'2mbf'
p228
aS'2lqj'
p229
aS'2dmh'
p230
aS'2lc0'
p231
aS'2kez'
p232
aS'2dmp'
p233
aS'2kmj'
p234
aS'1x61'
p235
aS'2kt9'
p236
aS'2jpu'
p237
aS'2juw'
p238
aS'2cqd'
p239
aS'2lgh'
p240
aS'1jy4'
p241
aS'2l32'
p242
aS'1wfr'
p243
aS'2e7h'
p244
aS'1b69'
p245
aS'2lq2'
p246
aS'2m0s'
p247
aS'1xwn'
p248
aS'2l6r'
p249
aS'2lvx'
p250
aS'2e63'
p251
aS'2fv4'
p252
aS'2lsa'
p253
aS'2lfi'
p254
aS'2kw5'
p255
aS'2krs'
p256
aS'2ezs'
p257
aS'2kru'
p258
aS'2lc1'
p259
aS'2lyc'
p260
aS'1diu'
p261
aS'2m6y'
p262
aS'2cry'
p263
aS'2kll'
p264
aS'1bcn'
p265
aS'1mxn'
p266
aS'2jvw'
p267
aS'2cpn'
p268
aS'2kko'
p269
aS'2kzr'
p270
aS'1tpm'
p271
aS'1r2a'
p272
aS'2lxc'
p273
aS'2omj'
p274
aS'2m09'
p275
aS'1q8l'
p276
aS'1fex'
p277
aS'4axp'
p278
aS'2kil'
p279
aS'2m00'
p280
aS'2dif'
p281
aS'2dgv'
p282
aS'2ksh'
p283
aS'2baf'
p284
ag4
aS'193d'
p285
aS'2l3c'
p286
aS'2lok'
p287
aS'2cs8'
p288
aS'1sqr'
p289
aS'2jnh'
p290
aS'1rwd'
p291
aS'1hit'
p292
aS'2lr8'
p293
aS'2kjg'
p294
aS'2juz'
p295
aS'4tgf'
p296
aS'2kls'
p297
aS'2cku'
p298
aS'2lbk'
p299
aS'2yqf'
p300
aS'2dju'
p301
aS'2k5w'
p302
aS'2l16'
p303
aS'2dlt'
p304
aS'1al9'
p305
aS'2ema'
p306
aS'2m8d'
p307
aS'2mrb'
p308
aS'1hx4'
p309
aS'2cs5'
p310
aS'2kd0'
p311
aS'2lan'
p312
aS'2dmg'
p313
aS'2di8'
p314
aS'135d'
p315
aS'1nhn'
p316
aS'1nhm'
p317
aS'2l43'
p318
aS'1vsq'
p319
aS'1ylg'
p320
aS'2lpj'
p321
aS'2ed9'
p322
aS'3msp'
p323
aS'2k4z'
p324
aS'1b0s'
p325
aS'2luz'
p326
aS'1lmv'
p327
aS'2jrd'
p328
aS'3egf'
p329
aS'4b1q'
p330
aS'2cph'
p331
aS'146d'
p332
aS'1df6'
p333
aS'3hsf'
p334
aS'1bzf'
p335
aS'2cqy'
p336
aS'2ep6'
p337
aS'2heq'
p338
aS'1tru'
p339
aS'2kkj'
p340
aS'1n0z'
p341
aS'2m3g'
p342
aS'1wxt'
p343
aS'2dnm'
p344
aS'1zlc'
p345
aS'2jvg'
p346
aS'1h7j'
p347
aS'2l0t'
p348
aS'2lca'
p349
aS'2kso'
p350
aS'1rzw'
p351
aS'1ce3'
p352
aS'1l3m'
p353
aS'2e6z'
p354
aS'2d7n'
p355
aS'2kl5'
p356
aS'2dnl'
p357
aS'2lea'
p358
aS'2dh8'
p359
aS'2kxo'
p360
aS'2lr3'
p361
aS'2lez'
p362
aS'1k4b'
p363
aS'1rax'
p364
aS'2dj0'
p365
aS'2kpw'
p366
aS'2cqa'
p367
aS'2yte'
p368
aS'2dcw'
p369
aS'2fcg'
p370
aS'2lni'
p371
aS'4a4s'
p372
aS'1wg5'
p373
aS'2kc8'
p374
aS'2k6g'
p375
aS'2ezi'
p376
aS'2l8v'
p377
aS'1alg'
p378
aS'2srt'
p379
aS'2k28'
p380
aS'2lke'
p381
aS'4asv'
p382
aS'2g35'
p383
aS'2rlz'
p384
aS'2do4'
p385
aS'2edu'
p386
aS'2jra'
p387
aS'1myu'
p388
aS'1ull'
p389
aS'1l4v'
p390
aS'2di9'
p391
aS'2kdt'
p392
aS'2ys5'
p393
aS'2l5b'
p394
aS'2lgv'
p395
aS'2edg'
p396
aS'1u01'
p397
aS'2dlm'
p398
aS'1tkw'
p399
aS'2d35'
p400
aS'2dme'
p401
aS'1hmf'
p402
aS'2j11'
p403
aS'1a8w'
p404
aS'2ctj'
p405
aS'2kkx'
p406
aS'2ctk'
p407
aS'2lm0'
p408
aS'1vfi'
p409
aS'1ybr'
p410
aS'2ken'
p411
aS'2djc'
p412
aS'1qby'
p413
aS'1axv'
p414
aS'2hqo'
p415
aS'2dbm'
p416
aS'2csq'
p417
aS'1cfc'
p418
aS'2k52'
p419
aS'1soh'
p420
aS'2k2q'
p421
aS'2fki'
p422
aS'2lf6'
p423
aS'2e72'
p424
aS'2jzn'
p425
aS'2ld7'
p426
aS'2lqa'
p427
aS'2lom'
p428
aS'1iwc'
p429
aS'2ksz'
p430
aS'2cru'
p431
aS'1ixd'
p432
aS'2lrm'
p433
aS'1ner'
p434
aS'1las'
p435
aS'2dlu'
p436
aS'2o3d'
p437
aS'2v31'
p438
aS'2lha'
p439
aS'1bh7'
p440
aS'2rpr'
p441
aS'1pon'
p442
aS'1uh6'
p443
aS'2ly8'
p444
aS'2ecj'
p445
aS'2kze'
p446
aS'2hqr'
p447
aS'2vrd'
p448
aS'2dyf'
p449
aS'2ebr'
p450
aS'2xnf'
p451
aS'2rqm'
p452
aS'1xpn'
p453
aS'2job'
p454
aS'2wcy'
p455
aS'4bd3'
p456
aS'2eoz'
p457
aS'1d0r'
p458
aS'2km7'
p459
aS'2jx0'
p460
aS'2e9g'
p461
aS'2eeb'
p462
aS'2a02'
p463
aS'2k2p'
p464
aS'1d9m'
p465
aS'2jz6'
p466
aS'2jwl'
p467
aS'2a63'
p468
aS'3cys'
p469
aS'2kli'
p470
aS'2lon'
p471
aS'2lrr'
p472
aS'2hi3'
p473
aS'2jn8'
p474
aS'2kwu'
p475
aS'2k53'
p476
aS'2oq9'
p477
aS'2l7q'
p478
aS'1xox'
p479
aS'2kqr'
p480
aS'2l0p'
p481
aS'2ge4'
p482
aS'2atg'
p483
aS'2yus'
p484
aS'1ffj'
p485
aS'2lh0'
p486
aS'2dbd'
p487
aS'2kg0'
p488
aS'1wjz'
p489
aS'2elw'
p490
aS'2lec'
p491
aS'2cqo'
p492
aS'2ysr'
p493
aS'2g9l'
p494
aS'2ln0'
p495
aS'2kob'
p496
aS'2lsy'
p497
aS'2kod'
p498
aS'1ow5'
p499
aS'2fq2'
p500
aS'2d9y'
p501
aS'2fq0'
p502
aS'2few'
p503
aS'2ysl'
p504
aS'2jrb'
p505
aS'2dlg'
p506
aS'2krt'
p507
aS'1ne5'
p508
aS'2kni'
p509
aS'2ehf'
p510
aS'2elj'
p511
aS'1wid'
p512
aS'2l8l'
p513
aS'2kit'
p514
aS'1cw5'
p515
aS'2e5e'
p516
aS'2l3b'
p517
aS'1ync'
p518
aS'2k7r'
p519
aS'2kte'
p520
aS'2lr0'
p521
aS'202d'
p522
aS'1iet'
p523
aS'1ny9'
p524
aS'2pna'
p525
aS'2m65'
p526
aS'2yuy'
p527
aS'1sgo'
p528
aS'1p0a'
p529
aS'2jr4'
p530
aS'2lf3'
p531
aS'2kdd'
p532
aS'1yx6'
p533
aS'1i3y'
p534
aS'4bhp'
p535
aS'2jy9'
p536
aS'1kfh'
p537
aS'2dl9'
p538
aS'2jwy'
p539
aS'2cum'
p540
aS'2dm8'
p541
aS'2lu7'
p542
aS'2cq9'
p543
aS'2kq1'
p544
aS'2czy'
p545
aS'2dkw'
p546
aS'2luh'
p547
aS'2ee9'
p548
aS'1ry4'
p549
aS'2elm'
p550
aS'2k3w'
p551
aS'1rzs'
p552
aS'2stt'
p553
aS'1u89'
p554
aS'2cqw'
p555
aS'2k1q'
p556
aS'2jna'
p557
aS'5znf'
p558
aS'1oeh'
p559
aS'2edv'
p560
aS'2klq'
p561
aS'2pnb'
p562
aS'2dna'
p563
aS'2nq0'
p564
aS'2lor'
p565
aS'2lpd'
p566
aS'2kku'
p567
aS'2lxg'
p568
aS'2p01'
p569
aS'1wxn'
p570
aS'1ieu'
p571
aS'2da2'
p572
aS'3sak'
p573
aS'1dd2'
p574
aS'1hrz'
p575
aS'1cq5'
p576
aS'2bc7'
p577
aS'1x4i'
p578
aS'2jrt'
p579
aS'2kn5'
p580
aS'2kz4'
p581
aS'1tn9'
p582
aS'1zwg'
p583
aS'1x44'
p584
aS'2k1p'
p585
aS'2m3l'
p586
aS'2da0'
p587
aS'2wh9'
p588
aS'1c3y'
p589
aS'2cq0'
p590
aS'2yt2'
p591
aS'2hfq'
p592
aS'2k6a'
p593
aS'2m46'
p594
aS'2jwn'
p595
aS'2nvj'
p596
aS'2e6i'
p597
aS'2dms'
p598
aS'2cqk'
p599
aS'1x4g'
p600
aS'1wj7'
p601
aS'1s5r'
p602
aS'2l13'
p603
aS'2gfr'
p604
aS'2db2'
p605
aS'1med'
p606
aS'1ate'
p607
aS'2pac'
p608
aS'2hqp'
p609
aS'2axl'
p610
aS'2kat'
p611
aS'2eno'
p612
aS'2kge'
p613
aS'2coo'
p614
aS'2kv3'
p615
aS'1d4b'
p616
aS'1ps2'
p617
aS'1qlo'
p618
aS'1quw'
p619
aS'2kow'
p620
aS'2kf2'
p621
aS'2klr'
p622
aS'1x4c'
p623
aS'2btt'
p624
aS'2lz5'
p625
aS'2dha'
p626
aS'2k4x'
p627
aS'2e7n'
p628
aS'2owi'
p629
aS'2l29'
p630
aS'2jw2'
p631
aS'2edx'
p632
aS'2l6q'
p633
aS'2k7f'
p634
aS'1xsg'
p635
aS'2csi'
p636
aS'2eo2'
p637
aS'1d0t'
p638
aS'1gh1'
p639
aS'2fuh'
p640
aS'1tcj'
p641
aS'2rlj'
p642
aS'2d93'
p643
aS'2kii'
p644
aS'2jr5'
p645
aS'1xi7'
p646
aS'2ytf'
p647
aS'2kbm'
p648
aS'2e6p'
p649
aS'2ksf'
p650
aS'1fc8'
p651
aS'2lp0'
p652
aS'1bip'
p653
aS'2kd4'
p654
aS'1acp'
p655
aS'1w1n'
p656
aS'2lou'
p657
aS'2k5n'
p658
aS'1qce'
p659
aS'2dun'
p660
aS'1xyd'
p661
aS'1rfl'
p662
aS'1wi1'
p663
aS'2l2e'
p664
aS'2kvr'
p665
aS'1dfy'
p666
aS'2yrk'
p667
aS'1fsv'
p668
aS'1wo0'
p669
aS'2k3h'
p670
aS'2dii'
p671
aS'2m67'
p672
aS'2jz5'
p673
aS'2g0q'
p674
aS'2koj'
p675
aS'2k2t'
p676
aS'2kqe'
p677
aS'2ctt'
p678
aS'2d56'
p679
aS'2nef'
p680
aS'2k8j'
p681
aS'2jqv'
p682
aS'2lbw'
p683
aS'1mot'
p684
aS'1lmr'
p685
aS'2cqg'
p686
aS'2m71'
p687
aS'2kya'
p688
aS'2csv'
p689
aS'2iz4'
p690
aS'2aap'
p691
aS'106d'
p692
aS'2yst'
p693
aS'2d85'
p694
aS'2knc'
p695
aS'2gov'
p696
aS'1j2n'
p697
aS'2k0z'
p698
aS'1la0'
p699
aS'2l2a'
p700
aS'1bbn'
p701
aS'2b6g'
p702
aS'2e6j'
p703
aS'1wr7'
p704
aS'1wim'
p705
aS'2lrh'
p706
aS'2e5r'
p707
aS'2yrb'
p708
aS'1ap1'
p709
aS'2o21'
p710
aS'2k8f'
p711
aS'2da3'
p712
aS'2eot'
p713
aS'1xoy'
p714
aS'2c0x'
p715
aS'2jph'
p716
aS'1gk5'
p717
aS'2jqj'
p718
aS'2kk0'
p719
aS'2en6'
p720
aS'2emw'
p721
aS'1p6s'
p722
aS'1g22'
p723
aS'2kyr'
p724
aS'2e1o'
p725
aS'1c98'
p726
aS'2m56'
p727
aS'1blj'
p728
aS'2jov'
p729
aS'1mtq'
p730
aS'1y29'
p731
aS'2kzh'
p732
aS'1b28'
p733
aS'1tch'
p734
aS'1xst'
p735
aS'2rnl'
p736
aS'2lgo'
p737
aS'2jq9'
p738
aS'1gjh'
p739
aS'2cq1'
p740
aS'2ov6'
p741
aS'2ekx'
p742
aS'2brz'
p743
aS'2dgs'
p744
aS'2kj8'
p745
aS'1ija'
p746
aS'2m8t'
p747
aS'1hp9'
p748
aS'2jqr'
p749
aS'2joq'
p750
aS'1y9h'
p751
aS'1qdh'
p752
aS'1mqy'
p753
aS'2ecz'
p754
aS'1maj'
p755
aS'2lvw'
p756
aS'2eoc'
p757
aS'1mvj'
p758
aS'2eya'
p759
aS'2m6p'
p760
aS'2dah'
p761
aS'2k5v'
p762
aS'2lm9'
p763
aS'2ll6'
p764
aS'2kan'
p765
aS'2dn8'
p766
aS'2doe'
p767
aS'2j52'
p768
aS'2kcx'
p769
aS'2d7o'
p770
aS'1kaj'
p771
aS'2kpu'
p772
aS'2jpd'
p773
aS'2dgw'
p774
aS'1o8y'
p775
aS'1t5n'
p776
aS'2emy'
p777
aS'2ys1'
p778
aS'2eef'
p779
aS'1rq6'
p780
aS'2pn9'
p781
aS'2ifs'
p782
aS'1x2s'
p783
aS'1zg2'
p784
aS'2k3z'
p785
aS'2w84'
p786
aS'2edf'
p787
aS'2i9m'
p788
aS'2eol'
p789
aS'1wo3'
p790
aS'2cuc'
p791
aS'2krw'
p792
aS'1f5y'
p793
aS'1wha'
p794
aS'2eml'
p795
aS'2lsh'
p796
aS'1fzx'
p797
aS'2hi6'
p798
aS'2eqz'
p799
aS'2lyi'
p800
aS'2l3r'
p801
aS'2l69'
p802
aS'2ksg'
p803
aS'1mpe'
p804
aS'1v06'
p805
aS'4c7q'
p806
aS'2doc'
p807
aS'2ld5'
p808
aS'2loq'
p809
aS'1liq'
p810
aS'1hhw'
p811
aS'2lav'
p812
aS'1k4a'
p813
aS'1yji'
p814
aS'1b5n'
p815
aS'2ea6'
p816
aS'1i1s'
p817
aS'1xgl'
p818
aS'2jx5'
p819
aS'1uyb'
p820
aS'2m91'
p821
aS'1a7f'
p822
aS'1q3j'
p823
aS'2kjz'
p824
aS'1a4d'
p825
aS'2l81'
p826
aS'2dj1'
p827
aS'2kyf'
p828
aS'2ebp'
p829
aS'2dmc'
p830
aS'2no8'
p831
aS'2h7b'
p832
aS'2lci'
p833
aS'1ezo'
p834
aS'2lq6'
p835
aS'2daz'
p836
aS'2ett'
p837
aS'1s4h'
p838
aS'1x5o'
p839
aS'2k4d'
p840
aS'1y0j'
p841
aS'2rr0'
p842
aS'2lsk'
p843
aS'1dcz'
p844
aS'2d86'
p845
aS'1yvc'
p846
aS'2g2b'
p847
aS'1x49'
p848
aS'2dnz'
p849
aS'1zll'
p850
aS'2kky'
p851
aS'2eqi'
p852
aS'2kga'
p853
aS'1xgb'
p854
aS'2cqp'
p855
aS'1iwf'
p856
aS'2d9v'
p857
aS'2lel'
p858
aS'2jry'
p859
aS'2klb'
p860
aS'2yu7'
p861
aS'2m3v'
p862
aS'2rna'
p863
aS'2dzj'
p864
aS'2krx'
p865
aS'2dmk'
p866
aS'1a1w'
p867
aS'2g3q'
p868
aS'2jva'
p869
aS'1itl'
p870
aS'2dba'
p871
aS'2kzn'
p872
aS'1qbh'
p873
aS'2kg9'
p874
aS'2ed7'
p875
aS'2con'
p876
aS'2ct5'
p877
aS'2l8y'
p878
aS'2yon'
p879
aS'2yt8'
p880
aS'1ckz'
p881
aS'2ku1'
p882
aS'2ko1'
p883
aS'1a51'
p884
aS'1hpw'
p885
aS'1oig'
p886
aS'1g5m'
p887
aS'2jzo'
p888
aS'1t0y'
p889
aS'1eot'
p890
aS'1olh'
p891
aS'1cfd'
p892
aS'1kvz'
p893
aS'2eei'
p894
aS'2kkv'
p895
aS'2noc'
p896
aS'2jo6'
p897
aS'2dbc'
p898
aS'1sp7'
p899
aS'2cuj'
p900
aS'1tcg'
p901
aS'1x4m'
p902
aS'1pt4'
p903
aS'2k98'
p904
aS'1s7p'
p905
aS'2rqz'
p906
aS'1srk'
p907
aS'2ke7'
p908
aS'2l9s'
p909
aS'2e9h'
p910
aS'1q71'
p911
aS'2lvr'
p912
aS'1x4y'
p913
aS'2jvh'
p914
aS'2f1e'
p915
aS'2pp4'
p916
aS'1x48'
p917
aS'1lmz'
p918
aS'2jrp'
p919
aS'1wyo'
p920
aS'2lzn'
p921
aS'2dmj'
p922
aS'1whn'
p923
aS'2ens'
p924
aS'2k0u'
p925
aS'1n1u'
p926
aS'2d88'
p927
aS'2ll3'
p928
aS'2xkm'
p929
aS'2kt3'
p930
aS'1i3x'
p931
aS'1x9b'
p932
aS'2kvc'
p933
aS'1j3d'
p934
aS'2cqv'
p935
aS'1m94'
p936
aS'1rfh'
p937
aS'1x95'
p938
aS'1ivz'
p939
aS'1wwx'
p940
aS'1q0v'
p941
aS'2dhi'
p942
aS'2gku'
p943
aS'2mb3'
p944
aS'2di7'
p945
aS'2dkp'
p946
aS'2m4e'
p947
aS'2ebw'
p948
aS'1rmx'
p949
aS'2yt7'
p950
aS'2lss'
p951
aS'1rn9'
p952
aS'2epb'
p953
aS'2z2d'
p954
aS'2py1'
p955
aS'2jn9'
p956
aS'1c06'
p957
aS'1wi6'
p958
aS'2jqe'
p959
aS'2en8'
p960
aS'2dax'
p961
aS'1x51'
p962
aS'2fn5'
p963
aS'2jz8'
p964
aS'1ggw'
p965
aS'2rnd'
p966
aS'1n5h'
p967
aS'1ud7'
p968
aS'1s62'
p969
aS'2cou'
p970
aS'2dsm'
p971
aS'1wii'
p972
aS'1nxi'
p973
aS'2jql'
p974
aS'2kub'
p975
aS'1pft'
p976
aS'2fwu'
p977
aS'2kek'
p978
aS'1nku'
p979
aS'1y7n'
p980
aS'1jc6'
p981
aS'2cqu'
p982
aS'2dky'
p983
aS'2ehe'
p984
aS'2k6p'
p985
aS'1wes'
p986
aS'1ysw'
p987
aS'2l4h'
p988
aS'2jro'
p989
aS'1x4s'
p990
aS'2k4y'
p991
aS'2e7k'
p992
aS'2rqr'
p993
aS'1ry3'
p994
aS'2fgx'
p995
aS'2kbv'
p996
aS'2daf'
p997
aS'2cqi'
p998
aS'2ki2'
p999
aS'1q2k'
p1000
aS'1cmo'
p1001
aS'2key'
p1002
aS'1q75'
p1003
aS'2ley'
p1004
aS'1bjd'
p1005
aS'2jz0'
p1006
aS'2lex'
p1007
aS'2llz'
p1008
aS'2dl8'
p1009
aS'2do8'
p1010
aS'2js3'
p1011
aS'2k86'
p1012
aS'1d9p'
p1013
aS'1ybn'
p1014
aS'2lki'
p1015
aS'1x2o'
p1016
aS'2cpc'
p1017
aS'1i93'
p1018
aS'1ttl'
p1019
aS'1ywu'
p1020
aS'2enc'
p1021
aS'2dmz'
p1022
aS'1zn5'
p1023
aS'2gb8'
p1024
aS'2cui'
p1025
aS'2k58'
p1026
aS'2kff'
p1027
aS'1q3y'
p1028
aS'2k2g'
p1029
aS'2crg'
p1030
aS'1ujd'
p1031
aS'1x3h'
p1032
aS'1d0u'
p1033
aS'2lm5'
p1034
aS'2cu8'
p1035
aS'2csh'
p1036
aS'2juy'
p1037
aS'1yl9'
p1038
aS'1crq'
p1039
aS'1zwe'
p1040
aS'2k9d'
p1041
aS'2cr2'
p1042
aS'1ka6'
p1043
aS'2dmx'
p1044
aS'2k24'
p1045
aS'1hz8'
p1046
aS'1v87'
p1047
aS'1yho'
p1048
aS'2llo'
p1049
aS'1q48'
p1050
aS'2jm9'
p1051
aS'2crm'
p1052
aS'2oa4'
p1053
aS'2af8'
p1054
aS'1y4o'
p1055
aS'1c7u'
p1056
aS'2dh7'
p1057
aS'1wel'
p1058
aS'1wmv'
p1059
aS'2ecl'
p1060
aS'2cpr'
p1061
aS'1kqi'
p1062
aS'2lp2'
p1063
aS'2bby'
p1064
aS'1uff'
p1065
aS'2jza'
p1066
aS'2bc8'
p1067
aS'2cpb'
p1068
aS'2kdi'
p1069
aS'2dk5'
p1070
aS'1rjh'
p1071
aS'1x5p'
p1072
aS'1ao1'
p1073
aS'2aq0'
p1074
aS'2m1l'
p1075
aS'2kyi'
p1076
aS'1x4a'
p1077
aS'2eed'
p1078
aS'2m3c'
p1079
aS'1l7y'
p1080
aS'2lkm'
p1081
aS'2kg6'
p1082
aS'1nla'
p1083
aS'1ysi'
p1084
aS'2elr'
p1085
aS'1z1d'
p1086
aS'1wr4'
p1087
aS'2lxr'
p1088
aS'139d'
p1089
aS'2jzt'
p1090
aS'2fc6'
p1091
aS'1dsk'
p1092
aS'1vm4'
p1093
aS'2kh4'
p1094
aS'2l4n'
p1095
aS'1cxn'
p1096
aS'2eod'
p1097
aS'2dgt'
p1098
aS'2l10'
p1099
aS'1mwg'
p1100
aS'2ab9'
p1101
aS'1sou'
p1102
aS'2eki'
p1103
aS'2lqg'
p1104
aS'1g91'
p1105
aS'2j48'
p1106
aS'2k05'
p1107
aS'2jp1'
p1108
aS'1agz'
p1109
aS'2i7k'
p1110
aS'2ly4'
p1111
aS'2dm7'
p1112
aS'2kh2'
p1113
aS'2b3w'
p1114
aS'2evz'
p1115
aS'1x5i'
p1116
aS'1hyk'
p1117
aS'2dnq'
p1118
aS'1rng'
p1119
aS'2jxp'
p1120
aS'1ka7'
p1121
aS'2jt1'
p1122
aS'1x47'
p1123
aS'1x4f'
p1124
aS'4aiy'
p1125
aS'2v9h'
p1126
aS'2djp'
p1127
aS'1xhh'
p1128
aS'1v7f'
p1129
aS'2jxh'
p1130
aS'2jwq'
p1131
aS'2rpt'
p1132
aS'2kz8'
p1133
aS'2epa'
p1134
aS'2dog'
p1135
aS'2b8a'
p1136
aS'1win'
p1137
aS'186d'
p1138
aS'2kjd'
p1139
aS'1opi'
p1140
aS'1wwv'
p1141
aS'1tqr'
p1142
aS'2l3m'
p1143
aS'1ny4'
p1144
aS'2ekj'
p1145
aS'2cd3'
p1146
aS'1me0'
p1147
aS'2m4p'
p1148
aS'2elq'
p1149
aS'1x5s'
p1150
aS'2kn2'
p1151
aS'2k7m'
p1152
aS'1x5a'
p1153
aS'2icz'
p1154
aS'2db8'
p1155
aS'2jnu'
p1156
aS'2lpc'
p1157
aS'2lv3'
p1158
aS'2hjj'
p1159
aS'2hm9'
p1160
aS'2cqn'
p1161
aS'1cfi'
p1162
aS'1wjq'
p1163
aS'2lgi'
p1164
aS'2lo4'
p1165
aS'2kqa'
p1166
aS'2kgi'
p1167
aS'2khe'
p1168
aS'1rme'
p1169
aS'2l7a'
p1170
aS'1xpw'
p1171
aS'2lta'
p1172
aS'1v49'
p1173
aS'1hx2'
p1174
aS'1t54'
p1175
aS'1zza'
p1176
aS'2rm4'
p1177
aS'2lqp'
p1178
aS'2dia'
p1179
aS'1dv9'
p1180
aS'2h9z'
p1181
aS'2m0m'
p1182
aS'2pcf'
p1183
aS'2ecc'
p1184
aS'1kqq'
p1185
aS'2kic'
p1186
aS'2l5u'
p1187
aS'2loe'
p1188
aS'1uhf'
p1189
aS'2k2r'
p1190
aS'1dn3'
p1191
aS'2lb9'
p1192
aS'2y1s'
p1193
aS'2lp3'
p1194
aS'2m5a'
p1195
aS'2e5i'
p1196
aS'2ajw'
p1197
aS'1v4q'
p1198
aS'1zzv'
p1199
aS'2cpx'
p1200
aS'2uzg'
p1201
aS'2ysb'
p1202
aS'1hky'
p1203
aS'2czo'
p1204
aS'2eln'
p1205
aS'2kj3'
p1206
aS'2kif'
p1207
aS'2kkf'
p1208
aS'2l4g'
p1209
aS'1hr1'
p1210
aS'2nwm'
p1211
aS'2hva'
p1212
aS'2klz'
p1213
aS'1ut3'
p1214
aS'1i2u'
p1215
aS'1wo5'
p1216
aS'1x30'
p1217
aS'2gw9'
p1218
aS'1jbl'
p1219
aS'1ac9'
p1220
aS'2dnf'
p1221
aS'2k68'
p1222
aS'1cw6'
p1223
aS'1o0p'
p1224
aS'1xhs'
p1225
aS'2kjq'
p1226
aS'1p5m'
p1227
aS'1dgn'
p1228
aS'1c0o'
p1229
aS'1ld6'
p1230
aS'2ldf'
p1231
aS'2dnc'
p1232
aS'2m27'
p1233
aS'2lwi'
p1234
aS'1ad7'
p1235
aS'2da6'
p1236
aS'2htf'
p1237
aS'1whx'
p1238
aS'1wk0'
p1239
aS'2jq3'
p1240
aS'2ys9'
p1241
aS'1j6t'
p1242
aS'2jyy'
p1243
aS'2ctp'
p1244
aS'1zig'
p1245
aS'1kri'
p1246
aS'2joe'
p1247
aS'2dkt'
p1248
aS'2ea5'
p1249
aS'2b0f'
p1250
aS'2ee4'
p1251
aS'1i0u'
p1252
aS'1v9w'
p1253
aS'1ldl'
p1254
aS'2k0t'
p1255
aS'2dnn'
p1256
aS'2m92'
p1257
aS'4bf8'
p1258
aS'105d'
p1259
aS'1nbj'
p1260
aS'1j0f'
p1261
aS'2jyq'
p1262
aS'2djs'
p1263
aS'1q3z'
p1264
aS'2ytk'
p1265
aS'2bw2'
p1266
aS'1uss'
p1267
aS'2jzj'
p1268
aS'1whm'
p1269
aS'2hg6'
p1270
aS'1i8y'
p1271
aS'2emg'
p1272
aS'2d9l'
p1273
aS'2lmv'
p1274
aS'2po8'
p1275
aS'2lfn'
p1276
aS'2ytr'
p1277
aS'1x4z'
p1278
aS'1gw4'
p1279
aS'2y4w'
p1280
aS'2d9i'
p1281
aS'2hm5'
p1282
aS'2kmc'
p1283
aS'1dey'
p1284
aS'2eli'
p1285
aS'2l08'
p1286
aS'2btg'
p1287
aS'2m0g'
p1288
aS'2rmf'
p1289
aS'2ebq'
p1290
aS'2kol'
p1291
aS'2fc9'
p1292
aS'1hvz'
p1293
aS'2dzm'
p1294
aS'2m19'
p1295
aS'2lw1'
p1296
aS'2js0'
p1297
aS'2eqh'
p1298
aS'1qfd'
p1299
aS'2jm8'
p1300
aS'2j8l'
p1301
aS'2lcf'
p1302
aS'2e3f'
p1303
aS'2dgu'
p1304
aS'2g7j'
p1305
aS'2rmx'
p1306
aS'1wlx'
p1307
aS'1hj7'
p1308
aS'1wfh'
p1309
aS'2cp8'
p1310
aS'2dod'
p1311
aS'2rsn'
p1312
aS'1wig'
p1313
aS'1yyc'
p1314
aS'2gw6'
p1315
aS'2ltt'
p1316
aS'2eel'
p1317
aS'2p6j'
p1318
aS'1iqo'
p1319
aS'2m4q'
p1320
aS'2k5l'
p1321
aS'2dcv'
p1322
aS'1d9o'
p1323
aS'2ejm'
p1324
aS'2dim'
p1325
aS'1wjw'
p1326
aS'2l3a'
p1327
aS'2gzp'
p1328
aS'2cpz'
p1329
aS'1p5n'
p1330
aS'2xk0'
p1331
aS'1wfw'
p1332
aS'1xga'
p1333
aS'1bc4'
p1334
aS'2rod'
p1335
aS'1o4x'
p1336
aS'1whu'
p1337
aS'2jsw'
p1338
aS'2lyr'
p1339
aS'2dhk'
p1340
aS'2jnj'
p1341
aS'2ct1'
p1342
aS'2l06'
p1343
aS'2g4a'
p1344
aS'2kds'
p1345
aS'2kdw'
p1346
aS'2yuv'
p1347
aS'2lmq'
p1348
aS'2jut'
p1349
aS'2ena'
p1350
aS'2dj7'
p1351
aS'2l1j'
p1352
aS'2hj8'
p1353
aS'2k3c'
p1354
aS'1crp'
p1355
aS'1wir'
p1356
aS'1wwe'
p1357
aS'2j53'
p1358
aS'2i59'
p1359
aS'1mm3'
p1360
aS'2m0u'
p1361
aS'1cl3'
p1362
aS'1kal'
p1363
aS'1c15'
p1364
aS'1wwg'
p1365
aS'2dgz'
p1366
aS'2dh9'
p1367
aS'2hx6'
p1368
aS'2kom'
p1369
aS'1wgq'
p1370
aS'2yrg'
p1371
aS'2kg8'
p1372
aS'1axl'
p1373
aS'1lwa'
p1374
aS'2lmp'
p1375
aS'2lgk'
p1376
aS'2jr6'
p1377
aS'1qc8'
p1378
aS'2en4'
p1379
aS'2kxf'
p1380
aS'1rnk'
p1381
aS'2jrq'
p1382
aS'1fv5'
p1383
aS'2eqy'
p1384
aS'2lam'
p1385
aS'1gw3'
p1386
aS'2jpq'
p1387
aS'2fi2'
p1388
aS'1wfk'
p1389
aS'1x5b'
p1390
aS'1b36'
p1391
aS'2djr'
p1392
aS'136d'
p1393
aS'2k04'
p1394
aS'1ryj'
p1395
aS'1iy4'
p1396
aS'1xy5'
p1397
aS'2dgo'
p1398
aS'2eqt'
p1399
aS'2l5a'
p1400
aS'1yyb'
p1401
aS'2l89'
p1402
aS'1jv9'
p1403
aS'2kej'
p1404
aS'2dle'
p1405
aS'2jp3'
p1406
aS'1p00'
p1407
aS'1ly7'
p1408
aS'1jy6'
p1409
aS'1eyo'
p1410
aS'2ofq'
p1411
aS'2dk7'
p1412
aS'1s24'
p1413
aS'2l5z'
p1414
aS'2hjq'
p1415
aS'2k02'
p1416
aS'1whv'
p1417
aS'2lbj'
p1418
aS'1mfs'
p1419
aS'1biv'
p1420
aS'2gqb'
p1421
aS'2nlu'
p1422
aS'2c6b'
p1423
aS'2rnq'
p1424
aS'2gzo'
p1425
aS'2lru'
p1426
aS'2div'
p1427
aS'1r6p'
p1428
aS'1nzp'
p1429
aS'1x2m'
p1430
aS'3aiy'
p1431
aS'1q53'
p1432
aS'1vm5'
p1433
aS'2hqn'
p1434
aS'1mea'
p1435
aS'2cup'
p1436
aS'1au5'
p1437
aS'2kj9'
p1438
aS'1n89'
p1439
aS'1q27'
p1440
aS'1g26'
p1441
aS'1dpq'
p1442
aS'1a11'
p1443
aS'2kvg'
p1444
aS'2gow'
p1445
aS'1wlp'
p1446
aS'2ayy'
p1447
aS'1xne'
p1448
aS'2db6'
p1449
aS'2gcc'
p1450
aS'1x62'
p1451
aS'1wgl'
p1452
aS'1q60'
p1453
aS'2acm'
p1454
aS'1egr'
p1455
aS'1r4d'
p1456
aS'2rr2'
p1457
aS'1atw'
p1458
aS'2e5q'
p1459
aS'2lyk'
p1460
aS'2k2a'
p1461
aS'2k7i'
p1462
aS'2h35'
p1463
aS'2dl6'
p1464
aS'1wxb'
p1465
aS'2kmd'
p1466
aS'1chc'
p1467
aS'4b6v'
p1468
aS'1ums'
p1469
aS'2jz1'
p1470
aS'1elh'
p1471
aS'2las'
p1472
aS'1v90'
p1473
aS'1i5h'
p1474
aS'1iku'
p1475
aS'2v3l'
p1476
aS'1rw5'
p1477
aS'1dk2'
p1478
aS'2me1'
p1479
aS'1p5p'
p1480
aS'1kj5'
p1481
aS'1pu3'
p1482
aS'2b3a'
p1483
aS'2kmk'
p1484
aS'1xn5'
p1485
aS'2l09'
p1486
aS'2fyh'
p1487
aS'2edw'
p1488
aS'1kvh'
p1489
aS'1d9l'
p1490
aS'2cre'
p1491
aS'1ydu'
p1492
aS'2kc1'
p1493
aS'2k7g'
p1494
aS'2lgj'
p1495
aS'2e5s'
p1496
aS'2l0d'
p1497
aS'1i87'
p1498
aS'1ssf'
p1499
aS'2rp4'
p1500
aS'2z3s'
p1501
aS'2d9k'
p1502
aS'1f7g'
p1503
aS'2a2p'
p1504
aS'1x4h'
p1505
aS'1x4r'
p1506
aS'1gfc'
p1507
aS'1ur6'
p1508
aS'2mrt'
p1509
aS'3znf'
p1510
aS'2dam'
p1511
aS'1b3p'
p1512
aS'1e17'
p1513
aS'2kc2'
p1514
aS'2rql'
p1515
aS'1hfh'
p1516
aS'2lsv'
p1517
aS'1qli'
p1518
aS'1bnb'
p1519
aS'2aje'
p1520
aS'2a24'
p1521
aS'2ecm'
p1522
aS'1jfk'
p1523
aS'2wcc'
p1524
aS'1ark'
p1525
aS'2kal'
p1526
aS'2kdz'
p1527
aS'1ssk'
p1528
aS'2l1l'
p1529
aS'1f85'
p1530
aS'2adz'
p1531
aS'1ufx'
p1532
aS'2dak'
p1533
aS'2a2b'
p1534
aS'2csj'
p1535
aS'1v5t'
p1536
aS'2gzk'
p1537
aS'2cqr'
p1538
aS'2f2j'
p1539
aS'2eri'
p1540
aS'2rqk'
p1541
aS'1we7'
p1542
aS'2klh'
p1543
aS'1jo6'
p1544
aS'1skh'
p1545
aS'2dm4'
p1546
aS'2hrj'
p1547
aS'2cuq'
p1548
aS'1yp8'
p1549
aS'1ttk'
p1550
aS'1r9p'
p1551
aS'1kpq'
p1552
aS'2m9m'
p1553
aS'2lv4'
p1554
aS'1d7t'
p1555
aS'2m1z'
p1556
aS'1u86'
p1557
aS'1hwv'
p1558
aS'2bzt'
p1559
aS'4bh9'
p1560
aS'2xv9'
p1561
aS'2kwf'
p1562
aS'2jrl'
p1563
aS'1c6w'
p1564
aS'2ll7'
p1565
aS'1ytp'
p1566
aS'2crz'
p1567
aS'2dao'
p1568
aS'2khn'
p1569
aS'1e68'
p1570
aS'1vd2'
p1571
aS'2kxj'
p1572
aS'2b0h'
p1573
aS'1j7q'
p1574
aS'2eon'
p1575
aS'1wjs'
p1576
aS'1f0e'
p1577
aS'1wrg'
p1578
aS'2l26'
p1579
aS'1vae'
p1580
aS'1ikm'
p1581
aS'2kbq'
p1582
aS'1wgh'
p1583
aS'1d8b'
p1584
aS'1xj1'
p1585
aS'2dgp'
p1586
aS'1ysg'
p1587
aS'2m93'
p1588
aS'1ug2'
p1589
aS'1qmc'
p1590
aS'2rrm'
p1591
aS'1gyf'
p1592
aS'2jpt'
p1593
aS'2d8z'
p1594
aS'1sr2'
p1595
aS'1wia'
p1596
aS'2d89'
p1597
aS'1p98'
p1598
aS'1afz'
p1599
aS'2lb5'
p1600
aS'2dce'
p1601
aS'2md4'
p1602
aS'2lwk'
p1603
aS'2l0z'
p1604
aS'2l5o'
p1605
aS'2e5k'
p1606
aS'2e44'
p1607
aS'2kep'
p1608
aS'2jt5'
p1609
aS'2lko'
p1610
aS'1x6w'
p1611
aS'2da9'
p1612
aS'2m0y'
p1613
aS'1vd0'
p1614
aS'1x45'
p1615
aS'2rll'
p1616
aS'2m0t'
p1617
aS'1kpd'
p1618
aS'1z9v'
p1619
aS'2crr'
p1620
aS'1fra'
p1621
aS'2lgp'
p1622
aS'2dnv'
p1623
aS'1bc9'
p1624
aS'1x2n'
p1625
aS'1x5y'
p1626
aS'1kkd'
p1627
aS'1rau'
p1628
aS'2ct0'
p1629
aS'1wev'
p1630
aS'1weu'
p1631
aS'1g5j'
p1632
aS'2k9i'
p1633
aS'1dl6'
p1634
aS'2dkl'
p1635
aS'2l7j'
p1636
aS'1cxo'
p1637
aS'2d7m'
p1638
aS'2edd'
p1639
aS'1w4h'
p1640
aS'1z5f'
p1641
aS'1qjo'
p1642
aS'2kt2'
p1643
aS'1kbe'
p1644
aS'1kbf'
p1645
aS'1ldr'
p1646
aS'2m0v'
p1647
aS'2k8g'
p1648
aS'2krd'
p1649
aS'2l21'
p1650
aS'1tte'
p1651
aS'1lxl'
p1652
aS'2kta'
p1653
aS'2diu'
p1654
aS'2jt4'
p1655
aS'2kq8'
p1656
aS'2vkc'
p1657
aS'2f09'
p1658
aS'1zac'
p1659
aS'1a1z'
p1660
aS'1dhh'
p1661
aS'2k03'
p1662
aS'1acw'
p1663
aS'2kqm'
p1664
aS'1zwf'
p1665
aS'2jnt'
p1666
aS'1bzk'
p1667
aS'1l3e'
p1668
aS'1yzc'
p1669
aS'2h3k'
p1670
aS'2yro'
p1671
aS'1ci5'
p1672
aS'1wrs'
p1673
aS'1wen'
p1674
aS'2csp'
p1675
aS'2cu1'
p1676
aS'2eci'
p1677
aS'2lvu'
p1678
aS'2kwi'
p1679
aS'2fc7'
p1680
aS'2km2'
p1681
aS'2kch'
p1682
aS'1x3c'
p1683
aS'1mm2'
p1684
aS'2klg'
p1685
aS'1x5f'
p1686
aS'1hsq'
p1687
aS'170d'
p1688
aS'2evy'
p1689
aS'2dlo'
p1690
aS'1uui'
p1691
aS'1fmh'
p1692
aS'2kht'
p1693
aS'2js7'
p1694
aS'2dlx'
p1695
aS'1wjn'
p1696
aS'1vpu'
p1697
aS'1q3t'
p1698
aS'1hkt'
p1699
aS'2kcg'
p1700
aS'1jem'
p1701
aS'1abt'
p1702
aS'2f4x'
p1703
aS'2jw4'
p1704
aS'1i9k'
p1705
aS'2m1c'
p1706
aS'1rij'
p1707
aS'2dip'
p1708
aS'2eqq'
p1709
aS'2ers'
p1710
aS'1u34'
p1711
aS'2rgf'
p1712
aS'2lw8'
p1713
aS'2cop'
p1714
aS'2o10'
p1715
aS'1af1'
p1716
aS'2e30'
p1717
aS'2lw9'
p1718
aS'2em0'
p1719
aS'2b3c'
p1720
aS'2crw'
p1721
aS'2yrh'
p1722
aS'2kn1'
p1723
aS'2m17'
p1724
aS'2cq2'
p1725
aS'2jmx'
p1726
aS'1lac'
p1727
aS'2dhg'
p1728
aS'1apf'
p1729
aS'2rmv'
p1730
aS'2day'
p1731
aS'1gdf'
p1732
aS'1wd2'
p1733
aS'2dj3'
p1734
aS'2jue'
p1735
aS'2ke1'
p1736
aS'1w6v'
p1737
aS'2a7o'
p1738
aS'1gl5'
p1739
aS'2k6d'
p1740
aS'2rqt'
p1741
aS'1mxj'
p1742
aS'2enq'
p1743
aS'2dhy'
p1744
aS'1qjl'
p1745
aS'2cqj'
p1746
aS'2lk3'
p1747
aS'1yza'
p1748
aS'2spz'
p1749
aS'2jui'
p1750
aS'2le8'
p1751
aS'4a4t'
p1752
aS'2jrj'
p1753
aS'1brz'
p1754
aS'2e19'
p1755
aS'2kxw'
p1756
aS'1de3'
p1757
aS'1o6w'
p1758
aS'1abv'
p1759
aS'1fd6'
p1760
aS'2yuk'
p1761
aS'1m4e'
p1762
aS'1bjx'
p1763
aS'2bjx'
p1764
aS'1k5i'
p1765
aS'1e8j'
p1766
aS'2lfu'
p1767
aS'1yx0'
p1768
aS'2kuu'
p1769
aS'1eii'
p1770
aS'2epv'
p1771
aS'2dx2'
p1772
aS'2k9u'
p1773
aS'2kra'
p1774
aS'1txb'
p1775
aS'1bae'
p1776
aS'2hh8'
p1777
aS'2jrz'
p1778
aS'2en0'
p1779
aS'1psf'
p1780
aS'1nj0'
p1781
aS'1tmr'
p1782
aS'2kqf'
p1783
aS'2gt3'
p1784
aS'1fyp'
p1785
aS'1uts'
p1786
aS'1vib'
p1787
aS'1s4w'
p1788
aS'1f78'
p1789
aS'1jo5'
p1790
aS'2jtn'
p1791
aS'2kjo'
p1792
aS'2kjn'
p1793
aS'1v2y'
p1794
aS'1lpw'
p1795
aS'1sj6'
p1796
aS'1ato'
p1797
aS'2e5p'
p1798
aS'1j0g'
p1799
aS'1f6x'
p1800
aS'1lwr'
p1801
aS'2cuf'
p1802
aS'2me4'
p1803
aS'1dmo'
p1804
aS'2orl'
p1805
aS'2jxg'
p1806
aS'2hua'
p1807
aS'1wh0'
p1808
aS'1ego'
p1809
aS'2ed8'
p1810
aS'1lv3'
p1811
aS'3zeh'
p1812
aS'2o13'
p1813
aS'2cnj'
p1814
aS'2l9n'
p1815
aS'1uht'
p1816
aS'2crj'
p1817
aS'1d6d'
p1818
aS'1yyj'
p1819
aS'4hck'
p1820
aS'2i96'
p1821
aS'2lrn'
p1822
aS'1pjy'
p1823
aS'4a4u'
p1824
aS'2dks'
p1825
aS'2lys'
p1826
aS'2efi'
p1827
aS'2kdh'
p1828
aS'2ljx'
p1829
aS'1t0g'
p1830
aS'1tfi'
p1831
aS'2jo9'
p1832
aS'1dfe'
p1833
aS'1dgz'
p1834
aS'1ocp'
p1835
aS'2i9n'
p1836
aS'2o8k'
p1837
aS'1joo'
p1838
aS'1jor'
p1839
aS'1ddm'
p1840
aS'2jmo'
p1841
aS'1g2t'
p1842
aS'2jr0'
p1843
aS'2ely'
p1844
aS'1xjs'
p1845
aS'1c9q'
p1846
aS'1tty'
p1847
aS'1v5o'
p1848
aS'2pe9'
p1849
aS'1x2p'
p1850
aS'1nz8'
p1851
aS'2ofn'
p1852
aS'1jbn'
p1853
aS'2e7o'
p1854
aS'2koz'
p1855
aS'1t55'
p1856
aS'2jrv'
p1857
aS'2csk'
p1858
aS'2exd'
p1859
aS'2jgw'
p1860
aS'2kuh'
p1861
aS'1zrw'
p1862
aS'1x5v'
p1863
aS'2m4z'
p1864
aS'2d9b'
p1865
aS'2vah'
p1866
aS'2vai'
p1867
aS'2e3g'
p1868
aS'1ujt'
p1869
aS'2dk1'
p1870
aS'1we8'
p1871
aS'2jtd'
p1872
aS'207d'
p1873
aS'1za8'
p1874
aS'1txm'
p1875
aS'1ktx'
p1876
aS'2rpf'
p1877
aS'1dfz'
p1878
aS'2kcj'
p1879
aS'2k7a'
p1880
aS'2edr'
p1881
aS'1k5f'
p1882
aS'1agk'
p1883
aS'2eom'
p1884
aS'2kcu'
p1885
aS'2glw'
p1886
aS'2exn'
p1887
aS'1x4d'
p1888
aS'1wyn'
p1889
aS'2w0t'
p1890
aS'2lvv'
p1891
aS'2ju6'
p1892
aS'2kn8'
p1893
aS'2k41'
p1894
aS'1la3'
p1895
aS'1dhm'
p1896
aS'1v5m'
p1897
aS'2ib1'
p1898
aS'1sx1'
p1899
aS'2j8j'
p1900
aS'2mc2'
p1901
aS'1p7a'
p1902
aS'1ccf'
p1903
aS'1wi2'
p1904
aS'1pul'
p1905
aS'1tob'
p1906
aS'2cr3'
p1907
aS'1sis'
p1908
aS'1psv'
p1909
aS'2jx1'
p1910
aS'2k13'
p1911
aS'2kph'
p1912
aS'2lkw'
p1913
aS'2di0'
p1914
aS'2lir'
p1915
aS'4a24'
p1916
aS'2l0x'
p1917
aS'2jn4'
p1918
aS'2lrs'
p1919
aS'2d9m'
p1920
aS'2f40'
p1921
aS'2rn0'
p1922
aS'2ljd'
p1923
aS'1pdt'
p1924
aS'2ld1'
p1925
aS'2d92'
p1926
aS'2jul'
p1927
aS'2xks'
p1928
aS'2dnx'
p1929
aS'2emz'
p1930
aS'1buy'
p1931
aS'1kwe'
p1932
aS'2kld'
p1933
aS'2llq'
p1934
aS'2csy'
p1935
aS'2kul'
p1936
aS'1npq'
p1937
aS'2gjy'
p1938
aS'2knp'
p1939
aS'1i5j'
p1940
aS'2d8u'
p1941
aS'2l2f'
p1942
aS'1wr3'
p1943
aS'1be5'
p1944
aS'2l8k'
p1945
aS'2gaq'
p1946
aS'2yum'
p1947
aS'1b4m'
p1948
aS'1n5p'
p1949
aS'1fyo'
p1950
aS'2lew'
p1951
aS'2elp'
p1952
aS'2lls'
p1953
aS'1psy'
p1954
aS'1x4o'
p1955
aS'2jyd'
p1956
aS'1urf'
p1957
aS'1vb7'
p1958
aS'2klu'
p1959
aS'2kvp'
p1960
aS'2jt6'
p1961
aS'1ntc'
p1962
aS'1i56'
p1963
aS'2dj2'
p1964
aS'2l6e'
p1965
aS'1p82'
p1966
aS'1x2q'
p1967
aS'2jx9'
p1968
aS'2kg2'
p1969
aS'1x6e'
p1970
aS'2csf'
p1971
aS'2k8r'
p1972
aS'2lpe'
p1973
aS'1yws'
p1974
aS'2din'
p1975
aS'1z8m'
p1976
aS'2kn4'
p1977
aS'1k3k'
p1978
aS'2yt6'
p1979
aS'1kun'
p1980
aS'2kuw'
p1981
aS'2di2'
p1982
aS'1xrd'
p1983
aS'2kuv'
p1984
aS'1xg1'
p1985
aS'2em1'
p1986
aS'1x0o'
p1987
aS'2kr9'
p1988
aS'1hrf'
p1989
aS'4b8t'
p1990
aS'2a05'
p1991
aS'2lnc'
p1992
aS'1tiu'
p1993
aS'1tce'
p1994
aS'2ghf'
p1995
aS'1a23'
p1996
aS'1wfu'
p1997
aS'1e0m'
p1998
aS'2kos'
p1999
aS'1x4q'
p2000
aS'1ajf'
p2001
aS'1slo'
p2002
aS'2k0a'
p2003
aS'2db5'
p2004
aS'1dwm'
p2005
aS'1qnz'
p2006
aS'1jav'
p2007
aS'1hoq'
p2008
aS'1kz5'
p2009
aS'1m62'
p2010
aS'2jye'
p2011
aS'1p7m'
p2012
aS'2ku2'
p2013
aS'1jy9'
p2014
aS'2diq'
p2015
aS'2jw5'
p2016
aS'2d8y'
p2017
aS'1n66'
p2018
aS'2gv3'
p2019
aS'1x4k'
p2020
aS'1s4j'
p2021
aS'1joq'
p2022
aS'2ls5'
p2023
aS'2lgd'
p2024
aS'2lit'
p2025
aS'1t2r'
p2026
aS'2png'
p2027
aS'2lw6'
p2028
aS'1f7f'
p2029
aS'2ecd'
p2030
aS'2ki4'
p2031
aS'2ell'
p2032
aS'1i6f'
p2033
aS'2l80'
p2034
aS'4b19'
p2035
aS'2ej7'
p2036
aS'2jzl'
p2037
aS'2kei'
p2038
aS'1z9e'
p2039
aS'2jmp'
p2040
aS'1rkk'
p2041
aS'1ryu'
p2042
aS'1wfy'
p2043
aS'1lab'
p2044
aS'2co8'
p2045
aS'1x41'
p2046
aS'1xn6'
p2047
aS'1w3d'
p2048
aS'2ggf'
p2049
aS'1jyt'
p2050
aS'1onv'
p2051
aS'2m1o'
p2052
aS'1x4n'
p2053
aS'2lmu'
p2054
aS'1wgv'
p2055
aS'1kj6'
p2056
aS'2dne'
p2057
aS'1f9l'
p2058
aS'2ksu'
p2059
aS'2row'
p2060
aS'1sa8'
p2061
aS'2kp1'
p2062
aS'1fvn'
p2063
aS'2kle'
p2064
aS'2le4'
p2065
aS'1szy'
p2066
aS'2o8z'
p2067
aS'2ayj'
p2068
aS'1we9'
p2069
aS'1fpw'
p2070
aS'1t2s'
p2071
aS'1e4t'
p2072
aS'2l4v'
p2073
aS'2jgx'
p2074
aS'2jzs'
p2075
aS'1ue9'
p2076
aS'2jq4'
p2077
aS'1dsq'
p2078
aS'2dn6'
p2079
aS'2jn5'
p2080
aS'1ap0'
p2081
aS'1mfy'
p2082
aS'2hyn'
p2083
aS'1j9o'
p2084
aS'1ust'
p2085
aS'2l72'
p2086
aS'1nb1'
p2087
aS'1jok'
p2088
aS'1atv'
p2089
aS'1w09'
p2090
aS'1qg9'
p2091
aS'2k7n'
p2092
aS'2ck4'
p2093
aS'1smg'
p2094
aS'1vig'
p2095
aS'1z9i'
p2096
aS'2ezw'
p2097
aS'2kpl'
p2098
aS'1wyh'
p2099
aS'2dly'
p2100
aS'2jq0'
p2101
aS'2kur'
p2102
aS'2ls2'
p2103
aS'1rfa'
p2104
aS'1f7i'
p2105
aS'2bun'
p2106
aS'2lvf'
p2107
aS'2kgk'
p2108
aS'1crr'
p2109
aS'1xn9'
p2110
aS'2axk'
p2111
aS'2dal'
p2112
aS'2luc'
p2113
aS'2hsp'
p2114
aS'2jm5'
p2115
aS'4a4r'
p2116
aS'1e4s'
p2117
aS'2jxy'
p2118
aS'1g8c'
p2119
aS'1wxv'
p2120
aS'2elt'
p2121
aS'2cr4'
p2122
aS'2crn'
p2123
aS'2rmz'
p2124
aS'1x5x'
p2125
aS'1w0b'
p2126
aS'2kyk'
p2127
aS'1x40'
p2128
aS'2ls8'
p2129
aS'1wln'
p2130
aS'2k0q'
p2131
aS'1f6z'
p2132
aS'2k51'
p2133
aS'1y5o'
p2134
aS'2eqn'
p2135
aS'2jxd'
p2136
aS'1c3t'
p2137
aS'2k67'
p2138
aS'4aog'
p2139
aS'4ba8'
p2140
aS'1ahl'
p2141
aS'2rrk'
p2142
aS'1olg'
p2143
aS'2dhz'
p2144
aS'1x4b'
p2145
aS'2edi'
p2146
aS'2cor'
p2147
aS'2k60'
p2148
aS'1r3b'
p2149
aS'1n02'
p2150
aS'2daq'
p2151
aS'1wo4'
p2152
aS'1x1f'
p2153
aS'2b86'
p2154
aS'1wpd'
p2155
aS'2eyd'
p2156
aS'1f9x'
p2157
aS'2egm'
p2158
aS'2l2c'
p2159
aS'1v5s'
p2160
aS'2maz'
p2161
aS'2lj4'
p2162
aS'1n4b'
p2163
aS'2nx6'
p2164
aS'1ugv'
p2165
aS'1mjd'
p2166
aS'2fqh'
p2167
aS'2jps'
p2168
aS'2cof'
p2169
aS'2lgx'
p2170
aS'1r5s'
p2171
aS'2ljs'
p2172
aS'2ltq'
p2173
aS'2gd7'
p2174
aS'2elx'
p2175
aS'2l7t'
p2176
aS'1adn'
p2177
aS'1f5x'
p2178
aS'1g2s'
p2179
aS'2ysm'
p2180
aS'1vyn'
p2181
aS'2b7e'
p2182
aS'2rrd'
p2183
aS'2yre'
p2184
aS'2poj'
p2185
aS'1l7b'
p2186
aS'2eqx'
p2187
aS'1rrb'
p2188
aS'2a1c'
p2189
aS'2f3w'
p2190
aS'1ful'
p2191
aS'1fuv'
p2192
aS'1cdq'
p2193
aS'2knm'
p2194
aS'2odd'
p2195
aS'2k1v'
p2196
aS'2fej'
p2197
aS'1e0l'
p2198
aS'1ywj'
p2199
aS'1k2h'
p2200
aS'1z6w'
p2201
aS'2jm1'
p2202
aS'1ow9'
p2203
aS'1zwb'
p2204
aS'2yrj'
p2205
aS'2d8x'
p2206
aS'1bw4'
p2207
aS'2lgz'
p2208
aS'1ugo'
p2209
aS'2jog'
p2210
aS'1eo1'
p2211
aS'1wwt'
p2212
aS'1hjd'
p2213
aS'2i9o'
p2214
aS'2oii'
p2215
aS'1jbj'
p2216
aS'2lst'
p2217
aS'1ujr'
p2218
aS'1k85'
p2219
aS'2k76'
p2220
aS'2go0'
p2221
aS'1imu'
p2222
aS'2hji'
p2223
aS'2dj8'
p2224
aS'1x9a'
p2225
aS'1wju'
p2226
aS'2ror'
p2227
aS'2dis'
p2228
aS'2m5q'
p2229
aS'2lvh'
p2230
aS'1im7'
p2231
aS'2dk3'
p2232
aS'2k8i'
p2233
aS'1fjk'
p2234
aS'1k37'
p2235
aS'1z00'
p2236
aS'1ug1'
p2237
aS'2lgy'
p2238
aS'2lbm'
p2239
aS'1uc6'
p2240
aS'1mp7'
p2241
aS'2uz5'
p2242
aS'1wki'
p2243
aS'2ysg'
p2244
aS'2p81'
p2245
aS'2z2g'
p2246
aS'1kwd'
p2247
aS'2l98'
p2248
aS'2l5f'
p2249
aS'2hh3'
p2250
aS'2ys4'
p2251
aS'2jqf'
p2252
aS'1ejq'
p2253
aS'1te4'
p2254
aS'2arw'
p2255
aS'2jzx'
p2256
aS'1x50'
p2257
aS'1tus'
p2258
aS'2hsy'
p2259
aS'1uhw'
p2260
aS'1v5l'
p2261
aS'2e4h'
p2262
aS'2kbw'
p2263
aS'2elv'
p2264
aS'2kvm'
p2265
aS'1i2v'
p2266
aS'1dk3'
p2267
aS'2asy'
p2268
aS'2ka2'
p2269
aS'1i6z'
p2270
aS'1q3m'
p2271
aS'2rsw'
p2272
aS'1xu6'
p2273
aS'1qp3'
p2274
aS'2dzl'
p2275
aS'1oma'
p2276
aS'2jzk'
p2277
aS'2eeh'
p2278
aS'1hy9'
p2279
aS'1ure'
p2280
aS'2lcd'
p2281
aS'1wfq'
p2282
aS'2akk'
p2283
aS'1vih'
p2284
aS'1bon'
p2285
aS'2glo'
p2286
aS'2xfm'
p2287
aS'2ki6'
p2288
aS'1arj'
p2289
aS'2lr1'
p2290
aS'1spk'
p2291
aS'1r4k'
p2292
aS'1vnb'
p2293
aS'2cqm'
p2294
aS'1bo9'
p2295
aS'2k7d'
p2296
aS'2zaj'
p2297
aS'2l1q'
p2298
aS'2sdf'
p2299
aS'2kp2'
p2300
aS'1x5e'
p2301
aS'2k7c'
p2302
aS'1wiv'
p2303
aS'1bt7'
p2304
aS'1v32'
p2305
aS'2alj'
p2306
aS'1v6b'
p2307
aS'1q69'
p2308
aS'1bha'
p2309
aS'2ltx'
p2310
aS'2kcz'
p2311
aS'2dnw'
p2312
aS'1u0p'
p2313
aS'2yur'
p2314
aS'2los'
p2315
aS'2jnc'
p2316
aS'2l5l'
p2317
aS'2lkb'
p2318
aS'1kd6'
p2319
aS'1fo7'
p2320
aS'2kyx'
p2321
aS'2rpa'
p2322
aS'1tt3'
p2323
aS'1fgd'
p2324
aS'1mrb'
p2325
aS'1uua'
p2326
aS'1wgn'
p2327
aS'1jjg'
p2328
aS'1uit'
p2329
aS'1ryk'
p2330
aS'2yul'
p2331
aS'1cmg'
p2332
aS'1whd'
p2333
aS'1tuq'
p2334
aS'2ys8'
p2335
aS'2gtj'
p2336
aS'2ebl'
p2337
aS'2lcp'
p2338
aS'2k0b'
p2339
aS'2kzd'
p2340
aS'2akl'
p2341
aS'2lwl'
p2342
aS'2hr9'
p2343
aS'1wh7'
p2344
aS'2k47'
p2345
aS'2iem'
p2346
aS'2lyj'
p2347
aS'2arf'
p2348
aS'2lhd'
p2349
aS'1wm7'
p2350
aS'2oey'
p2351
aS'2dlr'
p2352
aS'1ks0'
p2353
aS'1i26'
p2354
aS'1wge'
p2355
aS'2gcz'
p2356
aS'1m8c'
p2357
aS'1ncp'
p2358
aS'2knd'
p2359
aS'1k99'
p2360
aS'2dad'
p2361
aS'2i1t'
p2362
aS'2rp5'
p2363
aS'2dmf'
p2364
aS'2dlq'
p2365
aS'2f3j'
p2366
aS'1qw1'
p2367
aS'2km0'
p2368
aS'2com'
p2369
aS'2m7i'
p2370
aS'2kae'
p2371
aS'1w0a'
p2372
aS'2au4'
p2373
aS'1dx8'
p2374
aS'1wgu'
p2375
aS'2k01'
p2376
aS'2ju0'
p2377
aS'1ajw'
p2378
aS'2pld'
p2379
aS'2df0'
p2380
aS'2dae'
p2381
aS'1lmm'
p2382
aS'1aqr'
p2383
aS'1bom'
p2384
aS'1fjp'
p2385
aS'2jyh'
p2386
aS'2ly5'
p2387
aS'1tuz'
p2388
aS'2dll'
p2389
aS'2lo9'
p2390
aS'1x63'
p2391
aS'1ozi'
p2392
aS'1jm7'
p2393
aS'1km7'
p2394
aS'1qgb'
p2395
aS'1ufz'
p2396
aS'1poq'
p2397
aS'1ozs'
p2398
aS'1bmw'
p2399
aS'1wix'
p2400
aS'5hck'
p2401
aS'1zwt'
p2402
aS'1fkc'
p2403
aS'2lqv'
p2404
aS'1hmj'
p2405
aS'2lmc'
p2406
aS'1wfs'
p2407
aS'1q38'
p2408
aS'1qu6'
p2409
aS'156d'
p2410
aS'2h95'
p2411
aS'2w85'
p2412
aS'1esh'
p2413
aS'1xci'
p2414
aS'1x5q'
p2415
aS'2l74'
p2416
aS'1vzs'
p2417
aS'2ksq'
p2418
aS'1tq1'
p2419
aS'2grg'
p2420
aS'1tey'
p2421
aS'1de1'
p2422
aS'1qxf'
p2423
aS'2l7z'
p2424
aS'1jcu'
p2425
aS'1t52'
p2426
aS'1by1'
p2427
aS'2da7'
p2428
aS'4b2u'
p2429
aS'1s6j'
p2430
aS'2kss'
p2431
aS'1du1'
p2432
aS'2kid'
p2433
aS'2ee1'
p2434
aS'2kx4'
p2435
aS'2joa'
p2436
aS'1m4f'
p2437
aS'2kbr'
p2438
aS'2k4r'
p2439
aS'1m3v'
p2440
aS'1jkz'
p2441
aS'1nyf'
p2442
aS'1qxn'
p2443
aS'1wh5'
p2444
aS'1wz6'
p2445
aS'2nx7'
p2446
aS'2an7'
p2447
aS'2ket'
p2448
aS'1kx6'
p2449
aS'2jxo'
p2450
aS'2jss'
p2451
aS'2aiz'
p2452
aS'1yhd'
p2453
aS'2i3e'
p2454
aS'2rmi'
p2455
aS'1tam'
p2456
aS'1tuj'
p2457
aS'1ckw'
p2458
aS'2lre'
p2459
aS'2roz'
p2460
aS'2lxy'
p2461
aS'2jm6'
p2462
aS'2l9h'
p2463
aS'2db1'
p2464
aS'2kvh'
p2465
aS'2kgq'
p2466
aS'1ujo'
p2467
aS'2dml'
p2468
aS'1evb'
p2469
aS'1lcm'
p2470
aS'1rwu'
p2471
aS'1dxw'
p2472
aS'1tjz'
p2473
aS'2ysh'
p2474
aS'1oy2'
p2475
aS'1a84'
p2476
aS'2eeg'
p2477
aS'2hh2'
p2478
aS'1pba'
p2479
aS'1xpv'
p2480
aS'1gh9'
p2481
aS'1v85'
p2482
aS'1ayg'
p2483
aS'1nin'
p2484
aS'2lgw'
p2485
aS'1ikc'
p2486
aS'2g9j'
p2487
aS'1g03'
p2488
aS'2l5p'
p2489
aS'1zif'
p2490
aS'1b3c'
p2491
aS'1jsa'
p2492
aS'2jm3'
p2493
aS'1o8z'
p2494
aS'1omg'
p2495
aS'2ln7'
p2496
aS'1wan'
p2497
aS'2dlv'
p2498
aS'1ywx'
p2499
aS'2crc'
p2500
aS'1u5m'
p2501
aS'1wgp'
p2502
aS'2kxg'
p2503
aS'2bud'
p2504
aS'1wn8'
p2505
aS'1x3a'
p2506
aS'2l8b'
p2507
aS'2jq2'
p2508
aS'1ld5'
p2509
aS'2crv'
p2510
aS'2wnm'
p2511
aS'1d9j'
p2512
aS'2krm'
p2513
aS'1gxv'
p2514
aS'2l9b'
p2515
aS'1jc2'
p2516
aS'2kuo'
p2517
aS'1v5u'
p2518
aS'1va8'
p2519
aS'2llw'
p2520
aS'2lg5'
p2521
aS'2kum'
p2522
aS'1um1'
p2523
aS'2lme'
p2524
aS'1cds'
p2525
aS'2ldo'
p2526
aS'2ysi'
p2527
aS'1wf1'
p2528
aS'1ufw'
p2529
aS'1wx7'
p2530
aS'1ug8'
p2531
aS'1dp3'
p2532
aS'1sdf'
p2533
aS'2rme'
p2534
aS'1ao4'
p2535
aS'1hn6'
p2536
aS'2lj0'
p2537
aS'2edy'
p2538
aS'2l55'
p2539
aS'2i94'
p2540
aS'1wfi'
p2541
aS'2bug'
p2542
aS'2lj1'
p2543
aS'2vy4'
p2544
aS'2kpz'
p2545
aS'1hre'
p2546
aS'1zrr'
p2547
aS'2ld3'
p2548
aS'2liy'
p2549
aS'2pqe'
p2550
aS'2gto'
p2551
aS'1ha6'
p2552
aS'1n7l'
p2553
aS'1i46'
p2554
aS'1spw'
p2555
aS'1nnv'
p2556
aS'2kf3'
p2557
aS'2ko8'
p2558
aS'1wxa'
p2559
aS'2ysc'
p2560
aS'2lu5'
p2561
aS'2rp1'
p2562
aS'1xs9'
p2563
aS'1n4n'
p2564
aS'1hcs'
p2565
aS'1bwm'
p2566
aS'1ovx'
p2567
aS'2en1'
p2568
aS'1tk7'
p2569
aS'1m8m'
p2570
aS'1wfl'
p2571
aS'2lma'
p2572
aS'1z2q'
p2573
aS'1q10'
p2574
aS'2gtv'
p2575
aS'2ed2'
p2576
aS'2k37'
p2577
aS'2rq9'
p2578
aS'1suh'
p2579
aS'1dv5'
p2580
aS'2beg'
p2581
aS'1v91'
p2582
aS'1j2m'
p2583
aS'2dhx'
p2584
aS'1ckx'
p2585
aS'1fcl'
p2586
aS'1gbr'
p2587
aS'1uud'
p2588
aS'2lqw'
p2589
aS'1itf'
p2590
aS'1bw6'
p2591
aS'2kbp'
p2592
aS'1el0'
p2593
aS'2dmn'
p2594
aS'1se7'
p2595
aS'2lyy'
p2596
aS'4b2r'
p2597
aS'1uao'
p2598
aS'1p8b'
p2599
aS'2leg'
p2600
aS'1dkc'
p2601
aS'2kmy'
p2602
aS'1bvm'
p2603
aS'2j2s'
p2604
aS'2l3s'
p2605
aS'1wz5'
p2606
aS'2eje'
p2607
aS'1ej5'
p2608
aS'2mb9'
p2609
aS'1rht'
p2610
aS'2jw6'
p2611
aS'1wn4'
p2612
aS'2coa'
p2613
aS'2lpn'
p2614
aS'1wgk'
p2615
aS'2hf5'
p2616
aS'1pqn'
p2617
aS'1mek'
p2618
aS'1wvz'
p2619
aS'2dhs'
p2620
aS'1s37'
p2621
aS'1h20'
p2622
aS'1pxq'
p2623
aS'2jnd'
p2624
aS'1ieh'
p2625
aS'2k42'
p2626
aS'1th5'
p2627
aS'1tvm'
p2628
aS'1aqs'
p2629
aS'1ni7'
p2630
aS'2kv7'
p2631
aS'2lac'
p2632
aS'1x64'
p2633
aS'2dn5'
p2634
aS'1jba'
p2635
aS'1wqb'
p2636
aS'2crf'
p2637
aS'2yuc'
p2638
aS'2cs3'
p2639
aS'1s34'
p2640
aS'2kjx'
p2641
aS'2dag'
p2642
aS'1r5e'
p2643
aS'1plo'
p2644
aS'2ede'
p2645
aS'1bds'
p2646
aS'2kto'
p2647
aS'2khz'
p2648
aS'1x3b'
p2649
aS'2hpu'
p2650
aS'2fm4'
p2651
aS'2tob'
p2652
aS'2l5x'
p2653
aS'1r8p'
p2654
aS'2bjc'
p2655
aS'2jyo'
p2656
aS'1gau'
p2657
aS'2jqq'
p2658
aS'2knx'
p2659
aS'1jmp'
p2660
aS'1zok'
p2661
aS'2lbr'
p2662
aS'1x5r'
p2663
aS'1t6w'
p2664
aS'1wwd'
p2665
aS'1vdl'
p2666
aS'1lqq'
p2667
aS'2yse'
p2668
aS'1p1e'
p2669
aS'1c95'
p2670
aS'2rpc'
p2671
aS'1v60'
p2672
aS'2yz0'
p2673
aS'1wg2'
p2674
aS'1x6c'
p2675
aS'1veh'
p2676
aS'2lrj'
p2677
aS'2jp5'
p2678
aS'1wg6'
p2679
aS'1mii'
p2680
aS'2lqz'
p2681
aS'1qgm'
p2682
aS'2lax'
p2683
aS'1hbw'
p2684
aS'1c34'
p2685
aS'2rqe'
p2686
aS'2kms'
p2687
aS'1bdc'
p2688
aS'2ns5'
p2689
aS'1ron'
p2690
aS'1z4h'
p2691
aS'1wj3'
p2692
aS'2rqu'
p2693
aS'2kvx'
p2694
aS'2j4m'
p2695
aS'2dmm'
p2696
aS'2jsj'
p2697
aS'2ez5'
p2698
aS'2ff0'
p2699
aS'1ojg'
p2700
aS'2xku'
p2701
aS'1ufn'
p2702
aS'2elk'
p2703
aS'2jq6'
p2704
aS'2eor'
p2705
aS'2e45'
p2706
aS'1ls4'
p2707
aS'2lby'
p2708
aS'2kis'
p2709
aS'1v9v'
p2710
aS'1q0w'
p2711
aS'2yrv'
p2712
aS'2v37'
p2713
aS'1kdu'
p2714
aS'1j8c'
p2715
aS'2loo'
p2716
aS'1x5c'
p2717
aS'2hm3'
p2718
aS'2lx0'
p2719
aS'2kbe'
p2720
aS'1v95'
p2721
aS'2ayz'
p2722
aS'2d9h'
p2723
aS'1wis'
p2724
aS'1mxk'
p2725
aS'1ctl'
p2726
aS'1faf'
p2727
aS'1wfv'
p2728
aS'1v38'
p2729
aS'1de2'
p2730
aS'1me1'
p2731
aS'1b8t'
p2732
aS'2dir'
p2733
aS'2kbb'
p2734
aS'1zwa'
p2735
aS'1ujy'
p2736
aS'1v86'
p2737
aS'1wez'
p2738
aS'1wo1'
p2739
aS'2e3l'
p2740
aS'2ekk'
p2741
aS'1op4'
p2742
aS'2u2a'
p2743
aS'1u2a'
p2744
aS'2m7a'
p2745
aS'2lvy'
p2746
aS'1g3f'
p2747
aS'1ifw'
p2748
aS'1xmw'
p2749
aS'2rq5'
p2750
aS'2wxc'
p2751
aS'1rjj'
p2752
aS'2ki9'
p2753
aS'2ltc'
p2754
aS'1jo1'
p2755
aS'1h5p'
p2756
aS'2l6m'
p2757
aS'1rim'
p2758
aS'1m4q'
p2759
aS'2jot'
p2760
aS'1y2p'
p2761
aS'1cdr'
p2762
aS'1bno'
p2763
aS'2djm'
p2764
aS'1wjm'
p2765
aS'1osl'
p2766
aS'2kkt'
p2767
aS'2eo3'
p2768
aS'1vcs'
p2769
aS'1l1c'
p2770
aS'1s6l'
p2771
aS'2rsg'
p2772
aS'1prs'
p2773
aS'2lbc'
p2774
aS'2k6x'
p2775
aS'1pqs'
p2776
aS'2ksn'
p2777
aS'1v56'
p2778
aS'2lq9'
p2779
aS'1uk5'
p2780
aS'1v66'
p2781
aS'1siy'
p2782
aS'1v6f'
p2783
aS'1o9a'
p2784
aS'1xfn'
p2785
aS'1wf7'
p2786
aS'2kwd'
p2787
aS'1g6j'
p2788
aS'2opv'
p2789
aS'2kkk'
p2790
aS'1vg5'
p2791
aS'1nyd'
p2792
aS'1mqz'
p2793
aS'1g9e'
p2794
aS'1mux'
p2795
aS'2kv5'
p2796
aS'2xbd'
p2797
aS'1ujx'
p2798
aS'1z6c'
p2799
aS'1otr'
p2800
aS'2kvq'
p2801
aS'1t4z'
p2802
aS'2rmw'
p2803
aS'1aft'
p2804
aS'1wx9'
p2805
aS'1jq4'
p2806
aS'1bnp'
p2807
aS'1ddf'
p2808
aS'1u6p'
p2809
aS'2lnf'
p2810
aS'2kf6'
p2811
aS'1ttv'
p2812
aS'2g31'
p2813
aS'2jqw'
p2814
aS'2hkc'
p2815
aS'2eqm'
p2816
aS'2loz'
p2817
aS'1f84'
p2818
aS'2aiy'
p2819
aS'2ker'
p2820
aS'2jxa'
p2821
aS'2ep0'
p2822
aS'2azs'
p2823
aS'2ecg'
p2824
aS'2kma'
p2825
aS'1kg1'
p2826
aS'1b4i'
p2827
aS'2kwa'
p2828
aS'2kgj'
p2829
aS'2ly6'
p2830
aS'2mbh'
p2831
aS'2kbs'
p2832
aS'1qn0'
p2833
aS'2cr9'
p2834
aS'1je3'
p2835
aS'2oqs'
p2836
aS'2gdy'
p2837
aS'2ct2'
p2838
aS'2kdl'
p2839
aS'1qwb'
p2840
aS'2lba'
p2841
aS'1xke'
p2842
aS'2jpb'
p2843
aS'1qmw'
p2844
aS'1tvj'
p2845
aS'2klk'
p2846
aS'1h8b'
p2847
aS'1m8b'
p2848
aS'1aww'
p2849
aS'4b2s'
p2850
aS'2vy5'
p2851
aS'2gkd'
p2852
aS'2dm0'
p2853
aS'1lup'
p2854
aS'2azh'
p2855
aS'1wik'
p2856
aS'2kmg'
p2857
aS'2crp'
p2858
aS'1j7m'
p2859
aS'2k3v'
p2860
aS'2ld0'
p2861
aS'1zkh'
p2862
aS'1nmv'
p2863
aS'1va9'
p2864
aS'2kio'
p2865
aS'2dan'
p2866
aS'1tle'
p2867
aS'2hir'
p2868
aS'1m82'
p2869
aS'1hf9'
p2870
aS'1owa'
p2871
aS'1oa6'
p2872
aS'2if1'
p2873
aS'1mhu'
p2874
aS'2kiu'
p2875
aS'2ect'
p2876
aS'2h2m'
p2877
aS'1eva'
p2878
aS'2vcd'
p2879
aS'1i6g'
p2880
aS'2jyj'
p2881
aS'2k29'
p2882
aS'2lui'
p2883
aS'1qlc'
p2884
aS'1iox'
p2885
aS'1f7h'
p2886
aS'1uez'
p2887
aS'2ap8'
p2888
aS'1v6e'
p2889
aS'1yr1'
p2890
aS'1wso'
p2891
aS'1ss2'
p2892
aS'1b5b'
p2893
aS'2ns4'
p2894
aS'2lkv'
p2895
aS'1wgg'
p2896
aS'2j4n'
p2897
aS'2d8v'
p2898
aS'1pv0'
p2899
aS'2e5n'
p2900
aS'2rqv'
p2901
aS'2cwb'
p2902
aS'2kh9'
p2903
aS'2hlw'
p2904
aS'2j6d'
p2905
aS'1jau'
p2906
aS'1kfz'
p2907
aS'1oqy'
p2908
aS'1chl'
p2909
aS'2l57'
p2910
aS'2laz'
p2911
aS'1w6b'
p2912
aS'1jw2'
p2913
aS'2opu'
p2914
aS'1rxl'
p2915
aS'1wif'
p2916
aS'1dsv'
p2917
aS'1a57'
p2918
aS'2f88'
p2919
aS'1e4q'
p2920
aS'1u6f'
p2921
aS'1jzp'
p2922
aS'1mr4'
p2923
aS'2ltw'
p2924
aS'2kbl'
p2925
aS'2a7u'
p2926
aS'1irz'
p2927
aS'1nvl'
p2928
aS'2jwu'
p2929
aS'1nj3'
p2930
aS'1qdk'
p2931
aS'1shc'
p2932
aS'2lmt'
p2933
aS'2kvl'
p2934
aS'1m7k'
p2935
aS'1xfe'
p2936
aS'1veg'
p2937
aS'2la9'
p2938
aS'1awx'
p2939
aS'2ejy'
p2940
aS'1sjk'
p2941
aS'2k78'
p2942
aS'2jsv'
p2943
aS'2ltj'
p2944
aS'2o1y'
p2945
aS'2en2'
p2946
aS'2jtf'
p2947
aS'1qyt'
p2948
aS'1c55'
p2949
aS'2out'
p2950
aS'1pe4'
p2951
aS'1wgw'
p2952
aS'1iml'
p2953
aS'1y7j'
p2954
aS'1n3k'
p2955
aS'2m18'
p2956
aS'1nee'
p2957
aS'1ss6'
p2958
aS'2lyp'
p2959
aS'2kf4'
p2960
aS'1xx3'
p2961
aS'2kcr'
p2962
aS'2g7h'
p2963
aS'1x53'
p2964
aS'1ajy'
p2965
aS'1qcm'
p2966
aS'1bsn'
p2967
aS'2d8c'
p2968
aS'2rov'
p2969
aS'1x5u'
p2970
aS'1ugj'
p2971
aS'4a5v'
p2972
aS'2ro4'
p2973
aS'1fad'
p2974
aS'2ddl'
p2975
aS'1sxd'
p2976
aS'2h8b'
p2977
aS'1eyf'
p2978
aS'2kkr'
p2979
aS'2lqn'
p2980
aS'1sxe'
p2981
aS'2k89'
p2982
aS'1idv'
p2983
aS'1oa5'
p2984
aS'1yg0'
p2985
aS'2lcr'
p2986
aS'2kor'
p2987
aS'2k7b'
p2988
aS'2kgh'
p2989
aS'2xa6'
p2990
aS'2cq7'
p2991
aS'2l4c'
p2992
aS'1ufg'
p2993
aS'2gpq'
p2994
aS'1iyv'
p2995
aS'2c5z'
p2996
aS'1xbd'
p2997
aS'1nyg'
p2998
aS'1y4e'
p2999
aS'2lb0'
p3000
aS'1epj'
p3001
aS'2hbp'
p3002
aS'1wlm'
p3003
aS'2kx9'
p3004
aS'2koq'
p3005
aS'2ebz'
p3006
aS'2eoq'
p3007
aS'2dk8'
p3008
aS'1wf2'
p3009
aS'1cg7'
p3010
aS'2ecy'
p3011
aS'2eko'
p3012
aS'2fhw'
p3013
aS'1gat'
p3014
aS'2tpk'
p3015
aS'1s4z'
p3016
aS'2kn0'
p3017
aS'1q2n'
p3018
aS'2gj0'
p3019
aS'1nyp'
p3020
aS'2cq8'
p3021
aS'2rmk'
p3022
aS'2ld2'
p3023
aS'1mk3'
p3024
aS'1spy'
p3025
aS'2roo'
p3026
aS'1ret'
p3027
aS'1qk9'
p3028
aS'1zad'
p3029
aS'2gi4'
p3030
aS'1wi3'
p3031
aS'2dix'
p3032
aS'1c8p'
p3033
aS'2a7y'
p3034
aS'2i1i'
p3035
aS'1roo'
p3036
aS'1b64'
p3037
aS'1wgy'
p3038
aS'1l1i'
p3039
aS'1pg1'
p3040
aS'1l1m'
p3041
aS'2kbt'
p3042
aS'1kzv'
p3043
aS'2kb6'
p3044
aS'1b1v'
p3045
aS'2m22'
p3046
aS'1gxx'
p3047
aS'1fwo'
p3048
aS'1xhp'
p3049
aS'2lm3'
p3050
aS'2h60'
p3051
aS'1wj1'
p3052
aS'1tu2'
p3053
aS'1wjt'
p3054
aS'1wh1'
p3055
aS'1p4q'
p3056
aS'1xwe'
p3057
aS'2h45'
p3058
aS'2dai'
p3059
aS'1whc'
p3060
aS'1wx8'
p3061
aS'1feo'
p3062
aS'1p97'
p3063
aS'2ogp'
p3064
aS'1xna'
p3065
aS'1rk7'
p3066
aS'1jjr'
p3067
aS'1j2o'
p3068
aS'2ase'
p3069
aS'2lcj'
p3070
aS'2m3k'
p3071
aS'1nq4'
p3072
aS'1uhz'
p3073
aS'2kf5'
p3074
aS'1epi'
p3075
aS'1zih'
p3076
aS'2dde'
p3077
aS'1hth'
p3078
aS'1umq'
p3079
aS'1t1h'
p3080
aS'1wyl'
p3081
aS'1u62'
p3082
aS'1e8e'
p3083
aS'2ljj'
p3084
aS'1bhb'
p3085
aS'1xsf'
p3086
aS'2ilx'
p3087
aS'2ltv'
p3088
aS'1uvg'
p3089
aS'2l1c'
p3090
aS'1qcv'
p3091
aS'1uju'
p3092
aS'1udm'
p3093
aS'2rly'
p3094
aS'2k06'
p3095
aS'1iv0'
p3096
aS'1z86'
p3097
aS'1x6d'
p3098
aS'1fnx'
p3099
aS'2jwz'
p3100
aS'1a1p'
p3101
aS'2l91'
p3102
aS'1sf0'
p3103
aS'1ebq'
p3104
aS'2rlo'
p3105
aS'1tmz'
p3106
aS'2lf1'
p3107
aS'1ezp'
p3108
aS'2rqp'
p3109
aS'1oqa'
p3110
aS'1ynx'
p3111
aS'1h67'
p3112
aS'2llx'
p3113
aS'3mef'
p3114
aS'1d68'
p3115
aS'3ctn'
p3116
aS'1c32'
p3117
aS'1h6q'
p3118
aS'1h7y'
p3119
aS'2kq3'
p3120
aS'1slp'
p3121
aS'2vxd'
p3122
aS'2ita'
p3123
aS'1etf'
p3124
aS'1um7'
p3125
aS'1x4j'
p3126
aS'1nmw'
p3127
aS'1x22'
p3128
aS'1kio'
p3129
aS'1hct'
p3130
aS'1jt8'
p3131
aS'2kjl'
p3132
aS'2klj'
p3133
aS'1ywy'
p3134
aS'2irn'
p3135
aS'2iro'
p3136
aS'2edb'
p3137
aS'2frb'
p3138
aS'1j7r'
p3139
aS'2djy'
p3140
aS'2l4j'
p3141
aS'1koc'
p3142
aS'1v3f'
p3143
aS'1v5p'
p3144
aS'2lsr'
p3145
aS'1cok'
p3146
aS'1q5w'
p3147
aS'1arf'
p3148
aS'2e8d'
p3149
aS'1d69'
p3150
aS'1fho'
p3151
aS'2lrt'
p3152
aS'1luh'
p3153
aS'1rji'
p3154
aS'2kxp'
p3155
aS'1jxf'
p3156
aS'2cco'
p3157
aS'2e4i'
p3158
aS'2l5s'
p3159
aS'1prr'
p3160
aS'1afh'
p3161
aS'2f8u'
p3162
aS'1ih0'
p3163
aS'1faq'
p3164
aS'1x4p'
p3165
aS'1y8f'
p3166
aS'2mbj'
p3167
aS'1ghj'
p3168
aS'2joj'
p3169
aS'1qwa'
p3170
aS'1g10'
p3171
aS'1wiz'
p3172
aS'1axh'
p3173
aS'1wgx'
p3174
aS'2i9s'
p3175
aS'2ck5'
p3176
aS'1sv1'
p3177
aS'2kbx'
p3178
aS'1k8h'
p3179
aS'1c49'
p3180
aS'1b2t'
p3181
aS'2lmf'
p3182
aS'2hde'
p3183
aS'2lyl'
p3184
aS'1u3b'
p3185
aS'2me3'
p3186
aS'2lf8'
p3187
aS'1rh8'
p3188
aS'2m21'
p3189
aS'2k5u'
p3190
aS'2jnf'
p3191
aS'2gmo'
p3192
aS'1ri0'
p3193
aS'2jyl'
p3194
aS'2laq'
p3195
aS'2k8o'
p3196
aS'1w4g'
p3197
aS'1x7k'
p3198
aS'2km8'
p3199
aS'2ev8'
p3200
aS'2crh'
p3201
aS'1o7b'
p3202
aS'2m2k'
p3203
aS'1w7d'
p3204
aS'1rjt'
p3205
aS'1wi7'
p3206
aS'1qr5'
p3207
aS'1mtg'
p3208
aS'2jtp'
p3209
aS'1uil'
p3210
aS'2y9t'
p3211
aS'2l5m'
p3212
aS'2fqa'
p3213
aS'2ldc'
p3214
aS'2xc7'
p3215
aS'1jgk'
p3216
aS'1wry'
p3217
aS'2rmj'
p3218
aS'1kdl'
p3219
aS'2ap7'
p3220
aS'2lbv'
p3221
aS'2l28'
p3222
aS'1guw'
p3223
aS'1a66'
p3224
aS'1d3x'
p3225
aS'1m3g'
p3226
aS'2i0n'
p3227
aS'1x6b'
p3228
aS'2jv5'
p3229
aS'2lwe'
p3230
aS'1jbd'
p3231
aS'1ich'
p3232
aS'1rmk'
p3233
aS'2f3v'
p3234
aS'1k5e'
p3235
aS'1l6t'
p3236
aS'1auu'
p3237
aS'3zpm'
p3238
aS'1tvs'
p3239
aS'1q5l'
p3240
aS'1e52'
p3241
aS'1okd'
p3242
aS'2fsp'
p3243
aS'1a0n'
p3244
aS'1wyj'
p3245
aS'4apd'
p3246
aS'2yrt'
p3247
aS'2xdf'
p3248
aS'1qn1'
p3249
aS'2lja'
p3250
aS'2rmd'
p3251
aS'2a4h'
p3252
aS'1n65'
p3253
aS'2jyz'
p3254
aS'2v0e'
p3255
aS'1ysn'
p3256
aS'2l3o'
p3257
aS'2jyg'
p3258
aS'2imu'
p3259
aS'2m14'
p3260
aS'1vna'
p3261
aS'1tiv'
p3262
aS'2l9w'
p3263
aS'1qrj'
p3264
aS'2kxr'
p3265
aS'1uhp'
p3266
aS'1g47'
p3267
aS'2e4j'
p3268
aS'1c56'
p3269
aS'2lu0'
p3270
aS'2diw'
p3271
aS'1c35'
p3272
aS'1g3g'
p3273
aS'2kjv'
p3274
aS'1gb4'
p3275
aS'1ixt'
p3276
aS'1uxd'
p3277
aS'1rl5'
p3278
aS'1cop'
p3279
aS'2ka9'
p3280
aS'2rpe'
p3281
aS'1mxp'
p3282
aS'1jjp'
p3283
aS'1ksm'
p3284
aS'2bds'
p3285
aS'1paa'
p3286
aS'2k6l'
p3287
aS'2eyv'
p3288
aS'1n3h'
p3289
aS'1m4p'
p3290
aS'1yg4'
p3291
aS'1dsc'
p3292
aS'2oj2'
p3293
aS'2kft'
p3294
aS'2p89'
p3295
aS'1aml'
p3296
aS'2lcl'
p3297
aS'1m8o'
p3298
aS'1t8d'
p3299
aS'2lkl'
p3300
aS'1wum'
p3301
aS'1o0l'
p3302
aS'2li4'
p3303
aS'1ajl'
p3304
aS'1xs3'
p3305
aS'1v31'
p3306
aS'2k8a'
p3307
aS'2lay'
p3308
aS'1x5n'
p3309
aS'1bdd'
p3310
aS'2bz2'
p3311
aS'1dz5'
p3312
aS'1mke'
p3313
aS'1lkq'
p3314
aS'1smz'
p3315
aS'1xsb'
p3316
aS'2mfn'
p3317
aS'2cok'
p3318
aS'2bn6'
p3319
aS'1g04'
p3320
aS'2kxx'
p3321
aS'2d99'
p3322
aS'1jtj'
p3323
aS'2byf'
p3324
aS'1cee'
p3325
aS'2a3d'
p3326
aS'1qnk'
p3327
aS'1bfj'
p3328
aS'2lkc'
p3329
aS'1h3h'
p3330
aS'2kye'
p3331
aS'1k43'
p3332
aS'1niz'
p3333
aS'2d9j'
p3334
aS'1q6b'
p3335
aS'1j4o'
p3336
aS'2k7y'
p3337
aS'1esy'
p3338
aS'1wg4'
p3339
aS'1hqb'
p3340
aS'1e4u'
p3341
aS'1r2p'
p3342
aS'1xnt'
p3343
aS'1j7h'
p3344
aS'2rm0'
p3345
aS'2b88'
p3346
aS'2ls7'
p3347
aS'2e5o'
p3348
aS'2ae9'
p3349
aS'1u5s'
p3350
aS'1hcp'
p3351
aS'1sjl'
p3352
aS'2i7z'
p3353
aS'2l2g'
p3354
aS'1tkn'
p3355
aS'2mbc'
p3356
aS'1ug7'
p3357
aS'2kpk'
p3358
aS'2c55'
p3359
aS'1agu'
p3360
aS'2ojo'
p3361
aS'1e4r'
p3362
aS'1k3n'
p3363
aS'1zc1'
p3364
aS'2ejs'
p3365
aS'1ig4'
p3366
aS'2dit'
p3367
aS'2lb1'
p3368
aS'1wex'
p3369
aS'2wgo'
p3370
aS'2bl5'
p3371
aS'2vrg'
p3372
aS'1ot4'
p3373
aS'2knf'
p3374
aS'2gs0'
p3375
aS'1coe'
p3376
aS'2nrg'
p3377
aS'2jvz'
p3378
aS'1ivm'
p3379
aS'2lp4'
p3380
aS'1aj4'
p3381
aS'1v5k'
p3382
aS'2rm9'
p3383
aS'1cch'
p3384
aS'2g46'
p3385
aS'1g11'
p3386
aS'1uey'
p3387
aS'1i34'
p3388
aS'2jqi'
p3389
aS'1gxe'
p3390
aS'1hp2'
p3391
aS'1wih'
p3392
aS'1j4p'
p3393
aS'1q2t'
p3394
aS'1scl'
p3395
aS'1wj6'
p3396
aS'1uuc'
p3397
aS'1wjl'
p3398
aS'1b5a'
p3399
aS'1rrz'
p3400
aS'1v4r'
p3401
aS'1w4e'
p3402
aS'1e10'
p3403
aS'2gp8'
p3404
aS'1lwm'
p3405
aS'1wxp'
p3406
aS'1oaw'
p3407
aS'1wfg'
p3408
aS'2kns'
p3409
aS'1ebs'
p3410
aS'1rmj'
p3411
aS'2lr7'
p3412
aS'1wfd'
p3413
aS'1a2i'
p3414
aS'2lcw'
p3415
aS'1u6n'
p3416
aS'1qjk'
p3417
aS'2dzr'
p3418
aS'2nmb'
p3419
aS'2kka'
p3420
aS'1x37'
p3421
aS'1wg7'
p3422
aS'1oz8'
p3423
aS'1r6r'
p3424
aS'2kvn'
p3425
aS'1t8c'
p3426
aS'1y00'
p3427
aS'1igl'
p3428
aS'2fn2'
p3429
aS'2kia'
p3430
aS'2ltz'
p3431
aS'2kqs'
p3432
aS'4a52'
p3433
aS'1qdi'
p3434
aS'1epg'
p3435
aS'2kw0'
p3436
aS'2kzu'
p3437
aS'2eyx'
p3438
aS'1a1t'
p3439
aS'1v5n'
p3440
aS'2k7e'
p3441
aS'1x05'
p3442
aS'1j4q'
p3443
aS'2la4'
p3444
aS'1w4f'
p3445
aS'1g4f'
p3446
aS'2jos'
p3447
aS'2b89'
p3448
aS'1d7q'
p3449
aS'1fox'
p3450
aS'1oav'
p3451
aS'1l5i'
p3452
aS'2ktd'
p3453
aS'1ghk'
p3454
aS'1ioh'
p3455
aS'2km9'
p3456
aS'1j5c'
p3457
aS'1m6a'
p3458
aS'1gp8'
p3459
aS'1q8k'
p3460
aS'1bei'
p3461
aS'2lhh'
p3462
aS'1ln6'
p3463
aS'2qh3'
p3464
aS'1iyu'
p3465
aS'1zs5'
p3466
aS'1wm4'
p3467
aS'1e8l'
p3468
aS'2c34'
p3469
aS'1wxm'
p3470
aS'2dzq'
p3471
aS'2lj6'
p3472
aS'2jtg'
p3473
aS'1t0v'
p3474
aS'1v63'
p3475
aS'1wsx'
p3476
aS'1mxl'
p3477
aS'1zxf'
p3478
aS'1dpk'
p3479
aS'1ug0'
p3480
aS'2rst'
p3481
aS'2d82'
p3482
aS'1xax'
p3483
aS'2a37'
p3484
aS'2kjc'
p3485
aS'1zit'
p3486
aS'2z4d'
p3487
aS'1ah1'
p3488
aS'1pyv'
p3489
aS'2kxl'
p3490
aS'1z09'
p3491
aS'1z8r'
p3492
aS'1v88'
p3493
aS'2l3h'
p3494
aS'1t4x'
p3495
aS'2bpn'
p3496
aS'2l4l'
p3497
aS'2knz'
p3498
aS'2jyf'
p3499
aS'1en1'
p3500
aS'1fi6'
p3501
aS'1h4b'
p3502
aS'2o32'
p3503
aS'1kvv'
p3504
aS'1il6'
p3505
aS'2l1x'
p3506
aS'1amb'
p3507
aS'1wj4'
p3508
aS'1r1f'
p3509
aS'1rik'
p3510
aS'1zzp'
p3511
aS'1kv4'
p3512
aS'1h92'
p3513
aS'2jvv'
p3514
aS'2nnz'
p3515
aS'1wf8'
p3516
aS'1yz2'
p3517
aS'1i6y'
p3518
aS'2jmb'
p3519
aS'1v27'
p3520
aS'1ju5'
p3521
aS'1wug'
p3522
aS'2i7e'
p3523
aS'2kha'
p3524
aS'1ss1'
p3525
aS'1wi0'
p3526
aS'2ehr'
p3527
aS'1yv8'
p3528
aS'1prm'
p3529
aS'2jop'
p3530
aS'2ju1'
p3531
aS'2kxs'
p3532
aS'2def'
p3533
aS'2lhc'
p3534
aS'2orc'
p3535
aS'1s6d'
p3536
aS'1ap4'
p3537
aS'1ckk'
p3538
aS'1d8v'
p3539
aS'1wo9'
p3540
aS'1slj'
p3541
aS'2lv6'
p3542
aS'2g9b'
p3543
aS'1qwp'
p3544
aS'1z60'
p3545
aS'2aqf'
p3546
aS'1cww'
p3547
aS'2lzz'
p3548
aS'1jtb'
p3549
aS'1gkn'
p3550
aS'1ajt'
p3551
aS'1blq'
p3552
aS'1wic'
p3553
aS'2lbq'
p3554
aS'1srz'
p3555
aS'2o4e'
p3556
aS'1sjr'
p3557
aS'2hcc'
p3558
aS'1l1v'
p3559
aS'2lyq'
p3560
aS'2jwm'
p3561
aS'1u6c'
p3562
aS'1qqv'
p3563
aS'1x1g'
p3564
aS'1k3q'
p3565
aS'2a0t'
p3566
aS'2pon'
p3567
aS'2kzl'
p3568
aS'2k36'
p3569
aS'2ko0'
p3570
aS'2ldr'
p3571
aS'1eze'
p3572
aS'2ljv'
p3573
aS'1azg'
p3574
aS'1wgd'
p3575
aS'1rsx'
p3576
aS'1hzk'
p3577
aS'1eih'
p3578
aS'2k7h'
p3579
aS'2kx5'
p3580
aS'2coe'
p3581
aS'1ge9'
p3582
aS'2lmg'
p3583
aS'1w4i'
p3584
aS'1qx9'
p3585
aS'1vmp'
p3586
aS'1vej'
p3587
aS'2ljf'
p3588
aS'1m5z'
p3589
aS'1bm5'
p3590
aS'2kpd'
p3591
aS'1ybj'
p3592
aS'1e0z'
p3593
aS'2i18'
p3594
aS'3alc'
p3595
aS'1ju1'
p3596
aS'2eos'
p3597
aS'2kby'
p3598
aS'2ju2'
p3599
aS'1q8x'
p3600
aS'1bfi'
p3601
aS'2yru'
p3602
aS'2mc3'
p3603
aS'1nor'
p3604
aS'2lkd'
p3605
aS'2l5h'
p3606
aS'2kfj'
p3607
aS'1k3j'
p3608
aS'1wie'
p3609
aS'1iy5'
p3610
aS'3nla'
p3611
aS'1hui'
p3612
aS'2juj'
p3613
aS'1uvf'
p3614
aS'1rw2'
p3615
aS'2ct6'
p3616
aS'1y58'
p3617
aS'1dmc'
p3618
aS'2lp8'
p3619
aS'2jxc'
p3620
aS'1ujs'
p3621
aS'1y6d'
p3622
aS'2frw'
p3623
aS'2kfd'
p3624
aS'1lkn'
p3625
aS'2ldt'
p3626
aS'1owt'
p3627
aS'3zqd'
p3628
aS'2m7f'
p3629
aS'1yzb'
p3630
aS'2jup'
p3631
aS'1w4k'
p3632
aS'2jp7'
p3633
aS'1v80'
p3634
aS'2fyj'
p3635
aS'1m0g'
p3636
aS'2kv4'
p3637
aS'2k11'
p3638
aS'2kel'
p3639
aS'1xy6'
p3640
aS'1co4'
p3641
aS'1qze'
p3642
aS'1wco'
p3643
aS'2npl'
p3644
aS'1pk2'
p3645
aS'2lb2'
p3646
aS'1dz1'
p3647
aS'1ro4'
p3648
aS'1wfm'
p3649
aS'2il6'
p3650
aS'1m7l'
p3651
aS'1ev0'
p3652
aS'2pji'
p3653
aS'2z5v'
p3654
aS'1res'
p3655
aS'1mrt'
p3656
aS'2cnr'
p3657
aS'2k7s'
p3658
aS'2kwc'
p3659
aS'1a3p'
p3660
aS'1dw4'
p3661
aS'1eq0'
p3662
aS'1i4b'
p3663
aS'2b9z'
p3664
aS'1or5'
p3665
aS'1rde'
p3666
aS'1eph'
p3667
aS'1nr3'
p3668
aS'1tyk'
p3669
aS'2mhu'
p3670
aS'1jns'
p3671
aS'2alc'
p3672
aS'2kkd'
p3673
aS'2ha1'
p3674
aS'2kja'
p3675
aS'2lxz'
p3676
aS'2kzs'
p3677
aS'2c6a'
p3678
aS'1d1d'
p3679
aS'1amc'
p3680
aS'2dkx'
p3681
aS'1cff'
p3682
aS'2l75'
p3683
aS'1p1d'
p3684
aS'2pas'
p3685
aS'1wjj'
p3686
aS'2xdi'
p3687
aS'1kik'
p3688
aS'2lsn'
p3689
aS'2koe'
p3690
aS'1uhr'
p3691
aS'1qyp'
p3692
aS'2evn'
p3693
aS'1v5a'
p3694
aS'1enw'
p3695
aS'1vry'
p3696
aS'1tqz'
p3697
aS'2feb'
p3698
aS'2adt'
p3699
aS'2l9e'
p3700
aS'1g9l'
p3701
aS'1rlp'
p3702
aS'1rhw'
p3703
aS'1ugk'
p3704
aS'2lgn'
p3705
aS'1ccv'
p3706
aS'1hyj'
p3707
aS'1zub'
p3708
aS'1h0z'
p3709
aS'2lpx'
p3710
aS'1s04'
p3711
aS'1nz1'
p3712
aS'2b87'
p3713
aS'2jve'
p3714
aS'2joi'
p3715
aS'2k6u'
p3716
aS'2k4a'
p3717
aS'230d'
p3718
aS'1ejz'
p3719
aS'2rlw'
p3720
aS'1w4j'
p3721
aS'1ebr'
p3722
aS'1xsw'
p3723
aS'1tbo'
p3724
aS'3zd0'
p3725
aS'1hzl'
p3726
aS'2k9e'
p3727
aS'1prl'
p3728
aS'2rnr'
p3729
aS'3gcc'
p3730
aS'1z66'
p3731
aS'1iyr'
p3732
aS'2jnx'
p3733
aS'1jvr'
p3734
aS'1c2u'
p3735
aS'2nsw'
p3736
aS'2myo'
p3737
aS'2fxp'
p3738
aS'1t28'
p3739
aS'1l6n'
p3740
aS'1wf5'
p3741
aS'1ejp'
p3742
aS'1c9a'
p3743
aS'1r48'
p3744
aS'1qdp'
p3745
aS'1aw6'
p3746
aS'1nmr'
p3747
aS'1dw5'
p3748
aS'2ju4'
p3749
aS'2jqz'
p3750
aS'2mcc'
p3751
aS'2dy8'
p3752
aS'2awv'
p3753
aS'1ds9'
p3754
aS'1mr0'
p3755
aS'3ci2'
p3756
aS'1nwb'
p3757
aS'2k4l'
p3758
aS'2kk5'
p3759
aS'1jaj'
p3760
aS'1j56'
p3761
aS'1wfn'
p3762
aS'2nsv'
p3763
aS'1wfo'
p3764
aS'1oq0'
p3765
aS'2jnz'
p3766
aS'1p9k'
p3767
aS'2l73'
p3768
aS'1ak8'
p3769
aS'2kln'
p3770
aS'1kzt'
p3771
aS'1jli'
p3772
aS'1z2k'
p3773
aS'1by0'
p3774
aS'1ncs'
p3775
aS'1wjk'
p3776
aS'1uxc'
p3777
aS'1a6x'
p3778
aS'1q1v'
p3779
aS'1cky'
p3780
aS'2jua'
p3781
aS'2f63'
p3782
aS'1dg0'
p3783
aS'1haj'
p3784
aS'1jqr'
p3785
aS'1dc2'
p3786
aS'2a55'
p3787
aS'1eij'
p3788
aS'1du6'
p3789
aS'1egf'
p3790
aS'2kb2'
p3791
aS'1sut'
p3792
aS'2hem'
p3793
aS'2arg'
p3794
aS'1k19'
p3795
aS'2pv6'
p3796
aS'1s2f'
p3797
aS'2aht'
p3798
aS'2rqb'
p3799
aS'1by6'
p3800
aS'1zrp'
p3801
aS'1hu7'
p3802
aS'3bbg'
p3803
aS'1pnh'
p3804
aS'2jqx'
p3805
aS'2rqs'
p3806
aS'2ktm'
p3807
aS'1lud'
p3808
aS'1vtx'
p3809
aS'2l9y'
p3810
aS'2lk6'
p3811
aS'1z6v'
p3812
aS'1k2n'
p3813
aS'2l7w'
p3814
aS'1i4c'
p3815
aS'1ec4'
p3816
aS'2k59'
p3817
aS'1t17'
p3818
aS'1cpz'
p3819
aS'2kre'
p3820
aS'2l6b'
p3821
aS'1sm7'
p3822
aS'1tr4'
p3823
aS'2kvf'
p3824
aS'1c38'
p3825
aS'1b8q'
p3826
aS'1gn7'
p3827
aS'1ucv'
p3828
aS'1egx'
p3829
aS'1z1m'
p3830
aS'2k72'
p3831
aS'2bn5'
p3832
aS'2kwp'
p3833
aS'1ybl'
p3834
aS'1q8g'
p3835
aS'1j4k'
p3836
aS'1itp'
p3837
aS'2fq5'
p3838
aS'2fq8'
p3839
aS'2hdc'
p3840
aS'1jkn'
p3841
aS'1rto'
p3842
aS'2k69'
p3843
aS'1l2m'
p3844
aS'2k3m'
p3845
aS'1xce'
p3846
aS'1jxc'
p3847
aS'1rlq'
p3848
aS'2l88'
p3849
aS'1k5w'
p3850
aS'2k0g'
p3851
aS'1b6f'
p3852
aS'1gwp'
p3853
aS'1n53'
p3854
aS'1pwj'
p3855
aS'2luo'
p3856
aS'2lw7'
p3857
aS'1s6i'
p3858
aS'2jmc'
p3859
aS'1cld'
p3860
aS'2ls3'
p3861
aS'1are'
p3862
aS'1ztr'
p3863
aS'2l3q'
p3864
aS'2k18'
p3865
aS'2jni'
p3866
aS'2jon'
p3867
aS'2rp0'
p3868
aS'2oqp'
p3869
aS'1hfg'
p3870
aS'2ljz'
p3871
aS'2pjg'
p3872
aS'1afo'
p3873
aS'1pb5'
p3874
aS'2wgn'
p3875
aS'1rg3'
p3876
aS'1fu3'
p3877
aS'2p03'
p3878
aS'2jwp'
p3879
aS'2gx1'
p3880
aS'1s9s'
p3881
aS'1qfb'
p3882
aS'1awo'
p3883
aS'2m9n'
p3884
aS'1a7m'
p3885
aS'1iqs'
p3886
aS'2h7a'
p3887
aS'1wf6'
p3888
aS'1fi3'
p3889
aS'1uph'
p3890
aS'1kqv'
p3891
aS'2gg1'
p3892
aS'2m5n'
p3893
aS'1iy6'
p3894
aS'1emx'
p3895
aS'2ahq'
p3896
aS'1xr0'
p3897
aS'1hs7'
p3898
aS'1t1t'
p3899
aS'1wwq'
p3900
aS'1v28'
p3901
aS'2ojn'
p3902
aS'1a60'
p3903
aS'2o33'
p3904
aS'2koo'
p3905
aS'1jv8'
p3906
aS'1zhc'
p3907
aS'2kjb'
p3908
aS'1o7c'
p3909
aS'2bye'
p3910
aS'1tm9'
p3911
aS'1tbn'
p3912
aS'2kop'
p3913
aS'2abd'
p3914
aS'2ju3'
p3915
aS'2k85'
p3916
aS'1t3o'
p3917
aS'1xxz'
p3918
aS'1k0h'
p3919
aS'1k1g'
p3920
aS'2law'
p3921
aS'1v61'
p3922
aS'1wf9'
p3923
aS'1jgn'
p3924
aS'1ilf'
p3925
aS'1uhu'
p3926
aS'2g1w'
p3927
aS'1du2'
p3928
aS'1au6'
p3929
aS'2e35'
p3930
aS'1znu'
p3931
aS'2ptl'
p3932
aS'1n3j'
p3933
aS'1rws'
p3934
aS'1wot'
p3935
aS'2lf7'
p3936
aS'2kpc'
p3937
aS'1zu2'
p3938
aS'2lrx'
p3939
aS'1f96'
p3940
aS'1g4g'
p3941
aS'2i4k'
p3942
aS'2k23'
p3943
aS'2lbh'
p3944
aS'1kod'
p3945
aS'1iq3'
p3946
aS'1v81'
p3947
aS'1kmf'
p3948
aS'1wu0'
p3949
aS'1p1t'
p3950
aS'2jx8'
p3951
aS'2kbo'
p3952
aS'2lq4'
p3953
aS'2cjk'
p3954
aS'2k43'
p3955
aS'2fbs'
p3956
aS'2fy9'
p3957
aS'1gh8'
p3958
aS'2lhe'
p3959
aS'1ub1'
p3960
aS'1cyl'
p3961
aS'2jpc'
p3962
aS'1oyi'
p3963
aS'1ga3'
p3964
aS'1vek'
p3965
aS'1a5e'
p3966
aS'1d1n'
p3967
aS'1sf1'
p3968
aS'1l6e'
p3969
aS'2k20'
p3970
aS'1kn6'
p3971
aS'1mv0'
p3972
aS'1pwk'
p3973
aS'1pet'
p3974
aS'2l4s'
p3975
aS'1j8k'
p3976
aS'1a13'
p3977
aS'2k93'
p3978
aS'2khl'
p3979
aS'1sym'
p3980
aS'1k8o'
p3981
aS'2jmy'
p3982
aS'1d9s'
p3983
aS'2z2h'
p3984
aS'1z65'
p3985
aS'1ll8'
p3986
aS'1cis'
p3987
aS'1ugl'
p3988
aS'1etg'
p3989
aS'1muz'
p3990
aS'1kq8'
p3991
aS'2o00'
p3992
aS'1i5v'
p3993
aS'2ldl'
p3994
aS'1k2m'
p3995
aS'2kxq'
p3996
aS'1qjt'
p3997
aS'1exg'
p3998
aS'2sob'
p3999
aS'2db9'
p4000
aS'1r6h'
p4001
aS'1gkg'
p4002
aS'2m4h'
p4003
aS'1s4x'
p4004
aS'2lwd'
p4005
aS'2e1x'
p4006
aS'1haa'
p4007
aS'2azv'
p4008
aS'2ke4'
p4009
aS'1l3y'
p4010
aS'2rpv'
p4011
aS'2qh4'
p4012
aS'1fbr'
p4013
aS'1sgg'
p4014
aS'1na2'
p4015
aS'2khh'
p4016
aS'2b5k'
p4017
aS'1tba'
p4018
aS'1gur'
p4019
aS'1iyg'
p4020
aS'2kqu'
p4021
aS'2fo8'
p4022
aS'1u2u'
p4023
aS'1z0r'
p4024
aS'2lmz'
p4025
aS'1sy4'
p4026
aS'1meq'
p4027
aS'1d9n'
p4028
aS'1eig'
p4029
aS'2rm5'
p4030
aS'1n72'
p4031
aS'1zw8'
p4032
aS'1mhi'
p4033
aS'1rtn'
p4034
aS'1c0v'
p4035
aS'1iuf'
p4036
aS'2ggr'
p4037
aS'1lm2'
p4038
aS'1s2h'
p4039
aS'1nh4'
p4040
aS'2l1g'
p4041
aS'2k2u'
p4042
aS'2jws'
p4043
aS'1kse'
p4044
aS'2mlp'
p4045
aS'1qo6'
p4046
aS'1bci'
p4047
aS'1xsa'
p4048
aS'2iv5'
p4049
aS'1z31'
p4050
aS'1xy9'
p4051
aS'2rpz'
p4052
aS'1op1'
p4053
aS'1e0a'
p4054
aS'1vd4'
p4055
aS'1ard'
p4056
aS'1hma'
p4057
aS'1u3n'
p4058
aS'2b68'
p4059
aS'1xo8'
p4060
aS'1d6t'
p4061
aS'2bth'
p4062
aS'1yka'
p4063
aS'1jzc'
p4064
aS'1ckv'
p4065
aS'1tvi'
p4066
aS'1ag5'
p4067
aS'1w2q'
p4068
aS'1xbh'
p4069
aS'1q59'
p4070
aS'1kos'
p4071
aS'2lbo'
p4072
aS'2j5o'
p4073
aS'2hm4'
p4074
aS'1e5g'
p4075
aS'2jqu'
p4076
aS'2kb5'
p4077
aS'1ah2'
p4078
aS'1kvn'
p4079
aS'1eln'
p4080
aS'2juv'
p4081
aS'1n6z'
p4082
aS'2pq4'
p4083
aS'1of9'
p4084
aS'1tlr'
p4085
aS'2g1g'
p4086
aS'2k84'
p4087
aS'1gya'
p4088
aS'1nre'
p4089
aS'2rqa'
p4090
aS'2bo5'
p4091
aS'1idl'
p4092
aS'1t1k'
p4093
aS'1jsp'
p4094
aS'1z64'
p4095
aS'2jvj'
p4096
aS'1hrj'
p4097
aS'1j4l'
p4098
aS'1mc7'
p4099
aS'1f43'
p4100
aS'2ro3'
p4101
aS'2lab'
p4102
aS'1oqk'
p4103
aS'1hj0'
p4104
aS'1nra'
p4105
aS'2kfw'
p4106
aS'2ctn'
p4107
aS'2loc'
p4108
aS'1zyg'
p4109
aS'1on5'
p4110
aS'1syz'
p4111
aS'2ec7'
p4112
aS'2j5p'
p4113
aS'1old'
p4114
aS'2ktv'
p4115
aS'2ovn'
p4116
aS'1fhr'
p4117
aS'2lu2'
p4118
aS'1bpv'
p4119
aS'2fey'
p4120
aS'1c17'
p4121
aS'1q7j'
p4122
aS'1rly'
p4123
aS'2x43'
p4124
aS'2lx3'
p4125
aS'1o6x'
p4126
aS'2jn3'
p4127
aS'2krf'
p4128
aS'1idh'
p4129
aS'2b1w'
p4130
aS'2lnk'
p4131
aS'3zua'
p4132
aS'2k71'
p4133
aS'2ktn'
p4134
aS'1nc0'
p4135
aS'2jou'
p4136
aS'1hls'
p4137
aS'1hyi'
p4138
aS'1xo3'
p4139
aS'1eik'
p4140
aS'1p94'
p4141
aS'1j5m'
p4142
aS'1gnf'
p4143
aS'1wj5'
p4144
aS'2m8k'
p4145
aS'1kgm'
p4146
aS'1nk2'
p4147
aS'1shi'
p4148
aS'1ktm'
p4149
aS'2bai'
p4150
aS'1dmd'
p4151
aS'1hyw'
p4152
aS'1f95'
p4153
aS'1s3a'
p4154
aS'1gjz'
p4155
aS'1apo'
p4156
aS'2ktc'
p4157
aS'2kt4'
p4158
aS'1bqt'
p4159
aS'1xsc'
p4160
aS'1wm8'
p4161
aS'2jy5'
p4162
aS'1emw'
p4163
aS'1f6u'
p4164
aS'1mp1'
p4165
aS'1jm4'
p4166
aS'1ysf'
p4167
aS'1x5m'
p4168
aS'2ktu'
p4169
aS'1m3b'
p4170
aS'1irf'
p4171
aS'1wfj'
p4172
aS'1gac'
p4173
aS'2lj9'
p4174
aS'1aul'
p4175
aS'2l3e'
p4176
aS'1t0c'
p4177
aS'2kou'
p4178
aS'1b3i'
p4179
aS'1iry'
p4180
aS'2l87'
p4181
aS'2rqw'
p4182
aS'1qwe'
p4183
aS'1ny8'
p4184
aS'1msg'
p4185
aS'1k5r'
p4186
aS'1jnt'
p4187
aS'1bba'
p4188
aS'1u3o'
p4189
aS'1lu8'
p4190
aS'2jpf'
p4191
aS'2kfu'
p4192
aS'1nmg'
p4193
aS'2m7h'
p4194
aS'1pv3'
p4195
aS'2cw1'
p4196
aS'1aoo'
p4197
aS'1s79'
p4198
aS'2hfh'
p4199
aS'1ovq'
p4200
aS'1u39'
p4201
aS'2k6q'
p4202
aS'1hov'
p4203
aS'1i4v'
p4204
aS'2p0x'
p4205
aS'1srm'
p4206
aS'1lxf'
p4207
aS'1dom'
p4208
aS'1hdl'
p4209
aS'2lns'
p4210
aS'2k6t'
p4211
aS'1k0t'
p4212
aS'2op7'
p4213
aS'2lox'
p4214
aS'1hpk'
p4215
aS'2rri'
p4216
aS'1loi'
p4217
aS'1nei'
p4218
aS'1d1h'
p4219
aS'2jpi'
p4220
aS'1qd3'
p4221
aS'2luj'
p4222
aS'2iij'
p4223
aS'2lkr'
p4224
aS'1nwv'
p4225
aS'1sw8'
p4226
aS'1szv'
p4227
aS'1eq3'
p4228
aS'1hej'
p4229
aS'2kyu'
p4230
aS'1k8b'
p4231
aS'1re6'
p4232
aS'1j5l'
p4233
aS'2m75'
p4234
aS'1hce'
p4235
aS'2ju7'
p4236
aS'2b3i'
p4237
aS'2ki7'
p4238
aS'1y76'
p4239
aS'1mv4'
p4240
aS'1jjz'
p4241
aS'2k3f'
p4242
aS'2jxm'
p4243
aS'1ilo'
p4244
aS'1pfn'
p4245
aS'1ed7'
p4246
aS'2kdu'
p4247
aS'1g6z'
p4248
aS'1whe'
p4249
aS'1inz'
p4250
aS'2k1z'
p4251
aS'1qkf'
p4252
aS'1qgp'
p4253
aS'1c89'
p4254
aS'1wlo'
p4255
aS'2lb3'
p4256
aS'2lk5'
p4257
aS'2dwf'
p4258
aS'1s05'
p4259
aS'1g1e'
p4260
aS'2wc2'
p4261
aS'2adl'
p4262
aS'2kzk'
p4263
aS'2l4t'
p4264
aS'2rlh'
p4265
aS'1bfw'
p4266
aS'1bf9'
p4267
aS'1pc0'
p4268
aS'1rkn'
p4269
aS'1qp6'
p4270
aS'1k3m'
p4271
aS'2klf'
p4272
aS'1yg3'
p4273
aS'2qh2'
p4274
aS'1p9c'
p4275
aS'1fr0'
p4276
aS'1u6o'
p4277
aS'2llv'
p4278
aS'1y74'
p4279
aS'1f3y'
p4280
aS'2jys'
p4281
aS'1fi0'
p4282
aS'2l8x'
p4283
aS'2nq4'
p4284
aS'2nq1'
p4285
aS'1ihq'
p4286
aS'2m1f'
p4287
aS'1jeg'
p4288
aS'1w7e'
p4289
aS'1sg5'
p4290
aS'1k9q'
p4291
aS'1d6x'
p4292
aS'2w1o'
p4293
aS'1d7n'
p4294
aS'1dmz'
p4295
aS'2rel'
p4296
aS'2la8'
p4297
aS'2j8p'
p4298
aS'2aqe'
p4299
aS'2prf'
p4300
aS'1f2r'
p4301
aS'2ls6'
p4302
aS'1koy'
p4303
aS'1myo'
p4304
aS'1a24'
p4305
aS'1h7v'
p4306
aS'2jw1'
p4307
aS'2a5e'
p4308
aS'1klp'
p4309
aS'1ib7'
p4310
aS'1hrl'
p4311
aS'1q6a'
p4312
aS'1l6h'
p4313
aS'2ojm'
p4314
aS'1f2g'
p4315
aS'2ixq'
p4316
aS'1exh'
p4317
aS'1te7'
p4318
aS'1pfm'
p4319
aS'1krs'
p4320
aS'1msh'
p4321
aS'1hu5'
p4322
aS'1hym'
p4323
aS'1a5j'
p4324
aS'1pes'
p4325
aS'2l2i'
p4326
aS'2jzb'
p4327
aS'2jpz'
p4328
aS'2hky'
p4329
aS'1puz'
p4330
aS'2nzz'
p4331
aS'1nc8'
p4332
aS'1fa4'
p4333
aS'1jrf'
p4334
aS'1hu6'
p4335
aS'1jzu'
p4336
aS'1nlp'
p4337
aS'1heh'
p4338
aS'1w1f'
p4339
aS'2adn'
p4340
aS'1aqq'
p4341
aS'2ksv'
p4342
aS'2htj'
p4343
aS'1fhq'
p4344
aS'2k2s'
p4345
aS'2fow'
p4346
aS'2jzi'
p4347
aS'1x60'
p4348
aS'1r36'
p4349
aS'1xc5'
p4350
aS'1tbc'
p4351
aS'2aiv'
p4352
aS'2e36'
p4353
aS'1qkh'
p4354
aS'1hji'
p4355
aS'1k9r'
p4356
aS'1bzg'
p4357
aS'1nbk'
p4358
aS'2ai5'
p4359
aS'1wtu'
p4360
aS'2jrw'
p4361
aS'2kb8'
p4362
aS'1qh2'
p4363
aS'1pzq'
p4364
aS'1pus'
p4365
aS'1tvt'
p4366
aS'2jpe'
p4367
aS'1jr6'
p4368
aS'2jv0'
p4369
aS'1jei'
p4370
aS'2h3a'
p4371
aS'2lrd'
p4372
aS'1yfb'
p4373
aS'1urk'
p4374
aS'2djj'
p4375
aS'1pp5'
p4376
aS'2kny'
p4377
aS'2u2f'
p4378
aS'2kgy'
p4379
aS'2rpn'
p4380
aS'2i9h'
p4381
aS'2dx3'
p4382
aS'1kj0'
p4383
aS'1ap7'
p4384
aS'1vre'
p4385
aS'1gab'
p4386
aS'2kjw'
p4387
aS'2kad'
p4388
aS'2kgp'
p4389
aS'2bgp'
p4390
aS'2lg1'
p4391
aS'1iw4'
p4392
aS'1pic'
p4393
aS'1s7e'
p4394
aS'2jx4'
p4395
aS'2u1a'
p4396
aS'1el2'
p4397
aS'2npu'
p4398
aS'2nbt'
p4399
aS'1yuf'
p4400
aS'1vrf'
p4401
aS'2avg'
p4402
aS'2jyw'
p4403
aS'2a36'
p4404
aS'1wa8'
p4405
aS'1fli'
p4406
aS'1be2'
p4407
aS'1xy4'
p4408
aS'1kot'
p4409
aS'1ppx'
p4410
aS'2lnv'
p4411
aS'2eyz'
p4412
aS'1nrb'
p4413
aS'2jmi'
p4414
aS'1ne3'
p4415
aS'1iog'
p4416
aS'1bnr'
p4417
aS'1ef4'
p4418
aS'2crs'
p4419
aS'2ga5'
p4420
aS'2pjf'
p4421
aS'1aw4'
p4422
aS'2pdz'
p4423
aS'2lq8'
p4424
aS'1mq1'
p4425
aS'2m5p'
p4426
aS'1j3s'
p4427
aS'1fhs'
p4428
aS'2xxs'
p4429
aS'1pzr'
p4430
aS'2lbn'
p4431
aS'2mc1'
p4432
aS'1iyy'
p4433
aS'2bgo'
p4434
aS'2fk4'
p4435
aS'1a6h'
p4436
aS'2kki'
p4437
aS'2juo'
p4438
aS'1t3k'
p4439
aS'2i1g'
p4440
aS'1kuw'
p4441
aS'2p80'
p4442
aS'1y9j'
p4443
aS'1ibx'
p4444
aS'1h8m'
p4445
aS'2lct'
p4446
aS'1zv6'
p4447
aS'1srl'
p4448
aS'1apj'
p4449
aS'1bfm'
p4450
aS'1jw3'
p4451
aS'1qtt'
p4452
aS'1kvi'
p4453
aS'1boe'
p4454
aS'1bsh'
p4455
aS'1jfn'
p4456
aS'1am0'
p4457
aS'1cvo'
p4458
aS'1cq0'
p4459
aS'1h0t'
p4460
aS'2ge9'
p4461
aS'1dvc'
p4462
aS'2v0f'
p4463
aS'1sg7'
p4464
aS'2bzm'
p4465
aS'2k8v'
p4466
aS'2kwk'
p4467
aS'1isk'
p4468
aS'2ro5'
p4469
aS'1cz5'
p4470
aS'2l1z'
p4471
aS'1bi6'
p4472
aS'1jr5'
p4473
aS'1skt'
p4474
aS'1dsd'
p4475
aS'1nfa'
p4476
aS'2dvj'
p4477
aS'2k63'
p4478
aS'1c99'
p4479
aS'1bxd'
p4480
aS'2knj'
p4481
aS'1kuz'
p4482
aS'1gq0'
p4483
aS'1adz'
p4484
aS'2bbg'
p4485
aS'1x9v'
p4486
aS'2k92'
p4487
aS'1c9f'
p4488
aS'1gea'
p4489
aS'2l3p'
p4490
aS'1a83'
p4491
aS'1p3x'
p4492
aS'1nm7'
p4493
aS'1e8q'
p4494
aS'1jvc'
p4495
aS'1pa4'
p4496
aS'1onb'
p4497
aS'1w4u'
p4498
aS'1u38'
p4499
aS'1ssl'
p4500
aS'1fsp'
p4501
aS'2jvk'
p4502
aS'2lbf'
p4503
aS'1fht'
p4504
aS'1qvx'
p4505
aS'2lsl'
p4506
aS'1dro'
p4507
aS'2m7b'
p4508
aS'1fdm'
p4509
aS'2jv3'
p4510
aS'2rng'
p4511
aS'1btv'
p4512
aS'1y1b'
p4513
aS'2bid'
p4514
aS'1lfc'
p4515
aS'2lpu'
p4516
aS'1lc6'
p4517
aS'1zfi'
p4518
aS'1k36'
p4519
aS'1r4h'
p4520
aS'2ap0'
p4521
aS'2eyy'
p4522
aS'1pun'
p4523
aS'1pjw'
p4524
aS'1k76'
p4525
aS'2fe9'
p4526
aS'1ma4'
p4527
aS'1ncu'
p4528
aS'1m9o'
p4529
aS'1joy'
p4530
aS'1xpa'
p4531
aS'2hho'
p4532
aS'1cz4'
p4533
aS'1rja'
p4534
aS'1lxg'
p4535
aS'1r1b'
p4536
aS'1yfc'
p4537
aS'1l1p'
p4538
aS'1zfl'
p4539
aS'1zbn'
p4540
aS'2laj'
p4541
aS'1sju'
p4542
aS'1dip'
p4543
aS'2lg6'
p4544
aS'1toz'
p4545
aS'2lx2'
p4546
aS'1f54'
p4547
aS'1cf4'
p4548
aS'1hzm'
p4549
aS'1gcf'
p4550
aS'2f65'
p4551
aS'1xdx'
p4552
aS'1ov2'
p4553
aS'1d2d'
p4554
aS'3pdz'
p4555
aS'1la4'
p4556
aS'2akg'
p4557
aS'1qfq'
p4558
aS'1kqe'
p4559
aS'1lqh'
p4560
aS'1hqi'
p4561
aS'1def'
p4562
aS'1jex'
p4563
aS'1puq'
p4564
aS'1mzt'
p4565
aS'1g92'
p4566
aS'2jx2'
p4567
aS'1emo'
p4568
aS'2jnw'
p4569
aS'2bi6'
p4570
aS'1tac'
p4571
aS'1aq5'
p4572
aS'2fz0'
p4573
aS'1bp8'
p4574
aS'2li5'
p4575
aS'1h3z'
p4576
aS'1nlo'
p4577
aS'2h67'
p4578
aS'1pd6'
p4579
aS'2jom'
p4580
aS'2k7l'
p4581
aS'1blr'
p4582
aS'2fs1'
p4583
aS'1kkg'
p4584
aS'1u37'
p4585
aS'1iym'
p4586
aS'2k45'
p4587
aS'2iv6'
p4588
aS'1k48'
p4589
aS'1l6u'
p4590
aS'1jh4'
p4591
aS'1kvj'
p4592
aS'1pi8'
p4593
aS'1v5j'
p4594
aS'1hvo'
p4595
aS'1k4u'
p4596
aS'1b4y'
p4597
aS'1pi7'
p4598
aS'2kzb'
p4599
aS'1qry'
p4600
aS'1dqc'
p4601
aS'1xy8'
p4602
aS'2jum'
p4603
aS'1ngl'
p4604
aS'1ee7'
p4605
aS'1ju8'
p4606
aS'1l5d'
p4607
aS'1dmf'
p4608
aS'1pfl'
p4609
aS'1ab3'
p4610
aS'1uzc'
p4611
aS'1mtx'
p4612
aS'1xz9'
p4613
aS'1d8z'
p4614
aS'2h41'
p4615
aS'1i16'
p4616
aS'2kqq'
p4617
aS'1jmq'
p4618
aS'1rkj'
p4619
aS'1ily'
p4620
aS'2lpw'
p4621
aS'4ull'
p4622
aS'2hmx'
p4623
aS'1t4l'
p4624
aS'1e5b'
p4625
aS'1p89'
p4626
aS'2auv'
p4627
aS'1a67'
p4628
aS'2jta'
p4629
aS'1fh1'
p4630
aS'1cx1'
p4631
aS'1rso'
p4632
aS'1d9a'
p4633
aS'1yva'
p4634
aS'1mhj'
p4635
aS'1my9'
p4636
aS'2m0a'
p4637
aS'1sjt'
p4638
aS'1p88'
p4639
aS'2dx4'
p4640
aS'1mgs'
p4641
aS'2l5d'
p4642
aS'1hy8'
p4643
aS'1klq'
p4644
aS'2bdo'
p4645
aS'1dme'
p4646
aS'1zaq'
p4647
aS'1omt'
p4648
aS'3phy'
p4649
aS'1nsh'
p4650
aS'1wcn'
p4651
aS'2k65'
p4652
aS'1m2e'
p4653
aS'1t1p'
p4654
aS'1hxv'
p4655
aS'1yx8'
p4656
aS'2k66'
p4657
aS'1cor'
p4658
aS'1don'
p4659
aS'1pux'
p4660
aS'2ple'
p4661
aS'2kt6'
p4662
aS'1nct'
p4663
aS'2g2k'
p4664
aS'2k64'
p4665
aS'2wqg'
p4666
aS'1kxl'
p4667
aS'2jmj'
p4668
aS'2ait'
p4669
aS'2ap5'
p4670
aS'1t1q'
p4671
aS'2kem'
p4672
aS'2kfq'
p4673
aS'1go5'
p4674
aS'1p23'
p4675
aS'2rqj'
p4676
aS'2e8j'
p4677
aS'2fvn'
p4678
aS'1vdi'
p4679
aS'1e5c'
p4680
aS'2lup'
p4681
aS'2f52'
p4682
aS'1o8r'
p4683
aS'1crf'
p4684
aS'2jww'
p4685
aS'1omu'
p4686
aS'2lbs'
p4687
aS'1m3c'
p4688
aS'2djk'
p4689
aS'2l1v'
p4690
aS'1pdc'
p4691
aS'1nyo'
p4692
aS'1hz2'
p4693
aS'2jmn'
p4694
aS'1tnn'
p4695
aS'1e9t'
p4696
aS'2h3c'
p4697
aS'2euy'
p4698
aS'1dc8'
p4699
aS'1coo'
p4700
aS'1m2f'
p4701
aS'1f55'
p4702
aS'1wrf'
p4703
aS'2i1e'
p4704
aS'5gcn'
p4705
aS'1tiz'
p4706
aS'2lhi'
p4707
aS'2lcz'
p4708
aS'1sjq'
p4709
aS'1wmt'
p4710
aS'2uwq'
p4711
aS'1y1c'
p4712
aS'2fj3'
p4713
aS'1r05'
p4714
aS'1uta'
p4715
aS'1ymo'
p4716
aS'2laa'
p4717
aS'1tnm'
p4718
aS'1o1w'
p4719
aS'2lcy'
p4720
aS'2kew'
p4721
aS'1fry'
p4722
aS'2rm6'
p4723
aS'2knh'
p4724
aS'2rlg'
p4725
aS'1tit'
p4726
aS'1rq8'
p4727
aS'2f3a'
p4728
aS'1lq7'
p4729
aS'1e8p'
p4730
aS'1gjx'
p4731
aS'1dvv'
p4732
aS'2npr'
p4733
aS'1dav'
p4734
aS'2kua'
p4735
aS'1l8y'
p4736
aS'1klv'
p4737
aS'1a5r'
p4738
aS'2tbd'
p4739
aS'2kwj'
p4740
aS'4aai'
p4741
aS'1ncv'
p4742
aS'2jvi'
p4743
aS'1daq'
p4744
aS'1iu0'
p4745
aS'1krx'
p4746
aS'2hiu'
p4747
aS'1awe'
p4748
aS'1pks'
p4749
aS'1bvh'
p4750
aS'1krt'
p4751
aS'2k6m'
p4752
aS'1lpv'
p4753
aS'2gqc'
p4754
aS'2lxo'
p4755
aS'1g6p'
p4756
aS'1eq1'
p4757
aS'2kju'
p4758
aS'1zgw'
p4759
aS'1a63'
p4760
aS'2hy9'
p4761
aS'1fwq'
p4762
aS'1q8n'
p4763
aS'1m3a'
p4764
aS'1qwf'
p4765
aS'1hd1'
p4766
aS'1nxn'
p4767
aS'1b4r'
p4768
aS'1b50'
p4769
aS'1koz'
p4770
aS'1rsf'
p4771
aS'1fow'
p4772
aS'1z0q'
p4773
aS'1bak'
p4774
aS'1jfp'
p4775
aS'2k6n'
p4776
aS'1ulo'
p4777
aS'1j6y'
p4778
aS'1fp0'
p4779
aS'1b53'
p4780
aS'2fci'
p4781
aS'1afx'
p4782
aS'1jru'
p4783
aS'1z3k'
p4784
aS'1afp'
p4785
aS'1uub'
p4786
aS'1qu5'
p4787
aS'2rpd'
p4788
aS'2e34'
p4789
aS'1n4i'
p4790
aS'1ntr'
p4791
aS'2lus'
p4792
aS'1nyj'
p4793
aS'1kup'
p4794
aS'2e2f'
p4795
aS'1hvn'
p4796
aS'1pls'
p4797
aS'1iyc'
p4798
aS'1nkf'
p4799
aS'1fzt'
p4800
aS'1nso'
p4801
aS'1z8s'
p4802
aS'2d46'
p4803
aS'2hn8'
p4804
aS'2dy7'
p4805
aS'2rny'
p4806
aS'1e3y'
p4807
aS'1iou'
p4808
aS'2kd3'
p4809
aS'2mst'
p4810
aS'1k42'
p4811
aS'1lxh'
p4812
aS'1ab2'
p4813
aS'1t4y'
p4814
aS'1e41'
p4815
aS'1x3u'
p4816
aS'1ijc'
p4817
aS'1h2o'
p4818
aS'1m23'
p4819
aS'1kc4'
p4820
aS'1sro'
p4821
aS'1tbd'
p4822
aS'1hhv'
p4823
aS'2lsw'
p4824
aS'1cwx'
p4825
aS'1a8c'
p4826
aS'1myq'
p4827
aS'1foy'
p4828
aS'1dfd'
p4829
aS'1vyx'
p4830
aS'1f3k'
p4831
aS'2k95'
p4832
aS'3bdo'
p4833
aS'1tm6'
p4834
aS'2jsh'
p4835
aS'1q7i'
p4836
aS'2btx'
p4837
aS'1eqk'
p4838
aS'2ckn'
p4839
aS'2nln'
p4840
aS'1a56'
p4841
aS'1irg'
p4842
aS'1mzk'
p4843
aS'1p68'
p4844
aS'1l2n'
p4845
aS'1wmj'
p4846
aS'2k96'
p4847
aS'1hze'
p4848
aS'1vdj'
p4849
aS'1vii'
p4850
aS'1jdm'
p4851
aS'1l6v'
p4852
aS'1i18'
p4853
aS'2jrc'
p4854
aS'1u2f'
p4855
aS'1zxg'
p4856
aS'2l1y'
p4857
aS'1lqi'
p4858
aS'1ag4'
p4859
aS'2jtc'
p4860
aS'1wcl'
p4861
aS'1s6x'
p4862
aS'1rml'
p4863
aS'2dyd'
p4864
aS'1p8a'
p4865
aS'1hpj'
p4866
aS'1dc7'
p4867
aS'1zyf'
p4868
aS'2c52'
p4869
aS'2juu'
p4870
aS'2rnw'
p4871
aS'1txa'
p4872
aS'2juc'
p4873
aS'1e09'
p4874
aS'2hh4'
p4875
aS'1bta'
p4876
aS'1l4w'
p4877
aS'1rt0'
p4878
aS'1lre'
p4879
aS'1hi7'
p4880
aS'1v6r'
p4881
aS'1zxh'
p4882
aS'1dvw'
p4883
aS'1jxs'
p4884
aS'1fjc'
p4885
aS'1e88'
p4886
aS'1pms'
p4887
aS'1ovy'
p4888
aS'1s40'
p4889
aS'2ktl'
p4890
aS'1e8b'
p4891
aS'1p6q'
p4892
aS'1hwq'
p4893
aS'1cto'
p4894
aS'1lv9'
p4895
aS'1kla'
p4896
aS'1jp0'
p4897
aS'2k9r'
p4898
aS'2al3'
p4899
aS'1x26'
p4900
aS'1ie6'
p4901
aS'1gd4'
p4902
aS'1iio'
p4903
aS'2apn'
p4904
aS'1y7q'
p4905
aS'1ygm'
p4906
aS'1n6u'
p4907
aS'1eo0'
p4908
aS'2ijy'
p4909
aS'1two'
p4910
aS'2ktb'
p4911
aS'2ld6'
p4912
aS'1e2b'
p4913
aS'1ks6'
p4914
aS'1btb'
p4915
aS'1r4t'
p4916
aS'1fmm'
p4917
aS'1poz'
p4918
aS'1y7x'
p4919
aS'2jx3'
p4920
aS'2i1d'
p4921
aS'2fry'
p4922
aS'1mut'
p4923
aS'1imp'
p4924
aS'1fj7'
p4925
aS'1erg'
p4926
aS'1qm9'
p4927
aS'1m30'
p4928
aS'1ji9'
p4929
aS'1j4m'
p4930
aS'1ma6'
p4931
aS'1lvj'
p4932
aS'1pjd'
p4933
aS'2jvn'
p4934
aS'1n6v'
p4935
aS'1tdp'
p4936
aS'1emn'
p4937
aS'1ttn'
p4938
aS'1s7a'
p4939
aS'1lfu'
p4940
aS'1eww'
p4941
aS'1aca'
p4942
aS'3zg4'
p4943
aS'1k0s'
p4944
aS'1ey1'
p4945
aS'1fqq'
p4946
aS'2l8h'
p4947
aS'2kwn'
p4948
aS'1iie'
p4949
aS'1mr6'
p4950
aS'1i11'
p4951
aS'2d2w'
p4952
aS'1np5'
p4953
aS'1awj'
p4954
aS'1j5i'
p4955
aS'1i02'
p4956
aS'3rpb'
p4957
aS'2fui'
p4958
aS'1e0g'
p4959
aS'2kfk'
p4960
aS'1k09'
p4961
aS'1d2b'
p4962
aS'1bq0'
p4963
aS'2eyw'
p4964
aS'1qtg'
p4965
aS'1wa7'
p4966
aS'2lau'
p4967
aS'2kji'
p4968
aS'1m0v'
p4969
aS'1fsh'
p4970
aS'1pnb'
p4971
aS'2hug'
p4972
aS'1q56'
p4973
aS'1k45'
p4974
aS'1l5c'
p4975
aS'1q2f'
p4976
aS'1j5n'
p4977
aS'2sxl'
p4978
aS'2kj7'
p4979
aS'2jnk'
p4980
aS'1bym'
p4981
aS'1ztn'
p4982
aS'1boc'
p4983
aS'2k91'
p4984
aS'1znm'
p4985
aS'2krl'
p4986
aS'1o5p'
p4987
aS'1kbt'
p4988
aS'2lwp'
p4989
aS'1pcp'
p4990
aS'1gd3'
p4991
aS'1svj'
p4992
aS'1dx7'
p4993
aS'1jjs'
p4994
aS'1yub'
p4995
aS'1adx'
p4996
aS'2cjo'
p4997
aS'1ti5'
p4998
aS'2jsa'
p4999
aS'1bhu'
p5000
aS'1pkt'
p5001
aS'1mfn'
p5002
aS'1pmc'
p5003
aS'1bbx'
p5004
aS'1wxl'
p5005
aS'1ans'
p5006
aS'1ie1'
p5007
aS'1lr1'
p5008
aS'2aga'
p5009
aS'1whf'
p5010
aS'1tfb'
p5011
aS'1x3p'
p5012
aS'1bve'
p5013
aS'1klc'
p5014
aS'1xc0'
p5015
aS'1lmj'
p5016
aS'2ll2'
p5017
aS'1t2y'
p5018
aS'1r9k'
p5019
aS'1ljz'
p5020
aS'2jtw'
p5021
aS'1c4b'
p5022
aS'1duj'
p5023
aS'1buq'
p5024
aS'1kz2'
p5025
aS'1hd4'
p5026
aS'1hko'
p5027
aS'1j03'
p5028
aS'2a29'
p5029
aS'1mw4'
p5030
aS'1n88'
p5031
aS'1kld'
p5032
aS'1ri9'
p5033
aS'1y49'
p5034
aS'1nmf'
p5035
aS'1q02'
p5036
aS'1h9f'
p5037
aS'1zl8'
p5038
aS'1mkn'
p5039
aS'1ktu'
p5040
aS'1c07'
p5041
aS'2bbu'
p5042
aS'2jz3'
p5043
aS'1fu5'
p5044
aS'2i1f'
p5045
aS'1e9j'
p5046
aS'2rmq'
p5047
aS'1iu2'
p5048
aS'1mic'
p5049
aS'2l95'
p5050
aS'2joh'
p5051
aS'1fgp'
p5052
aS'1r6e'
p5053
aS'1qhk'
p5054
aS'1zyh'
p5055
aS'2a3s'
p5056
aS'1k0p'
p5057
aS'1d4u'
p5058
aS'1j5h'
p5059
aS'1uaw'
p5060
aS'2crt'
p5061
aS'2vik'
p5062
aS'2vil'
p5063
aS'1sxl'
p5064
aS'1fw5'
p5065
aS'1ju0'
p5066
aS'2l84'
p5067
aS'1uwo'
p5068
aS'2o0s'
p5069
aS'1ff1'
p5070
aS'1t23'
p5071
aS'1ulp'
p5072
aS'1cl4'
p5073
aS'1ir5'
p5074
aS'1u7q'
p5075
aS'1suy'
p5076
aS'2jy7'
p5077
aS'1dz7'
p5078
aS'2l85'
p5079
aS'1apc'
p5080
aS'1i35'
p5081
aS'1a90'
p5082
aS'2fuu'
p5083
aS'1ees'
p5084
aS'1uhm'
p5085
aS'1ipg'
p5086
aS'2o2o'
p5087
aS'2jy8'
p5088
aS'1pe3'
p5089
aS'1bxp'
p5090
aS'2kjj'
p5091
aS'1f8h'
p5092
aS'1ehx'
p5093
aS'1ip9'
p5094
aS'1jco'
p5095
aS'2afj'
p5096
aS'1dtv'
p5097
aS'2a00'
p5098
aS'2l5c'
p5099
aS'1dum'
p5100
aS'1iqt'
p5101
aS'1doq'
p5102
aS'2gvb'
p5103
aS'1yua'
p5104
aS'1ewi'
p5105
aS'1fuw'
p5106
aS'2kwo'
p5107
aS'1dqb'
p5108
aS'1cb3'
p5109
aS'1afi'
p5110
aS'2k94'
p5111
aS'2mbk'
p5112
aS'1dvd'
p5113
aS'1cre'
p5114
aS'2l4a'
p5115
aS'2luq'
p5116
aS'1ap8'
p5117
aS'1iez'
p5118
aS'1fje'
p5119
aS'1f6v'
p5120
aS'1rlf'
p5121
aS'2js9'
p5122
aS'2adx'
p5123
aS'1kjs'
p5124
aS'1bor'
p5125
aS'1r3x'
p5126
aS'1cir'
p5127
aS'1fyc'
p5128
aS'1k4x'
p5129
aS'2khc'
p5130
aS'1raw'
p5131
aS'1ka5'
p5132
aS'1mit'
p5133
aS'3zgp'
p5134
aS'1vve'
p5135
aS'2jxu'
p5136
aS'1kft'
p5137
aS'2jqs'
p5138
aS'2i1h'
p5139
aS'1y2y'
p5140
aS'1j57'
p5141
aS'2l4u'
p5142
aS'2la1'
p5143
aS'1cmf'
p5144
aS'1d2j'
p5145
aS'1eub'
p5146
aS'1vvd'
p5147
aS'1dax'
p5148
aS'1ter'
p5149
aS'1lsi'
p5150
aS'2lsp'
p5151
aS'1qly'
p5152
aS'1csz'
p5153
aS'1rf8'
p5154
aS'2cjn'
p5155
aS'1tp4'
p5156
aS'1p83'
p5157
aS'1x3q'
p5158
aS'1g6e'
p5159
aS'1rfo'
p5160
aS'2kdq'
p5161
aS'1j0t'
p5162
aS'1ksq'
p5163
aS'2ksa'
p5164
aS'2ks9'
p5165
aS'1csy'
p5166
aS'1mg8'
p5167
aS'2rnx'
p5168
aS'2kmt'
p5169
aS'2lpm'
p5170
aS'2hgf'
p5171
aS'1bgk'
p5172
aS'1d6b'
p5173
aS'1aot'
p5174
aS'1kpz'
p5175
aS'1lip'
p5176
aS'1b22'
p5177
aS'1eh2'
p5178
aS'1bod'
p5179
aS'1utr'
p5180
aS'1ahm'
p5181
aS'1vvc'
p5182
aS'1qkl'
p5183
aS'1svq'
p5184
aS'1ab7'
p5185
aS'1kkx'
p5186
aS'1aou'
p5187
aS'1tin'
p5188
aS'2gva'
p5189
aS'1ael'
p5190
aS'2czn'
p5191
aS'2ksb'
p5192
aS'1kn5'
p5193
aS'1mi2'
p5194
aS'1g2h'
p5195
aS'2jzq'
p5196
aS'1v46'
p5197
aS'3lri'
p5198
aS'1b9r'
p5199
aS'1io6'
p5200
aS'1pjz'
p5201
aS'1x32'
p5202
aS'2hqi'
p5203
aS'1ksr'
p5204
aS'2jsf'
p5205
aS'1dny'
p5206
aS'1owx'
p5207
aS'2lep'
p5208
aS'1e8r'
p5209
aS'1wit'
p5210
aS'1gh5'
p5211
aS'1afj'
p5212
aS'1tvc'
p5213
aS'1f4s'
p5214
aS'1cfp'
p5215
aS'1bqz'
p5216
aS'1ie2'
p5217
aS'1nd9'
p5218
aS'2lob'
p5219
aS'1ng7'
p5220
aS'1fre'
p5221
aS'2jp8'
p5222
aS'1i42'
p5223
aS'1put'
p5224
aS'1co0'
p5225
aS'1jox'
p5226
aS'1tum'
p5227
aS'1t8v'
p5228
aS'1vkt'
p5229
aS'1stu'
p5230
aS'1a9v'
p5231
aS'1ix5'
p5232
aS'1dcj'
p5233
aS'1j9i'
p5234
aS'1it1'
p5235
aS'2g0k'
p5236
aS'1cyv'
p5237
aS'2g1d'
p5238
aS'2frc'
p5239
aS'1p6u'
p5240
aS'3pat'
p5241
aS'1buz'
p5242
aS'1auz'
p5243
aS'1aje'
p5244
aS'1ify'
p5245
aS'1mnl'
p5246
aS'2mob'
p5247
aS'2kbf'
p5248
aS'2ls0'
p5249
aS'1svr'
p5250
aS'1aa9'
p5251
aS'1cfa'
p5252
aS'1fjd'
p5253
aS'1h8c'
p5254
aS'1iyf'
p5255
aS'1ahk'
p5256
aS'1kpy'
p5257
aS'1pfj'
p5258
aS'3crd'
p5259
aS'1b8w'
p5260
aS'1m25'
p5261
aS'2dcx'
p5262
aS'1x9x'
p5263
aS'1rod'
p5264
aS'1g84'
p5265
aS'1cyu'
p5266
aS'1bvg'
p5267
aS'1pmr'
p5268
aS'1prb'
p5269
aS'1f0z'
p5270
aS'1ocd'
p5271
aS'1h9e'
p5272
aS'1qg1'
p5273
aS'1id7'
p5274
aS'1ef5'
p5275
aS'1c4e'
p5276
aS'1h1j'
p5277
aS'1wiu'
p5278
aS'1l3x'
p5279
aS'1ddb'
p5280
aS'2ro1'
p5281
aS'2kmn'
p5282
aS'2a9x'
p5283
aS'1c6s'
p5284
aS'2tmp'
p5285
aS'1cqu'
p5286
aS'2cxj'
p5287
aS'1imq'
p5288
aS'1vhp'
p5289
aS'2jmv'
p5290
aS'1v92'
p5291
aS'2jt9'
p5292
aS'1vaz'
p5293
aS'1clh'
p5294
aS'1fwp'
p5295
aS'2jqg'
p5296
aS'1qzp'
p5297
aS'1q7x'
p5298
aS'1mpz'
p5299
aS'1bbg'
p5300
aS'1ghc'
p5301
aS'1hoy'
p5302
aS'2j76'
p5303
aS'2f33'
p5304
aS'1x0f'
p5305
aS'1kz0'
p5306
aS'2qmv'
p5307
aS'1q2i'
p5308
aS'1p9d'
p5309
aS'1e5u'
p5310
aS'1rof'
p5311
aS'1kul'
p5312
aS'1doy'
p5313
aS'1qld'
p5314
aS'1exe'
p5315
aS'1j1h'
p5316
aS'1rgj'
p5317
aS'2jv7'
p5318
aS'1jrm'
p5319
aS'1g25'
p5320
aS'1id6'
p5321
aS'1ygw'
p5322
aS'1bm6'
p5323
aS'1mkc'
p5324
aS'2ca7'
p5325
aS'1cj5'
p5326
aS'1kum'
p5327
aS'1f3c'
p5328
aS'1hd0'
p5329
aS'1wpi'
p5330
aS'2kdy'
p5331
aS'2bao'
p5332
aS'1aa3'
p5333
aS'1gjj'
p5334
aS'1dox'
p5335
aS'2hhi'
p5336
aS'1bu9'
p5337
aS'1wtb'
p5338
aS'1gpx'
p5339
aS'1n2y'
p5340
aS'1yx7'
p5341
aS'1acz'
p5342
aS'1ik8'
p5343
aS'1pdx'
p5344
aS'1f53'
p5345
aS'1e9k'
p5346
aS'1a6s'
p5347
aS'1e3t'
p5348
aS'1rsw'
p5349
aS'2mss'
p5350
aS'1ak7'
p5351
aS'1ak6'
p5352
aS'1qbf'
p5353
aS'1qfr'
p5354
aS'1k1c'
p5355
aS'1k5o'
p5356
aS'2bau'
p5357
aS'2rlt'
p5358
aS'1roe'
p5359
aS'2jyp'
p5360
aS'1ac0'
p5361
aS'1l3g'
p5362
aS'1rip'
p5363
aS'2joc'
p5364
aS'2hq3'
p5365
aS'2dd6'
p5366
aS'1nho'
p5367
aS'2etz'
p5368
aS'1in1'
p5369
aS'2kqx'
p5370
aS'1l8z'
p5371
aS'1ro3'
p5372
aS'1f5e'
p5373
aS'1lun'
p5374
aS'2eu0'
p5375
aS'1luk'
p5376
aS'1lui'
p5377
aS'1k8m'
p5378
aS'1aty'
p5379
aS'1lum'
p5380
aS'2rsk'
p5381
aS'1krw'
p5382
aS'1imo'
p5383
aS'1pav'
p5384
aS'1nil'
p5385
aS'2i2h'
p5386
aS'1bv8'
p5387
aS'1cod'
p5388
aS'1pxe'
p5389
aS'1hll'
p5390
aS'2i2j'
p5391
aS'1hod'
p5392
aS'1hdp'
p5393
aS'2pde'
p5394
aS'1car'
p5395
aS'1hya'
p5396
aS'2hya'
p5397
aS'4e6b'
p5398
aS'4au1'
p5399
aS'1x6x'
p5400
aS'4es8'
p5401
aS'1ixg'
p5402
aS'4mf6'
p5403
aS'1qnj'
p5404
aS'2qlm'
p5405
aS'3pxl'
p5406
aS'1byz'
p5407
aS'4k8e'
p5408
aS'2nwd'
p5409
aS'2ot4'
p5410
aS'3but'
p5411
aS'4eir'
p5412
aS'2rmc'
p5413
aS'2pyi'
p5414
aS'1d5d'
p5415
aS'3juc'
p5416
aS'2qfn'
p5417
aS'4f32'
p5418
aS'1wua'
p5419
aS'2c5c'
p5420
aS'1tni'
p5421
aS'2y62'
p5422
aS'1xy1'
p5423
aS'1y93'
p5424
aS'3s7o'
p5425
aS'2d94'
p5426
aS'4f1w'
p5427
aS'1hbb'
p5428
aS'1u9r'
p5429
aS'1yqp'
p5430
aS'2jh1'
p5431
aS'2os5'
p5432
aS'2vlt'
p5433
aS'2yd5'
p5434
aS'4k14'
p5435
aS'4rat'
p5436
aS'2c3a'
p5437
aS'3h4h'
p5438
aS'3skp'
p5439
aS'2h48'
p5440
aS'3vsr'
p5441
aS'4ahp'
p5442
aS'1dzz'
p5443
aS'3dnj'
p5444
aS'1vhe'
p5445
aS'3hwe'
p5446
aS'4ieh'
p5447
aS'1iho'
p5448
aS'2wfz'
p5449
aS'2aba'
p5450
aS'3qc3'
p5451
aS'3rlp'
p5452
aS'2apt'
p5453
aS'3e5x'
p5454
aS'3le6'
p5455
aS'3ex1'
p5456
aS'3nk5'
p5457
aS'3rho'
p5458
aS'1ozu'
p5459
aS'4hsb'
p5460
aS'2zca'
p5461
aS'3mem'
p5462
aS'1jpz'
p5463
aS'3son'
p5464
aS'1may'
p5465
aS'2bt9'
p5466
aS'2i6g'
p5467
aS'4jb7'
p5468
aS'3b6h'
p5469
aS'2bwg'
p5470
aS'3dz8'
p5471
aS'3omf'
p5472
aS'3p4g'
p5473
aS'3q9y'
p5474
aS'1gxy'
p5475
aS'2yxf'
p5476
aS'4ldo'
p5477
aS'3p50'
p5478
aS'3hlz'
p5479
aS'3hko'
p5480
aS'1req'
p5481
aS'2bwn'
p5482
aS'3u6d'
p5483
aS'4evy'
p5484
aS'3nt0'
p5485
aS'4dz4'
p5486
aS'2zaw'
p5487
aS'1b6p'
p5488
aS'3lbm'
p5489
aS'3v3w'
p5490
aS'2vz1'
p5491
aS'1eae'
p5492
aS'1cs8'
p5493
aS'1bud'
p5494
aS'2xm5'
p5495
aS'2h9g'
p5496
aS'3mbb'
p5497
aS'4fx7'
p5498
aS'6apr'
p5499
aS'2wsu'
p5500
aS'1mbu'
p5501
aS'3kyj'
p5502
aS'3ju4'
p5503
aS'1bsw'
p5504
aS'2by6'
p5505
aS'2wvv'
p5506
aS'3v5c'
p5507
aS'1jkm'
p5508
aS'3fhe'
p5509
aS'1rwr'
p5510
aS'4e2k'
p5511
aS'4gvg'
p5512
aS'2vce'
p5513
aS'2wac'
p5514
aS'2zqa'
p5515
aS'3oga'
p5516
aS'2w83'
p5517
aS'2dvx'
p5518
aS'2whg'
p5519
aS'1tyw'
p5520
aS'2ia1'
p5521
aS'4g26'
p5522
aS'2a8f'
p5523
aS'2wi0'
p5524
aS'4aa5'
p5525
aS'3o89'
p5526
aS'2bvm'
p5527
aS'2ors'
p5528
aS'3oz2'
p5529
aS'4b74'
p5530
aS'1o4s'
p5531
aS'2pyj'
p5532
aS'1onr'
p5533
aS'3esx'
p5534
aS'4dr9'
p5535
aS'2erf'
p5536
aS'3ey7'
p5537
aS'2zt1'
p5538
aS'3bbc'
p5539
aS'1fbo'
p5540
aS'2ast'
p5541
aS'3t4s'
p5542
aS'1aho'
p5543
aS'2wj9'
p5544
aS'3asg'
p5545
aS'3fqi'
p5546
aS'4f0y'
p5547
aS'1lic'
p5548
aS'2hi0'
p5549
aS'3p6q'
p5550
aS'4a12'
p5551
aS'4gtc'
p5552
aS'3ujk'
p5553
aS'2x8s'
p5554
aS'1zru'
p5555
aS'2r9o'
p5556
aS'3tg4'
p5557
aS'1mst'
p5558
aS'2uwb'
p5559
aS'4ebj'
p5560
aS'2w6j'
p5561
aS'1tr9'
p5562
aS'4d8d'
p5563
aS'2aaj'
p5564
aS'4key'
p5565
aS'2ids'
p5566
aS'2rci'
p5567
aS'2wny'
p5568
aS'2yd1'
p5569
aS'3btq'
p5570
aS'3tq1'
p5571
aS'2erv'
p5572
aS'1l1g'
p5573
aS'1vqt'
p5574
aS'2pv4'
p5575
aS'1jef'
p5576
aS'3neu'
p5577
aS'3csk'
p5578
aS'2e2m'
p5579
aS'2p7u'
p5580
aS'2gb4'
p5581
aS'2xyr'
p5582
aS'10mh'
p5583
aS'3emr'
p5584
aS'1p51'
p5585
aS'4k2z'
p5586
aS'4d96'
p5587
aS'1t46'
p5588
aS'2tlx'
p5589
aS'3emy'
p5590
aS'4efc'
p5591
aS'3qs8'
p5592
aS'3d3k'
p5593
aS'3fv9'
p5594
aS'1gim'
p5595
aS'1lb3'
p5596
aS'3ltp'
p5597
aS'3nxs'
p5598
aS'4j86'
p5599
aS'3fc8'
p5600
aS'1vmi'
p5601
aS'3tzu'
p5602
aS'3vnr'
p5603
aS'2jd7'
p5604
aS'9cgt'
p5605
aS'8prk'
p5606
aS'1elw'
p5607
aS'3vuv'
p5608
aS'2o5x'
p5609
aS'4e2z'
p5610
aS'2dxd'
p5611
aS'1y89'
p5612
aS'4j1k'
p5613
aS'2oq7'
p5614
aS'2v7l'
p5615
aS'3edt'
p5616
aS'4bwf'
p5617
aS'4l4b'
p5618
aS'1bir'
p5619
aS'1sxy'
p5620
aS'3k39'
p5621
aS'2vyt'
p5622
aS'3p8h'
p5623
aS'3lqs'
p5624
aS'3ksr'
p5625
aS'4lzf'
p5626
aS'2zui'
p5627
aS'3dnz'
p5628
aS'4fp7'
p5629
aS'2zdo'
p5630
aS'3cs9'
p5631
aS'3t3h'
p5632
aS'1b9z'
p5633
aS'4epl'
p5634
aS'4lby'
p5635
aS'4hap'
p5636
aS'4i0p'
p5637
aS'4lax'
p5638
aS'3sou'
p5639
aS'3vpi'
p5640
aS'4b6l'
p5641
aS'1vbi'
p5642
aS'1fd0'
p5643
aS'1wud'
p5644
aS'2d16'
p5645
aS'3vuy'
p5646
aS'3qar'
p5647
aS'2oeo'
p5648
aS'4f00'
p5649
aS'4klw'
p5650
aS'2fv7'
p5651
aS'2o0g'
p5652
aS'4gmv'
p5653
aS'3qj8'
p5654
aS'3su2'
p5655
aS'4h5u'
p5656
aS'3btm'
p5657
aS'2x5g'
p5658
aS'3ksm'
p5659
aS'4ke3'
p5660
aS'3s2a'
p5661
aS'4dh2'
p5662
aS'1bzr'
p5663
aS'1hv1'
p5664
aS'2y96'
p5665
aS'3eif'
p5666
aS'4j79'
p5667
aS'2zj1'
p5668
aS'3ml2'
p5669
aS'1t3x'
p5670
aS'2e3z'
p5671
aS'3bvc'
p5672
aS'4m1d'
p5673
aS'3mbc'
p5674
aS'4ayt'
p5675
aS'1jp9'
p5676
aS'3tvv'
p5677
aS'3tyl'
p5678
aS'3dmx'
p5679
aS'3bgx'
p5680
aS'3qck'
p5681
aS'1z0k'
p5682
aS'3k7k'
p5683
aS'1s3d'
p5684
aS'1u1w'
p5685
aS'1rvd'
p5686
aS'1pw8'
p5687
aS'3hay'
p5688
aS'2vc4'
p5689
aS'3mdr'
p5690
aS'2r6x'
p5691
aS'2vxx'
p5692
aS'3b51'
p5693
aS'4by6'
p5694
aS'3ttq'
p5695
aS'1d6s'
p5696
aS'2jja'
p5697
aS'3apx'
p5698
aS'3bfn'
p5699
aS'3p8v'
p5700
aS'3qpo'
p5701
aS'4ka8'
p5702
aS'2psw'
p5703
aS'3i96'
p5704
aS'3btg'
p5705
aS'2hyo'
p5706
aS'3uxy'
p5707
aS'2y1c'
p5708
aS'3ue0'
p5709
aS'3zfq'
p5710
aS'3pf3'
p5711
aS'3sws'
p5712
aS'4lho'
p5713
aS'1x6z'
p5714
aS'2iz1'
p5715
aS'3al1'
p5716
aS'3see'
p5717
aS'1hyh'
p5718
aS'3s0k'
p5719
aS'3twx'
p5720
aS'3a0t'
p5721
aS'4alf'
p5722
aS'1uf5'
p5723
aS'3urc'
p5724
aS'2nlr'
p5725
aS'4eis'
p5726
aS'3pyp'
p5727
aS'1rgh'
p5728
aS'2e1c'
p5729
aS'3dr9'
p5730
aS'3n9e'
p5731
aS'1d5e'
p5732
aS'4ipm'
p5733
aS'4mf5'
p5734
aS'4bn4'
p5735
aS'2cld'
p5736
aS'3l66'
p5737
aS'3l65'
p5738
aS'1uf7'
p5739
aS'1hba'
p5740
aS'3hh5'
p5741
aS'3lb1'
p5742
aS'1hj8'
p5743
aS'3l5m'
p5744
aS'2vb1'
p5745
aS'1d61'
p5746
aS'1qir'
p5747
aS'3wcq'
p5748
aS'4f19'
p5749
aS'3a74'
p5750
aS'2fdn'
p5751
aS'2je4'
p5752
aS'4igh'
p5753
aS'1ogg'
p5754
aS'1gvk'
p5755
aS'3l5l'
p5756
aS'3otz'
p5757
aS'2yld'
p5758
aS'3lb3'
p5759
aS'3pa9'
p5760
aS'4f18'
p5761
aS'2aaz'
p5762
aS'3n9c'
p5763
aS'1r9f'
p5764
aS'3h47'
p5765
aS'1e9g'
p5766
aS'2vxi'
p5767
aS'2q3g'
p5768
aS'1rgg'
p5769
aS'1rge'
p5770
aS'3tww'
p5771
aS'363d'
p5772
aS'3sig'
p5773
aS'2y8v'
p5774
aS'4b0z'
p5775
aS'1bxo'
p5776
aS'3paa'
p5777
aS'3eba'
p5778
aS'3kun'
p5779
aS'3sii'
p5780
aS'3htd'
p5781
aS'3f9d'
p5782
aS'3kuo'
p5783
aS'3mym'
p5784
aS'3qgo'
p5785
aS'2hub'
p5786
aS'1fyd'
p5787
aS'2ww7'
p5788
aS'1cbm'
p5789
aS'2y3q'
p5790
aS'3fen'
p5791
aS'3qr7'
p5792
aS'2clc'
p5793
aS'2pfk'
p5794
aS'2qfk'
p5795
aS'3zfp'
p5796
aS'4j5r'
p5797
aS'3mfw'
p5798
aS'4gzg'
p5799
aS'2qbt'
p5800
aS'3nzc'
p5801
aS'2ylg'
p5802
aS'4bad'
p5803
aS'3mou'
p5804
aS'4ket'
p5805
aS'2b1b'
p5806
aS'2ce2'
p5807
aS'4i3h'
p5808
aS'1rb9'
p5809
aS'2qa3'
p5810
aS'3lb4'
p5811
aS'2w6v'
p5812
aS'3ziy'
p5813
aS'2cl7'
p5814
aS'1zbb'
p5815
aS'2v97'
p5816
aS'1wap'
p5817
aS'1d5h'
p5818
aS'3lb2'
p5819
aS'2qb2'
p5820
aS'2qb3'
p5821
aS'3bwn'
p5822
aS'1czm'
p5823
aS'2wyt'
p5824
aS'2cl6'
p5825
aS'1dte'
p5826
aS'466d'
p5827
aS'5cpa'
p5828
aS'1gqv'
p5829
aS'4den'
p5830
aS'3ixf'
p5831
aS'2q7w'
p5832
aS'1gtv'
p5833
aS'2yl1'
p5834
aS'3vb0'
p5835
aS'3wdc'
p5836
aS'2v98'
p5837
aS'1cgm'
p5838
aS'1htq'
p5839
aS'2rd6'
p5840
aS'3nou'
p5841
aS'4hzs'
p5842
aS'1ez6'
p5843
aS'4m3c'
p5844
aS'3ijv'
p5845
aS'3b57'
p5846
aS'2ivh'
p5847
aS'2r0n'
p5848
aS'3thh'
p5849
aS'3evg'
p5850
aS'1p2p'
p5851
aS'1p1k'
p5852
aS'1cy5'
p5853
aS'1cif'
p5854
aS'2ont'
p5855
aS'3koy'
p5856
aS'2pkr'
p5857
aS'3tgu'
p5858
aS'2ach'
p5859
aS'3tfe'
p5860
aS'2zqb'
p5861
aS'2bq7'
p5862
aS'2grm'
p5863
aS'3s3c'
p5864
aS'3t71'
p5865
aS'1vt6'
p5866
aS'1u3f'
p5867
aS'1awt'
p5868
aS'1ok3'
p5869
aS'3ggc'
p5870
aS'1zz9'
p5871
aS'3gio'
p5872
aS'3drx'
p5873
aS'1vrs'
p5874
aS'1u6i'
p5875
aS'3fbv'
p5876
aS'1p3o'
p5877
aS'2fww'
p5878
aS'3qq2'
p5879
aS'3dxr'
p5880
aS'1hlg'
p5881
aS'1rl9'
p5882
aS'1omv'
p5883
aS'2pl2'
p5884
aS'2zav'
p5885
aS'2x5c'
p5886
aS'4igo'
p5887
aS'1b6r'
p5888
aS'2f0p'
p5889
aS'1esd'
p5890
aS'1yvf'
p5891
aS'3lkj'
p5892
aS'1h0w'
p5893
aS'3pbp'
p5894
aS'421d'
p5895
aS'4h0m'
p5896
aS'3d91'
p5897
aS'2axm'
p5898
aS'3qm5'
p5899
aS'1pob'
p5900
aS'3cxc'
p5901
aS'4h0i'
p5902
aS'1f6d'
p5903
aS'4skn'
p5904
aS'1wx5'
p5905
aS'2c2g'
p5906
aS'1a46'
p5907
aS'1rif'
p5908
aS'1m5h'
p5909
aS'1g8r'
p5910
aS'1z52'
p5911
aS'1z7e'
p5912
aS'2zcv'
p5913
aS'1b6c'
p5914
aS'2jf0'
p5915
aS'1n3w'
p5916
aS'1r2c'
p5917
aS'3i7e'
p5918
aS'2vl6'
p5919
aS'1pv1'
p5920
aS'3lyw'
p5921
aS'1aq7'
p5922
aS'1zlt'
p5923
aS'1npp'
p5924
aS'1m6u'
p5925
aS'2gem'
p5926
aS'3r3m'
p5927
aS'1ug9'
p5928
aS'2iae'
p5929
aS'4ag4'
p5930
aS'1cy1'
p5931
aS'1lnw'
p5932
aS'3bpx'
p5933
aS'3ieo'
p5934
aS'1aj0'
p5935
aS'2bte'
p5936
aS'3l71'
p5937
aS'3uq5'
p5938
aS'1zl1'
p5939
aS'2zkl'
p5940
aS'2d0e'
p5941
aS'1is7'
p5942
aS'3mlz'
p5943
aS'2yxd'
p5944
aS'3qsb'
p5945
aS'2gca'
p5946
aS'4csc'
p5947
aS'3dwk'
p5948
aS'1rr7'
p5949
aS'2h05'
p5950
aS'2v5s'
p5951
aS'3v00'
p5952
aS'2d4y'
p5953
aS'3hng'
p5954
aS'1jpy'
p5955
aS'2q4b'
p5956
aS'2hjp'
p5957
aS'2qlf'
p5958
aS'3eq8'
p5959
aS'1krv'
p5960
aS'2qhn'
p5961
aS'2a7s'
p5962
aS'1ut8'
p5963
aS'4fzq'
p5964
aS'1zu8'
p5965
aS'1qr8'
p5966
aS'2hmu'
p5967
aS'1in0'
p5968
aS'3bun'
p5969
aS'2x89'
p5970
aS'1tro'
p5971
aS'1q67'
p5972
aS'1mwr'
p5973
aS'3zg3'
p5974
aS'4fxm'
p5975
aS'1uzj'
p5976
aS'3dvj'
p5977
aS'1iq1'
p5978
aS'3tqx'
p5979
aS'3hot'
p5980
aS'1rx6'
p5981
aS'1pz7'
p5982
aS'2y9y'
p5983
aS'2znp'
p5984
aS'1dd5'
p5985
aS'1or4'
p5986
aS'3l70'
p5987
aS'1zl0'
p5988
aS'3l4k'
p5989
aS'1jvs'
p5990
aS'4bep'
p5991
aS'1zbk'
p5992
aS'1dr1'
p5993
aS'2g4d'
p5994
aS'3p7o'
p5995
aS'1v4k'
p5996
aS'2x7k'
p5997
aS'1or8'
p5998
aS'2c9n'
p5999
aS'3bsh'
p6000
aS'3nd0'
p6001
aS'1vff'
p6002
aS'1ekb'
p6003
aS'3cuk'
p6004
aS'3r3k'
p6005
aS'3ne1'
p6006
aS'1fz9'
p6007
aS'3bmb'
p6008
aS'4dh9'
p6009
aS'1gj5'
p6010
aS'1mwm'
p6011
aS'3tig'
p6012
aS'3mpg'
p6013
aS'3oc3'
p6014
aS'2ex5'
p6015
aS'1biq'
p6016
aS'1y8r'
p6017
aS'1re5'
p6018
aS'2zs7'
p6019
aS'1ioi'
p6020
aS'1f6t'
p6021
aS'3eb6'
p6022
aS'3g99'
p6023
aS'1dce'
p6024
aS'3nat'
p6025
aS'3fky'
p6026
aS'1ax9'
p6027
aS'3t7z'
p6028
aS'1rrg'
p6029
aS'1j4b'
p6030
aS'3dlo'
p6031
aS'1yyl'
p6032
aS'1yz0'
p6033
aS'1t6z'
p6034
aS'2dpd'
p6035
aS'2bu5'
p6036
aS'2pps'
p6037
aS'1mml'
p6038
aS'3m3t'
p6039
aS'2fvu'
p6040
aS'1tlw'
p6041
aS'1zmg'
p6042
aS'2b60'
p6043
aS'1m19'
p6044
aS'1m8k'
p6045
aS'1rmp'
p6046
aS'1pq1'
p6047
aS'3s4w'
p6048
aS'2h0f'
p6049
aS'1m8t'
p6050
aS'1wls'
p6051
aS'3u9i'
p6052
aS'4hht'
p6053
aS'1ev7'
p6054
aS'2q40'
p6055
aS'1p3a'
p6056
aS'1urc'
p6057
aS'1vbj'
p6058
aS'1pvo'
p6059
aS'3nud'
p6060
aS'1goj'
p6061
aS'1ug4'
p6062
aS'1npr'
p6063
aS'2j0h'
p6064
aS'1wy5'
p6065
aS'1i1r'
p6066
aS'3n6d'
p6067
aS'2r68'
p6068
aS'2ctz'
p6069
aS'3ctl'
p6070
aS'1yll'
p6071
aS'3vw0'
p6072
aS'2w9t'
p6073
aS'2olh'
p6074
aS'3f4c'
p6075
aS'1dky'
p6076
aS'2r2f'
p6077
aS'1kfi'
p6078
aS'1fc2'
p6079
aS'1nl2'
p6080
aS'1k35'
p6081
aS'3w3s'
p6082
aS'1rjz'
p6083
aS'2q49'
p6084
aS'4kfh'
p6085
aS'2ykz'
p6086
aS'3crx'
p6087
aS'1bxr'
p6088
aS'1lth'
p6089
aS'3f6i'
p6090
aS'1esr'
p6091
aS'3jvn'
p6092
aS'3dsq'
p6093
aS'3sjo'
p6094
aS'1gvm'
p6095
aS'1pxk'
p6096
aS'1bdv'
p6097
aS'1fyx'
p6098
aS'2d5d'
p6099
aS'3bqa'
p6100
aS'1c5k'
p6101
aS'1wbp'
p6102
aS'1f8a'
p6103
aS'2jlg'
p6104
aS'1kq2'
p6105
aS'1omr'
p6106
aS'2ify'
p6107
aS'2fkd'
p6108
aS'3nzp'
p6109
aS'3dmm'
p6110
aS'2cd2'
p6111
aS'2g1r'
p6112
aS'3rzz'
p6113
aS'3v24'
p6114
aS'1wwj'
p6115
aS'1xj5'
p6116
aS'3c2l'
p6117
aS'3r21'
p6118
aS'1aqm'
p6119
aS'3crv'
p6120
aS'1yey'
p6121
aS'1z6k'
p6122
aS'1rit'
p6123
aS'2e2i'
p6124
aS'1r2e'
p6125
aS'3p9u'
p6126
aS'3oae'
p6127
aS'1gy5'
p6128
aS'1hfp'
p6129
aS'4gsz'
p6130
aS'4iqj'
p6131
aS'1lj7'
p6132
aS'1xt9'
p6133
aS'2aj9'
p6134
aS'2ayb'
p6135
aS'1m13'
p6136
aS'4ald'
p6137
aS'3cdi'
p6138
aS'2w6h'
p6139
aS'3ic8'
p6140
aS'2nip'
p6141
aS'2zfw'
p6142
aS'4emg'
p6143
aS'1k5h'
p6144
aS'2ieb'
p6145
aS'2dbl'
p6146
aS'1kxk'
p6147
aS'1z91'
p6148
aS'4gmn'
p6149
aS'3r3h'
p6150
aS'3h9a'
p6151
aS'3k53'
p6152
aS'4fvv'
p6153
aS'1c4s'
p6154
aS'4fzg'
p6155
aS'1n26'
p6156
aS'3t5b'
p6157
aS'2e4x'
p6158
aS'2quj'
p6159
aS'3gjn'
p6160
aS'1sx4'
p6161
aS'3u53'
p6162
aS'3lcw'
p6163
aS'3jqm'
p6164
aS'1ymy'
p6165
aS'4fhn'
p6166
aS'4bpt'
p6167
aS'2zkt'
p6168
aS'3pud'
p6169
aS'2z36'
p6170
aS'3zre'
p6171
aS'2yr1'
p6172
aS'3kj4'
p6173
aS'2dy3'
p6174
aS'1s47'
p6175
aS'3d45'
p6176
aS'3e6o'
p6177
aS'1c5z'
p6178
aS'2pnr'
p6179
aS'1i3o'
p6180
aS'1gq9'
p6181
aS'1ig1'
p6182
aS'285d'
p6183
aS'3mh7'
p6184
aS'1su4'
p6185
aS'3juh'
p6186
aS'1ksy'
p6187
aS'1e28'
p6188
aS'1cu1'
p6189
aS'1qvi'
p6190
aS'1jb3'
p6191
aS'4dop'
p6192
aS'2f1h'
p6193
aS'1kv6'
p6194
aS'1xwv'
p6195
aS'1jxx'
p6196
aS'1bpw'
p6197
aS'1mt0'
p6198
aS'1jtz'
p6199
aS'1mx0'
p6200
aS'2xam'
p6201
aS'4j38'
p6202
aS'1aqh'
p6203
aS'3h9x'
p6204
aS'1zdr'
p6205
aS'2agv'
p6206
aS'3gm5'
p6207
aS'3evz'
p6208
aS'3eyv'
p6209
aS'2wus'
p6210
aS'1zag'
p6211
aS'2z6u'
p6212
aS'1hqo'
p6213
aS'3mkv'
p6214
aS'1qhj'
p6215
aS'1hjc'
p6216
aS'3hhc'
p6217
aS'1ivr'
p6218
aS'2ies'
p6219
aS'1jvx'
p6220
aS'1etb'
p6221
aS'1r6l'
p6222
aS'1pgg'
p6223
aS'1m0l'
p6224
aS'2e4w'
p6225
aS'2gby'
p6226
aS'2z6x'
p6227
aS'1t8w'
p6228
aS'2es9'
p6229
aS'3a4y'
p6230
aS'2puq'
p6231
aS'1k7t'
p6232
aS'1zw3'
p6233
aS'2dzn'
p6234
aS'1vg3'
p6235
aS'3vw1'
p6236
aS'1oxp'
p6237
aS'1to6'
p6238
aS'2p9n'
p6239
aS'2dq0'
p6240
aS'1y66'
p6241
aS'3doi'
p6242
aS'3vib'
p6243
aS'3dc2'
p6244
aS'1bss'
p6245
aS'3mkq'
p6246
aS'1u65'
p6247
aS'2zvi'
p6248
aS'2e4v'
p6249
aS'2hd3'
p6250
aS'1um6'
p6251
aS'1d2p'
p6252
aS'2pzz'
p6253
aS'1tn5'
p6254
aS'3ugt'
p6255
aS'3l1t'
p6256
aS'1kc7'
p6257
aS'4doh'
p6258
aS'2e9u'
p6259
aS'3cej'
p6260
aS'1zhf'
p6261
aS'1mul'
p6262
aS'1ggt'
p6263
aS'3zzi'
p6264
aS'1xaj'
p6265
aS'2h6c'
p6266
aS'1err'
p6267
aS'2emt'
p6268
aS'1f48'
p6269
aS'3fni'
p6270
aS'1wsc'
p6271
aS'1m7u'
p6272
aS'1ovr'
p6273
aS'2pgs'
p6274
aS'3guf'
p6275
aS'3vff'
p6276
aS'2wys'
p6277
aS'1i95'
p6278
aS'2jbu'
p6279
aS'1xjv'
p6280
aS'4jya'
p6281
aS'2hoz'
p6282
aS'3duu'
p6283
aS'1jl8'
p6284
aS'1g1u'
p6285
aS'1nua'
p6286
aS'2jie'
p6287
aS'1kta'
p6288
aS'2i03'
p6289
aS'1bmf'
p6290
aS'1mpo'
p6291
aS'1tdb'
p6292
aS'2hq5'
p6293
aS'1oe6'
p6294
aS'3eor'
p6295
aS'3vqu'
p6296
aS'2vta'
p6297
aS'2q4g'
p6298
aS'3jzk'
p6299
aS'1fiz'
p6300
aS'4h13'
p6301
aS'3kjt'
p6302
aS'1kvs'
p6303
aS'1vr2'
p6304
aS'1vg6'
p6305
aS'1ebu'
p6306
aS'1sxt'
p6307
aS'2oyi'
p6308
aS'2bty'
p6309
aS'3kui'
p6310
aS'3v95'
p6311
aS'4f1z'
p6312
aS'4k0w'
p6313
aS'1f0q'
p6314
aS'1crx'
p6315
aS'2frx'
p6316
aS'1tsm'
p6317
aS'1lbe'
p6318
aS'4aoy'
p6319
aS'2rgv'
p6320
aS'3gds'
p6321
aS'1w7g'
p6322
aS'1h0v'
p6323
aS'2a5c'
p6324
aS'2nvq'
p6325
aS'1t4e'
p6326
aS'4dy8'
p6327
aS'3i23'
p6328
aS'1g83'
p6329
aS'3uih'
p6330
aS'1qf6'
p6331
aS'1url'
p6332
aS'1o9m'
p6333
aS'4g5t'
p6334
aS'3dkz'
p6335
aS'1l2l'
p6336
aS'2rl7'
p6337
aS'4gcv'
p6338
aS'1m1d'
p6339
aS'3rds'
p6340
aS'3a5c'
p6341
aS'2gwx'
p6342
aS'3q5p'
p6343
aS'1qtb'
p6344
aS'1z8u'
p6345
aS'1k01'
p6346
aS'3obs'
p6347
aS'4en6'
p6348
aS'4ads'
p6349
aS'3dkt'
p6350
aS'1jzy'
p6351
aS'1vst'
p6352
aS'3kie'
p6353
aS'1xhb'
p6354
aS'2gqf'
p6355
aS'2yl7'
p6356
aS'2a97'
p6357
aS'1til'
p6358
aS'4gdf'
p6359
aS'1ku5'
p6360
aS'3fsq'
p6361
aS'3h17'
p6362
aS'3ivq'
p6363
aS'1e7i'
p6364
aS'3t15'
p6365
aS'2a5i'
p6366
aS'3b9b'
p6367
aS'4et7'
p6368
aS'1ozv'
p6369
aS'1s8c'
p6370
aS'2spn'
p6371
aS'2pxk'
p6372
aS'2h9a'
p6373
aS'1zvx'
p6374
aS'3gdu'
p6375
aS'1wfx'
p6376
aS'1pn3'
p6377
aS'1a80'
p6378
aS'3vsb'
p6379
aS'3bz0'
p6380
aS'4gtu'
p6381
aS'3uyy'
p6382
aS'1j7j'
p6383
aS'2vui'
p6384
aS'4ahv'
p6385
aS'3vum'
p6386
aS'3c8f'
p6387
aS'2bo2'
p6388
aS'3io4'
p6389
aS'3d6x'
p6390
aS'1fdw'
p6391
aS'3pn7'
p6392
aS'2isi'
p6393
aS'3kal'
p6394
aS'1o0o'
p6395
aS'3fre'
p6396
aS'3kic'
p6397
aS'3mc2'
p6398
aS'2vop'
p6399
aS'1ln1'
p6400
aS'3hu6'
p6401
aS'3w5b'
p6402
aS'2qnc'
p6403
aS'1qv8'
p6404
aS'3jtp'
p6405
aS'1w08'
p6406
aS'1az3'
p6407
aS'3hx6'
p6408
aS'1eyc'
p6409
aS'3ar8'
p6410
aS'1gnz'
p6411
aS'2oa0'
p6412
aS'2hp1'
p6413
aS'3emp'
p6414
aS'1hi1'
p6415
aS'2r7s'
p6416
aS'1a7d'
p6417
aS'4i44'
p6418
aS'3nyw'
p6419
aS'1jk9'
p6420
aS'2z7l'
p6421
aS'2rtg'
p6422
aS'2ioa'
p6423
aS'1afv'
p6424
aS'1qb3'
p6425
aS'1vwl'
p6426
aS'1jgq'
p6427
aS'1jyi'
p6428
aS'1vtf'
p6429
aS'1x7g'
p6430
aS'2opy'
p6431
aS'1evj'
p6432
aS'2dr7'
p6433
aS'2q9z'
p6434
aS'3n9p'
p6435
aS'1q2s'
p6436
aS'1e7v'
p6437
aS'3geb'
p6438
aS'2gvq'
p6439
aS'2z0l'
p6440
aS'1z6l'
p6441
aS'3uza'
p6442
aS'1aql'
p6443
aS'1eh1'
p6444
aS'2xjp'
p6445
aS'1yg8'
p6446
aS'1nvb'
p6447
aS'3cms'
p6448
aS'1wrp'
p6449
aS'1gqs'
p6450
aS'1ewq'
p6451
aS'4duz'
p6452
aS'3vs4'
p6453
aS'2i7x'
p6454
aS'1o90'
p6455
aS'2vgg'
p6456
aS'2hj0'
p6457
aS'1s9b'
p6458
aS'2d8e'
p6459
aS'4gsg'
p6460
aS'2ddo'
p6461
aS'2dqb'
p6462
aS'2h9v'
p6463
aS'4gxe'
p6464
aS'2hlp'
p6465
aS'1y8x'
p6466
aS'3dqe'
p6467
aS'2zjg'
p6468
aS'1lt9'
p6469
aS'3aux'
p6470
aS'1m2v'
p6471
aS'2gie'
p6472
aS'2b1d'
p6473
aS'4anu'
p6474
aS'2aru'
p6475
aS'2fbe'
p6476
aS'3q8r'
p6477
aS'2va9'
p6478
aS'3qgy'
p6479
aS'2b8e'
p6480
aS'3lml'
p6481
aS'1z1x'
p6482
aS'3irn'
p6483
aS'1ulq'
p6484
aS'3c6t'
p6485
aS'2efg'
p6486
aS'1z1n'
p6487
aS'1wrl'
p6488
aS'2dqq'
p6489
aS'3aw8'
p6490
aS'2fot'
p6491
aS'2gfw'
p6492
aS'1i7t'
p6493
aS'3jv3'
p6494
aS'3lcz'
p6495
aS'1dht'
p6496
aS'1fle'
p6497
aS'1kjm'
p6498
aS'1kvx'
p6499
aS'2rd0'
p6500
aS'1vet'
p6501
aS'314d'
p6502
aS'4f7o'
p6503
aS'2int'
p6504
aS'3p2m'
p6505
aS'1qss'
p6506
aS'3zp0'
p6507
aS'1osc'
p6508
aS'4f7z'
p6509
aS'1tij'
p6510
aS'1b41'
p6511
aS'1g8o'
p6512
aS'2zcq'
p6513
aS'2zpy'
p6514
aS'3oqc'
p6515
aS'2yjw'
p6516
aS'1l4z'
p6517
aS'1xqw'
p6518
aS'1g4v'
p6519
aS'1f8u'
p6520
aS'2qsr'
p6521
aS'3ib4'
p6522
aS'2yl0'
p6523
aS'1gsz'
p6524
aS'1re4'
p6525
aS'2qd5'
p6526
aS'1ga7'
p6527
aS'3tsw'
p6528
aS'3fle'
p6529
aS'2oof'
p6530
aS'2yf4'
p6531
aS'1aov'
p6532
aS'1njk'
p6533
aS'1o57'
p6534
aS'4hvp'
p6535
aS'1r6k'
p6536
aS'1bhz'
p6537
aS'3a79'
p6538
aS'3h4s'
p6539
aS'1gfw'
p6540
aS'3ngr'
p6541
aS'2a6p'
p6542
aS'3rqu'
p6543
aS'1agx'
p6544
aS'1xz8'
p6545
aS'2nps'
p6546
aS'1jgy'
p6547
aS'1hah'
p6548
aS'1pk5'
p6549
aS'1j91'
p6550
aS'4ifm'
p6551
aS'3ccr'
p6552
aS'1j0k'
p6553
aS'2nvz'
p6554
aS'2yjf'
p6555
aS'4amk'
p6556
aS'2a31'
p6557
aS'4hnu'
p6558
aS'1d5s'
p6559
aS'3egj'
p6560
aS'1f30'
p6561
aS'1szi'
p6562
aS'1hcr'
p6563
aS'1djg'
p6564
aS'1ihi'
p6565
aS'1u3q'
p6566
aS'1wol'
p6567
aS'2bmf'
p6568
aS'1rc6'
p6569
aS'1g1k'
p6570
aS'1dov'
p6571
aS'3tgy'
p6572
aS'1osz'
p6573
aS'1we0'
p6574
aS'1wy7'
p6575
aS'2p3a'
p6576
aS'1c5y'
p6577
aS'3cdw'
p6578
aS'4j8a'
p6579
aS'1gxc'
p6580
aS'2c04'
p6581
aS'1qvg'
p6582
aS'4g0i'
p6583
aS'1t8y'
p6584
aS'1qpb'
p6585
aS'1ku7'
p6586
aS'271d'
p6587
aS'2gbi'
p6588
aS'1ycs'
p6589
aS'1qap'
p6590
aS'3c5l'
p6591
aS'2o51'
p6592
aS'1lky'
p6593
aS'3e6z'
p6594
aS'4akx'
p6595
aS'2uxo'
p6596
aS'1twf'
p6597
aS'2i45'
p6598
aS'3nxx'
p6599
aS'1xcj'
p6600
aS'1bmt'
p6601
aS'1aqc'
p6602
aS'1f9a'
p6603
aS'2wi5'
p6604
aS'4h7a'
p6605
aS'1ig7'
p6606
aS'1g0h'
p6607
aS'2psb'
p6608
aS'1bmq'
p6609
aS'2b0q'
p6610
aS'2jcl'
p6611
aS'1czz'
p6612
aS'2r88'
p6613
aS'1l9a'
p6614
aS'1tn0'
p6615
aS'1ni2'
p6616
aS'2y1l'
p6617
aS'3cyg'
p6618
aS'3b8u'
p6619
aS'3vmt'
p6620
aS'3ol7'
p6621
aS'2z6q'
p6622
aS'3dky'
p6623
aS'4fy2'
p6624
aS'4kd8'
p6625
aS'3kk2'
p6626
aS'1nfg'
p6627
aS'1gi7'
p6628
aS'1k9a'
p6629
aS'1pnt'
p6630
aS'2z91'
p6631
aS'3v45'
p6632
aS'4lgk'
p6633
aS'3rpi'
p6634
aS'2yzg'
p6635
aS'3mj0'
p6636
aS'1n4d'
p6637
aS'1pmt'
p6638
aS'3vqx'
p6639
aS'1tly'
p6640
aS'2eha'
p6641
aS'1zd4'
p6642
aS'9gpb'
p6643
aS'1iy1'
p6644
aS'2zh7'
p6645
aS'1v8k'
p6646
aS'2w72'
p6647
aS'3iqr'
p6648
aS'2dbr'
p6649
aS'3q85'
p6650
aS'1ji4'
p6651
aS'1gtl'
p6652
aS'1i7q'
p6653
aS'1nlm'
p6654
aS'2ws2'
p6655
aS'1fms'
p6656
aS'2e9o'
p6657
aS'4ady'
p6658
aS'1drf'
p6659
aS'2j5e'
p6660
aS'2fnx'
p6661
aS'1pyt'
p6662
aS'2yx1'
p6663
aS'1kqo'
p6664
aS'2ckw'
p6665
aS'2v96'
p6666
aS'2ral'
p6667
aS'2z3t'
p6668
aS'3k3q'
p6669
aS'2z6v'
p6670
aS'1i5o'
p6671
aS'1hi6'
p6672
aS'1kgb'
p6673
aS'2fk0'
p6674
aS'2x9k'
p6675
aS'1ff9'
p6676
aS'2x8m'
p6677
aS'2azk'
p6678
aS'2dwg'
p6679
aS'3azl'
p6680
aS'3e5m'
p6681
aS'2ii7'
p6682
aS'3svz'
p6683
aS'2wlf'
p6684
aS'1qtk'
p6685
aS'1vbv'
p6686
aS'1pth'
p6687
aS'3azg'
p6688
aS'1gne'
p6689
aS'1j9z'
p6690
aS'3d70'
p6691
aS'1ur3'
p6692
aS'1zen'
p6693
aS'3grf'
p6694
aS'2jc5'
p6695
aS'1xnx'
p6696
aS'2zyl'
p6697
aS'1emt'
p6698
aS'3g03'
p6699
aS'1jll'
p6700
aS'1qqd'
p6701
aS'3eqq'
p6702
aS'1ku2'
p6703
aS'1br3'
p6704
aS'1myk'
p6705
aS'4gqs'
p6706
aS'3pa0'
p6707
aS'1bo4'
p6708
aS'2aoj'
p6709
aS'1dcn'
p6710
aS'3i9y'
p6711
aS'3qnu'
p6712
aS'2jey'
p6713
aS'3p2r'
p6714
aS'1zxv'
p6715
aS'2wka'
p6716
aS'4g7o'
p6717
aS'3upu'
p6718
aS'3eka'
p6719
aS'1wsf'
p6720
aS'2y7w'
p6721
aS'1n1m'
p6722
aS'1nfh'
p6723
aS'2a30'
p6724
aS'1rq5'
p6725
aS'2i35'
p6726
aS'2fa9'
p6727
aS'4ad8'
p6728
aS'3fb5'
p6729
aS'2cge'
p6730
aS'2qqb'
p6731
aS'1cwp'
p6732
aS'3c2x'
p6733
aS'3ft9'
p6734
aS'1nx0'
p6735
aS'1lwj'
p6736
aS'1nkd'
p6737
aS'3hpv'
p6738
aS'2g7k'
p6739
aS'2cb6'
p6740
aS'1cm7'
p6741
aS'3q1m'
p6742
aS'4g5v'
p6743
aS'4ksa'
p6744
aS'3rgv'
p6745
aS'1jze'
p6746
aS'3tcm'
p6747
aS'1o6o'
p6748
aS'1lij'
p6749
aS'1x24'
p6750
aS'1z4u'
p6751
aS'1o9b'
p6752
aS'1urj'
p6753
aS'3vm6'
p6754
aS'1e0d'
p6755
aS'3dl5'
p6756
aS'1mra'
p6757
aS'2nua'
p6758
aS'2vf9'
p6759
aS'1j3l'
p6760
aS'3kaa'
p6761
aS'3b9n'
p6762
aS'3mw9'
p6763
aS'1a35'
p6764
aS'3a7s'
p6765
aS'296d'
p6766
aS'2xa9'
p6767
aS'1d4d'
p6768
aS'3gmj'
p6769
aS'1nrr'
p6770
aS'1yv9'
p6771
aS'3a7m'
p6772
aS'3k42'
p6773
aS'1pbx'
p6774
aS'3k3w'
p6775
aS'2qsf'
p6776
aS'1ahr'
p6777
aS'2oud'
p6778
aS'1bp7'
p6779
aS'3mca'
p6780
aS'1dqr'
p6781
aS'1dwb'
p6782
aS'3k4u'
p6783
aS'2okr'
p6784
aS'3hya'
p6785
aS'1cps'
p6786
aS'1eo7'
p6787
aS'1lz2'
p6788
aS'3f3p'
p6789
aS'1n00'
p6790
aS'3ifz'
p6791
aS'1ors'
p6792
aS'1b4w'
p6793
aS'1fzb'
p6794
aS'3cds'
p6795
aS'1ecq'
p6796
aS'1it8'
p6797
aS'1k7u'
p6798
aS'4fy3'
p6799
aS'2ie4'
p6800
aS'2gj5'
p6801
aS'3klv'
p6802
aS'1mrv'
p6803
aS'2fde'
p6804
aS'3kho'
p6805
aS'3jv2'
p6806
aS'2gxf'
p6807
aS'1u7v'
p6808
aS'3d6t'
p6809
aS'2qlk'
p6810
aS'1ahe'
p6811
aS'3m3n'
p6812
aS'2r7j'
p6813
aS'1kfv'
p6814
aS'1ydz'
p6815
aS'4h2e'
p6816
aS'1plf'
p6817
aS'3m6q'
p6818
aS'1kyw'
p6819
aS'1q0u'
p6820
aS'2od5'
p6821
aS'1sz0'
p6822
aS'2amc'
p6823
aS'1jdp'
p6824
aS'2xdd'
p6825
aS'1tel'
p6826
aS'1psi'
p6827
aS'4kcz'
p6828
aS'1e8z'
p6829
aS'1flo'
p6830
aS'1xew'
p6831
aS'3g79'
p6832
aS'3il7'
p6833
aS'3csc'
p6834
aS'1fs2'
p6835
aS'1tej'
p6836
aS'1d5x'
p6837
aS'3cpm'
p6838
aS'4g21'
p6839
aS'1jbt'
p6840
aS'1u8r'
p6841
aS'3dpx'
p6842
aS'1nex'
p6843
aS'1tkx'
p6844
aS'2du3'
p6845
aS'3stm'
p6846
aS'1wl1'
p6847
aS'1mmn'
p6848
aS'2zr9'
p6849
aS'2a8v'
p6850
aS'2jco'
p6851
aS'2lal'
p6852
aS'1vz0'
p6853
aS'1mww'
p6854
aS'3emo'
p6855
aS'1nph'
p6856
aS'4kdg'
p6857
aS'2y1m'
p6858
aS'3dcu'
p6859
aS'4bia'
p6860
aS'1u0h'
p6861
aS'2b0l'
p6862
aS'4e60'
p6863
aS'1onz'
p6864
aS'1hga'
p6865
aS'2fyn'
p6866
aS'3mgj'
p6867
aS'1uk4'
p6868
aS'1wcb'
p6869
aS'1ur9'
p6870
aS'3ibp'
p6871
aS'1vlt'
p6872
aS'3soh'
p6873
aS'3nq0'
p6874
aS'1tyr'
p6875
aS'1ki4'
p6876
aS'3bqd'
p6877
aS'3iro'
p6878
aS'1iai'
p6879
aS'1klj'
p6880
aS'2rk9'
p6881
aS'2azq'
p6882
aS'1i69'
p6883
aS'1y6k'
p6884
aS'1rru'
p6885
aS'2ovr'
p6886
aS'2eu1'
p6887
aS'1cit'
p6888
aS'3hgq'
p6889
aS'1nv3'
p6890
aS'1da2'
p6891
aS'1nv9'
p6892
aS'2d7u'
p6893
aS'3o6f'
p6894
aS'3abt'
p6895
aS'2znj'
p6896
aS'4kbv'
p6897
aS'3tjz'
p6898
aS'3gtm'
p6899
aS'1dug'
p6900
aS'1ozj'
p6901
aS'1usy'
p6902
aS'2vtn'
p6903
aS'1vgl'
p6904
aS'1jzs'
p6905
aS'1e6g'
p6906
aS'3ode'
p6907
aS'1r1l'
p6908
aS'3b6c'
p6909
aS'1nn4'
p6910
aS'1t8b'
p6911
aS'2f3g'
p6912
aS'3efe'
p6913
aS'1o93'
p6914
aS'2ed6'
p6915
aS'3tth'
p6916
aS'1npo'
p6917
aS'1ljy'
p6918
aS'1fdo'
p6919
aS'1h2i'
p6920
aS'2z4i'
p6921
aS'3i85'
p6922
aS'1z7m'
p6923
aS'4ikk'
p6924
aS'4fqm'
p6925
aS'3o6j'
p6926
aS'1hf2'
p6927
aS'3g78'
p6928
aS'1yod'
p6929
aS'3nph'
p6930
aS'1sd7'
p6931
aS'1az2'
p6932
aS'1g18'
p6933
aS'1uyo'
p6934
aS'1yyt'
p6935
aS'2d2a'
p6936
aS'1hjv'
p6937
aS'2yal'
p6938
aS'3buz'
p6939
aS'1f7q'
p6940
aS'4fwh'
p6941
aS'1gd7'
p6942
aS'3ggz'
p6943
aS'1suj'
p6944
aS'1t2t'
p6945
aS'1fq6'
p6946
aS'2zrs'
p6947
aS'1gmo'
p6948
aS'2mjp'
p6949
aS'1dxp'
p6950
aS'4fn0'
p6951
aS'3pri'
p6952
aS'1wyg'
p6953
aS'1i41'
p6954
aS'1n5u'
p6955
aS'2ozy'
p6956
aS'1j37'
p6957
aS'3a5t'
p6958
aS'2ifn'
p6959
aS'1o9t'
p6960
aS'2w1t'
p6961
aS'3g9q'
p6962
aS'3hkb'
p6963
aS'1l0s'
p6964
aS'3rky'
p6965
aS'1x03'
p6966
aS'1mbo'
p6967
aS'1cf1'
p6968
aS'1fep'
p6969
aS'3mdj'
p6970
aS'4k4e'
p6971
aS'2q9c'
p6972
aS'3vsw'
p6973
aS'1kfy'
p6974
aS'1h0y'
p6975
aS'1zck'
p6976
aS'1nez'
p6977
aS'3enl'
p6978
aS'1atp'
p6979
aS'4gwz'
p6980
aS'2izd'
p6981
aS'1ywr'
p6982
aS'1ztx'
p6983
aS'1nb6'
p6984
aS'1ya0'
p6985
aS'4ain'
p6986
aS'3kjl'
p6987
aS'1j8d'
p6988
aS'258d'
p6989
aS'2i21'
p6990
aS'3qtn'
p6991
aS'1mqm'
p6992
aS'1w58'
p6993
aS'2hu4'
p6994
aS'2jb5'
p6995
aS'1fb2'
p6996
aS'2qu2'
p6997
aS'2e46'
p6998
aS'2fep'
p6999
aS'3aj2'
p7000
aS'3ilh'
p7001
aS'1o17'
p7002
aS'3u1c'
p7003
aS'1eui'
p7004
aS'1gkz'
p7005
aS'3od2'
p7006
aS'1nwy'
p7007
aS'1fl2'
p7008
aS'2opm'
p7009
aS'2yv6'
p7010
aS'2qh0'
p7011
aS'1brp'
p7012
aS'2h2e'
p7013
aS'2fum'
p7014
aS'1djw'
p7015
aS'1h4x'
p7016
aS'1z3g'
p7017
aS'2cvh'
p7018
aS'3dwt'
p7019
aS'2vto'
p7020
aS'2yl3'
p7021
aS'2pfq'
p7022
aS'1dcf'
p7023
aS'1d4s'
p7024
aS'4fy9'
p7025
aS'1p3b'
p7026
aS'2d4r'
p7027
aS'1bug'
p7028
aS'2ba1'
p7029
aS'2owh'
p7030
aS'1mkg'
p7031
aS'3btl'
p7032
aS'1or2'
p7033
aS'1wmx'
p7034
aS'3ztn'
p7035
aS'1d7m'
p7036
aS'3byt'
p7037
aS'3ozj'
p7038
aS'1thb'
p7039
aS'2ag9'
p7040
aS'2ovq'
p7041
aS'4b3f'
p7042
aS'2j68'
p7043
aS'2y4i'
p7044
aS'4crx'
p7045
aS'2dqf'
p7046
aS'1j36'
p7047
aS'3mj5'
p7048
aS'3rmg'
p7049
aS'1yy4'
p7050
aS'1ay1'
p7051
aS'3hws'
p7052
aS'3pz7'
p7053
aS'2he5'
p7054
aS'1zm5'
p7055
aS'1un9'
p7056
aS'1ook'
p7057
aS'2zw7'
p7058
aS'1d5y'
p7059
aS'1irx'
p7060
aS'1f6m'
p7061
aS'4ams'
p7062
aS'3gtj'
p7063
aS'3krp'
p7064
aS'2q2m'
p7065
aS'4j4x'
p7066
aS'3kkc'
p7067
aS'1e5w'
p7068
aS'2qe2'
p7069
aS'2cmm'
p7070
aS'2f0z'
p7071
aS'1dr2'
p7072
aS'1xco'
p7073
aS'1hh6'
p7074
aS'3ztt'
p7075
aS'3k7l'
p7076
aS'3meg'
p7077
aS'3dzb'
p7078
aS'4eyh'
p7079
aS'1hgc'
p7080
aS'2qa4'
p7081
aS'1p69'
p7082
aS'2gvd'
p7083
aS'3jvz'
p7084
aS'2uxp'
p7085
aS'1vi7'
p7086
aS'4fwi'
p7087
aS'1tjk'
p7088
aS'1wv2'
p7089
aS'2q4z'
p7090
aS'3f1k'
p7091
aS'3ajv'
p7092
aS'2iyy'
p7093
aS'3egz'
p7094
aS'1tee'
p7095
aS'1i48'
p7096
aS'1ahp'
p7097
aS'1c46'
p7098
aS'4l16'
p7099
aS'1fzc'
p7100
aS'3g1f'
p7101
aS'2xvb'
p7102
aS'2fa2'
p7103
aS'1h4l'
p7104
aS'1j79'
p7105
aS'1o92'
p7106
aS'1jvq'
p7107
aS'3msh'
p7108
aS'2y4p'
p7109
aS'3uap'
p7110
aS'3oeq'
p7111
aS'3sq6'
p7112
aS'2hap'
p7113
aS'2y7q'
p7114
aS'2r7f'
p7115
aS'1kbo'
p7116
aS'2bv6'
p7117
aS'3af6'
p7118
aS'1avq'
p7119
aS'1xsd'
p7120
aS'2bg5'
p7121
aS'2gg5'
p7122
aS'3dq8'
p7123
aS'2dla'
p7124
aS'2xan'
p7125
aS'3c0w'
p7126
aS'3qf1'
p7127
aS'2dsf'
p7128
aS'1tn3'
p7129
aS'1nkv'
p7130
aS'1qwj'
p7131
aS'2g6t'
p7132
aS'1n0v'
p7133
aS'1b6s'
p7134
aS'3mq3'
p7135
aS'3fok'
p7136
aS'1vcf'
p7137
aS'2dcg'
p7138
aS'1ehl'
p7139
aS'1qe0'
p7140
aS'2zme'
p7141
aS'3hpl'
p7142
aS'1tyg'
p7143
aS'1ngw'
p7144
aS'3l3l'
p7145
aS'1sbf'
p7146
aS'1w3g'
p7147
aS'1zs8'
p7148
aS'1v7a'
p7149
aS'2z7g'
p7150
aS'4lsg'
p7151
aS'2icw'
p7152
aS'2zrm'
p7153
aS'3mo0'
p7154
aS'1od2'
p7155
aS'1tgo'
p7156
aS'1iza'
p7157
aS'2bcn'
p7158
aS'2q4m'
p7159
aS'3tgx'
p7160
aS'1opc'
p7161
aS'2ogu'
p7162
aS'3udw'
p7163
aS'1lqg'
p7164
aS'2vja'
p7165
aS'2qzx'
p7166
aS'1yaj'
p7167
aS'1pxn'
p7168
aS'1yo6'
p7169
aS'3il4'
p7170
aS'2nue'
p7171
aS'2q4a'
p7172
aS'2cmh'
p7173
aS'1sg3'
p7174
aS'1u7b'
p7175
aS'3ss4'
p7176
aS'1f9r'
p7177
aS'2g58'
p7178
aS'3lc4'
p7179
aS'4e8k'
p7180
aS'2i4j'
p7181
aS'3vsg'
p7182
aS'3tpv'
p7183
aS'1wcd'
p7184
aS'1myh'
p7185
aS'2v5d'
p7186
aS'1la2'
p7187
aS'2uvu'
p7188
aS'3hp0'
p7189
aS'1rr9'
p7190
aS'1my7'
p7191
aS'1ymu'
p7192
aS'2cx3'
p7193
aS'1trr'
p7194
aS'3lba'
p7195
aS'1gnn'
p7196
aS'3ee0'
p7197
aS'1r42'
p7198
aS'1lsh'
p7199
aS'1ltj'
p7200
aS'2hbm'
p7201
aS'2qf6'
p7202
aS'1cj1'
p7203
aS'3n1t'
p7204
aS'3kln'
p7205
aS'1x3z'
p7206
aS'3w1j'
p7207
aS'2zno'
p7208
aS'1nxg'
p7209
aS'2fpg'
p7210
aS'1qql'
p7211
aS'1gt0'
p7212
aS'3tg3'
p7213
aS'3gps'
p7214
aS'3hz7'
p7215
aS'3h9v'
p7216
aS'1h3o'
p7217
aS'4fcp'
p7218
aS'2bhi'
p7219
aS'2oae'
p7220
aS'1lve'
p7221
aS'1x1c'
p7222
aS'4kdh'
p7223
aS'1f9n'
p7224
aS'1cbv'
p7225
aS'1b9s'
p7226
aS'2zra'
p7227
aS'1fok'
p7228
aS'1t72'
p7229
aS'2gw5'
p7230
aS'2glf'
p7231
aS'2hmt'
p7232
aS'2r7v'
p7233
aS'3azj'
p7234
aS'1srj'
p7235
aS'3a58'
p7236
aS'2a3v'
p7237
aS'4kdb'
p7238
aS'3skn'
p7239
aS'3ua0'
p7240
aS'2f4u'
p7241
aS'1mlu'
p7242
aS'1oz6'
p7243
aS'3c7y'
p7244
aS'1r5a'
p7245
aS'4dib'
p7246
aS'3o4l'
p7247
aS'3k19'
p7248
aS'3cln'
p7249
aS'3nwt'
p7250
aS'2h27'
p7251
aS'3lbk'
p7252
aS'1mlb'
p7253
aS'1q3u'
p7254
aS'3tuz'
p7255
aS'3cun'
p7256
aS'4eq3'
p7257
aS'3te6'
p7258
aS'2chf'
p7259
aS'1hwh'
p7260
aS'3bli'
p7261
aS'1qvb'
p7262
aS'3adu'
p7263
aS'2vtp'
p7264
aS'1vkg'
p7265
aS'2itj'
p7266
aS'1xt6'
p7267
aS'3u5p'
p7268
aS'2ywg'
p7269
aS'2qjk'
p7270
aS'2o1j'
p7271
aS'2hcb'
p7272
aS'1n5a'
p7273
aS'2ht4'
p7274
aS'414d'
p7275
aS'2c7b'
p7276
aS'4tln'
p7277
aS'1v79'
p7278
aS'1a3s'
p7279
aS'1kdp'
p7280
aS'1omi'
p7281
aS'1pxx'
p7282
aS'3gjc'
p7283
aS'1ca8'
p7284
aS'2gsz'
p7285
aS'1pts'
p7286
aS'1ij0'
p7287
aS'2d4a'
p7288
aS'1u35'
p7289
aS'3e74'
p7290
aS'2pae'
p7291
aS'1ptu'
p7292
aS'3lzf'
p7293
aS'1cmk'
p7294
aS'1f89'
p7295
aS'3ggq'
p7296
aS'2q06'
p7297
aS'4bxw'
p7298
aS'1iy2'
p7299
aS'2p3d'
p7300
aS'2thf'
p7301
aS'1qyy'
p7302
aS'3p1y'
p7303
aS'3nas'
p7304
aS'1lv5'
p7305
aS'1nf2'
p7306
aS'3h1j'
p7307
aS'1lt7'
p7308
aS'1rv1'
p7309
aS'1hl3'
p7310
aS'3b3k'
p7311
aS'2or9'
p7312
aS'2zbq'
p7313
aS'3w9j'
p7314
aS'1tme'
p7315
aS'3f07'
p7316
aS'1zp5'
p7317
aS'1uvc'
p7318
aS'2x0r'
p7319
aS'3nsq'
p7320
aS'1eyx'
p7321
aS'2quk'
p7322
aS'1b9y'
p7323
aS'1d0j'
p7324
aS'1syo'
p7325
aS'2x6b'
p7326
aS'4fz1'
p7327
aS'1m0n'
p7328
aS'1ifb'
p7329
aS'2pgh'
p7330
aS'3shj'
p7331
aS'1bo1'
p7332
aS'3gvz'
p7333
aS'3cjw'
p7334
aS'4i59'
p7335
aS'3zz0'
p7336
aS'4gf9'
p7337
aS'4ayj'
p7338
aS'1p1b'
p7339
aS'4ei9'
p7340
aS'2htv'
p7341
aS'3bt9'
p7342
aS'3bwp'
p7343
aS'2q3n'
p7344
aS'1z0x'
p7345
aS'1ghd'
p7346
aS'3ezx'
p7347
aS'2ogk'
p7348
aS'2x6d'
p7349
aS'1fq4'
p7350
aS'2jxr'
p7351
aS'3zrf'
p7352
aS'5tmp'
p7353
aS'1a34'
p7354
aS'2orb'
p7355
aS'3skg'
p7356
aS'5er1'
p7357
aS'3ndb'
p7358
aS'3pac'
p7359
aS'2z3l'
p7360
aS'1lfg'
p7361
aS'3gkl'
p7362
aS'1z9h'
p7363
aS'2mga'
p7364
aS'1m8p'
p7365
aS'1ynm'
p7366
aS'3b92'
p7367
aS'1ji0'
p7368
aS'5adh'
p7369
aS'3cw2'
p7370
aS'1ias'
p7371
aS'6csc'
p7372
aS'1lmk'
p7373
aS'4erk'
p7374
aS'1uaz'
p7375
aS'3mim'
p7376
aS'2g0e'
p7377
aS'1iz3'
p7378
aS'2idb'
p7379
aS'2dx5'
p7380
aS'3a6n'
p7381
aS'2w8l'
p7382
aS'1cuk'
p7383
aS'4bst'
p7384
aS'4glp'
p7385
aS'1b9b'
p7386
aS'1z7y'
p7387
aS'2zu6'
p7388
aS'1zii'
p7389
aS'2xbr'
p7390
aS'3bt1'
p7391
aS'2giu'
p7392
aS'2e0z'
p7393
aS'4htw'
p7394
aS'3gif'
p7395
aS'1or6'
p7396
aS'3v79'
p7397
aS'2pi5'
p7398
aS'1p7o'
p7399
aS'3h8n'
p7400
aS'1www'
p7401
aS'1s70'
p7402
aS'1olr'
p7403
aS'3cr5'
p7404
aS'1ynj'
p7405
aS'1k9w'
p7406
aS'3k9p'
p7407
aS'1w52'
p7408
aS'3qbu'
p7409
aS'1xog'
p7410
aS'1cdz'
p7411
aS'3fpb'
p7412
aS'3av1'
p7413
aS'1cuh'
p7414
aS'2glv'
p7415
aS'2z43'
p7416
aS'3tve'
p7417
aS'1f59'
p7418
aS'2zr1'
p7419
aS'2uuc'
p7420
aS'1ttw'
p7421
aS'1fzd'
p7422
aS'3bac'
p7423
aS'3bua'
p7424
aS'2c6f'
p7425
aS'2p1d'
p7426
aS'3odz'
p7427
aS'1bvo'
p7428
aS'2dhb'
p7429
aS'2bdi'
p7430
aS'213l'
p7431
aS'2b7l'
p7432
aS'2w4z'
p7433
aS'3nzd'
p7434
aS'3nl6'
p7435
aS'3mka'
p7436
aS'1jyl'
p7437
aS'2iz7'
p7438
aS'3axl'
p7439
aS'2et8'
p7440
aS'3tvh'
p7441
aS'3lii'
p7442
aS'1ea3'
p7443
aS'4l46'
p7444
aS'1exw'
p7445
aS'3avx'
p7446
aS'1kwa'
p7447
aS'1e0u'
p7448
aS'4bxd'
p7449
aS'1izl'
p7450
aS'1vsw'
p7451
aS'2pho'
p7452
aS'1b4a'
p7453
aS'4dqm'
p7454
aS'1tg4'
p7455
aS'4fgn'
p7456
aS'2exx'
p7457
aS'3epj'
p7458
aS'1ych'
p7459
aS'1uco'
p7460
aS'3blf'
p7461
aS'3zg2'
p7462
aS'1lo4'
p7463
aS'1w3c'
p7464
aS'2rda'
p7465
aS'2ifo'
p7466
aS'1mcb'
p7467
aS'2wmz'
p7468
aS'3m3v'
p7469
aS'2zqj'
p7470
aS'1ega'
p7471
aS'2zqu'
p7472
aS'1k6q'
p7473
aS'2opp'
p7474
aS'3w9h'
p7475
aS'4kbu'
p7476
aS'1yr6'
p7477
aS'3pip'
p7478
aS'3bcq'
p7479
aS'1e1v'
p7480
aS'1sd6'
p7481
aS'3uz6'
p7482
aS'2ghj'
p7483
aS'1ebp'
p7484
aS'2yfh'
p7485
aS'1f6w'
p7486
aS'1auy'
p7487
aS'1ub5'
p7488
aS'1ntk'
p7489
aS'1k40'
p7490
aS'3k9k'
p7491
aS'1eqr'
p7492
aS'4e4x'
p7493
aS'3uvf'
p7494
aS'3o9j'
p7495
aS'4ebn'
p7496
aS'2jkr'
p7497
aS'1jyu'
p7498
aS'1xvs'
p7499
aS'1s3w'
p7500
aS'1y7u'
p7501
aS'3m0c'
p7502
aS'1u1j'
p7503
aS'3kx0'
p7504
aS'1smm'
p7505
aS'3v1g'
p7506
aS'1vfp'
p7507
aS'1joj'
p7508
aS'1a1a'
p7509
aS'4g5k'
p7510
aS'1ikw'
p7511
aS'3qm4'
p7512
aS'1ycg'
p7513
aS'1ydp'
p7514
aS'4lj2'
p7515
aS'1yum'
p7516
aS'2fbz'
p7517
aS'2zxc'
p7518
aS'3fn9'
p7519
aS'1mok'
p7520
aS'2qm2'
p7521
aS'1gj7'
p7522
aS'2o15'
p7523
aS'2zte'
p7524
aS'1bh9'
p7525
aS'1mo4'
p7526
aS'4i60'
p7527
aS'3gvy'
p7528
aS'2hfw'
p7529
aS'3jtb'
p7530
aS'4frz'
p7531
aS'1izn'
p7532
aS'3c60'
p7533
aS'2pif'
p7534
aS'1xs7'
p7535
aS'1fl6'
p7536
aS'4e8r'
p7537
aS'2nz5'
p7538
aS'2a1j'
p7539
aS'2zh9'
p7540
aS'3ghg'
p7541
aS'4auo'
p7542
aS'3qqt'
p7543
aS'2adi'
p7544
aS'1q31'
p7545
aS'3fgx'
p7546
aS'2bnd'
p7547
aS'1j7v'
p7548
aS'3bz1'
p7549
aS'4bi9'
p7550
aS'2nup'
p7551
aS'1zav'
p7552
aS'2zi6'
p7553
aS'3kkj'
p7554
aS'1ej9'
p7555
aS'1f9e'
p7556
aS'1klt'
p7557
aS'1s52'
p7558
aS'3t59'
p7559
aS'1i96'
p7560
aS'1jri'
p7561
aS'2zeq'
p7562
aS'3i32'
p7563
aS'1fy4'
p7564
aS'2hnz'
p7565
aS'2a9g'
p7566
aS'1exd'
p7567
aS'3tyh'
p7568
aS'3gku'
p7569
aS'1m6n'
p7570
aS'2oei'
p7571
aS'3q5x'
p7572
aS'2r8v'
p7573
aS'2z9n'
p7574
aS'1b2w'
p7575
aS'3q2m'
p7576
aS'1ltx'
p7577
aS'2oj9'
p7578
aS'2zud'
p7579
aS'2pt3'
p7580
aS'1khh'
p7581
aS'1914'
p7582
aS'2f7z'
p7583
aS'1i4w'
p7584
aS'3skc'
p7585
aS'1par'
p7586
aS'4ez4'
p7587
aS'3htk'
p7588
aS'3l8r'
p7589
aS'1j3e'
p7590
aS'1p1h'
p7591
aS'1fhm'
p7592
aS'3k5l'
p7593
aS'1ukj'
p7594
aS'3t9n'
p7595
aS'3op1'
p7596
aS'1k05'
p7597
aS'1i8q'
p7598
aS'2rd4'
p7599
aS'1rgp'
p7600
aS'3dkx'
p7601
aS'1quv'
p7602
aS'4b3r'
p7603
aS'2beh'
p7604
aS'2ass'
p7605
aS'3qo6'
p7606
aS'2a7r'
p7607
aS'3hmj'
p7608
aS'1shs'
p7609
aS'2zxr'
p7610
aS'4gb3'
p7611
aS'2e9q'
p7612
aS'1xj7'
p7613
aS'1jft'
p7614
aS'3cbi'
p7615
aS'2p87'
p7616
aS'3dm2'
p7617
aS'1fir'
p7618
aS'3cdm'
p7619
aS'3vuk'
p7620
aS'2iy8'
p7621
aS'1r4a'
p7622
aS'4aed'
p7623
aS'3klh'
p7624
aS'3hth'
p7625
aS'3c9m'
p7626
aS'1zik'
p7627
aS'2cea'
p7628
aS'1e8w'
p7629
aS'1lv2'
p7630
aS'1hdc'
p7631
aS'2oip'
p7632
aS'1lhd'
p7633
aS'2bix'
p7634
aS'1xni'
p7635
aS'2dti'
p7636
aS'1w3f'
p7637
aS'1z0e'
p7638
aS'1n0f'
p7639
aS'2a8g'
p7640
aS'1tll'
p7641
aS'2xel'
p7642
aS'1rb8'
p7643
aS'3kfe'
p7644
aS'3tui'
p7645
aS'3ua3'
p7646
aS'1p7n'
p7647
aS'3adf'
p7648
aS'1cez'
p7649
aS'3ey4'
p7650
aS'1hoc'
p7651
aS'1pwv'
p7652
aS'1g7t'
p7653
aS'1gx9'
p7654
aS'4e07'
p7655
aS'2fpi'
p7656
aS'3g33'
p7657
aS'1um8'
p7658
aS'1j4t'
p7659
aS'1usw'
p7660
aS'2ig0'
p7661
aS'1kjy'
p7662
aS'1bi9'
p7663
aS'1g5y'
p7664
aS'2xvn'
p7665
aS'1eer'
p7666
aS'2hqb'
p7667
aS'3s03'
p7668
aS'1k2l'
p7669
aS'3zzt'
p7670
aS'3i64'
p7671
aS'3vta'
p7672
aS'4i5v'
p7673
aS'265d'
p7674
aS'2cd8'
p7675
aS'3ua4'
p7676
aS'1h7a'
p7677
aS'3bx5'
p7678
aS'3kxs'
p7679
aS'4dg6'
p7680
aS'3jtn'
p7681
aS'3b3x'
p7682
aS'3lcu'
p7683
aS'1n56'
p7684
aS'2xmp'
p7685
aS'1gjv'
p7686
aS'2puu'
p7687
aS'1uur'
p7688
aS'4gws'
p7689
aS'1bu2'
p7690
aS'1drh'
p7691
aS'2nyg'
p7692
aS'1d1c'
p7693
aS'1vfz'
p7694
aS'3tin'
p7695
aS'2ht7'
p7696
aS'2rft'
p7697
aS'3zqy'
p7698
aS'2fhi'
p7699
aS'4hdn'
p7700
aS'3icb'
p7701
aS'1nob'
p7702
aS'1ndw'
p7703
aS'1fcd'
p7704
aS'3m9s'
p7705
aS'1moz'
p7706
aS'2xa0'
p7707
aS'2d5g'
p7708
aS'3ex8'
p7709
aS'3t81'
p7710
aS'2bpo'
p7711
aS'1j4s'
p7712
aS'2ztn'
p7713
aS'2uzy'
p7714
aS'3v5s'
p7715
aS'1f9q'
p7716
aS'3qt0'
p7717
aS'2rgz'
p7718
aS'3k5w'
p7719
aS'2bj1'
p7720
aS'1kxu'
p7721
aS'1x1p'
p7722
aS'3vul'
p7723
aS'3vkm'
p7724
aS'1tkt'
p7725
aS'3o1j'
p7726
aS'3kex'
p7727
aS'3bz2'
p7728
aS'1vey'
p7729
aS'3q06'
p7730
aS'3nq1'
p7731
aS'2h5l'
p7732
aS'3v2r'
p7733
aS'3vep'
p7734
aS'2aj2'
p7735
aS'3d5q'
p7736
aS'1le8'
p7737
aS'1bh8'
p7738
aS'2pxv'
p7739
aS'1wqw'
p7740
aS'1t71'
p7741
aS'2wiz'
p7742
aS'1btj'
p7743
aS'3cxj'
p7744
aS'1yye'
p7745
aS'1tyh'
p7746
aS'2h3r'
p7747
aS'1smq'
p7748
aS'3uyd'
p7749
aS'3opw'
p7750
aS'1hfr'
p7751
aS'2r4p'
p7752
aS'2i2l'
p7753
aS'1wpt'
p7754
aS'3lsp'
p7755
aS'2ny6'
p7756
aS'1xgm'
p7757
aS'2ztx'
p7758
aS'3n7k'
p7759
aS'3mzs'
p7760
aS'1tgz'
p7761
aS'1xtj'
p7762
aS'2w4b'
p7763
aS'3i7h'
p7764
aS'2h1w'
p7765
aS'1p8c'
p7766
aS'2alz'
p7767
aS'4f0u'
p7768
aS'3dlh'
p7769
aS'1qol'
p7770
aS'4g1t'
p7771
aS'2g5h'
p7772
aS'3esh'
p7773
aS'3epg'
p7774
aS'1mr9'
p7775
aS'1bdw'
p7776
aS'3f1e'
p7777
aS'4e8m'
p7778
aS'1k8g'
p7779
aS'1d28'
p7780
aS'3rcp'
p7781
aS'2q1k'
p7782
aS'1dot'
p7783
aS'2wer'
p7784
aS'2zrf'
p7785
aS'1iiz'
p7786
aS'1rir'
p7787
aS'3vra'
p7788
aS'2yvy'
p7789
aS'4kbl'
p7790
aS'1b7s'
p7791
aS'1tn1'
p7792
aS'1tn2'
p7793
aS'1m9i'
p7794
aS'3d3e'
p7795
aS'2y0r'
p7796
aS'2c3z'
p7797
aS'1hu8'
p7798
aS'3up7'
p7799
aS'3e2p'
p7800
aS'1hje'
p7801
aS'28dn'
p7802
aS'3bm0'
p7803
aS'3fhv'
p7804
aS'4htt'
p7805
aS'1u3e'
p7806
aS'1mk9'
p7807
aS'2ptg'
p7808
aS'1sh9'
p7809
aS'2adj'
p7810
aS'3hiu'
p7811
aS'1fmo'
p7812
aS'1gn3'
p7813
aS'1bxz'
p7814
aS'2j0w'
p7815
aS'1thp'
p7816
aS'1ztm'
p7817
aS'3vpx'
p7818
aS'1jma'
p7819
aS'1clq'
p7820
aS'3det'
p7821
aS'1lfy'
p7822
aS'1zkq'
p7823
aS'2e9z'
p7824
aS'2ozo'
p7825
aS'2r9j'
p7826
aS'1e9h'
p7827
aS'1fqx'
p7828
aS'3dkw'
p7829
aS'3bti'
p7830
aS'1f52'
p7831
aS'1fa2'
p7832
aS'3cgy'
p7833
aS'3p8p'
p7834
aS'1i5l'
p7835
aS'1bda'
p7836
aS'4h8k'
p7837
aS'1hte'
p7838
aS'1l8w'
p7839
aS'3g8u'
p7840
aS'2hau'
p7841
aS'4fts'
p7842
aS'5tnc'
p7843
aS'2qc2'
p7844
aS'3fol'
p7845
aS'2hms'
p7846
aS'3clc'
p7847
aS'2eva'
p7848
aS'1nrx'
p7849
aS'1h25'
p7850
aS'3at3'
p7851
aS'1rqg'
p7852
aS'3enm'
p7853
aS'1m61'
p7854
aS'3o1i'
p7855
aS'1vzj'
p7856
aS'1rpw'
p7857
aS'1xqs'
p7858
aS'3v65'
p7859
aS'1c7h'
p7860
aS'2z31'
p7861
aS'1rxa'
p7862
aS'3akz'
p7863
aS'4jaf'
p7864
aS'1zp0'
p7865
aS'1fj1'
p7866
aS'1q47'
p7867
aS'1rhs'
p7868
aS'3urf'
p7869
aS'2yy6'
p7870
aS'1jnq'
p7871
aS'1wkw'
p7872
aS'1mck'
p7873
aS'2y9z'
p7874
aS'3f1g'
p7875
aS'1gdn'
p7876
aS'1ruf'
p7877
aS'3pcr'
p7878
aS'3k72'
p7879
aS'2i20'
p7880
aS'5pep'
p7881
aS'4gwc'
p7882
aS'3pw4'
p7883
aS'1kcu'
p7884
aS'3ln7'
p7885
aS'2ec8'
p7886
aS'3i5d'
p7887
aS'2a9q'
p7888
aS'2e9r'
p7889
aS'2xlc'
p7890
aS'1f4v'
p7891
aS'1tlz'
p7892
aS'2g8g'
p7893
aS'1o7d'
p7894
aS'1s1w'
p7895
aS'3g93'
p7896
aS'1j5s'
p7897
aS'1gqq'
p7898
aS'1zjh'
p7899
aS'1b04'
p7900
aS'1kon'
p7901
aS'3n3i'
p7902
aS'2z4h'
p7903
aS'1fo1'
p7904
aS'3cr7'
p7905
aS'4eak'
p7906
aS'3gx7'
p7907
aS'1ob1'
p7908
aS'3dzy'
p7909
aS'1qvt'
p7910
aS'1ap2'
p7911
aS'2z8c'
p7912
aS'2zy9'
p7913
aS'3bcp'
p7914
aS'3qpr'
p7915
aS'3gjw'
p7916
aS'2p1n'
p7917
aS'3oto'
p7918
aS'1fm6'
p7919
aS'3k5s'
p7920
aS'2fse'
p7921
aS'2sba'
p7922
aS'1ted'
p7923
aS'1yrn'
p7924
aS'2xey'
p7925
aS'3cr9'
p7926
aS'1sa0'
p7927
aS'2bf4'
p7928
aS'1aw5'
p7929
aS'3zr8'
p7930
aS'4l3a'
p7931
aS'3k8a'
p7932
aS'1t1u'
p7933
aS'2cyx'
p7934
aS'1u71'
p7935
aS'2z0y'
p7936
aS'1lsl'
p7937
aS'4aid'
p7938
aS'1zfn'
p7939
aS'1nyl'
p7940
aS'1r0c'
p7941
aS'1yiz'
p7942
aS'1dgw'
p7943
aS'1qsj'
p7944
aS'1td3'
p7945
aS'1dx4'
p7946
aS'3ejz'
p7947
aS'2c1o'
p7948
aS'1qzh'
p7949
aS'3kyh'
p7950
aS'4i98'
p7951
aS'2zuq'
p7952
aS'1mfq'
p7953
aS'4hw9'
p7954
aS'1ab8'
p7955
aS'3d8m'
p7956
aS'4jad'
p7957
aS'1djy'
p7958
aS'1waj'
p7959
aS'1ndz'
p7960
aS'1ksg'
p7961
aS'3klf'
p7962
aS'4tsv'
p7963
aS'1fk4'
p7964
aS'3orb'
p7965
aS'1td0'
p7966
aS'1dcp'
p7967
aS'2as5'
p7968
aS'1uij'
p7969
aS'3omx'
p7970
aS'2wv5'
p7971
aS'2d2m'
p7972
aS'1ny3'
p7973
aS'1hne'
p7974
aS'1vs3'
p7975
aS'1c1c'
p7976
aS'3uzf'
p7977
aS'2scu'
p7978
aS'1exz'
p7979
aS'3kak'
p7980
aS'2o95'
p7981
aS'4b6h'
p7982
aS'2yy3'
p7983
aS'1kt1'
p7984
aS'3l72'
p7985
aS'3siv'
p7986
aS'2dpy'
p7987
aS'3gmh'
p7988
aS'1dty'
p7989
aS'3ba6'
p7990
aS'2cv8'
p7991
aS'2y18'
p7992
aS'3ohw'
p7993
aS'1me6'
p7994
aS'1m7x'
p7995
aS'3i6s'
p7996
aS'1ekv'
p7997
aS'2b9b'
p7998
aS'1gzl'
p7999
aS'3iia'
p8000
aS'3c9i'
p8001
aS'2g04'
p8002
aS'2i19'
p8003
aS'1i1a'
p8004
aS'1r7r'
p8005
aS'3lbj'
p8006
aS'1zfj'
p8007
aS'1c8o'
p8008
aS'1cf7'
p8009
aS'2qla'
p8010
aS'1tre'
p8011
aS'3u59'
p8012
aS'1uus'
p8013
aS'1mm8'
p8014
aS'1pex'
p8015
aS'2qlr'
p8016
aS'1hho'
p8017
aS'3uzg'
p8018
aS'1u1r'
p8019
aS'205d'
p8020
aS'1f4z'
p8021
aS'3qsy'
p8022
aS'3lm8'
p8023
aS'1mmg'
p8024
aS'1osh'
p8025
aS'1qvu'
p8026
aS'3lzb'
p8027
aS'1q12'
p8028
aS'1tz3'
p8029
aS'2b6m'
p8030
aS'1ufu'
p8031
aS'3dbh'
p8032
aS'1wv4'
p8033
aS'2nvy'
p8034
aS'1k4k'
p8035
aS'1nq2'
p8036
aS'1zzh'
p8037
aS'2zbb'
p8038
aS'3zqv'
p8039
aS'1kpc'
p8040
aS'2dli'
p8041
aS'1qtj'
p8042
aS'3jsv'
p8043
aS'1av2'
p8044
aS'3t1e'
p8045
aS'4a51'
p8046
aS'3cco'
p8047
aS'1zrd'
p8048
aS'2snm'
p8049
aS'2zrl'
p8050
aS'1ad6'
p8051
aS'1g9x'
p8052
aS'1fbi'
p8053
aS'4fjr'
p8054
aS'1thi'
p8055
aS'2vnc'
p8056
aS'1pww'
p8057
aS'3m9d'
p8058
aS'3th1'
p8059
aS'1v3q'
p8060
aS'1e32'
p8061
aS'1pml'
p8062
aS'4aso'
p8063
aS'1m1j'
p8064
aS'1e94'
p8065
aS'2ixr'
p8066
aS'3t1h'
p8067
aS'3tdr'
p8068
aS'3abi'
p8069
aS'3mbo'
p8070
aS'2j8s'
p8071
aS'2o6q'
p8072
aS'1rve'
p8073
aS'3blw'
p8074
aS'1sqf'
p8075
aS'1yfg'
p8076
aS'1s56'
p8077
aS'3dwj'
p8078
aS'1p4u'
p8079
aS'3qm0'
p8080
aS'3g9l'
p8081
aS'3qph'
p8082
aS'2hsg'
p8083
aS'1mr1'
p8084
aS'3e6k'
p8085
aS'1jl5'
p8086
aS'3d9b'
p8087
aS'1mw8'
p8088
aS'1pzv'
p8089
aS'3koo'
p8090
aS'2z3a'
p8091
aS'1p92'
p8092
aS'3gtg'
p8093
aS'1xzo'
p8094
aS'1wv9'
p8095
aS'1mc3'
p8096
aS'2q6d'
p8097
aS'3nn8'
p8098
aS'1lss'
p8099
aS'1wnu'
p8100
aS'1xxb'
p8101
aS'2et3'
p8102
aS'1ndi'
p8103
aS'1onf'
p8104
aS'1kj4'
p8105
aS'1p7l'
p8106
aS'3eop'
p8107
aS'3q0k'
p8108
aS'3t5o'
p8109
aS'4e4q'
p8110
aS'4gfl'
p8111
aS'1fyw'
p8112
aS'1hwz'
p8113
aS'2gdg'
p8114
aS'1q34'
p8115
aS'2cym'
p8116
aS'3v7m'
p8117
aS'3p0u'
p8118
aS'1y3t'
p8119
aS'4d9y'
p8120
aS'2uxi'
p8121
aS'1bff'
p8122
aS'4ang'
p8123
aS'2g2i'
p8124
aS'1x0r'
p8125
aS'1rxz'
p8126
aS'3h4b'
p8127
aS'1efr'
p8128
aS'3h4r'
p8129
aS'1asl'
p8130
aS'3c2r'
p8131
aS'1jcn'
p8132
aS'2pqi'
p8133
aS'1r19'
p8134
aS'1foe'
p8135
aS'2isv'
p8136
aS'4jvr'
p8137
aS'3uus'
p8138
aS'1tid'
p8139
aS'3unz'
p8140
aS'2q4r'
p8141
aS'4jtx'
p8142
aS'1fjg'
p8143
aS'3omj'
p8144
aS'2dq3'
p8145
aS'1ovb'
p8146
aS'3i1n'
p8147
aS'1gpa'
p8148
aS'4hyg'
p8149
aS'2uvr'
p8150
aS'1a87'
p8151
aS'1tia'
p8152
aS'2gfy'
p8153
aS'1d6w'
p8154
aS'4i58'
p8155
aS'2cg9'
p8156
aS'4g0k'
p8157
aS'1hh4'
p8158
aS'3uku'
p8159
aS'1jum'
p8160
aS'3avt'
p8161
aS'1tbz'
p8162
aS'2noj'
p8163
aS'1qcu'
p8164
aS'4jag'
p8165
aS'3o8o'
p8166
aS'3uzh'
p8167
aS'3uyf'
p8168
aS'3uxn'
p8169
aS'3kid'
p8170
aS'2f5k'
p8171
aS'3f1f'
p8172
aS'2f2a'
p8173
aS'3i7l'
p8174
aS'2oh2'
p8175
aS'1dr6'
p8176
aS'3f1h'
p8177
aS'1ouq'
p8178
aS'3o50'
p8179
aS'1y4s'
p8180
aS'2d2k'
p8181
aS'1f44'
p8182
aS'2bhl'
p8183
aS'5cro'
p8184
aS'3nxh'
p8185
aS'3v11'
p8186
aS'1oft'
p8187
aS'3kio'
p8188
aS'2d2q'
p8189
aS'3ivk'
p8190
aS'2qj0'
p8191
aS'1e0o'
p8192
aS'3vfd'
p8193
aS'1v9z'
p8194
aS'3cn7'
p8195
aS'1rlv'
p8196
aS'1rke'
p8197
aS'1xai'
p8198
aS'3pm0'
p8199
aS'1v1a'
p8200
aS'4dbk'
p8201
aS'3uye'
p8202
aS'3pv4'
p8203
aS'1b73'
p8204
aS'1jnx'
p8205
aS'3k46'
p8206
aS'1fnt'
p8207
aS'2oki'
p8208
aS'3vkh'
p8209
aS'3k15'
p8210
aS'6chy'
p8211
aS'4i6j'
p8212
aS'1oqd'
p8213
aS'1m4u'
p8214
aS'1uhl'
p8215
aS'1n4e'
p8216
aS'1zf4'
p8217
aS'2qnv'
p8218
aS'3oa6'
p8219
aS'1jmb'
p8220
aS'1bya'
p8221
aS'4rhv'
p8222
aS'1fq8'
p8223
aS'1a49'
p8224
aS'3gtq'
p8225
aS'1m7w'
p8226
aS'1d59'
p8227
aS'2pbj'
p8228
aS'1v2x'
p8229
aS'3kph'
p8230
aS'1xau'
p8231
aS'3kcv'
p8232
aS'1bia'
p8233
aS'2npf'
p8234
aS'2axz'
p8235
aS'1lwf'
p8236
aS'1yq8'
p8237
aS'1di0'
p8238
aS'2yz7'
p8239
aS'1ut5'
p8240
aS'3s24'
p8241
aS'3ig1'
p8242
aS'4eyy'
p8243
aS'1zrc'
p8244
aS'1md7'
p8245
aS'1xcb'
p8246
aS'1mcf'
p8247
aS'1tlk'
p8248
aS'3djb'
p8249
aS'2p6r'
p8250
aS'1rct'
p8251
aS'1id3'
p8252
aS'4k3b'
p8253
aS'2wj7'
p8254
aS'1p8t'
p8255
aS'1h7r'
p8256
aS'1rei'
p8257
aS'3mkz'
p8258
aS'1dpr'
p8259
aS'1kp0'
p8260
aS'1gno'
p8261
aS'2g0j'
p8262
aS'4fsj'
p8263
aS'2j6m'
p8264
aS'3ho7'
p8265
aS'3vkv'
p8266
aS'3nvj'
p8267
aS'1nr9'
p8268
aS'1vdd'
p8269
aS'2zxo'
p8270
aS'1vrh'
p8271
aS'2qi2'
p8272
aS'3cu7'
p8273
aS'1he9'
p8274
aS'3kar'
p8275
aS'3lys'
p8276
aS'4gqd'
p8277
aS'1e8x'
p8278
aS'1kd7'
p8279
aS'1vfw'
p8280
aS'2hyf'
p8281
aS'1c3p'
p8282
aS'4ik6'
p8283
aS'4jgz'
p8284
aS'2ip4'
p8285
aS'3qyn'
p8286
aS'3ayf'
p8287
aS'2dp4'
p8288
aS'3bnz'
p8289
aS'1w2b'
p8290
aS'1xvl'
p8291
aS'1i94'
p8292
aS'1ptj'
p8293
aS'3a3a'
p8294
aS'3p4p'
p8295
aS'3bsb'
p8296
aS'1pmp'
p8297
aS'3da4'
p8298
aS'4m7e'
p8299
aS'1kq6'
p8300
aS'2wk6'
p8301
aS'3gzf'
p8302
aS'3rgu'
p8303
aS'3ulo'
p8304
aS'3am6'
p8305
aS'4bsv'
p8306
aS'391d'
p8307
aS'3ldt'
p8308
aS'2bps'
p8309
aS'1xf5'
p8310
aS'2zm5'
p8311
aS'1mne'
p8312
aS'3i6d'
p8313
aS'1ipj'
p8314
aS'4go4'
p8315
aS'3sjv'
p8316
aS'1imh'
p8317
aS'1ltk'
p8318
aS'2y0u'
p8319
aS'2fpf'
p8320
aS'1i7e'
p8321
aS'1dab'
p8322
aS'1xdv'
p8323
aS'3map'
p8324
aS'4fom'
p8325
aS'1jqk'
p8326
aS'1jyc'
p8327
aS'3zef'
p8328
aS'1hv4'
p8329
aS'3c6p'
p8330
aS'1rw8'
p8331
aS'1z1f'
p8332
aS'1d12'
p8333
aS'1t9q'
p8334
aS'3e1w'
p8335
aS'3k4h'
p8336
aS'1lw0'
p8337
aS'2rr1'
p8338
aS'3iig'
p8339
aS'2rgr'
p8340
aS'1kyi'
p8341
aS'2uu9'
p8342
aS'2i0l'
p8343
aS'1rue'
p8344
aS'1k58'
p8345
aS'3qo9'
p8346
aS'4f48'
p8347
aS'1xs0'
p8348
aS'3twj'
p8349
aS'4a5m'
p8350
aS'150l'
p8351
aS'1c16'
p8352
aS'4cox'
p8353
aS'1vde'
p8354
aS'1fcp'
p8355
aS'1l2f'
p8356
aS'2gqq'
p8357
aS'3fps'
p8358
aS'1izy'
p8359
aS'1q1e'
p8360
aS'2paf'
p8361
aS'2pzy'
p8362
aS'3bum'
p8363
aS'3hnz'
p8364
aS'1r8i'
p8365
aS'1wq7'
p8366
aS'2zpa'
p8367
aS'470d'
p8368
aS'1aow'
p8369
aS'3ncy'
p8370
aS'2rfw'
p8371
aS'1sfc'
p8372
aS'3veb'
p8373
aS'1zlp'
p8374
aS'3gli'
p8375
aS'1fmx'
p8376
aS'1sg1'
p8377
aS'3ezz'
p8378
aS'3uyg'
p8379
aS'1nds'
p8380
aS'4fka'
p8381
aS'1ydo'
p8382
aS'2wrf'
p8383
aS'3rpu'
p8384
aS'4dpn'
p8385
aS'3azk'
p8386
aS'1jb5'
p8387
aS'1l5g'
p8388
aS'1w1z'
p8389
aS'3a0k'
p8390
aS'3vb8'
p8391
aS'1qp9'
p8392
aS'4fe1'
p8393
aS'1vol'
p8394
aS'1xwr'
p8395
aS'1qzg'
p8396
aS'1qpz'
p8397
aS'1r08'
p8398
aS'3r1f'
p8399
aS'3khz'
p8400
aS'3u9t'
p8401
aS'1t5c'
p8402
aS'1a7a'
p8403
aS'1xp4'
p8404
aS'1u9s'
p8405
aS'1i50'
p8406
aS'3apm'
p8407
aS'1qse'
p8408
aS'3eyo'
p8409
aS'2ek6'
p8410
aS'1g6v'
p8411
aS'2r42'
p8412
aS'1im2'
p8413
aS'3e2h'
p8414
aS'1md9'
p8415
aS'1os2'
p8416
aS'1zxz'
p8417
aS'1re7'
p8418
aS'1hv5'
p8419
aS'2vz7'
p8420
aS'2cw8'
p8421
aS'3vxw'
p8422
aS'1m1y'
p8423
aS'1gws'
p8424
aS'1hwn'
p8425
aS'2cwe'
p8426
aS'3kg5'
p8427
aS'1qln'
p8428
aS'2bq6'
p8429
aS'1jdr'
p8430
aS'2idm'
p8431
aS'1lpy'
p8432
aS'1m06'
p8433
aS'1jtx'
p8434
aS'2z0v'
p8435
aS'1blp'
p8436
aS'1ojy'
p8437
aS'1zty'
p8438
aS'2bri'
p8439
aS'1j2q'
p8440
aS'2r07'
p8441
aS'2zgt'
p8442
aS'3bl5'
p8443
aS'2ct8'
p8444
aS'3vkg'
p8445
aS'2rjb'
p8446
aS'1noz'
p8447
aS'1lei'
p8448
aS'2zt8'
p8449
aS'1pjt'
p8450
aS'1qm4'
p8451
aS'1pyb'
p8452
aS'1yfh'
p8453
aS'3zzu'
p8454
aS'2hfb'
p8455
aS'3gl4'
p8456
aS'1s49'
p8457
aS'2of7'
p8458
aS'1wlh'
p8459
aS'1g9m'
p8460
aS'1pj8'
p8461
aS'2ha9'
p8462
aS'3iqy'
p8463
aS'2hvv'
p8464
aS'2rc5'
p8465
aS'3khv'
p8466
aS'1yw2'
p8467
aS'3kb1'
p8468
aS'3n5n'
p8469
aS'1vaq'
p8470
aS'2vxm'
p8471
aS'1nay'
p8472
aS'2efq'
p8473
aS'1pxt'
p8474
aS'1fw6'
p8475
aS'3rvf'
p8476
aS'2vf4'
p8477
aS'1ruc'
p8478
aS'2hko'
p8479
aS'2j9p'
p8480
aS'4f9p'
p8481
aS'1oan'
p8482
aS'2e2h'
p8483
aS'1pd8'
p8484
aS'3kov'
p8485
aS'2isl'
p8486
aS'3b9r'
p8487
aS'2roy'
p8488
aS'3g67'
p8489
aS'1i1g'
p8490
aS'1tuw'
p8491
aS'1hkx'
p8492
aS'1yze'
p8493
aS'4e85'
p8494
aS'1j1w'
p8495
aS'1per'
p8496
aS'1mo2'
p8497
aS'1cma'
p8498
aS'1yrj'
p8499
aS'1rud'
p8500
aS'3sku'
p8501
aS'1ttu'
p8502
aS'1thr'
p8503
aS'3t4r'
p8504
aS'1md8'
p8505
aS'3sck'
p8506
aS'1w26'
p8507
aS'2y0w'
p8508
aS'3ck0'
p8509
aS'1x1d'
p8510
aS'1jz1'
p8511
aS'1ws6'
p8512
aS'3h3f'
p8513
aS'4f37'
p8514
aS'2odn'
p8515
aS'1j93'
p8516
aS'2evx'
p8517
aS'1y6g'
p8518
aS'2hfz'
p8519
aS'2qal'
p8520
aS'1sjc'
p8521
aS'2fmt'
p8522
aS'1de8'
p8523
aS'1tas'
p8524
aS'3hdh'
p8525
aS'1xxd'
p8526
aS'1mdm'
p8527
aS'2qfb'
p8528
aS'3bcj'
p8529
aS'1mci'
p8530
aS'4a0m'
p8531
aS'1e5r'
p8532
aS'3fx8'
p8533
aS'1jkr'
p8534
aS'3qnq'
p8535
aS'1c2b'
p8536
aS'2opr'
p8537
aS'1jz0'
p8538
aS'3msy'
p8539
aS'2zvk'
p8540
aS'3i1m'
p8541
aS'1r4i'
p8542
aS'3fhj'
p8543
aS'7cat'
p8544
aS'3u61'
p8545
aS'3hr4'
p8546
aS'1ndr'
p8547
aS'3nro'
p8548
aS'2qbd'
p8549
aS'1hrv'
p8550
aS'3efd'
p8551
aS'4hw2'
p8552
aS'176l'
p8553
aS'3riu'
p8554
aS'2crx'
p8555
aS'1fx3'
p8556
aS'1xt3'
p8557
aS'2hk7'
p8558
aS'2mip'
p8559
aS'2pzx'
p8560
aS'3lww'
p8561
aS'1j4z'
p8562
aS'2eyq'
p8563
aS'2i22'
p8564
aS'1bcp'
p8565
aS'3coq'
p8566
aS'3gr9'
p8567
aS'2wcs'
p8568
aS'2ac5'
p8569
aS'1q13'
p8570
aS'1xd7'
p8571
aS'2zw5'
p8572
aS'1d32'
p8573
aS'1ntn'
p8574
aS'1l8h'
p8575
aS'1tta'
p8576
aS'3qd9'
p8577
aS'1ecz'
p8578
aS'2w48'
p8579
aS'1f3o'
p8580
aS'2rm2'
p8581
aS'2qky'
p8582
aS'1f4y'
p8583
aS'3anx'
p8584
aS'2ggt'
p8585
aS'3khm'
p8586
aS'2z6a'
p8587
aS'3kk3'
p8588
aS'1kc5'
p8589
aS'1fqd'
p8590
aS'4j2v'
p8591
aS'1x7e'
p8592
aS'3jv9'
p8593
aS'3vcb'
p8594
aS'1nfi'
p8595
aS'3dwi'
p8596
aS'4b3s'
p8597
aS'1ycf'
p8598
aS'4e5y'
p8599
aS'4gwy'
p8600
aS'3se6'
p8601
aS'1bhj'
p8602
aS'1vty'
p8603
aS'239d'
p8604
aS'1eg7'
p8605
aS'4j1g'
p8606
aS'3rd4'
p8607
aS'1qx5'
p8608
aS'1of5'
p8609
aS'3e0g'
p8610
aS'3zlp'
p8611
aS'2jjm'
p8612
aS'1fl7'
p8613
aS'3a2c'
p8614
aS'1c8f'
p8615
aS'4gmp'
p8616
aS'1n32'
p8617
aS'1d43'
p8618
aS'2fio'
p8619
aS'1kya'
p8620
aS'1j49'
p8621
aS'3khx'
p8622
aS'1d21'
p8623
aS'3skw'
p8624
aS'4mat'
p8625
aS'2y25'
p8626
aS'1z63'
p8627
aS'1aip'
p8628
aS'3e0u'
p8629
aS'2onj'
p8630
aS'3kis'
p8631
aS'1orb'
p8632
aS'3i3y'
p8633
aS'2is1'
p8634
aS'2qpe'
p8635
aS'1n59'
p8636
aS'1kpo'
p8637
aS'2zzi'
p8638
aS'2f44'
p8639
aS'2gvz'
p8640
aS'1fak'
p8641
aS'2oep'
p8642
aS'1dtz'
p8643
aS'2hzn'
p8644
aS'1mql'
p8645
aS'1ov9'
p8646
aS'1t62'
p8647
aS'2ziv'
p8648
aS'1ic1'
p8649
aS'3rmd'
p8650
aS'2g98'
p8651
aS'1nzb'
p8652
aS'2wp0'
p8653
aS'1c8c'
p8654
aS'1c8e'
p8655
aS'3ton'
p8656
aS'4j2l'
p8657
aS'1xwf'
p8658
aS'2auj'
p8659
aS'2q3s'
p8660
aS'3hkf'
p8661
aS'1jkq'
p8662
aS'3ojv'
p8663
aS'469d'
p8664
aS'2r04'
p8665
aS'1kno'
p8666
aS'2cas'
p8667
aS'2plf'
p8668
aS'4f5d'
p8669
aS'1jfz'
p8670
aS'1lo9'
p8671
aS'2zub'
p8672
aS'1bhh'
p8673
aS'2q4l'
p8674
aS'2y07'
p8675
aS'2ikc'
p8676
aS'3frt'
p8677
aS'1qe1'
p8678
aS'3uz3'
p8679
aS'1l3d'
p8680
aS'1wc4'
p8681
aS'3bej'
p8682
aS'1zyc'
p8683
aS'3eps'
p8684
aS'2i4t'
p8685
aS'1kdh'
p8686
aS'1c44'
p8687
aS'2o0o'
p8688
aS'2x6i'
p8689
aS'1hyg'
p8690
aS'2hzv'
p8691
aS'1q1n'
p8692
aS'2bma'
p8693
aS'2c11'
p8694
aS'1m1h'
p8695
aS'1fr6'
p8696
aS'1ebk'
p8697
aS'3uz4'
p8698
aS'2rmu'
p8699
aS'1esn'
p8700
aS'3cig'
p8701
aS'1s5g'
p8702
aS'1zxo'
p8703
aS'3aqv'
p8704
aS'4iu8'
p8705
aS'3dbq'
p8706
aS'1cr0'
p8707
aS'154d'
p8708
aS'2evw'
p8709
aS'2c2r'
p8710
aS'4idu'
p8711
aS'3id2'
p8712
aS'3eas'
p8713
aS'2xa1'
p8714
aS'2vq0'
p8715
aS'3klg'
p8716
aS'1dqx'
p8717
aS'2q4k'
p8718
aS'1c3s'
p8719
aS'1gpz'
p8720
aS'4enn'
p8721
aS'1squ'
p8722
aS'3cgw'
p8723
aS'2pop'
p8724
aS'1jhz'
p8725
aS'3h06'
p8726
aS'1ffy'
p8727
aS'1qu2'
p8728
aS'1tl1'
p8729
aS'2w81'
p8730
aS'3idc'
p8731
aS'3or9'
p8732
aS'1csx'
p8733
aS'4iiz'
p8734
aS'1fvh'
p8735
aS'8dfr'
p8736
aS'4ejc'
p8737
aS'1qa7'
p8738
aS'2h31'
p8739
aS'3ei0'
p8740
aS'2zrg'
p8741
aS'3pdx'
p8742
aS'1rc5'
p8743
aS'2o61'
p8744
aS'4gm3'
p8745
aS'3hnm'
p8746
aS'2pcc'
p8747
aS'1we3'
p8748
aS'2zzn'
p8749
aS'1tz9'
p8750
aS'2p5o'
p8751
aS'1yew'
p8752
aS'1kf9'
p8753
aS'2xnb'
p8754
aS'2b5f'
p8755
aS'1ruh'
p8756
aS'1hm7'
p8757
aS'4hq0'
p8758
aS'3qaz'
p8759
aS'3c1x'
p8760
aS'3lyz'
p8761
aS'2zjt'
p8762
aS'3ny0'
p8763
aS'4lhx'
p8764
aS'1mf8'
p8765
aS'4h6h'
p8766
aS'1fkp'
p8767
aS'3e6e'
p8768
aS'3cs0'
p8769
aS'2pnq'
p8770
aS'3rmx'
p8771
aS'1xls'
p8772
aS'2q4n'
p8773
aS'2fwo'
p8774
aS'1dpz'
p8775
aS'3cyl'
p8776
aS'3dlb'
p8777
aS'3ohc'
p8778
aS'3ohd'
p8779
aS'1yke'
p8780
aS'2oa5'
p8781
aS'2du7'
p8782
aS'2pjq'
p8783
aS'3n30'
p8784
aS'1p1i'
p8785
aS'1jh5'
p8786
aS'3jua'
p8787
aS'1yud'
p8788
aS'1krm'
p8789
aS'3tbl'
p8790
aS'1fko'
p8791
aS'2dqn'
p8792
aS'3top'
p8793
aS'3h2v'
p8794
aS'2af7'
p8795
aS'1mto'
p8796
aS'2zk2'
p8797
aS'2id9'
p8798
aS'1ggl'
p8799
aS'3gpr'
p8800
aS'1qc9'
p8801
aS'1iqi'
p8802
aS'3vyw'
p8803
aS'1p9m'
p8804
aS'1mhd'
p8805
aS'3err'
p8806
aS'1m74'
p8807
aS'1lnq'
p8808
aS'1gxk'
p8809
aS'3mip'
p8810
aS'3dae'
p8811
aS'2rs3'
p8812
aS'1zoy'
p8813
aS'2zk6'
p8814
aS'1w0f'
p8815
aS'1ddk'
p8816
aS'2e4f'
p8817
aS'2ano'
p8818
aS'3tbi'
p8819
aS'1dm0'
p8820
aS'2ypf'
p8821
aS'3f3g'
p8822
aS'1u0o'
p8823
aS'1dr4'
p8824
aS'4j2t'
p8825
aS'3mvq'
p8826
aS'1wvb'
p8827
aS'1vbf'
p8828
aS'2i6a'
p8829
aS'3rw0'
p8830
aS'3nq5'
p8831
aS'1k1w'
p8832
aS'1j5e'
p8833
aS'1a76'
p8834
aS'1u6l'
p8835
aS'1gzo'
p8836
aS'2hql'
p8837
aS'1gzy'
p8838
aS'2pab'
p8839
aS'2axt'
p8840
aS'1se2'
p8841
aS'2q1z'
p8842
aS'6dfr'
p8843
aS'3owq'
p8844
aS'1v6p'
p8845
aS'1tdr'
p8846
aS'1l7v'
p8847
aS'4jm2'
p8848
aS'1hwo'
p8849
aS'3o5n'
p8850
aS'1wao'
p8851
aS'3gca'
p8852
aS'2ago'
p8853
aS'1vcg'
p8854
aS'1e0t'
p8855
aS'2h8n'
p8856
aS'2pqj'
p8857
aS'3muu'
p8858
aS'2uxv'
p8859
aS'3s58'
p8860
aS'3kiq'
p8861
aS'1s0h'
p8862
aS'1lql'
p8863
aS'1ari'
p8864
aS'3m20'
p8865
aS'2b6p'
p8866
aS'2y0y'
p8867
aS'2i0i'
p8868
aS'1rx5'
p8869
aS'1ksj'
p8870
aS'3bi9'
p8871
aS'1uvn'
p8872
aS'4kis'
p8873
aS'1mqt'
p8874
aS'1cag'
p8875
aS'1nl4'
p8876
aS'1zui'
p8877
aS'2qby'
p8878
aS'3fbr'
p8879
aS'1twa'
p8880
aS'1ep4'
p8881
aS'4f2m'
p8882
aS'1c9i'
p8883
aS'1pie'
p8884
aS'1r3e'
p8885
aS'1pek'
p8886
aS'3h38'
p8887
aS'3hc6'
p8888
aS'1arz'
p8889
aS'2xpj'
p8890
aS'2b64'
p8891
aS'1hux'
p8892
aS'2oau'
p8893
aS'3b9p'
p8894
aS'2eiv'
p8895
aS'1dns'
p8896
aS'2zre'
p8897
aS'1lyq'
p8898
aS'2abq'
p8899
aS'3hkc'
p8900
aS'1ttb'
p8901
aS'3hxp'
p8902
aS'1f45'
p8903
aS'2vgi'
p8904
aS'2r7o'
p8905
aS'1ap9'
p8906
aS'1cgj'
p8907
aS'1ztb'
p8908
aS'1efl'
p8909
aS'2fgg'
p8910
aS'3uux'
p8911
aS'2qbb'
p8912
aS'3nhn'
p8913
aS'1fin'
p8914
aS'1owr'
p8915
aS'1i4x'
p8916
aS'4igp'
p8917
aS'1nui'
p8918
aS'2b1c'
p8919
aS'1yfl'
p8920
aS'3mz3'
p8921
aS'1sri'
p8922
aS'3cz5'
p8923
aS'2vf1'
p8924
aS'2eg9'
p8925
aS'1dsy'
p8926
aS'3c7k'
p8927
aS'1wnt'
p8928
aS'1l8x'
p8929
aS'1lbh'
p8930
aS'2p6u'
p8931
aS'4gwp'
p8932
aS'1f02'
p8933
aS'1rer'
p8934
aS'1odh'
p8935
aS'1rmu'
p8936
aS'4k2r'
p8937
aS'1tcm'
p8938
aS'1drg'
p8939
aS'2cro'
p8940
aS'3nal'
p8941
aS'3koh'
p8942
aS'1dlh'
p8943
aS'2f7l'
p8944
aS'3htt'
p8945
aS'4eck'
p8946
aS'1nd5'
p8947
aS'1fv9'
p8948
aS'3raj'
p8949
aS'2avy'
p8950
aS'4ej9'
p8951
aS'3b94'
p8952
aS'3ouk'
p8953
aS'3e20'
p8954
aS'261d'
p8955
aS'1s26'
p8956
aS'1rdc'
p8957
aS'3dvu'
p8958
aS'2q4e'
p8959
aS'1dco'
p8960
aS'1hci'
p8961
aS'1ldm'
p8962
aS'2inn'
p8963
aS'4htc'
p8964
aS'1gh6'
p8965
aS'3kit'
p8966
aS'3gqx'
p8967
aS'5tgl'
p8968
aS'2z4k'
p8969
aS'3c9j'
p8970
aS'1ovz'
p8971
aS'1m1m'
p8972
aS'1kof'
p8973
aS'3ho1'
p8974
aS'2r8a'
p8975
aS'1uwj'
p8976
aS'2y0s'
p8977
aS'468d'
p8978
aS'1c2y'
p8979
aS'1cl7'
p8980
aS'3pvx'
p8981
aS'1sa9'
p8982
aS'1ua2'
p8983
aS'3bze'
p8984
aS'3i7n'
p8985
aS'2q3o'
p8986
aS'2es7'
p8987
aS'3ofc'
p8988
aS'3egx'
p8989
aS'3pq1'
p8990
aS'3dw8'
p8991
aS'1rx8'
p8992
aS'1zil'
p8993
aS'1cgi'
p8994
aS'2b2b'
p8995
aS'4i5s'
p8996
aS'2x6h'
p8997
aS'4eeb'
p8998
aS'3f73'
p8999
aS'1nh7'
p9000
aS'2x9u'
p9001
aS'2q50'
p9002
aS'2qa5'
p9003
aS'1sip'
p9004
aS'3ft7'
p9005
aS'2ie0'
p9006
aS'3qs1'
p9007
aS'3htj'
p9008
aS'2xqd'
p9009
aS'2fz2'
p9010
aS'1flr'
p9011
aS'1b7t'
p9012
aS'1du3'
p9013
aS'4dgs'
p9014
aS'3dpj'
p9015
aS'1tq0'
p9016
aS'1dr7'
p9017
aS'3ncz'
p9018
aS'3l4d'
p9019
aS'2omb'
p9020
aS'2ogj'
p9021
aS'2gy7'
p9022
aS'3apn'
p9023
aS'3rtk'
p9024
aS'3ki9'
p9025
aS'2c2l'
p9026
aS'4e36'
p9027
aS'2xmy'
p9028
aS'2fk6'
p9029
aS'1usz'
p9030
aS'3h39'
p9031
aS'3pfm'
p9032
aS'2zk5'
p9033
aS'4eo2'
p9034
aS'2x9s'
p9035
aS'3opg'
p9036
aS'3nmu'
p9037
aS'1twc'
p9038
aS'3a44'
p9039
aS'1tth'
p9040
aS'1yr9'
p9041
aS'2x0s'
p9042
aS'3eeg'
p9043
aS'3ne3'
p9044
aS'3l3o'
p9045
aS'3fl9'
p9046
aS'1p6p'
p9047
aS'2qk8'
p9048
aS'4fpd'
p9049
aS'2qj6'
p9050
aS'3u6f'
p9051
aS'3okz'
p9052
aS'3ccj'
p9053
aS'1mq8'
p9054
aS'3hkm'
p9055
aS'1h0m'
p9056
aS'3r85'
p9057
aS'1chz'
p9058
aS'1bi8'
p9059
aS'1k5g'
p9060
aS'2d7e'
p9061
aS'2z6e'
p9062
aS'3ly6'
p9063
aS'1h8d'
p9064
aS'1bbs'
p9065
aS'3drp'
p9066
aS'2bec'
p9067
aS'2cf4'
p9068
aS'3gtn'
p9069
aS'2nzv'
p9070
aS'3brr'
p9071
aS'3r5q'
p9072
aS'2imo'
p9073
aS'4ejb'
p9074
aS'2fp3'
p9075
aS'1wf4'
p9076
aS'3aga'
p9077
aS'1poy'
p9078
aS'3hxk'
p9079
aS'3vpf'
p9080
aS'2zuc'
p9081
aS'2oap'
p9082
aS'2fkw'
p9083
aS'1v9i'
p9084
aS'1rrf'
p9085
aS'1hnw'
p9086
aS'1m3y'
p9087
aS'1ik3'
p9088
aS'3nam'
p9089
aS'2zw6'
p9090
aS'1jzq'
p9091
aS'4bub'
p9092
aS'2ing'
p9093
aS'1th3'
p9094
aS'2c8k'
p9095
aS'3fzr'
p9096
aS'3se4'
p9097
aS'3gqb'
p9098
aS'2vz8'
p9099
aS'3jzt'
p9100
aS'2ayp'
p9101
aS'2f03'
p9102
aS'1qon'
p9103
aS'3azi'
p9104
aS'1nuk'
p9105
aS'1o3q'
p9106
aS'3exx'
p9107
aS'1k90'
p9108
aS'3htq'
p9109
aS'3zn9'
p9110
aS'1pto'
p9111
aS'1pk0'
p9112
aS'2yjy'
p9113
aS'2p9q'
p9114
aS'2qiu'
p9115
aS'1poh'
p9116
aS'1pwy'
p9117
aS'2r0q'
p9118
aS'3k8b'
p9119
aS'1gxl'
p9120
aS'2dl2'
p9121
aS'1qo5'
p9122
aS'3gtp'
p9123
aS'2oaq'
p9124
aS'3u6y'
p9125
aS'2ear'
p9126
aS'3cwy'
p9127
aS'1v6n'
p9128
ag929
aS'1knr'
p9129
aS'2zty'
p9130
aS'2z17'
p9131
aS'3cr8'
p9132
aS'1mcl'
p9133
aS'1nb3'
p9134
aS'2g85'
p9135
aS'3uol'
p9136
aS'1br2'
p9137
aS'1ave'
p9138
aS'3t9q'
p9139
aS'2xq7'
p9140
aS'1kps'
p9141
aS'3i1o'
p9142
aS'1th2'
p9143
aS'172d'
p9144
aS'1efx'
p9145
aS'2i0x'
p9146
aS'1plj'
p9147
aS'1lmw'
p9148
aS'3cp4'
p9149
aS'1h1v'
p9150
aS'2rg5'
p9151
aS'2y06'
p9152
aS'3uds'
p9153
aS'2vpz'
p9154
aS'1y7e'
p9155
aS'1opg'
p9156
aS'1cid'
p9157
aS'3otb'
p9158
aS'3faa'
p9159
aS'1iqk'
p9160
aS'1fga'
p9161
aS'3bm8'
p9162
aS'2wss'
p9163
aS'1yru'
p9164
aS'3us1'
p9165
aS'1f9s'
p9166
aS'2aud'
p9167
aS'4gdn'
p9168
aS'4dxw'
p9169
aS'3jzm'
p9170
aS'1al3'
p9171
aS'3rvz'
p9172
aS'1bpb'
p9173
aS'1rzo'
p9174
aS'1i4t'
p9175
aS'3jux'
p9176
aS'1jyy'
p9177
aS'3dru'
p9178
aS'2b9m'
p9179
aS'2oye'
p9180
aS'1zpa'
p9181
aS'2o1e'
p9182
aS'3nxa'
p9183
aS'2qp0'
p9184
aS'3hfx'
p9185
aS'3b9m'
p9186
aS'1xnr'
p9187
aS'2gyr'
p9188
aS'4e99'
p9189
aS'2qba'
p9190
aS'1tfv'
p9191
aS'1jv2'
p9192
aS'1ruo'
p9193
aS'1fx0'
p9194
aS'2o9x'
p9195
aS'1q5e'
p9196
aS'4lhz'
p9197
aS'2hmw'
p9198
aS'3w1k'
p9199
aS'1hnz'
p9200
aS'2q3r'
p9201
aS'1hri'
p9202
aS'3fpt'
p9203
aS'2d04'
p9204
aS'2ht8'
p9205
aS'1jyz'
p9206
aS'1lw2'
p9207
aS'2zr0'
p9208
aS'3hon'
p9209
aS'3d5n'
p9210
aS'3cap'
p9211
aS'1jlf'
p9212
aS'2dkf'
p9213
aS'3kzf'
p9214
aS'2pmi'
p9215
aS'3euj'
p9216
aS'1mcq'
p9217
aS'1l1j'
p9218
aS'2bpc'
p9219
aS'1nb5'
p9220
aS'1m56'
p9221
aS'1f7y'
p9222
aS'1rfz'
p9223
aS'1onp'
p9224
aS'3e00'
p9225
aS'2b9o'
p9226
aS'1kjx'
p9227
aS'2zni'
p9228
aS'3df3'
p9229
aS'1io4'
p9230
aS'1ahw'
p9231
aS'3amg'
p9232
aS'1w5e'
p9233
aS'2egw'
p9234
aS'2pmd'
p9235
aS'1hdt'
p9236
aS'1nf7'
p9237
aS'1b70'
p9238
aS'2ok9'
p9239
aS'2hse'
p9240
aS'1ri7'
p9241
aS'3lgo'
p9242
aS'4tgl'
p9243
aS'2qbh'
p9244
aS'1bim'
p9245
aS'1jfs'
p9246
aS'2g2z'
p9247
aS'2ied'
p9248
aS'2du4'
p9249
aS'1qsf'
p9250
aS'2hyd'
p9251
aS'1crh'
p9252
aS'3h2u'
p9253
aS'1gol'
p9254
aS'2fe4'
p9255
aS'3c6l'
p9256
aS'2qc3'
p9257
aS'1szp'
p9258
aS'2zvf'
p9259
aS'3fof'
p9260
aS'3hto'
p9261
aS'2d2d'
p9262
aS'1ram'
p9263
aS'2z7c'
p9264
aS'2r4l'
p9265
aS'3qgw'
p9266
aS'2bkt'
p9267
aS'1ibl'
p9268
aS'2ziu'
p9269
aS'1x35'
p9270
aS'3f1w'
p9271
aS'1p22'
p9272
aS'2bsk'
p9273
aS'1ymb'
p9274
aS'1rus'
p9275
aS'1w3b'
p9276
aS'1y9e'
p9277
aS'1s6r'
p9278
aS'3ayw'
p9279
aS'2d5h'
p9280
aS'1yhw'
p9281
aS'3hai'
p9282
aS'1pmu'
p9283
aS'3kle'
p9284
aS'1j72'
p9285
aS'2ghu'
p9286
aS'1ij6'
p9287
aS'4ga5'
p9288
aS'1yq1'
p9289
aS'1n6m'
p9290
aS'2d7g'
p9291
aS'2qbc'
p9292
aS'2v50'
p9293
aS'1f15'
p9294
aS'3kp5'
p9295
aS'2vnh'
p9296
aS'474d'
p9297
aS'2frh'
p9298
aS'1zqw'
p9299
aS'2ivk'
p9300
aS'8tim'
p9301
aS'1vfu'
p9302
aS'2z9s'
p9303
aS'1y47'
p9304
aS'1fbv'
p9305
aS'3suz'
p9306
aS'1dhf'
p9307
aS'1oxz'
p9308
aS'1v4l'
p9309
aS'2qoy'
p9310
aS'3et7'
p9311
aS'3b2e'
p9312
aS'2hr0'
p9313
aS'4q21'
p9314
aS'2c6x'
p9315
aS'1gvi'
p9316
aS'3gkf'
p9317
aS'3ogy'
p9318
aS'4h9d'
p9319
aS'1rnb'
p9320
aS'2ht3'
p9321
aS'2fh9'
p9322
aS'1nbs'
p9323
aS'1gcl'
p9324
aS'1g7r'
p9325
aS'1x81'
p9326
aS'1hqh'
p9327
aS'3so9'
p9328
aS'3hrw'
p9329
aS'3kq4'
p9330
aS'1n3n'
p9331
aS'2r65'
p9332
aS'2chv'
p9333
aS'2qao'
p9334
aS'3nl5'
p9335
aS'1d9z'
p9336
aS'1ky5'
p9337
aS'1mt6'
p9338
aS'1sm2'
p9339
aS'1xhu'
p9340
aS'3us2'
p9341
aS'2zxh'
p9342
aS'3aoc'
p9343
aS'1oy5'
p9344
aS'3sfs'
p9345
aS'1h28'
p9346
aS'3zne'
p9347
aS'1mcn'
p9348
aS'2qdo'
p9349
aS'1d1a'
p9350
aS'2flp'
p9351
aS'1ivq'
p9352
aS'4lhy'
p9353
aS'1bwn'
p9354
aS'1ivp'
p9355
aS'3ilt'
p9356
aS'3s4u'
p9357
aS'3ii6'
p9358
aS'1y6m'
p9359
aS'3ee1'
p9360
aS'2vz9'
p9361
aS'1e2t'
p9362
aS'4i5w'
p9363
aS'1ii8'
p9364
aS'3oar'
p9365
aS'1diy'
p9366
aS'3w99'
p9367
aS'3zg5'
p9368
aS'2jha'
p9369
aS'1ixs'
p9370
aS'2rba'
p9371
aS'1r4n'
p9372
aS'1wyi'
p9373
aS'2zzm'
p9374
aS'4a19'
p9375
aS'3htx'
p9376
aS'4fpb'
p9377
aS'3kat'
p9378
aS'1m10'
p9379
aS'3dtk'
p9380
aS'2wdg'
p9381
aS'3fi0'
p9382
aS'3amt'
p9383
aS'4es4'
p9384
aS'2oxr'
p9385
aS'3u60'
p9386
aS'1pvp'
p9387
aS'1u7f'
p9388
aS'2d2n'
p9389
aS'1djz'
p9390
aS'3ezf'
p9391
aS'1nb7'
p9392
aS'4b1b'
p9393
aS'1yma'
p9394
aS'1sj7'
p9395
aS'3d31'
p9396
aS'2vfj'
p9397
aS'1zy2'
p9398
aS'1ky4'
p9399
aS'3dqv'
p9400
aS'1k9g'
p9401
aS'4a18'
p9402
aS'2h94'
p9403
aS'1k7l'
p9404
aS'1r1n'
p9405
aS'3cdz'
p9406
aS'1q0t'
p9407
aS'2be1'
p9408
aS'1vs7'
p9409
aS'1tu0'
p9410
aS'3ora'
p9411
aS'3lif'
p9412
aS'3hib'
p9413
aS'1hgb'
p9414
aS'3fu9'
p9415
aS'3i74'
p9416
aS'2ayg'
p9417
aS'2bi4'
p9418
aS'1u87'
p9419
aS'1nr2'
p9420
aS'3bsq'
p9421
aS'3c30'
p9422
aS'3dro'
p9423
aS'2of5'
p9424
aS'2ctx'
p9425
aS'1f2v'
p9426
aS'2oxb'
p9427
aS'2cbf'
p9428
aS'1buv'
p9429
aS'1nxe'
p9430
aS'2o6g'
p9431
aS'2wws'
p9432
aS'1lhg'
p9433
aS'2y0x'
p9434
aS'3pz8'
p9435
aS'1ru3'
p9436
aS'1cbu'
p9437
aS'1h3x'
p9438
aS'2wiv'
p9439
aS'1bd3'
p9440
aS'2hnw'
p9441
aS'1ogy'
p9442
aS'3prq'
p9443
aS'2rfy'
p9444
aS'3t4a'
p9445
aS'1nnt'
p9446
aS'3vx6'
p9447
aS'4a1b'
p9448
aS'1fdq'
p9449
aS'3pco'
p9450
aS'3hqr'
p9451
aS'1ddo'
p9452
aS'1cms'
p9453
aS'1yr8'
p9454
aS'1stc'
p9455
aS'2y19'
p9456
aS'1dtt'
p9457
aS'1d5f'
p9458
aS'3rzf'
p9459
aS'1qle'
p9460
aS'1bp3'
p9461
aS'3c6o'
p9462
aS'4a1d'
p9463
aS'1h2p'
p9464
aS'1lel'
p9465
aS'3ez7'
p9466
ag7
aS'3u5z'
p9467
aS'1j95'
p9468
aS'4gkw'
p9469
aS'1mzj'
p9470
aS'2g27'
p9471
aS'3fnh'
p9472
aS'1fsz'
p9473
aS'1q2c'
p9474
aS'1hzz'
p9475
aS'1n04'
p9476
aS'2wdh'
p9477
aS'3ghp'
p9478
aS'1ckl'
p9479
aS'1rcb'
p9480
aS'3dvl'
p9481
aS'1m2j'
p9482
aS'1c0w'
p9483
aS'1kfx'
p9484
aS'2zw3'
p9485
aS'4a1e'
p9486
aS'2eia'
p9487
aS'216l'
p9488
aS'1ij3'
p9489
aS'1gwb'
p9490
aS'1hn1'
p9491
aS'2x9r'
p9492
aS'4fqu'
p9493
aS'1z5w'
p9494
aS'4tra'
p9495
aS'8hvp'
p9496
aS'1xl6'
p9497
aS'2y0v'
p9498
aS'1jup'
p9499
aS'1bfo'
p9500
aS'1sus'
p9501
aS'3hse'
p9502
aS'3uzk'
p9503
aS'3tg1'
p9504
aS'1mru'
p9505
aS'1yvl'
p9506
aS'1tf7'
p9507
aS'3rmc'
p9508
aS'2g3v'
p9509
aS'2pfd'
p9510
aS'4ati'
p9511
aS'2oy0'
p9512
aS'1rh5'
p9513
aS'2awo'
p9514
aS'3unp'
p9515
aS'3td6'
p9516
aS'4apk'
p9517
aS'1joh'
p9518
aS'1vt0'
p9519
aS'3l1a'
p9520
aS'1g64'
p9521
aS'3qjt'
p9522
aS'3m2k'
p9523
aS'1ykq'
p9524
aS'3evn'
p9525
aS'1fg0'
p9526
aS'1nek'
p9527
aS'1pkn'
p9528
aS'3qqu'
p9529
aS'1qku'
p9530
aS'2dhr'
p9531
aS'1c4z'
p9532
aS'3o4o'
p9533
aS'4aol'
p9534
aS'1ps0'
p9535
aS'1w97'
p9536
aS'3igd'
p9537
aS'3prr'
p9538
aS'1knp'
p9539
aS'3dzu'
p9540
aS'3ij2'
p9541
aS'1zqx'
p9542
aS'2c2d'
p9543
aS'1pkq'
p9544
aS'1zt2'
p9545
aS'1hwp'
p9546
aS'4i30'
p9547
aS'1fh5'
p9548
aS'2yey'
p9549
aS'3dqb'
p9550
aS'2x9t'
p9551
aS'1m71'
p9552
aS'1zws'
p9553
aS'3vlf'
p9554
aS'1ji5'
p9555
aS'1u9i'
p9556
aS'1h8k'
p9557
aS'2gid'
p9558
aS'351d'
p9559
aS'2bls'
p9560
aS'1ef9'
p9561
aS'3tdm'
p9562
aS'4g5l'
p9563
aS'4a1a'
p9564
aS'1n4m'
p9565
aS'1hus'
p9566
aS'4rve'
p9567
aS'2wlk'
p9568
aS'1ril'
p9569
aS'3k4d'
p9570
aS'1e4g'
p9571
aS'1wk4'
p9572
aS'2qrv'
p9573
aS'1kyn'
p9574
aS'1dtj'
p9575
aS'3vlc'
p9576
aS'3h1k'
p9577
aS'3uz2'
p9578
aS'1hzx'
p9579
aS'2qov'
p9580
aS'2iv8'
p9581
aS'2xg0'
p9582
aS'1u0l'
p9583
aS'3p8r'
p9584
aS'4a17'
p9585
aS'1asz'
p9586
aS'1hqy'
p9587
aS'3co7'
p9588
aS'2rla'
p9589
aS'1m69'
p9590
aS'1l7j'
p9591
aS'1vij'
p9592
aS'8cat'
p9593
aS'2ft3'
p9594
aS'1vtc'
p9595
aS'1ula'
p9596
aS'1ti8'
p9597
aS'1bqh'
p9598
aS'3w96'
p9599
aS'2gp1'
p9600
aS'3dkb'
p9601
aS'1dd4'
p9602
aS'2aq3'
p9603
aS'1m4m'
p9604
aS'2q4u'
p9605
aS'3n2k'
p9606
aS'3kdy'
p9607
aS'1ern'
p9608
aS'2onk'
p9609
aS'1nk1'
p9610
aS'3i9z'
p9611
aS'1lbx'
p9612
aS'3ie1'
p9613
aS'2a5y'
p9614
aS'1r47'
p9615
aS'2btu'
p9616
aS'2nub'
p9617
aS'3ibv'
p9618
aS'2acz'
p9619
aS'3db9'
p9620
aS'3hkd'
p9621
aS'2c2a'
p9622
aS'3bg9'
p9623
aS'1cvj'
p9624
aS'3nxc'
p9625
aS'1jvm'
p9626
aS'1upu'
p9627
aS'5dfr'
p9628
aS'1mcj'
p9629
aS'1h15'
p9630
aS'3uzl'
p9631
aS'2wlh'
p9632
aS'3aqn'
p9633
aS'1e9y'
p9634
aS'2d6b'
p9635
aS'3frk'
p9636
aS'4exn'
p9637
aS'3ctj'
p9638
aS'3r4f'
p9639
aS'1yfy'
p9640
aS'1f3j'
p9641
aS'4deb'
p9642
aS'1cqt'
p9643
aS'3p2p'
p9644
aS'2x0b'
p9645
aS'2cak'
p9646
aS'1jfm'
p9647
aS'3e9j'
p9648
aS'1qvr'
p9649
aS'1ue7'
p9650
aS'1eaw'
p9651
aS'1b3o'
p9652
aS'1ibm'
p9653
aS'1a2x'
p9654
aS'3h1i'
p9655
aS'1qs5'
p9656
aS'3v6u'
p9657
aS'3w31'
p9658
aS'1zf3'
p9659
aS'1a3w'
p9660
aS'2zk4'
p9661
aS'1b0o'
p9662
aS'1gum'
p9663
aS'1l0v'
p9664
aS'3txg'
p9665
aS'1daj'
p9666
aS'2gje'
p9667
aS'3kjv'
p9668
aS'1zff'
p9669
aS'1zot'
p9670
aS'2jhr'
p9671
aS'2q7u'
p9672
aS'2z4l'
p9673
aS'4byc'
p9674
aS'1pzu'
p9675
aS'2wh2'
p9676
aS'1jog'
p9677
aS'2qmb'
p9678
aS'173d'
p9679
aS'2wdm'
p9680
aS'2qbk'
p9681
aS'3um7'
p9682
aS'4f5x'
p9683
aS'2wkg'
p9684
aS'4f1t'
p9685
aS'1gd8'
p9686
aS'2ped'
p9687
aS'3fho'
p9688
aS'2b5l'
p9689
aS'3uzn'
p9690
aS'3dd4'
p9691
aS'2q6n'
p9692
aS'3m6a'
p9693
aS'4ak3'
p9694
aS'1l0o'
p9695
aS'1o5r'
p9696
aS'1ohj'
p9697
aS'2prt'
p9698
aS'2q47'
p9699
aS'2qow'
p9700
aS'1igz'
p9701
aS'2hry'
p9702
aS'3vn9'
p9703
aS'2q5d'
p9704
aS'1j1d'
p9705
aS'2avu'
p9706
aS'1mce'
p9707
aS'1i3q'
p9708
aS'1hxe'
p9709
aS'3alz'
p9710
aS'1tzo'
p9711
aS'1n9s'
p9712
aS'1aup'
p9713
aS'2qbi'
p9714
aS'1iao'
p9715
aS'2xi1'
p9716
aS'1b7y'
p9717
aS'1x3w'
p9718
aS'4fs0'
p9719
aS'3ob7'
p9720
aS'2qct'
p9721
aS'1eem'
p9722
aS'2d7h'
p9723
aS'1iqj'
p9724
aS'1cgc'
p9725
aS'2o5k'
p9726
aS'1xxi'
p9727
aS'3uiy'
p9728
aS'1z0g'
p9729
aS'1eiy'
p9730
aS'1r0a'
p9731
aS'1azu'
p9732
aS'3koa'
p9733
aS'2b9c'
p9734
aS'3pu4'
p9735
aS'1sui'
p9736
aS'3l10'
p9737
aS'2snv'
p9738
aS'1gxa'
p9739
aS'2nza'
p9740
aS'1xnw'
p9741
aS'1rxh'
p9742
aS'2wdk'
p9743
aS'1u0m'
p9744
aS'1ft8'
p9745
aS'3aag'
p9746
aS'2wh4'
p9747
aS'3i1r'
p9748
aS'1qfg'
p9749
aS'1s76'
p9750
aS'1hsj'
p9751
aS'2c5y'
p9752
aS'1k88'
p9753
aS'3vhb'
p9754
aS'2uxu'
p9755
aS'2zuo'
p9756
aS'3eec'
p9757
aS'1bvr'
p9758
aS'1py5'
p9759
aS'1msp'
p9760
aS'3rfu'
p9761
aS'4e2c'
p9762
aS'2puc'
p9763
aS'4abr'
p9764
aS'1ht2'
p9765
aS'2v8e'
p9766
aS'1jjk'
p9767
aS'1nrn'
p9768
aS'2j02'
p9769
aS'3h37'
p9770
aS'1jsy'
p9771
aS'2q4f'
p9772
aS'3pys'
p9773
aS'1t4i'
p9774
aS'1p8k'
p9775
aS'3ohj'
p9776
aS'1nyx'
p9777
aS'1n11'
p9778
aS'2nrf'
p9779
aS'4g83'
p9780
aS'1c8s'
p9781
aS'3p59'
p9782
aS'2x6j'
p9783
aS'3uik'
p9784
aS'1cr1'
p9785
aS'1i0j'
p9786
aS'3i89'
p9787
aS'3v6v'
p9788
aS'2zv5'
p9789
aS'3hzq'
p9790
aS'4bye'
p9791
aS'2vsk'
p9792
aS'1k93'
p9793
aS'1pwo'
p9794
aS'1vz7'
p9795
aS'3i1e'
p9796
aS'1w3z'
p9797
aS'2wdl'
p9798
aS'3pyv'
p9799
aS'1tfm'
p9800
aS'1bcc'
p9801
aS'1a5f'
p9802
aS'2q39'
p9803
aS'1l97'
p9804
aS'3nwz'
p9805
aS'3hag'
p9806
aS'3uzm'
p9807
aS'2zvs'
p9808
aS'2b7y'
p9809
aS'3gwx'
p9810
aS'3hkz'
p9811
aS'1p49'
p9812
aS'1e0j'
p9813
aS'3dl6'
p9814
aS'1qdu'
p9815
aS'2zvz'
p9816
aS'3icq'
p9817
aS'2vxp'
p9818
aS'1s28'
p9819
aS'1ti1'
p9820
aS'2wh1'
p9821
aS'2wdn'
p9822
aS'3e9m'
p9823
aS'1naf'
p9824
aS'1nd7'
p9825
aS'1jgg'
p9826
aS'3mce'
p9827
aS'1sma'
p9828
aS'2a6j'
p9829
aS'1r5j'
p9830
aS'1mcs'
p9831
aS'1bgl'
p9832
aS'1bbr'
p9833
aS'1nsn'
p9834
aS'2xv7'
p9835
aS'1twx'
p9836
aS'4gau'
p9837
aS'2e7s'
p9838
aS'2j00'
p9839
aS'2wh3'
p9840
aS'1bka'
p9841
aS'1fez'
p9842
aS'1w3m'
p9843
aS'3otq'
p9844
aS'1uva'
p9845
aS'3t4g'
p9846
aS'1zq1'
p9847
aS'1kcs'
p9848
aS'2wdi'
p9849
aS'3iqm'
p9850
aS'2v6e'
p9851
aS'3jv4'
p9852
aS'1ckb'
p9853
aS'2ems'
p9854
aS'1uu2'
p9855
aS'1kgy'
p9856
aS'2fys'
p9857
aS'1mas'
p9858
aS'3av0'
p9859
aS'1j9c'
p9860
aS'3vdo'
p9861
aS'1sdd'
p9862
aS'2zbk'
p9863
aS'3ika'
p9864
aS'2jax'
p9865
aS'2b0u'
p9866
aS'3ofb'
p9867
aS'3aql'
p9868
aS'3hg9'
p9869
aS'1t39'
p9870
aS'2b26'
p9871
aS'2ovs'
p9872
aS'1pvr'
p9873
aS'3f8n'
p9874
aS'2trm'
p9875
aS'1hr0'
p9876
aS'1qjz'
p9877
aS'1c04'
p9878
aS'1qnv'
p9879
aS'3uoj'
p9880
aS'3dbg'
p9881
aS'3l0w'
p9882
aS'1y3h'
p9883
aS'1c7y'
p9884
aS'1j0c'
p9885
aS'3fip'
p9886
aS'1equ'
p9887
aS'4cts'
p9888
aS'1f6i'
p9889
aS'2za2'
p9890
aS'1ht1'
p9891
aS'261l'
p9892
aS'2iok'
p9893
aS'2xbo'
p9894
aS'1ku9'
p9895
aS'4srn'
p9896
aS'1tsi'
p9897
aS'1e2y'
p9898
aS'1nde'
p9899
aS'3nej'
p9900
aS'1oyu'
p9901
aS'4gw9'
p9902
aS'2dut'
p9903
aS'1piw'
p9904
aS'2uvc'
p9905
aS'1abi'
p9906
aS'3i1z'
p9907
aS'1ezl'
p9908
aS'1w33'
p9909
aS'3f12'
p9910
aS'1hmv'
p9911
aS'1d44'
p9912
aS'4k03'
p9913
aS'1ioe'
p9914
aS'2a4m'
p9915
aS'1al0'
p9916
aS'4jvg'
p9917
aS'2zzt'
p9918
aS'1llz'
p9919
aS'3l1g'
p9920
aS'3hcu'
p9921
aS'3ebw'
p9922
aS'3cxe'
p9923
aS'3glw'
p9924
aS'2h96'
p9925
aS'2ibo'
p9926
aS'2h1p'
p9927
aS'2g5i'
p9928
aS'1nbi'
p9929
aS'3azh'
p9930
aS'1t3b'
p9931
aS'2clw'
p9932
aS'3pyu'
p9933
aS'1ssb'
p9934
aS'2ahd'
p9935
aS'2a62'
p9936
aS'1asy'
p9937
aS'3foe'
p9938
aS'4g2d'
p9939
aS'1bea'
p9940
aS'3gut'
p9941
aS'3oas'
p9942
aS'4arz'
p9943
aS'2htw'
p9944
aS'1ynt'
p9945
aS'2y2d'
p9946
aS'4erm'
p9947
aS'1hgu'
p9948
aS'2der'
p9949
aS'2wui'
p9950
aS'3t0e'
p9951
aS'1lbz'
p9952
aS'2c8l'
p9953
aS'1dk1'
p9954
aS'1h6v'
p9955
aS'1g1x'
p9956
aS'2hmi'
p9957
aS'3lie'
p9958
aS'1bhq'
p9959
aS'3e3c'
p9960
aS'1xfd'
p9961
aS'1lik'
p9962
aS'3nyj'
p9963
aS'3kiy'
p9964
aS'2b2u'
p9965
aS'1s77'
p9966
aS'1z2b'
p9967
aS'3uiz'
p9968
aS'262l'
p9969
aS'1u7x'
p9970
aS'3tnq'
p9971
aS'3c6u'
p9972
aS'2wrk'
p9973
aS'2fz1'
p9974
aS'1hmp'
p9975
aS'3hm2'
p9976
aS'4byd'
p9977
aS'1ok9'
p9978
aS'1on7'
p9979
aS'2xa7'
p9980
aS'1avd'
p9981
aS'1xp5'
p9982
aS'3a1z'
p9983
aS'3g9v'
p9984
aS'4dnb'
p9985
aS'1av1'
p9986
aS'3iwh'
p9987
aS'4ev6'
p9988
aS'1jty'
p9989
aS'1r6y'
p9990
aS'1h0n'
p9991
aS'2pg8'
p9992
aS'3gd1'
p9993
aS'1gji'
p9994
aS'3pv9'
p9995
aS'1u0d'
p9996
aS'1ezz'
p9997
aS'1y01'
p9998
aS'1hjb'
p9999
aS'1zy1'
p10000
aS'3ml8'
p10001
aS'1b8i'
p10002
aS'1bvu'
p10003
aS'2z87'
p10004
aS'3ewe'
p10005
aS'1fl3'
p10006
aS'1po3'
p10007
aS'1hqx'
p10008
aS'4bdv'
p10009
aS'1a2a'
p10010
aS'2d3o'
p10011
aS'2zy2'
p10012
aS'2oeq'
p10013
aS'3iko'
p10014
aS'1o95'
p10015
aS'3kiw'
p10016
aS'2c6n'
p10017
aS'3i1s'
p10018
aS'1l1f'
p10019
aS'2wri'
p10020
aS'2vcp'
p10021
aS'1jx0'
p10022
aS'1kb5'
p10023
aS'4m4w'
p10024
aS'3ukp'
p10025
aS'1t1f'
p10026
aS'2j0o'
p10027
aS'3tlm'
p10028
aS'3q2v'
p10029
aS'4h6o'
p10030
aS'3qg5'
p10031
aS'1sja'
p10032
aS'4drw'
p10033
aS'4ivj'
p10034
aS'1ue8'
p10035
aS'2y13'
p10036
aS'1jsw'
p10037
aS'3k07'
p10038
aS'2x6f'
p10039
aS'2jh8'
p10040
aS'1ald'
p10041
aS'1al1'
p10042
aS'2amp'
p10043
aS'1b7m'
p10044
aS'2wdj'
p10045
aS'2dwl'
p10046
aS'1fzg'
p10047
aS'1d29'
p10048
aS'1c1a'
p10049
aS'1lzt'
p10050
aS'2emo'
p10051
aS'1bib'
p10052
aS'3h7x'
p10053
aS'1rq9'
p10054
aS'1nen'
p10055
aS'7lyz'
p10056
aS'2dwn'
p10057
aS'1eak'
p10058
aS'1yia'
p10059
aS'1qc6'
p10060
aS'1h6e'
p10061
aS'1zp6'
p10062
aS'3ggr'
p10063
aS'1a38'
p10064
aS'1h1c'
p10065
aS'3uiu'
p10066
aS'1ctz'
p10067
aS'1d81'
p10068
aS'2fuj'
p10069
aS'2w58'
p10070
aS'1ppp'
p10071
aS'4g5n'
p10072
aS'1u67'
p10073
aS'1g39'
p10074
aS'1fnw'
p10075
aS'3pta'
p10076
aS'3k1o'
p10077
aS'3wrp'
p10078
aS'1z8l'
p10079
aS'3n2f'
p10080
aS'4ahn'
p10081
aS'3swm'
p10082
aS'3k09'
p10083
aS'2e1b'
p10084
aS'2p63'
p10085
aS'3vms'
p10086
aS'2y15'
p10087
aS'1bml'
p10088
aS'2spc'
p10089
aS'2bub'
p10090
aS'3adk'
p10091
aS'4hok'
p10092
aS'3m9m'
p10093
aS'375d'
p10094
aS'3nxj'
p10095
aS'2a9f'
p10096
aS'2p1i'
p10097
aS'1r0b'
p10098
aS'1klf'
p10099
aS'2rf4'
p10100
aS'2wk5'
p10101
aS'3kiu'
p10102
aS'1alz'
p10103
aS'1hvh'
p10104
aS'3rce'
p10105
aS'3fwo'
p10106
aS'3vud'
p10107
aS'1ilh'
p10108
aS'2ad5'
p10109
aS'1sz3'
p10110
aS'1c8b'
p10111
aS'1qqb'
p10112
aS'3f79'
p10113
aS'2zrn'
p10114
aS'1jow'
p10115
aS'1x9k'
p10116
aS'3ctv'
p10117
aS'4ftp'
p10118
aS'1pzn'
p10119
aS'1nt4'
p10120
aS'1brq'
p10121
aS'1ux4'
p10122
aS'1osv'
p10123
aS'1ukl'
p10124
aS'3r8t'
p10125
aS'1yid'
p10126
aS'2iad'
p10127
aS'1x7a'
p10128
aS'1w8x'
p10129
aS'2oc4'
p10130
aS'2h8c'
p10131
aS'1cs7'
p10132
aS'3k52'
p10133
aS'2va3'
p10134
aS'2vpy'
p10135
aS'3pso'
p10136
aS'1k3f'
p10137
aS'3gqu'
p10138
aS'3nw2'
p10139
aS'4hri'
p10140
aS'3cf3'
p10141
aS'4k1n'
p10142
aS'2q44'
p10143
aS'3bta'
p10144
aS'1pwq'
p10145
aS'2wim'
p10146
aS'3vdr'
p10147
aS'2a6d'
p10148
aS'1mk2'
p10149
aS'1u19'
p10150
aS'8lyz'
p10151
aS'1rhq'
p10152
aS'3snm'
p10153
aS'1yft'
p10154
aS'3hj6'
p10155
aS'1zf1'
p10156
aS'3i8c'
p10157
aS'1i6q'
p10158
aS'1c3g'
p10159
aS'1yz6'
p10160
aS'2f43'
p10161
aS'2g4c'
p10162
aS'2xfz'
p10163
aS'4b8g'
p10164
aS'1fdv'
p10165
aS'1umy'
p10166
aS'2pjw'
p10167
aS'2h6j'
p10168
aS'2h2p'
p10169
aS'1u9t'
p10170
aS'1zim'
p10171
aS'4ejw'
p10172
aS'1j2v'
p10173
aS'1dr8'
p10174
aS'3ipm'
p10175
aS'2awb'
p10176
aS'3kix'
p10177
aS'2col'
p10178
aS'3sgi'
p10179
aS'4jcv'
p10180
aS'3u2q'
p10181
aS'2no3'
p10182
aS'3alw'
p10183
aS'2zup'
p10184
aS'3os3'
p10185
aS'1mat'
p10186
aS'3oi1'
p10187
aS'1j5q'
p10188
aS'2zzb'
p10189
aS'3i21'
p10190
aS'1llw'
p10191
aS'2y17'
p10192
aS'2gpr'
p10193
aS'1o7y'
p10194
aS'3ula'
p10195
aS'3v89'
p10196
aS'4mdh'
p10197
aS'2obr'
p10198
aS'1vpw'
p10199
aS'2iu3'
p10200
aS'4k17'
p10201
aS'1r5w'
p10202
aS'1j1e'
p10203
aS'2q2k'
p10204
aS'1xup'
p10205
aS'3be0'
p10206
aS'4ih4'
p10207
aS'3hzi'
p10208
aS'2fwr'
p10209
aS'2aeq'
p10210
aS'3etb'
p10211
aS'1z6a'
p10212
aS'3if0'
p10213
aS'2y16'
p10214
aS'1t03'
p10215
aS'2bow'
p10216
aS'3i7p'
p10217
aS'3ikk'
p10218
aS'1ma7'
p10219
aS'2if4'
p10220
aS'2rfz'
p10221
aS'3gxz'
p10222
aS'8kme'
p10223
aS'1eea'
p10224
aS'1sbn'
p10225
aS'1rj2'
p10226
aS'3i22'
p10227
aS'2g97'
p10228
aS'1ctp'
p10229
aS'4b8i'
p10230
aS'2qg9'
p10231
aS'2i2p'
p10232
aS'1gka'
p10233
aS'1a0h'
p10234
aS'3er8'
p10235
aS'3uof'
p10236
aS'1lw7'
p10237
aS'2i14'
p10238
aS'3uu2'
p10239
aS'2zg2'
p10240
aS'3a61'
p10241
aS'1ygz'
p10242
aS'3fbq'
p10243
aS'2e32'
p10244
aS'3sox'
p10245
aS'1d5r'
p10246
aS'3l4f'
p10247
aS'1ile'
p10248
aS'1dih'
p10249
aS'1b8x'
p10250
aS'1jle'
p10251
aS'1fmu'
p10252
aS'1bdh'
p10253
aS'1cau'
p10254
aS'3rb5'
p10255
aS'2iy5'
p10256
aS'2pkg'
p10257
aS'2c9m'
p10258
aS'3iwn'
p10259
aS'1k98'
p10260
aS'2is2'
p10261
aS'2am2'
p10262
aS'3ikj'
p10263
aS'4f5u'
p10264
aS'1kxt'
p10265
aS'2fj2'
p10266
aS'1koa'
p10267
aS'3fmg'
p10268
aS'3cir'
p10269
aS'3fnt'
p10270
aS'1pu9'
p10271
aS'2a5u'
p10272
aS'1i7s'
p10273
aS'3pu0'
p10274
aS'1mbc'
p10275
aS'2e74'
p10276
aS'1al4'
p10277
aS'2bzx'
p10278
aS'2f4v'
p10279
aS'2odw'
p10280
aS'2xaq'
p10281
aS'2a1d'
p10282
aS'1jn1'
p10283
aS'1iv5'
p10284
aS'3m9g'
p10285
aS'3nds'
p10286
aS'2akq'
p10287
aS'3rvd'
p10288
aS'1idw'
p10289
aS'2aw4'
p10290
aS'4lds'
p10291
aS'1kbu'
p10292
aS'1zy0'
p10293
aS'2qld'
p10294
aS'2npz'
p10295
aS'3aoa'
p10296
aS'1u1i'
p10297
aS'2q58'
p10298
aS'3bv3'
p10299
aS'1tlj'
p10300
aS'1rdd'
p10301
aS'2zbe'
p10302
aS'1tzn'
p10303
aS'2pud'
p10304
aS'2hgt'
p10305
aS'2ddk'
p10306
aS'2a6m'
p10307
aS'2d45'
p10308
aS'2pjr'
p10309
aS'1v9u'
p10310
aS'3i9e'
p10311
aS'1wp7'
p10312
aS'2z2r'
p10313
aS'2ajl'
p10314
aS'2okh'
p10315
aS'2opn'
p10316
aS'3nby'
p10317
aS'2ljr'
p10318
aS'1te0'
p10319
aS'2w9z'
p10320
aS'1wrb'
p10321
aS'2pub'
p10322
aS'2ghg'
p10323
aS'1yhj'
p10324
aS'2o94'
p10325
aS'3eog'
p10326
aS'1tjl'
p10327
aS'3knm'
p10328
aS'1f0m'
p10329
aS'1g40'
p10330
aS'1m7r'
p10331
aS'1rl3'
p10332
aS'2g9d'
p10333
aS'2exy'
p10334
aS'2j7i'
p10335
aS'3csf'
p10336
aS'1yjd'
p10337
aS'2nr0'
p10338
aS'3ehk'
p10339
aS'1ea4'
p10340
aS'1g50'
p10341
aS'1ygr'
p10342
aS'3aze'
p10343
aS'1z1j'
p10344
aS'2fzl'
p10345
aS'1zet'
p10346
aS'1an2'
p10347
aS'1vs8'
p10348
aS'1e0k'
p10349
aS'2zr5'
p10350
aS'4a2n'
p10351
aS'3a8q'
p10352
aS'2wlp'
p10353
aS'1bl0'
p10354
aS'1f3z'
p10355
aS'1d22'
p10356
aS'1ygb'
p10357
aS'1fg5'
p10358
aS'3txf'
p10359
aS'1wc7'
p10360
aS'3ljr'
p10361
aS'2ewv'
p10362
aS'1tup'
p10363
aS'1kaq'
p10364
aS'1ni1'
p10365
aS'2io2'
p10366
aS'1f09'
p10367
aS'3sxl'
p10368
aS'2gtt'
p10369
aS'3gc1'
p10370
aS'1drv'
p10371
aS'1tui'
p10372
aS'1n5y'
p10373
aS'3ciy'
p10374
aS'4ktq'
p10375
aS'3eu1'
p10376
aS'4btc'
p10377
aS'1xct'
p10378
aS'1pvq'
p10379
aS'1bd4'
p10380
aS'1ag0'
p10381
aS'1ow0'
p10382
aS'5sic'
p10383
aS'3s0x'
p10384
aS'2pue'
p10385
aS'2pv0'
p10386
aS'6cha'
p10387
aS'2o27'
p10388
aS'1k1q'
p10389
aS'2qll'
p10390
aS'2vd2'
p10391
aS'3t34'
p10392
aS'268d'
p10393
aS'3w97'
p10394
aS'2bho'
p10395
aS'2w7p'
p10396
aS'1nyu'
p10397
aS'2c4o'
p10398
aS'1ofi'
p10399
aS'1t5i'
p10400
aS'1lwu'
p10401
aS'3i9d'
p10402
aS'1run'
p10403
aS'1ndv'
p10404
aS'2c88'
p10405
aS'1els'
p10406
aS'2vg7'
p10407
aS'2ie1'
p10408
aS'2tra'
p10409
aS'4gar'
p10410
aS'333d'
p10411
aS'1jtn'
p10412
aS'3w98'
p10413
aS'4cpa'
p10414
aS'1hef'
p10415
aS'2ibm'
p10416
aS'5crx'
p10417
aS'2ddw'
p10418
aS'2oes'
p10419
aS'1bar'
p10420
aS'2qmu'
p10421
aS'1b3j'
p10422
aS'3lpf'
p10423
aS'1u4c'
p10424
aS'2qej'
p10425
aS'1r20'
p10426
aS'2z0s'
p10427
aS'1k3v'
p10428
aS'1t57'
p10429
aS'329d'
p10430
aS'1ipk'
p10431
aS'1f51'
p10432
aS'2dum'
p10433
aS'3e0j'
p10434
aS'4d8j'
p10435
aS'3oh7'
p10436
aS'3v6x'
p10437
aS'3mjp'
p10438
aS'2b9r'
p10439
aS'3i0s'
p10440
aS'2hye'
p10441
aS'2dvy'
p10442
aS'4em0'
p10443
aS'2yvj'
p10444
aS'2w8k'
p10445
aS'1gp9'
p10446
aS'1yvb'
p10447
aS'3ko1'
p10448
aS'3cia'
p10449
aS'1cqz'
p10450
aS'3ov0'
p10451
aS'1l3f'
p10452
aS'1hv8'
p10453
aS'3n23'
p10454
aS'1gx8'
p10455
aS'1thc'
p10456
aS'3hux'
p10457
aS'3zqj'
p10458
aS'3rfg'
p10459
aS'1qp4'
p10460
aS'3bqj'
p10461
aS'4aqf'
p10462
aS'2ez0'
p10463
aS'2dhf'
p10464
aS'1tcf'
p10465
aS'4kev'
p10466
aS'2c2e'
p10467
aS'1ggp'
p10468
aS'3lib'
p10469
aS'1l1o'
p10470
aS'1yi8'
p10471
aS'2vg5'
p10472
aS'2bbv'
p10473
aS'2oto'
p10474
aS'2ban'
p10475
aS'1llc'
p10476
aS'3h3a'
p10477
aS'2vr5'
p10478
aS'1slq'
p10479
aS'2g96'
p10480
aS'1hh2'
p10481
aS'4dr7'
p10482
aS'2ahc'
p10483
aS'1t1l'
p10484
aS'1yhn'
p10485
aS'3knn'
p10486
aS'2wln'
p10487
aS'1uvb'
p10488
aS'1i0n'
p10489
aS'1blc'
p10490
aS'4eba'
p10491
aS'3a8n'
p10492
aS'3i8h'
p10493
aS'2xru'
p10494
aS'2d0p'
p10495
aS'1uk0'
p10496
aS'1iqf'
p10497
aS'1igx'
p10498
aS'1dbr'
p10499
aS'1ojt'
p10500
aS'3dtq'
p10501
aS'1i6h'
p10502
aS'1p7q'
p10503
aS'1r59'
p10504
aS'1c9k'
p10505
aS'1gzu'
p10506
aS'387d'
p10507
aS'3oi2'
p10508
aS'6q21'
p10509
aS'1uby'
p10510
aS'1n86'
p10511
aS'1rhr'
p10512
aS'1d97'
p10513
aS'3qjp'
p10514
aS'1sk6'
p10515
aS'301d'
p10516
aS'1ojw'
p10517
aS'1e7o'
p10518
aS'2liv'
p10519
aS'1wa9'
p10520
aS'2b5j'
p10521
aS'2yrf'
p10522
aS'3v6k'
p10523
aS'3jsm'
p10524
aS'3rwr'
p10525
aS'3hry'
p10526
aS'1t97'
p10527
aS'2r89'
p10528
aS'1ivs'
p10529
aS'1oz7'
p10530
aS'3ofz'
p10531
aS'1r3h'
p10532
aS'2exw'
p10533
aS'1fvp'
p10534
aS'1zau'
p10535
aS'3a8s'
p10536
aS'2d6f'
p10537
aS'3fus'
p10538
aS'4ii6'
p10539
aS'1pwx'
p10540
aS'1f0b'
p10541
aS'2fun'
p10542
aS'1nyr'
p10543
aS'1tqe'
p10544
aS'2f83'
p10545
aS'1hip'
p10546
aS'1bpy'
p10547
aS'1z1c'
p10548
aS'2fnq'
p10549
aS'1zcl'
p10550
aS'3amu'
p10551
aS'2xq3'
p10552
aS'1uki'
p10553
aS'3ohx'
p10554
aS'2dft'
p10555
aS'1o6e'
p10556
aS'2i2u'
p10557
aS'1u8c'
p10558
aS'1jlc'
p10559
aS'3um4'
p10560
aS'3jr6'
p10561
aS'3zn7'
p10562
aS'3uzb'
p10563
aS'1ldp'
p10564
aS'1t83'
p10565
aS'2cde'
p10566
aS'1r9s'
p10567
aS'3rfy'
p10568
aS'3i8g'
p10569
aS'1g5g'
p10570
aS'1aqx'
p10571
aS'1ymh'
p10572
aS'3nw0'
p10573
aS'2hi7'
p10574
aS'1ygk'
p10575
aS'3buo'
p10576
aS'3vut'
p10577
aS'2r3v'
p10578
aS'1alc'
p10579
aS'1x9p'
p10580
aS'1xbp'
p10581
aS'1jn0'
p10582
aS'1g59'
p10583
aS'1dva'
p10584
aS'1dbq'
p10585
aS'2ou1'
p10586
aS'1dt6'
p10587
aS'3vgo'
p10588
aS'1lo5'
p10589
aS'1ivo'
p10590
aS'1wup'
p10591
aS'1i4e'
p10592
aS'1r30'
p10593
aS'1enz'
p10594
aS'2zk3'
p10595
aS'3ri4'
p10596
aS'1ud0'
p10597
aS'1dfc'
p10598
aS'1uu0'
p10599
aS'2gw1'
p10600
aS'2dwm'
p10601
aS'4btd'
p10602
aS'1yst'
p10603
aS'2xq5'
p10604
aS'2bs8'
p10605
aS'3bg0'
p10606
aS'1d0e'
p10607
aS'1bdi'
p10608
aS'1q1b'
p10609
aS'2a0l'
p10610
aS'407d'
p10611
aS'1bjm'
p10612
aS'2j01'
p10613
aS'3ifm'
p10614
aS'3qod'
p10615
aS'3al0'
p10616
aS'1d87'
p10617
aS'1pc8'
p10618
aS'3lln'
p10619
aS'1biy'
p10620
aS'1sj8'
p10621
aS'2z4s'
p10622
aS'1qqk'
p10623
aS'3d3d'
p10624
aS'1r5u'
p10625
aS'1s1m'
p10626
aS'1dnh'
p10627
aS'2zxf'
p10628
aS'4i21'
p10629
aS'3ewk'
p10630
aS'1ofx'
p10631
aS'1kog'
p10632
aS'1czi'
p10633
aS'1dk4'
p10634
aS'1lbd'
p10635
aS'1ob2'
p10636
aS'1cpb'
p10637
aS'1gzk'
p10638
aS'1p4l'
p10639
aS'3d8k'
p10640
aS'1m0p'
p10641
aS'3p40'
p10642
aS'1a37'
p10643
aS'1ubf'
p10644
aS'3mwy'
p10645
aS'1lp3'
p10646
aS'1lfi'
p10647
aS'2ayu'
p10648
aS'1ewy'
p10649
aS'1ubv'
p10650
aS'1bye'
p10651
aS'1x9n'
p10652
aS'4jae'
p10653
aS'1eg6'
p10654
aS'32c2'
p10655
aS'1vti'
p10656
aS'1z1i'
p10657
aS'1msw'
p10658
aS'3sir'
p10659
aS'1rzk'
p10660
aS'2axb'
p10661
aS'2i76'
p10662
aS'1uwb'
p10663
aS'1xm9'
p10664
aS'2x6k'
p10665
aS'2b3t'
p10666
aS'1dcl'
p10667
aS'1rfg'
p10668
aS'1waf'
p10669
aS'1uwy'
p10670
aS'269d'
p10671
aS'1p9n'
p10672
aS'1flk'
p10673
aS'1jnb'
p10674
aS'1ffz'
p10675
aS'2c4p'
p10676
aS'1g21'
p10677
aS'1n94'
p10678
aS'2ccz'
p10679
aS'2bch'
p10680
aS'3fdc'
p10681
aS'1lm1'
p10682
aS'2uxb'
p10683
aS'3h5f'
p10684
aS'3tck'
p10685
aS'3hfm'
p10686
aS'1xqy'
p10687
aS'2vl0'
p10688
aS'1glc'
p10689
aS'3avv'
p10690
aS'3tmh'
p10691
aS'1bgm'
p10692
aS'408d'
p10693
aS'4e54'
p10694
aS'3h1r'
p10695
aS'1wet'
p10696
aS'3ice'
p10697
aS'1kfu'
p10698
aS'3p99'
p10699
aS'3mv3'
p10700
aS'2xq8'
p10701
aS'1d93'
p10702
aS'1sr5'
p10703
aS'3dp7'
p10704
aS'3iwm'
p10705
aS'4f2b'
p10706
aS'1cn4'
p10707
aS'2f9c'
p10708
aS'2fx3'
p10709
aS'3enc'
p10710
aS'2c0b'
p10711
aS'1k25'
p10712
aS'1jqj'
p10713
aS'1smj'
p10714
aS'2ipc'
p10715
aS'3h2t'
p10716
aS'1gax'
p10717
aS'6ldh'
p10718
aS'1fhi'
p10719
aS'3dyu'
p10720
aS'1gl9'
p10721
aS'1qkc'
p10722
aS'2sn3'
p10723
aS'1no7'
p10724
aS'1s6q'
p10725
aS'1god'
p10726
aS'3k0c'
p10727
aS'1gwx'
p10728
aS'1k1f'
p10729
aS'2puf'
p10730
aS'2fza'
p10731
aS'1wcm'
p10732
aS'3ml6'
p10733
aS'1d88'
p10734
aS'2jjx'
p10735
aS'3omh'
p10736
aS'4gjt'
p10737
aS'1otu'
p10738
aS'3lqr'
p10739
aS'1joe'
p10740
aS'2gd4'
p10741
aS'1ot7'
p10742
aS'3nms'
p10743
aS'1x8f'
p10744
aS'3miw'
p10745
aS'1b6e'
p10746
aS'3jq4'
p10747
aS'1fp7'
p10748
aS'5gch'
p10749
aS'1am4'
p10750
aS'2rkj'
p10751
aS'2v9w'
p10752
aS'2j4y'
p10753
aS'1qzu'
p10754
aS'3km0'
p10755
aS'1xdl'
p10756
aS'3cnz'
p10757
aS'9icm'
p10758
aS'1sto'
p10759
aS'3vjj'
p10760
aS'2cbt'
p10761
aS'1cr6'
p10762
aS'2b8k'
p10763
aS'3o3j'
p10764
aS'1nnx'
p10765
aS'1ttt'
p10766
aS'2tun'
p10767
aS'1x9t'
p10768
aS'3tb7'
p10769
aS'1nj9'
p10770
aS'1kkq'
p10771
aS'1f3h'
p10772
aS'3pw7'
p10773
aS'2aho'
p10774
aS'2x1g'
p10775
aS'3ux4'
p10776
aS'1y77'
p10777
aS'168l'
p10778
aS'1th4'
p10779
aS'3ujp'
p10780
aS'3cu5'
p10781
aS'2p7v'
p10782
aS'2nyl'
p10783
aS'3lnn'
p10784
aS'2ggz'
p10785
aS'3euk'
p10786
aS'3knh'
p10787
aS'1af5'
p10788
aS'3inb'
p10789
aS'4g51'
p10790
aS'2wsy'
p10791
aS'7ici'
p10792
aS'1xdk'
p10793
aS'1a3x'
p10794
aS'1ube'
p10795
aS'3crw'
p10796
aS'1zqp'
p10797
aS'4e4k'
p10798
aS'2fzk'
p10799
aS'2mcp'
p10800
aS'2cvt'
p10801
aS'3cad'
p10802
aS'2rf1'
p10803
aS'1hc1'
p10804
aS'3ofx'
p10805
aS'1ly4'
p10806
aS'2zam'
p10807
aS'3ejl'
p10808
aS'1lx5'
p10809
aS'3lj5'
p10810
aS'1pm3'
p10811
aS'2hpy'
p10812
aS'2qp4'
p10813
aS'2pv9'
p10814
aS'2nmt'
p10815
aS'3rz2'
p10816
aS'1eh4'
p10817
aS'1zrz'
p10818
aS'2yxr'
p10819
aS'3sda'
p10820
aS'3iny'
p10821
aS'2agp'
p10822
aS'3kno'
p10823
aS'1nyq'
p10824
aS'3o17'
p10825
aS'3k16'
p10826
aS'1snb'
p10827
aS'1cty'
p10828
aS'1jig'
p10829
aS'3hzh'
p10830
aS'3huy'
p10831
aS'3a7u'
p10832
aS'2erg'
p10833
aS'2egk'
p10834
aS'2gwa'
p10835
aS'1qp7'
p10836
aS'2r4o'
p10837
aS'3o9u'
p10838
aS'3ifk'
p10839
aS'1iu3'
p10840
aS'3h7n'
p10841
aS'3mcd'
p10842
aS'3uln'
p10843
aS'1dxl'
p10844
aS'2msp'
p10845
aS'1qr6'
p10846
aS'1gri'
p10847
aS'3usv'
p10848
aS'1ctr'
p10849
aS'1aoj'
p10850
aS'2ch4'
p10851
aS'3bg1'
p10852
aS'3ljm'
p10853
aS'3drr'
p10854
aS'1xxh'
p10855
aS'3upg'
p10856
aS'1mup'
p10857
aS'2otp'
p10858
aS'3iqw'
p10859
aS'2r93'
p10860
aS'9icl'
p10861
aS'1ci7'
p10862
aS'3shf'
p10863
aS'3c4t'
p10864
aS'1kdr'
p10865
aS'3p2d'
p10866
aS'2o44'
p10867
aS'3jvu'
p10868
aS'3brz'
p10869
aS'3d69'
p10870
aS'3cd4'
p10871
aS'2p3f'
p10872
aS'9icv'
p10873
aS'1lwt'
p10874
aS'3aqs'
p10875
aS'1h38'
p10876
aS'2ant'
p10877
aS'6tna'
p10878
aS'2ziy'
p10879
aS'3cu1'
p10880
aS'3s62'
p10881
aS'359d'
p10882
aS'1su2'
p10883
aS'1j2p'
p10884
aS'1t3n'
p10885
aS'2j8a'
p10886
aS'3g8e'
p10887
aS'1me5'
p10888
aS'3k70'
p10889
aS'3u15'
p10890
aS'2o9u'
p10891
aS'1j59'
p10892
aS'2htq'
p10893
aS'3mf0'
p10894
aS'2cjr'
p10895
aS'1bmp'
p10896
aS'1ubw'
p10897
aS'1z0v'
p10898
aS'2nre'
p10899
aS'3lqa'
p10900
aS'1zfe'
p10901
aS'7ice'
p10902
aS'7ick'
p10903
aS'7icv'
p10904
aS'1dkg'
p10905
aS'1k0f'
p10906
aS'4hj0'
p10907
aS'7gch'
p10908
aS'1sib'
p10909
aS'3eh3'
p10910
aS'1ulb'
p10911
aS'2q3m'
p10912
aS'1mab'
p10913
aS'1efw'
p10914
aS'1m1c'
p10915
aS'2fug'
p10916
aS'2lz2'
p10917
aS'2y9c'
p10918
aS'1lil'
p10919
aS'1rrp'
p10920
aS'2v10'
p10921
aS'1d15'
p10922
aS'2het'
p10923
aS'2q2z'
p10924
aS'1flc'
p10925
aS'1bf5'
p10926
aS'1mme'
p10927
aS'1hab'
p10928
aS'1hwy'
p10929
aS'3nog'
p10930
aS'1f9w'
p10931
aS'2ja7'
p10932
aS'1kk7'
p10933
aS'3gpe'
p10934
aS'1br8'
p10935
aS'1j2b'
p10936
aS'1sj9'
p10937
aS'1ka8'
p10938
aS'1bi7'
p10939
aS'2za1'
p10940
aS'4iry'
p10941
aS'1l4a'
p10942
aS'1wuu'
p10943
aS'1y1w'
p10944
aS'1v5h'
p10945
aS'1e9z'
p10946
aS'2y9d'
p10947
aS'2dq7'
p10948
aS'3h0a'
p10949
aS'3mx0'
p10950
aS'1hys'
p10951
aS'2pcb'
p10952
aS'1zvv'
p10953
aS'1ggo'
p10954
aS'1cdy'
p10955
aS'1nwq'
p10956
aS'3i8f'
p10957
aS'2ze8'
p10958
aS'1ewv'
p10959
aS'3how'
p10960
aS'3ef9'
p10961
aS'2wff'
p10962
aS'3o60'
p10963
aS'2dzo'
p10964
aS'1lwk'
p10965
aS'3c5u'
p10966
aS'1gzn'
p10967
aS'2y9a'
p10968
aS'2a2e'
p10969
aS'1vtq'
p10970
aS'3pn5'
p10971
aS'1lfp'
p10972
aS'3nr7'
p10973
aS'2hg0'
p10974
aS'4b2t'
p10975
aS'1aiv'
p10976
aS'3i5h'
p10977
aS'2y3j'
p10978
aS'7ich'
p10979
aS'2vyf'
p10980
aS'3ptx'
p10981
aS'2gho'
p10982
aS'1dru'
p10983
aS'3kl4'
p10984
aS'3knj'
p10985
aS'2oqq'
p10986
aS'1zna'
p10987
aS'1p15'
p10988
aS'4g5m'
p10989
aS'4hmy'
p10990
aS'1xxc'
p10991
aS'3qt1'
p10992
aS'3nvk'
p10993
aS'4iop'
p10994
aS'2bht'
p10995
aS'8ico'
p10996
aS'3tup'
p10997
aS'2v2t'
p10998
aS'1iwg'
p10999
aS'1jij'
p11000
aS'2xqa'
p11001
aS'3qil'
p11002
aS'8icq'
p11003
aS'2ocy'
p11004
aS'1mjp'
p11005
aS'7icp'
p11006
aS'1lvc'
p11007
aS'1gpb'
p11008
aS'3f5n'
p11009
aS'1by4'
p11010
aS'2abr'
p11011
aS'3kss'
p11012
aS'2zr6'
p11013
aS'2ogo'
p11014
aS'2ja5'
p11015
aS'3hoy'
p11016
aS'3ugm'
p11017
aS'2r92'
p11018
aS'1a6y'
p11019
aS'1n6q'
p11020
aS'3m7m'
p11021
aS'3kni'
p11022
aS'2qkk'
p11023
aS'1cmy'
p11024
aS'2hh7'
p11025
aS'3pmq'
p11026
aS'1cdi'
p11027
aS'1srn'
p11028
aS'1pp6'
p11029
aS'3ntt'
p11030
aS'1ymm'
p11031
aS'2zm6'
p11032
aS'2q4y'
p11033
aS'2ins'
p11034
aS'7dfr'
p11035
aS'3mfk'
p11036
aS'1yd8'
p11037
aS'3p9d'
p11038
aS'2r7z'
p11039
aS'1jjo'
p11040
aS'3hov'
p11041
aS'1p8u'
p11042
aS'3qum'
p11043
aS'1zx4'
p11044
aS'3p9e'
p11045
aS'3bq7'
p11046
aS'1y69'
p11047
aS'2ibf'
p11048
aS'1jh9'
p11049
aS'1d46'
p11050
aS'1drw'
p11051
aS'1elo'
p11052
aS'3k9y'
p11053
aS'1twh'
p11054
aS'3fyg'
p11055
aS'3dpr'
p11056
aS'7icn'
p11057
aS'4e3c'
p11058
aS'5lyt'
p11059
aS'1fb5'
p11060
aS'2b7x'
p11061
aS'1s9e'
p11062
aS'1ott'
p11063
aS'1d40'
p11064
aS'1u5i'
p11065
aS'2lbp'
p11066
aS'4dk1'
p11067
aS'3er0'
p11068
aS'3qdz'
p11069
aS'1jwh'
p11070
aS'1sbc'
p11071
aS'2dcu'
p11072
aS'1fgb'
p11073
aS'1l8o'
p11074
aS'3cro'
p11075
aS'2det'
p11076
aS'1wip'
p11077
aS'1aif'
p11078
aS'1jki'
p11079
aS'2ca0'
p11080
aS'1hqp'
p11081
aS'1fq3'
p11082
aS'1bh0'
p11083
aS'1v8j'
p11084
aS'2i5j'
p11085
aS'3vy9'
p11086
aS'1hcg'
p11087
aS'2bcc'
p11088
aS'3gie'
p11089
aS'1ko6'
p11090
aS'3cga'
p11091
aS'1cgs'
p11092
aS'3ib9'
p11093
aS'4gd1'
p11094
aS'1bu6'
p11095
aS'1tg8'
p11096
aS'2jaa'
p11097
aS'3bdn'
p11098
aS'3ihe'
p11099
aS'1d9k'
p11100
aS'1kiu'
p11101
aS'8icm'
p11102
aS'1phh'
p11103
aS'1dt9'
p11104
aS'3gfh'
p11105
aS'365d'
p11106
aS'1zgl'
p11107
aS'1ou5'
p11108
aS'2r62'
p11109
aS'7icm'
p11110
aS'3qcr'
p11111
aS'1qx7'
p11112
aS'2ja8'
p11113
aS'189l'
p11114
aS'3gw7'
p11115
aS'1yy3'
p11116
aS'2f1z'
p11117
aS'1y0q'
p11118
aS'3pjr'
p11119
aS'8ldh'
p11120
aS'2ycc'
p11121
aS'2rfc'
p11122
aS'1ndh'
p11123
aS'1bbc'
p11124
aS'1zqa'
p11125
aS'7ict'
p11126
aS'1le5'
p11127
aS'3ulm'
p11128
aS'2hhh'
p11129
aS'2vh2'
p11130
aS'2zv6'
p11131
aS'1suq'
p11132
aS'2oar'
p11133
aS'1jii'
p11134
aS'2onh'
p11135
aS'3hou'
p11136
aS'1hcy'
p11137
aS'2x6e'
p11138
aS'4gd2'
p11139
aS'1n8p'
p11140
aS'3snh'
p11141
aS'8ick'
p11142
aS'169l'
p11143
aS'1i97'
p11144
aS'1pl9'
p11145
aS'1h9t'
p11146
aS'3tyw'
p11147
aS'1mbn'
p11148
aS'4ga4'
p11149
aS'127d'
p11150
aS'3l5n'
p11151
aS'1zqi'
p11152
aS'9ict'
p11153
aS'3o8n'
p11154
aS'1kwo'
p11155
aS'2p0y'
p11156
aS'3huw'
p11157
aS'2dbs'
p11158
aS'2dfl'
p11159
aS'9ico'
p11160
aS'1ck7'
p11161
aS'2xzm'
p11162
aS'1tf6'
p11163
aS'8icc'
p11164
aS'3u9s'
p11165
aS'1uw7'
p11166
aS'1hbx'
p11167
aS'3atp'
p11168
aS'1gik'
p11169
aS'1hqc'
p11170
aS'7icq'
p11171
aS'1c4u'
p11172
aS'2ntz'
p11173
aS'2g88'
p11174
aS'1w39'
p11175
aS'1gle'
p11176
aS'2bpf'
p11177
aS'2ldb'
p11178
aS'1s1k'
p11179
aS'3jyt'
p11180
aS'1gxd'
p11181
aS'4g9i'
p11182
aS'1crc'
p11183
aS'3k0a'
p11184
aS'2uud'
p11185
aS'1ryz'
p11186
aS'3ofy'
p11187
aS'2hcz'
p11188
aS'2ogn'
p11189
aS'1edn'
p11190
aS'1wiq'
p11191
aS'7icg'
p11192
aS'2i6b'
p11193
aS'1smy'
p11194
aS'2guj'
p11195
aS'2xzn'
p11196
aS'2vpw'
p11197
aS'3cf1'
p11198
aS'4inm'
p11199
aS'1qvc'
p11200
aS'1dl7'
p11201
aS'1b7l'
p11202
aS'364d'
p11203
aS'3l0o'
p11204
aS'1ysc'
p11205
aS'1ttc'
p11206
aS'2v0v'
p11207
aS'3k0e'
p11208
aS'2ja6'
p11209
aS'2pua'
p11210
aS'9icu'
p11211
aS'2deu'
p11212
aS'2vum'
p11213
aS'1alx'
p11214
aS'2hpq'
p11215
aS'2hop'
p11216
aS'3nvm'
p11217
aS'3do7'
p11218
aS'1fpm'
p11219
aS'1dzl'
p11220
aS'2fnp'
p11221
aS'3e9w'
p11222
aS'1ek2'
p11223
aS'267d'
p11224
aS'8icx'
p11225
aS'2p4v'
p11226
aS'1ubc'
p11227
aS'1i6b'
p11228
aS'4lyz'
p11229
aS'5lyz'
p11230
aS'3hat'
p11231
aS'1jop'
p11232
aS'9ica'
p11233
aS'3e5q'
p11234
aS'1vkx'
p11235
aS'1twg'
p11236
aS'2g60'
p11237
aS'1hac'
p11238
aS'3g7t'
p11239
aS'1xa6'
p11240
aS'3knk'
p11241
aS'1lws'
p11242
aS'1ic8'
p11243
aS'2c45'
p11244
aS'1irv'
p11245
aS'1dch'
p11246
aS'8ici'
p11247
aS'1d9i'
p11248
aS'3mzh'
p11249
aS'3pdi'
p11250
aS'2ooy'
p11251
aS'3cwg'
p11252
aS'2yxq'
p11253
aS'2f55'
p11254
aS'1b7n'
p11255
aS'2io3'
p11256
aS'1t05'
p11257
aS'4g93'
p11258
aS'3dfv'
p11259
aS'1rzi'
p11260
aS'3zxb'
p11261
aS'2r4s'
p11262
aS'1p6v'
p11263
aS'1lnu'
p11264
aS'3v0c'
p11265
aS'2w1h'
p11266
aS'2h2s'
p11267
aS'1atu'
p11268
aS'1f3m'
p11269
aS'2a1b'
p11270
aS'3sv1'
p11271
aS'3eql'
p11272
aS'1s9g'
p11273
aS'1vox'
p11274
aS'3idq'
p11275
aS'1ldn'
p11276
aS'1ozy'
p11277
aS'1i0e'
p11278
aS'1ovv'
p11279
aS'9icy'
p11280
aS'1xfz'
p11281
aS'1t89'
p11282
aS'2anl'
p11283
aS'3vd2'
p11284
aS'2dik'
p11285
aS'1s5l'
p11286
aS'2eqb'
p11287
aS'1z1g'
p11288
aS'1g4b'
p11289
aS'330d'
p11290
aS'220d'
p11291
aS'1vov'
p11292
aS'2bbz'
p11293
aS'2wrq'
p11294
aS'1nr1'
p11295
aS'3swv'
p11296
aS'3vbg'
p11297
aS'1o3t'
p11298
aS'1iov'
p11299
aS'2wrn'
p11300
aS'1r1a'
p11301
aS'1m5n'
p11302
aS'4gas'
p11303
aS'1zqn'
p11304
aS'9ich'
p11305
aS'4kjr'
p11306
aS'2r4r'
p11307
aS'2y9b'
p11308
aS'2qvi'
p11309
aS'3ofo'
p11310
aS'1a8j'
p11311
aS'3i0r'
p11312
aS'1rhz'
p11313
aS'8icz'
p11314
aS'1nom'
p11315
aS'1dvl'
p11316
aS'2zwk'
p11317
aS'1zzn'
p11318
aS'2fj7'
p11319
aS'2ch7'
p11320
aS'1m3j'
p11321
aS'4gaq'
p11322
aS'1z9j'
p11323
aS'3aat'
p11324
aS'3eff'
p11325
aS'4sbv'
p11326
aS'2h7z'
p11327
aS'3din'
p11328
aS'3u3i'
p11329
aS'9icq'
p11330
aS'9icn'
p11331
aS'1odg'
p11332
aS'2pk4'
p11333
aS'1sv5'
p11334
aS'3kdp'
p11335
aS'3mop'
p11336
aS'1op5'
p11337
aS'2dud'
p11338
aS'1p93'
p11339
aS'3el3'
p11340
aS'3oi3'
p11341
aS'3i8i'
p11342
aS'2vye'
p11343
aS'1m57'
p11344
aS'3r2a'
p11345
aS'1voz'
p11346
aS'1r4l'
p11347
aS'1kmh'
p11348
aS'1c4y'
p11349
aS'1rmv'
p11350
aS'2oug'
p11351
aS'2poh'
p11352
aS'2bpg'
p11353
aS'1dkh'
p11354
aS'2ppb'
p11355
aS'3qmu'
p11356
aS'1q1h'
p11357
aS'1igc'
p11358
aS'3kyp'
p11359
aS'1ds5'
p11360
aS'1e57'
p11361
aS'1pns'
p11362
aS'2d74'
p11363
aS'1bmv'
p11364
aS'1u88'
p11365
aS'3ur1'
p11366
aS'1zqf'
p11367
aS'1jkf'
p11368
aS'2fo1'
p11369
aS'1d31'
p11370
aS'1bl8'
p11371
aS'3sr2'
p11372
aS'2ic3'
p11373
aS'1afc'
p11374
aS'2qdz'
p11375
aS'3tra'
p11376
aS'1lsu'
p11377
aS'1nqt'
p11378
aS'2bhw'
p11379
aS'2a68'
p11380
aS'1glf'
p11381
aS'6gch'
p11382
aS'2v48'
p11383
aS'3p5n'
p11384
aS'3loh'
p11385
aS'221d'
p11386
aS'2pf2'
p11387
aS'4a4d'
p11388
aS'2rg0'
p11389
aS'1dn8'
p11390
aS'8ica'
p11391
aS'2atq'
p11392
aS'2o8x'
p11393
aS'3kuf'
p11394
aS'1q1p'
p11395
aS'4egw'
p11396
aS'1zcd'
p11397
aS'3mzi'
p11398
aS'2pi4'
p11399
aS'1gos'
p11400
aS'1tr2'
p11401
aS'3ikl'
p11402
aS'1be4'
p11403
aS'7icr'
p11404
aS'1uqs'
p11405
aS'8icr'
p11406
aS'1pnx'
p11407
aS'2zjr'
p11408
aS'4i2z'
p11409
aS'1ubg'
p11410
aS'3t79'
p11411
aS'2a6e'
p11412
aS'2cic'
p11413
aS'1ktk'
p11414
aS'3pvm'
p11415
aS'9ics'
p11416
aS'8icn'
p11417
aS'2w9c'
p11418
aS'1rhd'
p11419
aS'1pw4'
p11420
aS'3kls'
p11421
aS'1y1v'
p11422
aS'7icf'
p11423
aS'4mon'
p11424
aS'3cqf'
p11425
aS'2v46'
p11426
aS'2a69'
p11427
aS'3cdj'
p11428
aS'1tra'
p11429
aS'8icb'
p11430
aS'3tal'
p11431
aS'2bf1'
p11432
aS'1g6r'
p11433
aS'2qc7'
p11434
aS'2a6h'
p11435
aS'1fq7'
p11436
aS'1ypz'
p11437
aS'2i6w'
p11438
aS'2vpx'
p11439
aS'2v7h'
p11440
aS'1vos'
p11441
aS'2nm2'
p11442
aS'8icp'
p11443
aS'2o5i'
p11444
aS'3e6a'
p11445
aS'1jh7'
p11446
aS'1do2'
p11447
aS'1ohk'
p11448
aS'3oi5'
p11449
aS'2gmx'
p11450
aS'1b5m'
p11451
aS'2wrr'
p11452
aS'1qml'
p11453
aS'1l2o'
p11454
aS'3dh7'
p11455
aS'1phq'
p11456
aS'2glj'
p11457
aS'1zqo'
p11458
aS'2wro'
p11459
aS'3bcc'
p11460
aS'1voq'
p11461
aS'2waf'
p11462
aS'4hvz'
p11463
aS'3pdm'
p11464
aS'2z9o'
p11465
aS'9icr'
p11466
aS'1uor'
p11467
aS'1wz2'
p11468
aS'6adh'
p11469
aS'1mda'
p11470
aS'2o5j'
p11471
aS'3b2v'
p11472
aS'7icu'
p11473
aS'4aui'
p11474
aS'3eiq'
p11475
aS'2gdo'
p11476
aS'2yvx'
p11477
aS'4enk'
p11478
aS'3tmi'
p11479
aS'1ahu'
p11480
aS'3ibj'
p11481
aS'1bo5'
p11482
aS'3ksw'
p11483
aS'1hag'
p11484
aS'3qmz'
p11485
aS'3g6b'
p11486
aS'1swi'
p11487
aS'4hg6'
p11488
aS'2yv3'
p11489
aS'2ckb'
p11490
aS'3an2'
p11491
aS'1qtd'
p11492
aS'1dxi'
p11493
aS'3n7n'
p11494
aS'1fs1'
p11495
aS'9icf'
p11496
aS'1gmk'
p11497
aS'1ry7'
p11498
aS'2pk2'
p11499
aS'2jgu'
p11500
aS'3bjl'
p11501
aS'1j5o'
p11502
aS'2z1b'
p11503
aS'3lc6'
p11504
aS'2be5'
p11505
aS'1bgy'
p11506
aS'2d26'
p11507
aS'7ics'
p11508
aS'2by4'
p11509
aS'2hwe'
p11510
aS'1be3'
p11511
aS'2vl9'
p11512
aS'1i5d'
p11513
aS'3phv'
p11514
aS'3drs'
p11515
aS'171l'
p11516
aS'1ls5'
p11517
aS'2pm9'
p11518
aS'3og0'
p11519
aS'2ong'
p11520
aS'3hoz'
p11521
aS'1fnh'
p11522
aS'1i9r'
p11523
aS'1irm'
p11524
aS'2h7s'
p11525
aS'3in2'
p11526
aS'1tvr'
p11527
aS'1tdj'
p11528
aS'1dcv'
p11529
aS'1xfx'
p11530
aS'2rf9'
p11531
aS'3ofp'
p11532
aS'1rbj'
p11533
aS'1cpy'
p11534
aS'1ewr'
p11535
aS'1k4s'
p11536
aS'3abg'
p11537
aS'1lqj'
p11538
aS'3hvt'
p11539
aS'4kji'
p11540
aS'1glu'
p11541
aS'9icj'
p11542
aS'1nel'
p11543
aS'1le9'
p11544
aS'3i5i'
p11545
aS'4atk'
p11546
aS'2v1u'
p11547
aS'1bkx'
p11548
aS'3cf2'
p11549
aS'3a2k'
p11550
aS'1j4x'
p11551
aS'2iof'
p11552
aS'2jle'
p11553
aS'4guq'
p11554
aS'3bsz'
p11555
aS'1sbe'
p11556
aS'1ea0'
p11557
aS'2vao'
p11558
aS'2cw0'
p11559
aS'1cea'
p11560
aS'1z43'
p11561
aS'2b76'
p11562
aS'1zqg'
p11563
aS'2ayo'
p11564
aS'2gk0'
p11565
aS'8icv'
p11566
aS'3h3v'
p11567
aS'2or1'
p11568
aS'1g7u'
p11569
aS'1pll'
p11570
aS'3pxi'
p11571
aS'1voy'
p11572
aS'1xfv'
p11573
aS'8icu'
p11574
aS'1zpq'
p11575
aS'1zyr'
p11576
aS'8ice'
p11577
aS'1xej'
p11578
aS'3ec2'
p11579
aS'1xfw'
p11580
aS'3g8l'
p11581
aS'1l6o'
p11582
aS'1j8f'
p11583
aS'3lob'
p11584
aS'1aon'
p11585
aS'8icf'
p11586
aS'1ijj'
p11587
aS'2spt'
p11588
aS'1fhe'
p11589
aS'1fq1'
p11590
aS'2h4c'
p11591
aS'2hwd'
p11592
aS'1hlt'
p11593
aS'1zf9'
p11594
aS'1pkr'
p11595
aS'1i1h'
p11596
aS'1y8e'
p11597
aS'1jc0'
p11598
aS'1j0b'
p11599
aS'1q3n'
p11600
aS'1c0c'
p11601
aS'2v47'
p11602
aS'3qjo'
p11603
aS'3prx'
p11604
aS'3bcn'
p11605
aS'3hfz'
p11606
aS'2cvf'
p11607
aS'4fe4'
p11608
aS'1kg0'
p11609
aS'2qcj'
p11610
aS'1lkr'
p11611
aS'8ics'
p11612
aS'1xkh'
p11613
aS'151l'
p11614
aS'2zjq'
p11615
aS'2zjp'
p11616
aS'1mcp'
p11617
aS'1qo9'
p11618
aS'8ich'
p11619
aS'3ow7'
p11620
aS'3gig'
p11621
aS'1xei'
p11622
aS'2j4u'
p11623
aS'2uzk'
p11624
aS'2w2h'
p11625
aS'2g01'
p11626
aS'9icg'
p11627
aS'3dhw'
p11628
aS'1ijd'
p11629
aS'2izq'
p11630
aS'1vou'
p11631
aS'2f7k'
p11632
aS'3hos'
p11633
aS'8icj'
p11634
aS'1nqg'
p11635
aS'129d'
p11636
aS'3pxg'
p11637
aS'7icl'
p11638
aS'2oz0'
p11639
aS'3njt'
p11640
aS'2v49'
p11641
aS'1m6e'
p11642
aS'2hpp'
p11643
aS'1qc1'
p11644
aS'2h6o'
p11645
aS'8ict'
p11646
aS'3k0i'
p11647
aS'3l9o'
p11648
aS'3erc'
p11649
aS'2o43'
p11650
aS'3kiv'
p11651
aS'2jlo'
p11652
aS'1b7q'
p11653
aS'4djk'
p11654
aS'1ny6'
p11655
aS'1g7v'
p11656
aS'1xek'
p11657
aS'1iw7'
p11658
aS'3tat'
p11659
aS'1pyi'
p11660
aS'1rxt'
p11661
aS'1wdg'
p11662
aS'1vor'
p11663
aS'1zqh'
p11664
aS'104l'
p11665
aS'1dj6'
p11666
aS'9lyz'
p11667
aS'2gk9'
p11668
aS'1bhn'
p11669
aS'1ojl'
p11670
aS'2v16'
p11671
aS'1zqm'
p11672
aS'1bjr'
p11673
aS'1uaa'
p11674
aS'1v7n'
p11675
aS'1pjl'
p11676
aS'1tab'
p11677
aS'2c5x'
p11678
aS'1br1'
p11679
aS'2efw'
p11680
aS'8icl'
p11681
aS'1w5c'
p11682
aS'3e1k'
p11683
aS'1y3i'
p11684
aS'3cf5'
p11685
aS'3pkm'
p11686
aS'1spd'
p11687
aS'1a2c'
p11688
aS'1glj'
p11689
aS'1fn3'
p11690
aS'1miu'
p11691
aS'1u63'
p11692
aS'2qpd'
p11693
aS'2pyb'
p11694
aS'3qyb'
p11695
aS'3szr'
p11696
aS'1zqb'
p11697
aS'1vow'
p11698
aS'1aam'
p11699
aS'299d'
p11700
aS'2cme'
p11701
aS'1zqc'
p11702
aS'3d87'
p11703
aS'1eqq'
p11704
aS'3ryl'
p11705
aS'4gww'
p11706
aS'1vsp'
p11707
aS'2gfp'
p11708
aS'1clp'
p11709
aS'1hgt'
p11710
aS'1qth'
p11711
aS'9ici'
p11712
aS'1kaw'
p11713
aS'1pfg'
p11714
aS'1etu'
p11715
aS'1zql'
p11716
aS'1q57'
p11717
aS'1rba'
p11718
aS'1zqz'
p11719
aS'1ubx'
p11720
aS'1l3w'
p11721
aS'3ofq'
p11722
aS'1heg'
p11723
aS'1rzr'
p11724
aS'1iyj'
p11725
aS'3dpq'
p11726
aS'1vfg'
p11727
aS'4kiv'
p11728
aS'4gsi'
p11729
aS'209l'
p11730
aS'1lnl'
p11731
aS'1laj'
p11732
aS'1vp0'
p11733
aS'1nqf'
p11734
aS'8icy'
p11735
aS'2vho'
p11736
aS'3nao'
p11737
aS'4prg'
p11738
aS'3cue'
p11739
aS'3si1'
p11740
aS'1zqt'
p11741
aS'1z9k'
p11742
aS'9icc'
p11743
aS'1zqs'
p11744
aS'2c2v'
p11745
aS'1pdb'
p11746
aS'1ocw'
p11747
aS'1dqv'
p11748
aS'1d4f'
p11749
aS'1hxd'
p11750
aS'1cc5'
p11751
aS'3k4a'
p11752
aS'1hco'
p11753
aS'2y3k'
p11754
aS'2etn'
p11755
aS'3kgv'
p11756
aS'2zfj'
p11757
aS'2os8'
p11758
aS'9icb'
p11759
aS'2vtu'
p11760
aS'3h4p'
p11761
aS'3i4n'
p11762
aS'1ea9'
p11763
aS'180d'
p11764
aS'3aoh'
p11765
aS'1kba'
p11766
aS'3p03'
p11767
aS'3fyj'
p11768
aS'1u76'
p11769
aS'2hod'
p11770
aS'307d'
p11771
aS'1cav'
p11772
aS'3e3j'
p11773
aS'1nfd'
p11774
aS'1cap'
p11775
aS'1mnv'
p11776
aS'1ixr'
p11777
aS'9icp'
p11778
aS'1wzx'
p11779
aS'1ktv'
p11780
aS'3hox'
p11781
aS'1xfu'
p11782
aS'1vfx'
p11783
aS'2hsq'
p11784
aS'1vtd'
p11785
aS'2vg6'
p11786
aS'1cne'
p11787
aS'1ken'
p11788
aS'7ico'
p11789
aS'1m54'
p11790
aS'1qjm'
p11791
aS'8icg'
p11792
aS'3g05'
p11793
aS'1bx6'
p11794
aS'1zqk'
p11795
aS'4bxs'
p11796
aS'3m8l'
p11797
aS'1ijs'
p11798
aS'1jhn'
p11799
aS'1dh3'
p11800
aS'4enj'
p11801
aS'3oq9'
p11802
aS'2w9b'
p11803
aS'2oig'
p11804
aS'1thu'
p11805
aS'1n34'
p11806
aS'1mje'
p11807
aS'2fix'
p11808
aS'3orc'
p11809
aS'1bdn'
p11810
aS'1fll'
p11811
aS'2zoq'
p11812
aS'1rid'
p11813
aS'1ddx'
p11814
aS'1dqu'
p11815
aS'3b60'
p11816
aS'2q51'
p11817
aS'1qu7'
p11818
aS'1zqe'
p11819
aS'2hpc'
p11820
aS'1w93'
p11821
aS'3s7y'
p11822
aS'1v5w'
p11823
aS'3d7s'
p11824
aS'3gx4'
p11825
aS'2zfl'
p11826
aS'3hg1'
p11827
aS'1pdg'
p11828
aS'1jnp'
p11829
aS'1bpd'
p11830
aS'3d1v'
p11831
aS'2zjb'
p11832
aS'1xfy'
p11833
aS'1sid'
p11834
aS'3gg5'
p11835
aS'1jqu'
p11836
aS'3dll'
p11837
aS'2yvz'
p11838
aS'1x8w'
p11839
aS'3aoi'
p11840
aS'4bjl'
p11841
aS'2hwf'
p11842
aS'1g4a'
p11843
aS'3srn'
p11844
aS'4ar2'
p11845
aS'1zew'
p11846
aS'4ft2'
p11847
aS'3a59'
p11848
aS'3gns'
p11849
aS'3km9'
p11850
aS'1svu'
p11851
aS'1y0v'
p11852
aS'1zqq'
p11853
aS'3ic7'
p11854
aS'3l8l'
p11855
aS'1d80'
p11856
aS'1zqr'
p11857
aS'3aqk'
p11858
aS'3kin'
p11859
aS'3mpw'
p11860
aS'3m51'
p11861
aS'2a3l'
p11862
aS'3qq5'
p11863
aS'3mpy'
p11864
aS'5csc'
p11865
aS'2onl'
p11866
aS'1rv7'
p11867
aS'3bdb'
p11868
aS'1svw'
p11869
aS'1qu3'
p11870
aS'1cd3'
p11871
aS'1qbk'
p11872
aS'3zvp'
p11873
aS'1mnd'
p11874
aS'3hif'
p11875
aS'3t35'
p11876
aS'1a8t'
p11877
aS'1fx1'
p11878
aS'1u1u'
p11879
aS'2pro'
p11880
aS'3sc8'
p11881
aS'1t29'
p11882
aS'4hum'
p11883
aS'1pv7'
p11884
aS'1ymp'
p11885
aS'1g5u'
p11886
aS'2r5h'
p11887
aS'1l8l'
p11888
aS'4em1'
p11889
aS'2fxt'
p11890
aS'1zqv'
p11891
aS'357d'
p11892
aS'3qa8'
p11893
aS'1t43'
p11894
aS'1jw1'
p11895
aS'3i4m'
p11896
aS'2v3c'
p11897
aS'1fpv'
p11898
aS'8icw'
p11899
aS'3pjs'
p11900
aS'2qnh'
p11901
aS'2h8r'
p11902
aS'3qp5'
p11903
aS'1d16'
p11904
aS'1e4k'
p11905
aS'2g33'
p11906
aS'1pv6'
p11907
aS'1qgt'
p11908
aS'3s5k'
p11909
aS'2ovp'
p11910
aS'4jai'
p11911
aS'2dhh'
p11912
aS'1udu'
p11913
aS'2pis'
p11914
aS'4i3c'
p11915
aS'3w55'
p11916
aS'1bg5'
p11917
aS'2a01'
p11918
aS'1rdx'
p11919
aS'1ek1'
p11920
aS'2qn5'
p11921
aS'1rkc'
p11922
aS'1kes'
p11923
aS'2vhp'
p11924
aS'3zvo'
p11925
aS'1s0v'
p11926
aS'1bwf'
p11927
aS'1n36'
p11928
aS'1hrt'
p11929
aS'1muo'
p11930
aS'1z56'
p11931
aS'1ny2'
p11932
aS'1rbb'
p11933
aS'441d'
p11934
aS'1fou'
p11935
aS'1l6z'
p11936
aS'2cy9'
p11937
aS'1bot'
p11938
aS'3ifx'
p11939
aS'2gra'
p11940
aS'1js9'
p11941
aS'3rsb'
p11942
aS'3i5f'
p11943
aS'2hpf'
p11944
aS'2r29'
p11945
aS'1br4'
p11946
aS'1exi'
p11947
aS'1vxb'
p11948
aS'1zqd'
p11949
aS'3ba0'
p11950
aS'3krn'
p11951
aS'1y64'
p11952
aS'1b7e'
p11953
aS'3s6k'
p11954
aS'2qzp'
p11955
aS'1pp8'
p11956
aS'1bey'
p11957
aS'2ger'
p11958
aS'1sie'
p11959
aS'2o45'
p11960
aS'1wqs'
p11961
aS'1ldj'
p11962
aS'4f15'
p11963
aS'1d82'
p11964
aS'3b8e'
p11965
aS'1f6c'
p11966
aS'1xgo'
p11967
aS'1sgh'
p11968
aS'4i2w'
p11969
aS'1p1z'
p11970
aS'1s6p'
p11971
aS'2vok'
p11972
aS'1zqj'
p11973
aS'2hnt'
p11974
aS'1snx'
p11975
aS'4av6'
p11976
aS'2g83'
p11977
aS'1bpx'
p11978
aS'2fc1'
p11979
aS'4pad'
p11980
aS'2j42'
p11981
aS'1yns'
p11982
aS'3m50'
p11983
aS'1jmw'
p11984
aS'1gwz'
p11985
aS'4ani'
p11986
aS'2erc'
p11987
aS'1wc6'
p11988
aS'1zfb'
p11989
aS'2q2e'
p11990
aS'3gec'
p11991
aS'3gbi'
p11992
aS'3ulz'
p11993
aS'4fxb'
p11994
aS'3t72'
p11995
aS'2drd'
p11996
aS'4e0v'
p11997
aS'1i0p'
p11998
aS'1r1i'
p11999
aS'2bhj'
p12000
aS'3e8k'
p12001
aS'1rgb'
p12002
aS'2e76'
p12003
aS'2cwj'
p12004
aS'1w63'
p12005
aS'3b1k'
p12006
aS'1xtc'
p12007
aS'3vmr'
p12008
aS'6pad'
p12009
aS'1pad'
p12010
aS'3k5n'
p12011
aS'2w5j'
p12012
aS'3s4d'
p12013
aS'3mpv'
p12014
aS'3g60'
p12015
aS'2d47'
p12016
aS'4huk'
p12017
aS'3aqp'
p12018
aS'1qxp'
p12019
aS'1fft'
p12020
aS'5pad'
p12021
aS'2vhm'
p12022
aS'9ice'
p12023
aS'1zfh'
p12024
aS'1jch'
p12025
aS'1cax'
p12026
aS'1nlt'
p12027
aS'2pad'
p12028
aS'2gee'
p12029
aS'2dnd'
p12030
aS'1nqh'
p12031
aS'1caw'
p12032
aS'2zf8'
p12033
aS'2rdd'
p12034
aS'3lrb'
p12035
aS'1bpz'
p12036
aS'1dlp'
p12037
aS'1tzd'
p12038
aS'3mvo'
p12039
aS'3iqx'
p12040
aS'7icj'
p12041
aS'7ins'
p12042
aS'2ypi'
p12043
aS'2feo'
p12044
aS'1exj'
p12045
aS'1qp5'
p12046
aS'2pmz'
p12047
aS'1ex3'
p12048
aS'1sfo'
p12049
aS'1koo'
p12050
aS'2qqp'
p12051
aS'1cvx'
p12052
aS'1ldk'
p12053
aS'1rf3'
p12054
aS'2cfq'
p12055
aS'2vhn'
p12056
aS'2r69'
p12057
aS'4cln'
p12058
aS'1c0b'
p12059
aS'1ceb'
p12060
aS'1tfd'
p12061
aS'2qij'
p12062
aS'1flz'
p12063
aS'1a81'
p12064
aS'1vf5'
p12065
aS'2czj'
p12066
aS'2bfu'
p12067
aS'1b7u'
p12068
aS'3lrc'
p12069
aS'2v8n'
p12070
aS'2cfp'
p12071
aS'1dm4'
p12072
aS'237d'
p12073
aS'1ja3'
p12074
aS'1kct'
p12075
aS'3sdp'
p12076
aS'2e75'
p12077
aS'6cro'
p12078
aS'1blb'
p12079
aS'3n70'
p12080
aS'2cna'
p12081
aS'3ixn'
p12082
aS'1d75'
p12083
aS'1fpr'
p12084
aS'3hxr'
p12085
aS'3le7'
p12086
aS'1koh'
p12087
aS'1jxa'
p12088
aS'1rvf'
p12089
aS'3o2z'
p12090
aS'1jwo'
p12091
aS'2tgd'
p12092
aS'3ktw'
p12093
aS'2cxe'
p12094
aS'1jkt'
p12095
aS'1c4v'
p12096
aS'1eh9'
p12097
aS'2fql'
p12098
aS'2q7r'
p12099
aS'3dxj'
p12100
aS'1myp'
p12101
aS'3ibb'
p12102
aS'3qz1'
p12103
aS'1hek'
p12104
aS'2g34'
p12105
aS'2dld'
p12106
aS'1jde'
p12107
aS'1zfa'
p12108
aS'488d'
p12109
aS'3o30'
p12110
aS'1zfg'
p12111
aS'1ob5'
p12112
aS'1chg'
p12113
aS'1jky'
p12114
aS'3kso'
p12115
aS'4hun'
p12116
aS'2doi'
p12117
aS'1gyl'
p12118
aS'4kzx'
p12119
aS'2vdt'
p12120
aS'4kzz'
p12121
aS'1scu'
p12122
aS'1yyf'
p12123
aS'1bvs'
p12124
aS'4kjz'
p12125
aS'358d'
p12126
aS'3crc'
p12127
aS'1gll'
p12128
aS'3fh6'
p12129
aS'1gff'
p12130
aS'2sod'
p12131
aS'3hi8'
p12132
aS'1kqm'
p12133
aS'1sbt'
p12134
aS'1p7b'
p12135
aS'2c4r'
p12136
aS'4fsx'
p12137
aS'1d85'
p12138
aS'144d'
p12139
aS'1b55'
p12140
aS'3g61'
p12141
aS'1i6v'
p12142
aS'3lyt'
p12143
aS'1w5u'
p12144
aS'2gli'
p12145
aS'1qzx'
p12146
aS'4kzy'
p12147
aS'1d6n'
p12148
aS'1ryx'
p12149
aS'1d2h'
p12150
aS'1dnm'
p12151
aS'1an4'
p12152
aS'1hqm'
p12153
aS'2rcr'
p12154
aS'2qag'
p12155
aS'1mvm'
p12156
aS'1eha'
p12157
aS'3b8c'
p12158
aS'3ufj'
p12159
aS'3o5h'
p12160
aS'300d'
p12161
aS'2q3t'
p12162
aS'1hgz'
p12163
aS'4dw2'
p12164
aS'1nrp'
p12165
aS'4d87'
p12166
aS'3h0g'
p12167
aS'1yv0'
p12168
aS'3o58'
p12169
aS'4bm5'
p12170
aS'2a45'
p12171
aS'1ld9'
p12172
aS'1zfc'
p12173
aS'2q4p'
p12174
aS'4ffj'
p12175
aS'2a0f'
p12176
aS'2dtg'
p12177
aS'2pgk'
p12178
aS'2ldx'
p12179
aS'2p6a'
p12180
aS'2wsf'
p12181
aS'1py4'
p12182
aS'2r7e'
p12183
aS'7adh'
p12184
aS'1dnv'
p12185
aS'1xcq'
p12186
aS'4hiv'
p12187
aS'4rxn'
p12188
aS'2pff'
p12189
aS'130d'
p12190
aS'1zrt'
p12191
aS'4hul'
p12192
aS'3kbc'
p12193
aS'1rfb'
p12194
aS'2y9e'
p12195
aS'1nip'
p12196
aS'1ho8'
p12197
aS'2aat'
p12198
aS'2b54'
p12199
aS'1r24'
p12200
aS'3qk4'
p12201
aS'1u5t'
p12202
aS'2y8i'
p12203
aS'2oen'
p12204
aS'1acx'
p12205
aS'1tim'
p12206
aS'2d2c'
p12207
aS'1hap'
p12208
aS'2jk4'
p12209
aS'2itg'
p12210
aS'2mcg'
p12211
aS'4cat'
p12212
aS'4eiw'
p12213
aS'3r86'
p12214
aS'3vqk'
p12215
aS'4fz5'
p12216
aS'1hgv'
p12217
aS'3dmq'
p12218
aS'2jiv'
p12219
aS'2dr6'
p12220
aS'2nn6'
p12221
aS'4dji'
p12222
aS'3cs5'
p12223
aS'3a4o'
p12224
aS'3gnt'
p12225
aS'1vtj'
p12226
aS'1hao'
p12227
aS'2wsc'
p12228
aS'3a0h'
p12229
aS'2qfi'
p12230
aS'1hh0'
p12231
aS'1fn4'
p12232
aS'3ry6'
p12233
aS'1pfi'
p12234
aS'1zfm'
p12235
aS'1dne'
p12236
aS'1hut'
p12237
aS'2gr9'
p12238
aS'379d'
p12239
aS'1fl9'
p12240
aS'336d'
p12241
aS'2q7m'
p12242
aS'3sjd'
p12243
aS'3chx'
p12244
aS'1grz'
p12245
aS'4irm'
p12246
aS'1nro'
p12247
aS'2tmv'
p12248
aS'2bp2'
p12249
aS'3g5u'
p12250
aS'1fzp'
p12251
aS'1fxi'
p12252
aS'2pf1'
p12253
aS'1if1'
p12254
aS'1nrq'
p12255
aS'4hp2'
p12256
aS'3a0b'
p12257
aS'3k1b'
p12258
aS'1dn6'
p12259
aS'1qab'
p12260
aS'1s58'
p12261
aS'4ahl'
p12262
aS'3qoe'
p12263
aS'1pmk'
p12264
aS'2iny'
p12265
aS'1rfq'
p12266
aS'2yhx'
p12267
aS'3nir'
p12268
aS'2o01'
p12269
aS'1lio'
p12270
aS'1vte'
p12271
aS'3w3a'
p12272
aS'1bpe'
p12273
aS'2zfk'
p12274
aS'1vsz'
p12275
aS'4aqq'
p12276
aS'3lvg'
p12277
aS'1eyg'
p12278
aS'2wse'
p12279
aS'1ffx'
p12280
aS'1r9t'
p12281
aS'3h94'
p12282
aS'1ndn'
p12283
aS'2ec6'
p12284
aS'2tbv'
p12285
aS'4hhb'
p12286
aS'1gm5'
p12287
aS'3azd'
p12288
aS'128d'
p12289
aS'1foc'
p12290
aS'2zix'
p12291
aS'3ktv'
p12292
aS'1tmf'
p12293
aS'1a0a'
p12294
aS'3lw5'
p12295
aS'1wnc'
p12296
aS'3gpd'
p12297
aS'4fab'
p12298
aS'1d53'
p12299
aS'2sns'
p12300
aS'3e3b'
p12301
aS'2hgr'
p12302
aS'3lvh'
p12303
aS'2hgi'
p12304
aS'1ctx'
p12305
aS'3l5h'
p12306
aS'2hgp'
p12307
aS'3mcg'
p12308
aS'2sbt'
p12309
aS'4gpd'
p12310
aS'1n7d'
p12311
aS'1hbs'
p12312
aS'2ow8'
p12313
aS'3mku'
p12314
aS'1qzw'
p12315
aS'1yl4'
p12316
aS'3cna'
p12317
aS'2b9n'
p12318
aS'2b66'
p12319
aS'2gls'
p12320
aS'3mkt'
p12321
aS'2abx'
p12322
aS'2b9p'
p12323
aS'1vsa'
p12324
aS'2taa'
p12325
aS'361d'
p12326
aS'4bxn'
p12327
aS'3ldh'
p12328
aS'155c'
p12329
aS'1pfc'
p12330
aS'1mcw'
p12331
aS'2hgq'
p12332
aS'2atc'
p12333
aS'2hgu'
p12334
aS'2hgj'
p12335
aS'1tnv'
p12336
aS'1gpd'
p12337
aS'3ikm'
p12338
aS'1i0k'
p12339
aS'1i0m'
p12340
aS'1cwq'
p12341
aS'1yl3'
p12342
aS'1cn1'
p12343
aS'3k7z'
p12344
aS'3uro'
p12345
aS'4rcr'
p12346
aS'1nxb'
p12347
aS'1lyz'
p12348
aS'5ldh'
p12349
aS'3zxa'
p12350
aS'3pgk'
p12351
aS'1cyc'
p12352
aS'1mbs'
p12353
aS'3pgm'
p12354
aS'1pyp'
p12355
aS'1hkg'
p12356
aS'1h1k'
p12357
aS'2gn5'
p12358
aS'3zs2'
p12359
aS'1c4d'
p12360
aS'1hds'
p12361
aS'3gau'
p12362
aS'3cm9'
p12363
aS'3gaw'
p12364
ag2463
ag2846
ag3004
ag3133
ag3248
ag3542
ag3606
aS'3irj'
p12365
aS'3irk'
p12366
aS'3iri'
p12367
aS'3irl'
p12368
aS'2xkx'
p12369
ag4986
aS'4idw'
p12370
aS'2a6u'
p12371
aS'2hso'
p12372
aS'2hs7'
p12373
aS'2hs9'
p12374
aS'1ja4'
p12375
aS'1sf4'
p12376
aS'1ja2'
p12377
aS'1sf7'
p12378
aS'1ja6'
p12379
aS'1ja7'
p12380
aS'1sfg'
p12381
aS'1sfb'
p12382
aS'1fub'
p12383
aS'1sf6'
p12384
aS'1ssz'
p12385
aS'1fu2'
p12386
aS'1f6h'
p12387
aS'1xft'
p12388
aS'4ard'
p12389
aS'3izy'
p12390
aS'4b2q'
p12391
aS'3iz7'
p12392
aS'3iz9'
p12393
aS'3zf7'
p12394
aS'4bjf'
p12395
aS'3j32'
p12396
aS'3ixv'
p12397
aS'2x31'
p12398
aS'3dno'
p12399
aS'3c92'
p12400
aS'3zn8'
p12401
aS'3zq0'
p12402
aS'3iy9'
p12403
aS'4b3y'
p12404
aS'2zz9'
p12405
aS'3kcr'
p12406
aS'1qgc'
p12407
aS'1upn'
p12408
aS'3j1o'
p12409
aS'4a6j'
p12410
aS'3bbo'
p12411
aS'3j2j'
p12412
aS'2c7e'
p12413
aS'1mj1'
p12414
aS'3iky'
p12415
aS'3j0g'
p12416
aS'2wvw'
p12417
aS'3m9i'
p12418
aS'2go5'
p12419
aS'4arg'
p12420
aS'3ddx'
p12421
aS'2gy9'
p12422
aS'3iz6'
p12423
aS'3j40'
p12424
aS'1suv'
p12425
aS'2xfb'
p12426
aS'2qu4'
p12427
aS'4adv'
p12428
aS'2j9i'
p12429
aS'4a0w'
p12430
aS'3j0d'
p12431
aS'3deg'
p12432
aS'3n09'
p12433
aS'4c0v'
p12434
aS'1fbk'
p12435
aS'3j4j'
p12436
aS'3foi'
p12437
aS'2p8x'
p12438
aS'2p8w'
p12439
aS'1dyl'
p12440
aS'4bx4'
p12441
aS'3c91'
p12442
aS'3j24'
p12443
aS'3j1n'
p12444
aS'2xsy'
p12445
aS'4b4t'
p12446
aS'3j1s'
p12447
aS'3j2q'
p12448
aS'2p8z'
p12449
aS'1fbb'
p12450
aS'3iyw'
p12451
aS'3izz'
p12452
aS'4bom'
p12453
aS'4av2'
p12454
aS'2nsu'
p12455
aS'2xtg'
p12456
aS'3mfp'
p12457
aS'1o1f'
p12458
aS'2zkq'
p12459
aS'3iy5'
p12460
aS'3iz0'
p12461
aS'3byh'
p12462
aS'1o1b'
p12463
aS'2j28'
p12464
aS'1m8q'
p12465
aS'2gyc'
p12466
aS'3fin'
p12467
aS'3iyn'
p12468
aS'4a0o'
p12469
aS'1ry1'
p12470
aS'3j1q'
p12471
aS'4bzk'
p12472
aS'2om7'
p12473
aS'4bzj'
p12474
aS'4bgn'
p12475
aS'1brd'
p12476
aS'4a13'
p12477
aS'2c9g'
p12478
aS'1z8y'
p12479
aS'4bs1'
p12480
aS'2xrp'
p12481
aS'2c9f'
p12482
aS'2b6o'
p12483
aS'3edl'
p12484
aS'3zw6'
p12485
aS'2bld'
p12486
aS'3j16'
p12487
aS'2y7c'
p12488
aS'4bt1'
p12489
aS'1at9'
p12490
aS'4bt0'
p12491
aS'2w4h'
p12492
aS'3j0o'
p12493
aS'2x7n'
p12494
aS'2w4a'
p12495
aS'3j2w'
p12496
aS'1o1c'
p12497
aS'3iku'
p12498
aS'3j0l'
p12499
aS'2gya'
p12500
aS'1o1a'
p12501
aS'3iyj'
p12502
aS'3j0k'
p12503
aS'1o1g'
p12504
aS'1o18'
p12505
aS'1o1e'
p12506
aS'1o19'
p12507
aS'3iy2'
p12508
aS'1o1d'
p12509
aS'3j0p'
p12510
aS'1mvw'
p12511
aS'3j26'
p12512
aS'4bpq'
p12513
aS'2r1c'
p12514
aS'1ih5'
p12515
aS'2at9'
p12516
aS'2hxh'
p12517
aS'2w6d'
p12518
aS'2d57'
p12519
aS'3j4p'
p12520
aS'3k1q'
p12521
aS'2hxf'
p12522
aS'3fi1'
p12523
aS'1gru'
p12524
aS'1lu3'
p12525
aS'3j27'
p12526
aS'1ysh'
p12527
aS'3h3w'
p12528
aS'3izo'
p12529
aS'3j0q'
p12530
aS'2p4n'
p12531
aS'3j2p'
p12532
aS'3j06'
p12533
aS'3h3y'
p12534
aS'3j1r'
p12535
aS'1i84'
p12536
aS'3dco'
p12537
aS'3iyl'
p12538
aS'3lue'
p12539
aS'1fqy'
p12540
aS'3iy1'
p12541
aS'3zeq'
p12542
aS'2j37'
p12543
aS'4atx'
p12544
aS'3iy7'
p12545
aS'3j18'
p12546
aS'4bij'
p12547
aS'2w4g'
p12548
aS'3iy6'
p12549
aS'3iy4'
p12550
aS'1q5a'
p12551
aS'1jff'
p12552
aS'3j2u'
p12553
aS'1q55'
p12554
aS'1foq'
p12555
aS'2y7h'
p12556
aS'3izq'
p12557
aS'3dww'
p12558
aS'2yn9'
p12559
aS'2ix8'
p12560
aS'2voy'
p12561
aS'3izx'
p12562
aS'3j25'
p12563
aS'3los'
p12564
aS'2vdc'
p12565
aS'1q5b'
p12566
aS'3iyu'
p12567
aS'2wbe'
p12568
aS'3zex'
p12569
aS'1zo3'
p12570
aS'4atu'
p12571
aS'4abo'
p12572
aS'2zkr'
p12573
aS'2zle'
p12574
aS'3dkn'
p12575
aS'1q5c'
p12576
aS'2h8a'
p12577
aS'3zfs'
p12578
aS'1s1h'
p12579
aS'3j09'
p12580
aS'1tvk'
p12581
aS'3bo0'
p12582
aS'3bbx'
p12583
aS'3bo1'
p12584
aS'2y9k'
p12585
aS'2noq'
p12586
aS'3bbv'
p12587
aS'3gzt'
p12588
aS'2hil'
p12589
aS'1c2x'
p12590
aS'2xzb'
p12591
aS'3zbi'
p12592
aS'4aod'
p12593
aS'2xea'
p12594
aS'1vt4'
p12595
aS'3iz8'
p12596
aS'4agy'
p12597
aS'2ykr'
p12598
aS'3iyf'
p12599
aS'4agx'
p12600
aS'4aoe'
p12601
aS'1s1i'
p12602
aS'3j0r'
p12603
aS'4aq5'
p12604
aS'4aq9'
p12605
aS'3j3b'
p12606
aS'3j3a'
p12607
aS'3b8k'
p12608
aS'4bil'
p12609
aS'3j47'
p12610
aS'2ypw'
p12611
aS'3zbj'
p12612
aS'4apw'
p12613
aS'2bg9'
p12614
aS'4boo'
p12615
aS'4bor'
p12616
aS'4bon'
p12617
aS'4bog'
p12618
aS'4bot'
p12619
aS'4boi'
p12620
aS'3ktt'
p12621
aS'1c2w'
p12622
aS'2xd8'
p12623
aS'1ia0'
p12624
aS'2w4t'
p12625
aS'2w4v'
p12626
aS'2w4w'
p12627
aS'1oed'
p12628
aS'1mhs'
p12629
aS'3zx9'
p12630
aS'1fcw'
p12631
aS'3zx8'
p12632
aS'1tub'
p12633
aS'1nn8'
p12634
aS'4btg'
p12635
aS'4au6'
p12636
a.