(dp1
S'1pgl'
p2
(lp3
g2
aF0.19600000000000001
aF0.51300000000000001
aF0.186
aS'OK'
p4
asS'4iw4'
p5
(lp6
g5
aF0.20799999999999999
aF0.20899999999999999
aF0.20899999999999999
ag4
asS'1gbn'
p7
(lp8
g7
aF0.20899999999999999
aF0.222
aF0.222
ag4
asS'1mhc'
p9
(lp10
g9
aF0.19
aF0.187
aF0.187
ag4
asS'4kn2'
p11
(lp12
g11
aF0.19400000000000001
aF0.192
aF0.192
ag4
asS'1pgw'
p13
(lp14
g13
aF0.21199999999999999
aF0.49299999999999999
aF0.19900000000000001
ag4
asS'1pgr'
p15
(lp16
g15
aF0.317
aF0.29099999999999998
aF0.29099999999999998
ag4
asS'4bof'
p17
(lp18
g17
aF0.21099999999999999
aF0.218
aF0.218
ag4
asS'1o7l'
p19
(lp20
g19
aF0.20699999999999999
aF0.28699999999999998
aF0.28699999999999998
ag4
asS'1o7k'
p21
(lp22
g21
aF0.20999999999999999
aF0.251
aF0.251
ag4
asS'1a9n'
p23
(lp24
g23
aF0.28199999999999997
aF0.24299999999999999
aF0.24299999999999999
ag4
asS'3nby'
p25
(lp26
g25
aF0.25800000000000001
aF0.29099999999999998
aF0.29099999999999998
ag4
asS'3nbz'
p27
(lp28
g27
aF0.22600000000000001
aF0.22600000000000001
aF0.22600000000000001
ag4
asS'4aun'
p29
(lp30
g29
aF0.16400000000000001
aF0.16300000000000001
aF0.16300000000000001
ag4
asS'2jla'
p31
(lp32
g31
aF0.16900000000000001
aF0.16900000000000001
aF0.16900000000000001
ag4
asS'4aul'
p33
(lp34
g33
aF0.14299999999999999
aF0.14199999999999999
aF0.14199999999999999
ag4
asS'4aum'
p35
(lp36
g35
aF0.11799999999999999
aF0.114
aF0.114
ag4
asS'4auv'
p37
(lp38
g37
aF0.193
aF0.193
aF0.193
ag4
asS'2va0'
p39
(lp40
g39
aF0.19900000000000001
aF0.23300000000000001
aF0.23300000000000001
ag4
asS'1o7t'
p41
(lp42
g41
aF0.16400000000000001
aF0.28799999999999998
aF0.28799999999999998
ag4
asS'1a9w'
p43
(lp44
g43
aF0.185
aF0.187
aF0.187
ag4
asS'1gn2'
p45
(lp46
g45
aF0.23100000000000001
aF0.23100000000000001
aF0.23100000000000001
aS'NO R-work information in pdb file!!!'
p47
asS'2wwr'
p48
(lp49
g48
aF0.217
aF0.24099999999999999
aF0.24099999999999999
ag4
asS'2wws'
p50
(lp51
g50
aF0.23000000000000001
aF0.53000000000000003
aF0.54600000000000004
ag4
asS'2wwt'
p52
(lp53
g52
aF0.16600000000000001
aF0.24399999999999999
aF0.24399999999999999
ag4
asS'4kq6'
p54
(lp55
g54
aF0.20000000000000001
aF0.19
aF0.19
ag4
asS'2wwh'
p56
(lp57
g56
aF0.187
aF0.189
aF0.189
ag4
asS'2wwi'
p58
(lp59
g58
aF0.19900000000000001
aF0.20000000000000001
aF0.20000000000000001
ag4
asS'2wwf'
p60
(lp61
g60
aF0.16
aF0.16
aF0.16
ag4
asS'3zv0'
p62
(lp63
g62
aF0.17799999999999999
aF0.185
aF0.185
ag4
asS'1f2n'
p64
(lp65
g64
aF0.218
aF0.52900000000000003
aF0.249
ag4
asS'1a99'
p66
(lp67
g66
aF0.185
aF0.17299999999999999
aF0.17299999999999999
ag4
asS'2vav'
p68
(lp69
g68
aF0.219
aF0.21099999999999999
aF0.21099999999999999
ag4
asS'2vat'
p70
(lp71
g70
aF0.20000000000000001
aF0.26600000000000001
aF0.26600000000000001
ag4
asS'1k5g'
p72
(lp73
g72
aF0.25
aF0.23400000000000001
aF0.23400000000000001
ag4
asS'2var'
p74
(lp75
g74
aF0.18099999999999999
aF0.182
aF0.182
ag4
asS'4au5'
p76
(lp77
g76
aF0.318
aF0.30199999999999999
aF0.30199999999999999
ag4
asS'1h0m'
p78
(lp79
g78
aF0.23300000000000001
aF0.23300000000000001
aF0.23300000000000001
ag4
asS'1k5m'
p80
(lp81
g80
aF0.216
aF0.50700000000000001
aF0.222
ag4
asS'3zx2'
p82
(lp83
g82
aF0.17499999999999999
aF0.17799999999999999
aF0.17799999999999999
ag4
asS'3zx0'
p84
(lp85
g84
aF0.21299999999999999
aF0.217
aF0.217
ag4
asS'4loq'
p86
(lp87
g86
aF0.192
aF0.255
aF0.255
ag4
asS'4lop'
p88
(lp89
g88
aF0.14799999999999999
aF0.16
aF0.16
ag4
asS'2yfk'
p90
(lp91
g90
aF0.16900000000000001
aF0.188
aF0.188
ag4
asS'2we4'
p92
(lp93
g92
aF0.19500000000000001
aF0.188
aF0.188
ag4
asS'2w8s'
p94
(lp95
g94
aF0.182
aF0.20200000000000001
aF0.20200000000000001
ag4
asS'4ekc'
p96
(lp97
g96
aF0.158
aF0.17799999999999999
aF0.17799999999999999
ag4
asS'2yfw'
p98
(lp99
g98
aF0.218
aF0.215
aF0.215
ag4
asS'3v9h'
p100
(lp101
g100
aF0.20999999999999999
aF0.20300000000000001
aF0.20300000000000001
ag4
asS'3v9i'
p102
(lp103
g102
aF0.20899999999999999
aF0.20599999999999999
aF0.20599999999999999
ag4
asS'4hoh'
p104
(lp105
g104
aF0.19
aF0.191
aF0.191
ag4
asS'1gll'
p106
(lp107
g106
aF0.16500000000000001
aF0.16500000000000001
aF0.16500000000000001
aS'NO R-work information in pdb file!!!'
p108
asS'3rul'
p109
(lp110
g109
aF0.24299999999999999
aF0.23999999999999999
aF0.23999999999999999
ag4
asS'1glj'
p111
(lp112
g111
aF0.158
aF0.158
aF0.158
aS'NO R-work information in pdb file!!!'
p113
asS'3v9g'
p114
(lp115
g114
aF0.20399999999999999
aF0.19800000000000001
aF0.19800000000000001
ag4
asS'3zxw'
p116
(lp117
g116
aF0.18099999999999999
aF0.182
aF0.182
ag4
asS'3zxv'
p118
(lp119
g118
aF0.19500000000000001
aF0.192
aF0.192
ag4
asS'3zxu'
p120
(lp121
g120
aF0.183
aF0.247
aF0.247
ag4
asS'3zxt'
p122
(lp123
g122
aF0.216
aF0.216
aF0.216
ag4
asS'3zxs'
p124
(lp125
g124
aF0.19800000000000001
aF0.19800000000000001
aF0.19800000000000001
ag4
asS'3zxr'
p126
(lp127
g126
aF0.22500000000000001
aF0.21199999999999999
aF0.21199999999999999
ag4
asS'2jlm'
p128
(lp129
g128
aF0.182
aF0.16600000000000001
aF0.16600000000000001
ag4
asS'3zxd'
p130
(lp131
g130
aF0.21299999999999999
aF0.23000000000000001
aF0.23000000000000001
ag4
asS'1b8d'
p132
(lp133
g132
aF0.17499999999999999
aF0.27300000000000002
aF0.27300000000000002
aS'OK'
p134
asS'2afn'
p135
(lp136
g135
aF0.158
aF0.155
aF0.155
ag4
asS'4aue'
p137
(lp138
g137
aF0.192
aF0.189
aF0.189
ag4
asS'2w88'
p139
(lp140
g139
aF0.19400000000000001
aF0.20200000000000001
aF0.20200000000000001
ag4
asS'5hoh'
p141
(lp142
g141
aF0.16600000000000001
aF0.16700000000000001
aF0.16700000000000001
ag4
asS'1olp'
p143
(lp144
g143
aF0.17799999999999999
aF0.186
aF0.186
ag4
asS'4jsu'
p145
(lp146
g145
aF0.221
aF0.22600000000000001
aF0.22600000000000001
ag4
asS'4b4m'
p147
(lp148
g147
aF0.183
aF0.184
aF0.184
ag4
asS'4jsq'
p149
(lp150
g149
aF0.23499999999999999
aF0.23699999999999999
aF0.23699999999999999
ag4
asS'4b4g'
p151
(lp152
g151
aF0.20000000000000001
aF0.19700000000000001
aF0.19700000000000001
ag4
asS'1qmo'
p153
(lp154
g153
aF0.23200000000000001
aF0.23400000000000001
aF0.23400000000000001
ag4
asS'4b4b'
p155
(lp156
g155
aF0.22600000000000001
aF0.223
aF0.223
ag4
asS'1qmv'
p157
(lp158
g157
aF0.192
aF0.17499999999999999
aF0.17499999999999999
ag4
asS'2xlb'
p159
(lp160
g159
aF0.13600000000000001
aF0.28799999999999998
aF0.28799999999999998
ag4
asS'2xlc'
p161
(lp162
g161
aF0.216
aF0.21099999999999999
aF0.21099999999999999
ag4
asS'4jsn'
p163
(lp164
g163
aF0.215
aF0.222
aF0.222
ag4
asS'3ey9'
p165
(lp166
g165
aF0.182
aF0.17799999999999999
aF0.17799999999999999
ag4
asS'2c2b'
p167
(lp168
g167
aF0.20599999999999999
aF0.26700000000000002
aF0.26700000000000002
ag4
asS'3qr3'
p169
(lp170
g169
aF0.16300000000000001
aF0.158
aF0.158
ag4
asS'1lts'
p171
(lp172
g171
aF0.17499999999999999
aF0.17499999999999999
aF0.17499999999999999
aS'NO R-work information in pdb file!!!'
p173
asS'1ltr'
p174
(lp175
g174
aF0.183
aF0.188
aF0.188
ag4
asS'2c2l'
p176
(lp177
g176
aF0.247
aF0.23499999999999999
aF0.23499999999999999
ag4
asS'2v70'
p178
(lp179
g178
aF0.222
aF0.24099999999999999
aF0.24099999999999999
ag4
asS'1v1j'
p180
(lp181
g180
aF0.215
aF0.224
aF0.224
ag4
asS'1v1h'
p182
(lp183
g182
aF0.182
aF0.18099999999999999
aF0.18099999999999999
ag4
asS'1v1i'
p184
(lp185
g184
aF0.23200000000000001
aF0.23100000000000001
aF0.23100000000000001
ag4
asS'2v78'
p186
(lp187
g186
aF0.16200000000000001
aF0.16900000000000001
aF0.16900000000000001
ag4
asS'2c7v'
p188
(lp189
g188
aF0.153
aF0.156
aF0.156
ag4
asS'4js5'
p190
(lp191
g190
aF0.30599999999999999
aF0.29699999999999999
aF0.29699999999999999
ag4
asS'4js4'
p192
(lp193
g192
aF0.22500000000000001
aF0.26000000000000001
aF0.26000000000000001
ag4
asS'2y22'
p194
(lp195
g194
aF0.21299999999999999
aF0.24099999999999999
aF0.24099999999999999
ag4
asS'4b42'
p196
(lp197
g196
aF0.223
aF0.219
aF0.219
ag4
asS'4b40'
p198
(lp199
g198
aF0.16600000000000001
aF0.16600000000000001
aF0.16600000000000001
ag4
asS'2v7d'
p200
(lp201
g200
aF0.22800000000000001
aF0.29399999999999998
aF0.29399999999999998
ag4
asS'3zjk'
p202
(lp203
g202
aF0.17299999999999999
aF0.17599999999999999
aF0.17599999999999999
ag4
asS'2c21'
p204
(lp205
g204
aF0.155
aF0.25900000000000001
aF0.25900000000000001
ag4
asS'3zjx'
p206
(lp207
g206
aF0.247
aF0.26400000000000001
aF0.26400000000000001
ag4
asS'4dqy'
p208
(lp209
g208
aF0.23799999999999999
aF0.23400000000000001
aF0.23400000000000001
ag4
asS'6msf'
p210
(lp211
g210
aF0.19500000000000001
aF0.53100000000000003
aF0.19400000000000001
ag4
asS'2x17'
p212
(lp213
g212
aF0.26000000000000001
aF0.24299999999999999
aF0.24299999999999999
aS'Warning: merging non-unique data :: DANO :: I(+),SIGI(+),I(-),SIGI(-) :: '
p214
asS'2vpf'
p215
(lp216
g215
aF0.20899999999999999
aF0.20100000000000001
aF0.20100000000000001
ag4
asS'3ia0'
p217
(lp218
g217
aF0.217
aF0.29199999999999998
aF0.29199999999999998
ag4
asS'4ahq'
p219
(lp220
g219
aF0.191
aF0.189
aF0.189
ag4
asS'4ahp'
p221
(lp222
g221
aF0.19600000000000001
aF0.193
aF0.193
ag4
asS'12e8'
p223
(lp224
g223
aF0.221
aF0.218
aF0.218
ag4
asS'4aho'
p225
(lp226
g225
aF0.19600000000000001
aF0.19
aF0.19
ag4
asS'43c9'
p227
(lp228
g227
aF0.20999999999999999
aF0.252
aF0.252
ag4
asS'1w62'
p229
(lp230
g229
aF0.17000000000000001
aF0.183
aF0.183
ag4
asS'4ahc'
p231
(lp232
g231
aF0.20599999999999999
aF0.28999999999999998
aF0.28999999999999998
ag4
asS'2iua'
p233
(lp234
g233
aF0.20899999999999999
aF0.21199999999999999
aF0.21199999999999999
ag4
asS'1js9'
p235
(lp236
g235
aF0.23799999999999999
aF0.48399999999999999
aF0.23100000000000001
ag4
asS'2iu8'
p237
(lp238
g237
aF0.20599999999999999
aF0.27200000000000002
aF0.27200000000000002
ag4
asS'2iu9'
p239
(lp240
g239
aF0.221
aF0.28199999999999997
aF0.28199999999999997
ag4
asS'43ca'
p241
(lp242
g241
aF0.20599999999999999
aF0.20599999999999999
aF0.20599999999999999
ag4
asS'4h04'
p243
(lp244
g243
aF0.155
aF0.14999999999999999
aF0.14999999999999999
ag4
asS'2j7v'
p245
(lp246
g245
aF0.17199999999999999
aF0.17799999999999999
aF0.17799999999999999
ag4
asS'2j7q'
p247
(lp248
g247
aF0.156
aF0.183
aF0.183
ag4
asS'2j7p'
p249
(lp250
g249
aF0.184
aF0.184
aF0.184
ag4
asS'1w6u'
p251
(lp252
g251
aF0.22700000000000001
aF0.22500000000000001
aF0.22500000000000001
ag4
asS'3ueo'
p253
(lp254
g253
aF0.19
aF0.187
aF0.187
ag4
asS'3uel'
p255
(lp256
g255
aF0.245
aF0.24199999999999999
aF0.24199999999999999
ag4
asS'2wvh'
p257
(lp258
g257
aF0.17100000000000001
aF0.16600000000000001
aF0.16600000000000001
ag4
asS'2wva'
p259
(lp260
g259
aF0.19400000000000001
aF0.185
aF0.185
ag4
asS'4ivd'
p261
(lp262
g261
aF0.20200000000000001
aF0.20200000000000001
aF0.20200000000000001
ag4
asS'2wvg'
p263
(lp264
g263
aF0.157
aF0.153
aF0.153
ag4
asS'4ivb'
p265
(lp266
g265
aF0.18099999999999999
aF0.184
aF0.184
ag4
asS'2vbf'
p267
(lp268
g267
aF0.16300000000000001
aF0.16800000000000001
aF0.16800000000000001
ag4
asS'4evg'
p269
(lp270
g269
aF0.17799999999999999
aF0.17100000000000001
aF0.17100000000000001
ag4
asS'4ayd'
p271
(lp272
g271
aF0.20200000000000001
aF0.20300000000000001
aF0.20300000000000001
ag4
asS'1zpd'
p273
(lp274
g273
aF0.16200000000000001
aF0.14699999999999999
aF0.14699999999999999
ag4
asS'1bvi'
p275
(lp276
g275
aF0.17699999999999999
aF0.17599999999999999
aF0.17599999999999999
ag4
asS'1tdt'
p277
(lp278
g277
aF0.159
aF0.159
aF0.159
aS'NO R-work information in pdb file!!!'
p279
asS'1usq'
p280
(lp281
g280
aF0.20399999999999999
aF0.20399999999999999
aF0.20399999999999999
aS'NO R-work information in pdb file!!!'
p282
asS'2uzq'
p283
(lp284
g283
aF0.22600000000000001
aF0.218
aF0.218
ag4
asS'2wv7'
p285
(lp286
g285
aF0.19700000000000001
aF0.20000000000000001
aF0.20000000000000001
ag4
asS'2wv5'
p287
(lp288
g287
aF0.23599999999999999
aF0.23000000000000001
aF0.23000000000000001
ag4
asS'4afn'
p289
(lp290
g289
aF0.20100000000000001
aF0.193
aF0.193
ag4
asS'1tdi'
p291
(lp292
g291
aF0.22800000000000001
aF0.51300000000000001
aF0.29599999999999999
ag4
asS'3ukh'
p293
(lp294
g293
aF0.222
aF0.20999999999999999
aF0.20999999999999999
ag4
asS'3ukk'
p295
(lp296
g295
aF0.183
aF0.17999999999999999
aF0.17999999999999999
ag4
asS'3oah'
p297
(lp298
g297
aF0.27500000000000002
aF0.52500000000000002
aF0.246
ag4
asS'4g3d'
p299
(lp300
g299
aF0.20100000000000001
aF0.19800000000000001
aF0.19800000000000001
ag4
asS'4g3e'
p301
(lp302
g301
aF0.189
aF0.188
aF0.188
ag4
asS'3uka'
p303
(lp304
g303
aF0.20599999999999999
aF0.22
aF0.22
ag4
asS'3ukf'
p305
(lp306
g305
aF0.25
aF0.23400000000000001
aF0.23400000000000001
ag4
asS'3pgd'
p307
(lp308
g307
aF0.19600000000000001
aF0.192
aF0.192
ag4
asS'3ukq'
p309
(lp310
g309
aF0.21199999999999999
aF0.20200000000000001
aF0.20200000000000001
ag4
asS'3ukp'
p311
(lp312
g311
aF0.20200000000000001
aF0.27500000000000002
aF0.27500000000000002
ag4
asS'1a4e'
p313
(lp314
g313
aF0.154
aF0.193
aF0.193
ag4
asS'3w5u'
p315
(lp316
g315
aF0.22600000000000001
aF0.22500000000000001
aF0.22500000000000001
ag4
asS'1a4o'
p317
(lp318
g317
aF0.31
aF0.312
aF0.312
ag4
asS'3w5v'
p319
(lp320
g319
aF0.27700000000000002
aF0.27100000000000002
aF0.27100000000000002
ag4
asS'1a4s'
p321
(lp322
g321
aF0.223
aF0.20100000000000001
aF0.20100000000000001
ag4
asS'1c8n'
p323
(lp324
g323
aF0.253
aF0.502
aF0.27800000000000002
ag4
asS'1a4z'
p325
(lp326
g325
aF0.23000000000000001
aF0.26400000000000001
aF0.26400000000000001
ag4
asS'3vyw'
p327
(lp328
g327
aF0.191
aF0.191
aF0.191
ag4
asS'2wdq'
p329
(lp330
g329
aF0.17100000000000001
aF0.19600000000000001
aF0.19600000000000001
ag4
asS'2wdr'
p331
(lp332
g331
aF0.19700000000000001
aF0.246
aF0.246
ag4
asS'2wdv'
p333
(lp334
g333
aF0.20499999999999999
aF0.28199999999999997
aF0.28199999999999997
ag4
asS'1h1l'
p335
(lp336
g335
aF0.17599999999999999
aF0.161
aF0.161
ag4
asS'2wdz'
p337
(lp338
g337
aF0.187
aF0.184
aF0.184
ag4
asS'4blv'
p339
(lp340
g339
aF0.17000000000000001
aF0.17100000000000001
aF0.17100000000000001
ag4
asS'4blu'
p341
(lp342
g341
aF0.16600000000000001
aF0.16600000000000001
aF0.16600000000000001
ag4
asS'1o79'
p343
(lp344
g343
aF0.23899999999999999
aF0.22800000000000001
aF0.22800000000000001
ag4
asS'4at6'
p345
(lp346
g345
aF0.27900000000000003
aF0.35399999999999998
aF0.35399999999999998
ag4
asS'1k5d'
p347
(lp348
g347
aF0.23699999999999999
aF0.23899999999999999
aF0.23899999999999999
ag4
asS'2ygu'
p349
(lp350
g349
aF0.23699999999999999
aF0.23100000000000001
aF0.23100000000000001
ag4
asS'1pfz'
p351
(lp352
g351
aF0.214
aF0.20499999999999999
aF0.20499999999999999
ag4
asS'3vcn'
p353
(lp354
g353
aF0.13
aF0.14000000000000001
aF0.14000000000000001
ag4
asS'2wd0'
p355
(lp356
g355
aF0.219
aF0.255
aF0.255
ag4
asS'2bm2'
p357
(lp358
g357
aF0.20300000000000001
aF0.19400000000000001
aF0.19400000000000001
ag4
asS'2wd7'
p359
(lp360
g359
aF0.155
aF0.17899999999999999
aF0.17899999999999999
ag4
asS'3vcf'
p361
(lp362
g361
aF0.187
aF0.18099999999999999
aF0.18099999999999999
ag4
asS'2wd8'
p363
(lp364
g363
aF0.158
aF0.184
aF0.184
ag4
asS'4atf'
p365
(lp366
g365
aF0.13400000000000001
aF0.13500000000000001
aF0.13500000000000001
ag4
asS'3q8m'
p367
(lp368
g367
aF0.217
aF0.21099999999999999
aF0.21099999999999999
ag4
asS'4atv'
p369
(lp370
g369
aF0.28699999999999998
aF0.29399999999999998
aF0.29399999999999998
ag4
asS'1qk4'
p371
(lp372
g371
aF0.189
aF0.186
aF0.186
ag4
asS'1aa1'
p373
(lp374
g373
aF0.20699999999999999
aF0.19800000000000001
aF0.19800000000000001
ag4
asS'4hzl'
p375
(lp376
g375
aF0.221
aF0.254
aF0.254
ag4
asS'2v8h'
p377
(lp378
g377
aF0.17799999999999999
aF0.20699999999999999
aF0.20699999999999999
ag4
asS'2v8d'
p379
(lp380
g379
aF0.23000000000000001
aF0.28899999999999998
aF0.28899999999999998
ag4
asS'2v8g'
p381
(lp382
g381
aF0.189
aF0.20599999999999999
aF0.20599999999999999
ag4
asS'2v8x'
p383
(lp384
g383
aF0.188
aF0.185
aF0.185
ag4
asS'2v8y'
p385
(lp386
g385
aF0.20300000000000001
aF0.19700000000000001
aF0.19700000000000001
ag4
asS'2v8z'
p387
(lp388
g387
aF0.19
aF0.22500000000000001
aF0.22500000000000001
ag4
asS'2v8v'
p389
(lp390
g389
aF0.19400000000000001
aF0.21099999999999999
aF0.21099999999999999
ag4
asS'2v8w'
p391
(lp392
g391
aF0.184
aF0.17999999999999999
aF0.17999999999999999
ag4
asS'3zlk'
p393
(lp394
g393
aF0.23300000000000001
aF0.23799999999999999
aF0.23799999999999999
ag4
asS'4hz2'
p395
(lp396
g395
aF0.13800000000000001
aF0.14199999999999999
aF0.14199999999999999
ag4
asS'2xqy'
p397
(lp398
g397
aF0.188
aF0.186
aF0.186
ag4
asS'1cmx'
p399
(lp400
g399
aF0.248
aF0.23200000000000001
aF0.23200000000000001
ag4
asS'1cmi'
p401
(lp402
g401
aF0.23999999999999999
aF0.23499999999999999
aF0.23499999999999999
ag4
asS'1gmw'
p403
(lp404
g403
aF0.223
aF0.22
aF0.22
ag4
asS'4brp'
p405
(lp406
g405
aF0.17699999999999999
aF0.19600000000000001
aF0.19600000000000001
ag4
asS'2pi8'
p407
(lp408
g407
aF0.182
aF0.33400000000000002
aF0.33400000000000002
ag4
asS'1gme'
p409
(lp410
g409
aF0.23100000000000001
aF0.23699999999999999
aF0.23699999999999999
ag4
asS'1cqd'
p411
(lp412
g411
aF0.21299999999999999
aF0.23400000000000001
aF0.23400000000000001
ag4
asS'1ng0'
p413
(lp414
g413
aF0.28100000000000003
aF0.58099999999999996
aF0.32400000000000001
ag4
asS'4b52'
p415
(lp416
g415
aF0.19500000000000001
aF0.188
aF0.188
ag4
asS'1bzz'
p417
(lp418
g417
aF0.158
aF0.158
aF0.158
aS'NO R-work information in pdb file!!!'
p419
asS'1hgf'
p420
(lp421
g420
aF0.23000000000000001
aF0.22
aF0.22
ag4
asS'1hgg'
p422
(lp423
g422
aF0.22900000000000001
aF0.222
aF0.222
ag4
asS'1w7w'
p424
(lp425
g424
aF0.23699999999999999
aF0.23200000000000001
aF0.23200000000000001
ag4
asS'1hge'
p426
(lp427
g426
aF0.22500000000000001
aF0.214
aF0.214
ag4
asS'1v02'
p428
(lp429
g428
aF0.17199999999999999
aF0.152
aF0.152
ag4
asS'1hgj'
p430
(lp431
g430
aF0.22
aF0.20999999999999999
aF0.20999999999999999
ag4
asS'4f5x'
p432
(lp433
g432
aF0.29299999999999998
aF0.53600000000000003
aF0.32900000000000001
ag4
asS'3chx'
p434
(lp435
g434
aF0.34200000000000003
aF0.32400000000000001
aF0.33200000000000002
ag4
asS'1hgi'
p436
(lp437
g436
aF0.223
aF0.21199999999999999
aF0.21199999999999999
ag4
asS'2c10'
p438
(lp439
g438
aF0.20399999999999999
aF0.20799999999999999
aF0.20799999999999999
ag4
asS'2c11'
p440
(lp441
g440
aF0.215
aF0.254
aF0.254
ag4
asS'4b5k'
p442
(lp443
g442
aF0.153
aF0.153
aF0.153
ag4
asS'1emc'
p444
(lp445
g444
aF0.20499999999999999
aF0.29799999999999999
aF0.29799999999999999
ag4
asS'4b5b'
p446
(lp447
g446
aF0.21199999999999999
aF0.214
aF0.214
ag4
asS'4b5g'
p448
(lp449
g448
aF0.23200000000000001
aF0.23499999999999999
aF0.23499999999999999
ag4
asS'2xma'
p450
(lp451
g450
aF0.215
aF0.20799999999999999
aF0.20799999999999999
ag4
asS'2xme'
p452
(lp453
g452
aF0.20599999999999999
aF0.23699999999999999
aF0.23699999999999999
ag4
asS'1qju'
p454
(lp455
g454
aF0.20599999999999999
aF0.50900000000000001
aF0.221
ag4
asS'1qjx'
p456
(lp457
g456
aF0.23100000000000001
aF0.495
aF0.249
ag4
asS'1qjy'
p458
(lp459
g458
aF0.23300000000000001
aF0.49099999999999999
aF0.24099999999999999
ag4
asS'2xmn'
p460
(lp461
g460
aF0.27100000000000002
aF0.27200000000000002
aF0.27200000000000002
ag4
asS'1w73'
p462
(lp463
g462
aF0.17999999999999999
aF0.18099999999999999
aF0.18099999999999999
ag4
asS'1urp'
p464
(lp465
g464
aF0.23499999999999999
aF0.22900000000000001
aF0.22900000000000001
ag4
asS'2c1w'
p466
(lp467
g466
aF0.27400000000000002
aF0.26800000000000002
aF0.26800000000000002
ag4
asS'1ayr'
p468
(lp469
g468
aF0.254
aF0.254
aF0.254
ag4
asS'1v0e'
p470
(lp471
g470
aF0.16600000000000001
aF0.183
aF0.183
ag4
asS'3v23'
p472
(lp473
g472
aF0.218
aF0.40200000000000002
aF0.40200000000000002
ag4
asS'1v0f'
p474
(lp475
g474
aF0.17999999999999999
aF0.19800000000000001
aF0.19800000000000001
ag4
asS'2vq0'
p476
(lp477
g476
aF0.25700000000000001
aF0.53600000000000003
aF0.245
ag4
asS'1tgx'
p478
(lp479
g478
aF0.16600000000000001
aF0.16600000000000001
aF0.16600000000000001
aS'NO R-work information in pdb file!!!'
p480
asS'2cxe'
p481
(lp482
g481
aF0.29499999999999998
aF0.252
aF0.252
ag4
asS'4aed'
p483
(lp484
g483
aF0.27900000000000003
aF0.51800000000000002
aF0.27800000000000002
ag4
asS'4aei'
p485
(lp486
g485
aF0.19900000000000001
aF0.19600000000000001
aF0.19600000000000001
ag4
asS'1bg8'
p487
(lp488
g487
aF0.16300000000000001
aF0.16800000000000001
aF0.16800000000000001
ag4
asS'3utd'
p489
(lp490
g489
aF0.14599999999999999
aF0.14499999999999999
aF0.14499999999999999
ag4
asS'3utc'
p491
(lp492
g491
aF0.14699999999999999
aF0.14299999999999999
aF0.14299999999999999
ag4
asS'1za7'
p493
(lp494
g493
aF0.245
aF0.53600000000000003
aF0.24399999999999999
ag4
asS'4g7w'
p495
(lp496
g495
aF0.23200000000000001
aF0.23400000000000001
aF0.23400000000000001
ag4
asS'4ae8'
p497
(lp498
g497
aF0.185
aF0.18099999999999999
aF0.18099999999999999
ag4
asS'2vqz'
p499
(lp500
g499
aF0.186
aF0.185
aF0.185
ag4
asS'4gvq'
p501
(lp502
g501
aF0.13400000000000001
aF0.129
aF0.129
ag4
asS'6pfk'
p503
(lp504
g503
aF0.188
aF0.158
aF0.158
ag4
asS'1sdy'
p505
(lp506
g505
aF0.161
aF0.161
aF0.161
aS'NO R-work information in pdb file!!!'
p507
asS'1hyh'
p508
(lp509
g508
aF0.193
aF0.193
aF0.193
aS'NO R-work information in pdb file!!!'
p510
asS'2vrf'
p511
(lp512
g511
aF0.184
aF0.23100000000000001
aF0.23100000000000001
ag4
asS'2cjf'
p513
(lp514
g513
aF0.27400000000000002
aF0.433
aF0.433
ag4
asS'4g22'
p515
(lp516
g515
aF0.16800000000000001
aF0.16800000000000001
aF0.16800000000000001
ag4
asS'1pya'
p517
(lp518
g517
aF0.14999999999999999
aF0.16200000000000001
aF0.16200000000000001
ag4
asS'3vbh'
p519
(lp520
g519
aF0.217
aF0.505
aF0.217
ag4
asS'4asj'
p521
(lp522
g521
aF0.23799999999999999
aF0.246
aF0.246
ag4
asS'3vbo'
p523
(lp524
g523
aF0.22700000000000001
aF0.48999999999999999
aF0.22500000000000001
ag4
asS'2wul'
p525
(lp526
g525
aF0.20000000000000001
aF0.24299999999999999
aF0.24299999999999999
ag4
asS'1vew'
p527
(lp528
g527
aF0.16300000000000001
aF0.16300000000000001
aF0.16300000000000001
aS'NO R-work information in pdb file!!!'
p529
asS'3vbf'
p530
(lp531
g530
aF0.23599999999999999
aF0.496
aF0.23699999999999999
ag4
asS'4asx'
p532
(lp533
g532
aF0.187
aF0.187
aF0.187
ag4
asS'4asy'
p534
(lp535
g534
aF0.20899999999999999
aF0.21199999999999999
aF0.21199999999999999
ag4
asS'3vbs'
p536
(lp537
g536
aF0.27300000000000002
aF0.47699999999999998
aF0.27200000000000002
ag4
asS'3vbr'
p538
(lp539
g538
aF0.25700000000000001
aF0.496
aF0.25600000000000001
ag4
asS'3vbu'
p540
(lp541
g540
aF0.27200000000000002
aF0.49099999999999999
aF0.28399999999999997
ag4
asS'2uyp'
p542
(lp543
g542
aF0.16600000000000001
aF0.16500000000000001
aF0.16500000000000001
ag4
asS'3ufj'
p544
(lp545
g544
aF0.26300000000000001
aF0.255
aF0.255
ag4
asS'1bcc'
p546
(lp547
g546
aF0.27000000000000002
aF0.45700000000000002
aF0.30199999999999999
ag4
asS'2uyy'
p548
(lp549
g548
aF0.17000000000000001
aF0.17799999999999999
aF0.17799999999999999
ag4
asS'2uyl'
p550
(lp551
g550
aF0.21099999999999999
aF0.252
aF0.252
ag4
asS'2uyn'
p552
(lp553
g552
aF0.16200000000000001
aF0.16
aF0.16
ag4
asS'2uyj'
p554
(lp555
g554
aF0.17199999999999999
aF0.17199999999999999
aF0.17199999999999999
ag4
asS'2uyk'
p556
(lp557
g556
aF0.155
aF0.16200000000000001
aF0.16200000000000001
ag4
asS'2vck'
p558
(lp559
g558
aF0.184
aF0.182
aF0.182
ag4
asS'4hfx'
p560
(lp561
g560
aF0.23499999999999999
aF0.34200000000000003
aF0.34200000000000003
ag4
asS'1gkr'
p562
(lp563
g562
aF0.224
aF0.214
aF0.214
ag4
asS'2vcy'
p564
(lp565
g564
aF0.20699999999999999
aF0.21199999999999999
aF0.21199999999999999
ag4
asS'2qqp'
p566
(lp567
g566
aF0.28499999999999998
aF0.52000000000000002
aF0.27900000000000003
ag4
asS'2vct'
p568
(lp569
g568
aF0.217
aF0.23200000000000001
aF0.23200000000000001
ag4
asS'2vcv'
p570
(lp571
g570
aF0.223
aF0.222
aF0.222
ag4
asS'4as5'
p572
(lp573
g572
aF0.16
aF0.159
aF0.159
ag4
asS'2vyc'
p574
(lp575
g574
aF0.17699999999999999
aF0.185
aF0.185
ag4
asS'1wyk'
p576
(lp577
g576
aF0.19700000000000001
aF0.19
aF0.19
ag4
asS'1cno'
p578
(lp579
g578
aF0.17799999999999999
aF0.17599999999999999
aF0.17599999999999999
ag4
asS'3n5m'
p580
(lp581
g580
aF0.156
aF0.17699999999999999
aF0.17699999999999999
ag4
asS'4eiw'
p582
(lp583
g582
aF0.29899999999999999
aF0.29099999999999998
aF0.29099999999999998
ag4
asS'2yf2'
p584
(lp585
g584
aF0.22
aF0.224
aF0.224
ag4
asS'4kmb'
p586
(lp587
g586
aF0.20799999999999999
aF0.20999999999999999
aF0.20999999999999999
ag4
asS'3zzv'
p588
(lp589
g588
aF0.21099999999999999
aF0.21199999999999999
aF0.21199999999999999
ag4
asS'3n58'
p590
(lp591
g590
aF0.17199999999999999
aF0.17299999999999999
aF0.17299999999999999
ag4
asS'3zzh'
p592
(lp593
g592
aF0.17999999999999999
aF0.19400000000000001
aF0.19400000000000001
ag4
asS'3zzg'
p594
(lp595
g594
aF0.21199999999999999
aF0.21299999999999999
aF0.21299999999999999
ag4
asS'3zzf'
p596
(lp597
g596
aF0.17899999999999999
aF0.19500000000000001
aF0.19500000000000001
ag4
asS'1uos'
p598
(lp599
g598
aF0.23499999999999999
aF0.19800000000000001
aF0.19800000000000001
ag4
asS'1gn6'
p600
(lp601
g600
aF0.183
aF0.183
aF0.183
aS'NO R-work information in pdb file!!!'
p602
asS'2bnw'
p603
(lp604
g603
aF0.22600000000000001
aF0.23999999999999999
aF0.23999999999999999
ag4
asS'4bmg'
p605
(lp606
g605
aF0.252
aF0.252
aF0.252
ag4
asS'1vb2'
p607
(lp608
g607
aF0.26100000000000001
aF0.52400000000000002
aF0.26000000000000001
ag4
asS'4hi3'
p609
(lp610
g609
aF0.19
aF0.188
aF0.188
ag4
asS'2wku'
p611
(lp612
g611
aF0.20100000000000001
aF0.19400000000000001
aF0.19400000000000001
ag4
asS'2wkv'
p613
(lp614
g613
aF0.17199999999999999
aF0.16800000000000001
aF0.16800000000000001
ag4
asS'1rk2'
p615
(lp616
g615
aF0.22800000000000001
aF0.21099999999999999
aF0.21099999999999999
ag4
asS'1e5q'
p617
(lp618
g617
aF0.20699999999999999
aF0.19900000000000001
aF0.19900000000000001
ag4
asS'2wkn'
p619
(lp620
g619
aF0.22
aF0.217
aF0.217
ag4
asS'2bng'
p621
(lp622
g621
aF0.222
aF0.222
aF0.222
ag4
asS'4dej'
p623
(lp624
g623
aF0.20699999999999999
aF0.21199999999999999
aF0.21199999999999999
ag4
asS'1qki'
p625
(lp626
g625
aF0.247
aF0.23999999999999999
aF0.23999999999999999
ag4
asS'1b8h'
p627
(lp628
g627
aF0.26500000000000001
aF0.23100000000000001
aF0.23100000000000001
ag4
asS'1ere'
p629
(lp630
g629
aF0.218
aF0.186
aF0.186
ag4
asS'2xbo'
p631
(lp632
g631
aF0.247
aF0.50800000000000001
aF0.24399999999999999
ag4
asS'1gx3'
p633
(lp634
g633
aF0.20899999999999999
aF0.21199999999999999
aF0.21199999999999999
ag4
asS'2xbb'
p635
(lp636
g635
aF0.20499999999999999
aF0.20000000000000001
aF0.20000000000000001
ag4
asS'1usl'
p637
(lp638
g637
aF0.16800000000000001
aF0.17499999999999999
aF0.17499999999999999
ag4
asS'4fie'
p639
(lp640
g639
aF0.25600000000000001
aF0.24299999999999999
aF0.24299999999999999
ag4
asS'4fig'
p641
(lp642
g641
aF0.19600000000000001
aF0.186
aF0.186
ag4
asS'4fif'
p643
(lp644
g643
aF0.20599999999999999
aF0.21199999999999999
aF0.21199999999999999
ag4
asS'4fio'
p645
(lp646
g645
aF0.13
aF0.12
aF0.12
ag4
asS'2v90'
p647
(lp648
g647
aF0.193
aF0.215
aF0.215
ag4
asS'2xb9'
p649
(lp650
g649
aF0.185
aF0.188
aF0.188
ag4
asS'2ji2'
p651
(lp652
g651
aF0.19500000000000001
aF0.186
aF0.186
ag4
asS'2xb2'
p653
(lp654
g653
aF0.22
aF0.221
aF0.221
ag4
asS'1qk3'
p655
(lp656
g655
aF0.20200000000000001
aF0.20999999999999999
aF0.20999999999999999
ag4
asS'3kmb'
p657
(lp658
g657
aF0.20399999999999999
aF0.21099999999999999
aF0.21099999999999999
ag4
asS'1kpl'
p659
(lp660
g659
aF0.254
aF0.24399999999999999
aF0.24399999999999999
ag4
asS'4fi4'
p661
(lp662
g661
aF0.14899999999999999
aF0.154
aF0.154
aS'Warning: merging non-unique data :: DANO :: F(+),SIGF(+),F(-),SIGF(-) :: I(+),SIGI(+),I(-),SIGI(-) :: '
p663
asS'1kpk'
p664
(lp665
g664
aF0.28999999999999998
aF0.27000000000000002
aF0.27000000000000002
ag4
asS'1lde'
p666
(lp667
g666
aF0.20499999999999999
aF0.185
aF0.185
ag4
asS'2v9d'
p668
(lp669
g668
aF0.16600000000000001
aF0.16500000000000001
aF0.16500000000000001
ag4
asS'1ldy'
p670
(lp671
g670
aF0.20699999999999999
aF0.19600000000000001
aF0.19600000000000001
ag4
asS'2v9s'
p672
(lp673
g672
aF0.21299999999999999
aF0.22800000000000001
aF0.22800000000000001
ag4
asS'2vrs'
p674
(lp675
g674
aF0.17999999999999999
aF0.17899999999999999
aF0.17899999999999999
ag4
asS'2vrq'
p676
(lp677
g676
aF0.182
aF0.18099999999999999
aF0.18099999999999999
ag4
asS'2xkp'
p678
(lp679
g678
aF0.20599999999999999
aF0.222
aF0.222
ag4
asS'1qmg'
p680
(lp681
g680
aF0.19600000000000001
aF0.185
aF0.185
ag4
asS'1dpt'
p682
(lp683
g682
aF0.16400000000000001
aF0.161
aF0.161
ag4
asS'1jdy'
p684
(lp685
g684
aF0.186
aF0.214
aF0.214
ag4
asS'2vra'
p686
(lp687
g686
aF0.251
aF0.245
aF0.245
ag4
asS'4ts1'
p688
(lp689
g688
aF0.17599999999999999
aF0.17599999999999999
aF0.17599999999999999
aS'NO R-work information in pdb file!!!'
p690
asS'2qfj'
p691
(lp692
g691
aF0.25800000000000001
aF0.253
aF0.253
ag4
asS'2vrk'
p693
(lp694
g693
aF0.16500000000000001
aF0.16900000000000001
aF0.16900000000000001
ag4
asS'2pro'
p695
(lp696
g695
aF0.20200000000000001
aF0.20799999999999999
aF0.20799999999999999
ag4
asS'4jgz'
p697
(lp698
g697
aF0.28599999999999998
aF0.45600000000000002
aF0.28799999999999998
ag4
asS'4jgy'
p699
(lp700
g699
aF0.22700000000000001
aF0.497
aF0.222
ag4
asS'2iwe'
p701
(lp702
g701
aF0.192
aF0.24299999999999999
aF0.24299999999999999
ag4
asS'1qmi'
p703
(lp704
g703
aF0.24399999999999999
aF0.223
aF0.223
ag4
asS'2vr9'
p705
(lp706
g705
aF0.23699999999999999
aF0.23899999999999999
aF0.23899999999999999
ag4
asS'1fvf'
p707
(lp708
g707
aF0.24299999999999999
aF0.23000000000000001
aF0.23000000000000001
ag4
asS'2x7o'
p709
(lp710
g709
aF0.26700000000000002
aF0.307
aF0.307
ag4
asS'2j1k'
p711
(lp712
g711
aF0.17199999999999999
aF0.19600000000000001
aF0.19600000000000001
ag4
asS'2j1n'
p713
(lp714
g713
aF0.17999999999999999
aF0.20599999999999999
aF0.20599999999999999
ag4
asS'3ice'
p715
(lp716
g715
aF0.27000000000000002
aF0.26400000000000001
aF0.26400000000000001
ag4
asS'1qmp'
p717
(lp718
g717
aF0.19500000000000001
aF0.18099999999999999
aF0.18099999999999999
ag4
asS'3pkp'
p719
(lp720
g719
aF0.20000000000000001
aF0.19600000000000001
aF0.19600000000000001
ag4
asS'3pkq'
p721
(lp722
g721
aF0.21199999999999999
aF0.20799999999999999
aF0.20799999999999999
ag4
asS'1bt6'
p723
(lp724
g723
aF0.22800000000000001
aF0.26700000000000002
aF0.26700000000000002
ag4
asS'1e9n'
p725
(lp726
g725
aF0.17799999999999999
aF0.17799999999999999
aF0.17799999999999999
aS'NO R-work information in pdb file!!!'
p727
asS'1tf6'
p728
(lp729
g728
aF0.308
aF0.30399999999999999
aF0.30399999999999999
ag4
asS'2xll'
p730
(lp731
g730
aF0.17000000000000001
aF0.16900000000000001
aF0.16900000000000001
ag4
asS'2vdi'
p732
(lp733
g732
aF0.20499999999999999
aF0.19600000000000001
aF0.19600000000000001
ag4
asS'1dbv'
p734
(lp735
g734
aF0.14000000000000001
aF0.157
aF0.157
ag4
asS'2uv0'
p736
(lp737
g736
aF0.20899999999999999
aF0.25
aF0.25
ag4
asS'2ewy'
p738
(lp739
g738
aF0.22700000000000001
aF0.20999999999999999
aF0.20999999999999999
ag4
asS'4etg'
p740
(lp741
g740
aF0.221
aF0.20399999999999999
aF0.20399999999999999
ag4
asS'2vdw'
p742
(lp743
g742
aF0.223
aF0.222
aF0.222
ag4
asS'4pgm'
p744
(lp745
g744
aF0.192
aF0.20100000000000001
aF0.20100000000000001
ag4
asS'4eca'
p746
(lp747
g746
aF0.18099999999999999
aF0.17699999999999999
aF0.17699999999999999
ag4
asS'2ux2'
p748
(lp749
g748
aF0.17399999999999999
aF0.17399999999999999
aF0.17399999999999999
aS'NO R-work information in pdb file!!!'
p750
asS'2ux0'
p751
(lp752
g751
aF0.184
aF0.23999999999999999
aF0.23999999999999999
ag4
asS'4adq'
p753
(lp754
g753
aF0.223
aF0.215
aF0.215
ag4
asS'2ux9'
p755
(lp756
g755
aF0.17000000000000001
aF0.19
aF0.19
ag4
asS'4adf'
p757
(lp758
g757
aF0.23799999999999999
aF0.23499999999999999
aF0.23499999999999999
ag4
asS'1bto'
p759
(lp760
g759
aF0.19
aF0.16500000000000001
aF0.16500000000000001
ag4
asS'3dqz'
p761
(lp762
g761
aF0.159
aF0.245
aF0.245
ag4
asS'3uun'
p763
(lp764
g763
aF0.19
aF0.218
aF0.218
ag4
asS'3uum'
p765
(lp766
g765
aF0.19700000000000001
aF0.20799999999999999
aF0.20799999999999999
ag4
asS'4gh4'
p767
(lp768
g767
aF0.16700000000000001
aF0.53700000000000003
aF0.17799999999999999
ag4
asS'2uvd'
p769
(lp770
g769
aF0.17999999999999999
aF0.20599999999999999
aF0.20599999999999999
ag4
asS'2vd6'
p771
(lp772
g771
aF0.192
aF0.26700000000000002
aF0.26700000000000002
ag4
asS'1a2o'
p773
(lp774
g773
aF0.222
aF0.23999999999999999
aF0.23999999999999999
ag4
asS'1a2z'
p775
(lp776
g775
aF0.17999999999999999
aF0.17199999999999999
aF0.17199999999999999
ag4
asS'3toi'
p777
(lp778
g777
aF0.19900000000000001
aF0.19500000000000001
aF0.19500000000000001
ag4
asS'1a2p'
p779
(lp780
g779
aF0.111
aF0.125
aF0.125
ag4
asS'1h3b'
p781
(lp782
g781
aF0.20599999999999999
aF0.20000000000000001
aF0.20000000000000001
ag4
asS'1h3c'
p783
(lp784
g783
aF0.25800000000000001
aF0.25
aF0.25
ag4
asS'1h3a'
p785
(lp786
g785
aF0.248
aF0.23999999999999999
aF0.23999999999999999
ag4
asS'1h3f'
p787
(lp788
g787
aF0.23400000000000001
aF0.22500000000000001
aF0.22500000000000001
ag4
asS'2wjz'
p789
(lp790
g789
aF0.185
aF0.21199999999999999
aF0.21199999999999999
ag4
asS'2wjx'
p791
(lp792
g791
aF0.28999999999999998
aF0.311
aF0.311
ag4
asS'2wju'
p793
(lp794
g793
aF0.246
aF0.24199999999999999
aF0.24199999999999999
ag4
asS'1rtm'
p795
(lp796
g795
aF0.22
aF0.20899999999999999
aF0.20899999999999999
ag4
asS'2bos'
p797
(lp798
g797
aF0.155
aF0.14599999999999999
aF0.14599999999999999
ag4
asS'4bby'
p799
(lp800
g799
aF0.191
aF0.188
aF0.188
ag4
asS'2yav'
p801
(lp802
g801
aF0.16400000000000001
aF0.158
aF0.158
ag4
asS'2yax'
p803
(lp804
g803
aF0.16900000000000001
aF0.16800000000000001
aF0.16800000000000001
ag4
asS'4ar2'
p805
(lp806
g805
aF0.28000000000000003
aF0.50900000000000001
aF0.371
ag4
asS'4gzm'
p807
(lp808
g807
aF0.254
aF0.26500000000000001
aF0.26500000000000001
ag4
asS'4gzl'
p809
(lp810
g809
aF0.186
aF0.189
aF0.189
ag4
asS'2fpf'
p811
(lp812
g811
aF0.224
aF0.217
aF0.217
ag4
asS'1a21'
p813
(lp814
g813
aF0.191
aF0.19600000000000001
aF0.19600000000000001
ag4
asS'2wj8'
p815
(lp816
g815
aF0.20499999999999999
aF0.22800000000000001
aF0.22800000000000001
ag4
asS'2wj7'
p817
(lp818
g817
aF0.252
aF0.24199999999999999
aF0.24199999999999999
ag4
asS'2wj6'
p819
(lp820
g819
aF0.17899999999999999
aF0.20999999999999999
aF0.20999999999999999
ag4
asS'2wj4'
p821
(lp822
g821
aF0.17599999999999999
aF0.221
aF0.221
ag4
asS'2wj3'
p823
(lp824
g823
aF0.19600000000000001
aF0.20300000000000001
aF0.20300000000000001
ag4
asS'2bo2'
p825
(lp826
g825
aF0.247
aF0.247
aF0.247
aS'NO R-work information in pdb file!!!'
p827
asS'4ary'
p828
(lp829
g828
aF0.215
aF0.215
aF0.215
ag4
asS'4arx'
p830
(lp831
g830
aF0.184
aF0.185
aF0.185
ag4
asS'1h36'
p832
(lp833
g832
aF0.221
aF0.216
aF0.216
ag4
asS'1h37'
p834
(lp835
g834
aF0.20499999999999999
aF0.19800000000000001
aF0.19800000000000001
ag4
asS'1h35'
p836
(lp837
g836
aF0.219
aF0.214
aF0.214
ag4
asS'4bb5'
p838
(lp839
g838
aF0.182
aF0.17999999999999999
aF0.17999999999999999
ag4
asS'1h39'
p840
(lp841
g840
aF0.22500000000000001
aF0.219
aF0.219
ag4
asS'4arw'
p842
(lp843
g842
aF0.17499999999999999
aF0.17799999999999999
aF0.17799999999999999
ag4
asS'1gyk'
p844
(lp845
g844
aF0.186
aF0.28599999999999998
aF0.28599999999999998
ag4
asS'3raa'
p846
(lp847
g846
aF0.29399999999999998
aF0.54300000000000004
aF0.28599999999999998
ag4
asS'2w3r'
p848
(lp849
g848
aF0.23999999999999999
aF0.23400000000000001
aF0.23400000000000001
ag4
asS'2w3s'
p850
(lp851
g850
aF0.23200000000000001
aF0.223
aF0.223
ag4
asS'2w3x'
p852
(lp853
g852
aF0.19600000000000001
aF0.193
aF0.193
ag4
asS'1b35'
p854
(lp855
g854
aF0.22800000000000001
aF0.54000000000000004
aF0.22600000000000001
ag4
asS'1b37'
p856
(lp857
g856
aF0.187
aF0.187
aF0.187
aS'NO R-work information in pdb file!!!'
p858
asS'1gyr'
p859
(lp860
g859
aF0.193
aF0.23200000000000001
aF0.23200000000000001
ag4
asS'1ao5'
p861
(lp862
g861
aF0.19700000000000001
aF0.20699999999999999
aF0.20699999999999999
ag4
asS'1ao0'
p863
(lp864
g863
aF0.214
aF0.20499999999999999
aF0.20499999999999999
ag4
asS'1lgn'
p865
(lp866
g865
aF0.23200000000000001
aF0.21099999999999999
aF0.21099999999999999
ag4
asS'1qzw'
p867
(lp868
g867
aF0.34000000000000002
aF0.34799999999999998
aF0.34799999999999998
ag4
asS'2c91'
p869
(lp870
g869
aF0.16
aF0.19700000000000001
aF0.19700000000000001
ag4
asS'3w9i'
p871
(lp872
g871
aF0.28199999999999997
aF0.26800000000000002
aF0.26800000000000002
ag4
asS'2byk'
p873
(lp874
g873
aF0.23699999999999999
aF0.23699999999999999
aF0.23699999999999999
ag4
asS'1aon'
p875
(lp876
g875
aF0.248
aF0.27100000000000002
aF0.27100000000000002
ag4
asS'2bym'
p877
(lp878
g877
aF0.217
aF0.217
aF0.217
ag4
asS'3ra4'
p879
(lp880
g879
aF0.21199999999999999
aF0.52300000000000002
aF0.20799999999999999
ag4
asS'3ra2'
p881
(lp882
g881
aF0.24399999999999999
aF0.51700000000000002
aF0.24299999999999999
ag4
asS'1b3s'
p883
(lp884
g883
aF0.247
aF0.215
aF0.215
ag4
asS'2bys'
p885
(lp886
g885
aF0.216
aF0.24299999999999999
aF0.24299999999999999
ag4
asS'2byr'
p887
(lp888
g887
aF0.193
aF0.21199999999999999
aF0.21199999999999999
ag4
asS'3ra8'
p889
(lp890
g889
aF0.245
aF0.51400000000000001
aF0.248
ag4
asS'3ra9'
p891
(lp892
g891
aF0.24299999999999999
aF0.499
aF0.23999999999999999
ag4
asS'3zo7'
p893
(lp894
g893
aF0.186
aF0.18099999999999999
aF0.18099999999999999
ag4
asS'1x36'
p895
(lp896
g895
aF0.245
aF0.58099999999999996
aF0.23000000000000001
ag4
asS'1rjw'
p897
(lp898
g897
aF0.214
aF0.20799999999999999
aF0.20799999999999999
ag4
asS'3ejh'
p899
(lp900
g899
aF0.20899999999999999
aF0.20799999999999999
aF0.20799999999999999
ag4
asS'1fui'
p901
(lp902
g901
aF0.16200000000000001
aF0.154
aF0.154
aS'OK'
p903
asS'1qh8'
p904
(lp905
g904
aF0.155
aF0.17999999999999999
aF0.17999999999999999
ag4
asS'1qh1'
p906
(lp907
g906
aF0.158
aF0.14999999999999999
aF0.14999999999999999
ag4
asS'2v0o'
p908
(lp909
g908
aF0.27800000000000002
aF0.27800000000000002
aF0.27800000000000002
ag4
asS'1hia'
p910
(lp911
g910
aF0.20499999999999999
aF0.17899999999999999
aF0.17899999999999999
ag4
asS'2j2f'
p912
(lp913
g912
aF0.23999999999999999
aF0.318
aF0.318
ag4
asS'2i99'
p914
(lp915
g914
aF0.21299999999999999
aF0.20300000000000001
aF0.20300000000000001
ag4
asS'1juj'
p916
(lp917
g916
aF0.26800000000000002
aF0.26700000000000002
aF0.26700000000000002
ag4
asS'1up8'
p918
(lp919
g918
aF0.16800000000000001
aF0.17199999999999999
aF0.17199999999999999
ag4
asS'2j2j'
p920
(lp921
g920
aF0.16500000000000001
aF0.17000000000000001
aF0.17000000000000001
ag4
asS'3ide'
p922
(lp923
g922
aF0.217
aF0.21199999999999999
aF0.21199999999999999
ag4
asS'4dfd'
p924
(lp925
g924
aF0.17999999999999999
aF0.189
aF0.189
ag4
asS'2x45'
p926
(lp927
g926
aF0.13
aF0.157
aF0.157
ag4
asS'1qhb'
p928
(lp929
g928
aF0.17199999999999999
aF0.156
aF0.156
ag4
asS'4jvu'
p930
(lp931
g930
aF0.13800000000000001
aF0.14799999999999999
aF0.14799999999999999
ag4
asS'4jvw'
p932
(lp933
g932
aF0.19800000000000001
aF0.20100000000000001
aF0.20100000000000001
ag4
asS'1nec'
p934
(lp935
g934
aF0.17999999999999999
aF0.17100000000000001
aF0.17100000000000001
ag4
asS'2xcm'
p936
(lp937
g936
aF0.19800000000000001
aF0.193
aF0.193
ag4
asS'1upb'
p938
(lp939
g938
aF0.157
aF0.16900000000000001
aF0.16900000000000001
ag4
asS'1upc'
p940
(lp941
g940
aF0.17599999999999999
aF0.187
aF0.187
ag4
asS'1upa'
p942
(lp943
g942
aF0.157
aF0.16700000000000001
aF0.16700000000000001
ag4
asS'2v7g'
p944
(lp945
g944
aF0.156
aF0.182
aF0.182
ag4
asS'1hi9'
p946
(lp947
g946
aF0.23200000000000001
aF0.22800000000000001
aF0.22800000000000001
ag4
asS'1upt'
p948
(lp949
g948
aF0.221
aF0.22800000000000001
aF0.22800000000000001
ag4
asS'1hi0'
p950
(lp951
g950
aF0.214
aF0.20599999999999999
aF0.20599999999999999
ag4
asS'4iem'
p952
(lp953
g952
aF0.20799999999999999
aF0.21099999999999999
aF0.21099999999999999
ag4
asS'4acp'
p954
(lp955
g954
aF0.19500000000000001
aF0.19500000000000001
aF0.19500000000000001
ag4
asS'4acq'
p956
(lp957
g956
aF0.23799999999999999
aF0.26500000000000001
aF0.26500000000000001
ag4
asS'4acr'
p958
(lp959
g958
aF0.251
aF0.247
aF0.247
ag4
asS'4acs'
p960
(lp961
g960
aF0.26100000000000001
aF0.253
aF0.253
ag4
asS'2ch5'
p962
(lp963
g962
aF0.16700000000000001
aF0.19700000000000001
aF0.19700000000000001
ag4
asS'2ch6'
p964
(lp965
g964
aF0.22700000000000001
aF0.26000000000000001
aF0.26000000000000001
ag4
asS'1r2j'
p966
(lp967
g966
aF0.247
aF0.434
aF0.24099999999999999
ag4
asS'4acf'
p968
(lp969
g968
aF0.16500000000000001
aF0.16800000000000001
aF0.16800000000000001
ag4
asS'3ode'
p970
(lp971
g970
aF0.19900000000000001
aF0.19700000000000001
aF0.19700000000000001
ag4
asS'4b98'
p972
(lp973
g972
aF0.22
aF0.21199999999999999
aF0.21199999999999999
ag4
asS'3oda'
p974
(lp975
g974
aF0.19600000000000001
aF0.188
aF0.188
ag4
asS'4ac8'
p976
(lp977
g976
aF0.22
aF0.224
aF0.224
ag4
asS'2chb'
p978
(lp979
g978
aF0.17100000000000001
aF0.22500000000000001
aF0.22500000000000001
ag4
asS'2g34'
p980
(lp981
g980
aF0.36499999999999999
aF0.55100000000000005
aF0.34300000000000003
ag4
asS'2chp'
p982
(lp983
g982
aF0.155
aF0.16700000000000001
aF0.16700000000000001
ag4
asS'2vsk'
p984
(lp985
g984
aF0.29999999999999999
aF0.28699999999999998
aF0.28699999999999998
ag4
asS'2g33'
p986
(lp987
g986
aF0.35999999999999999
aF0.56299999999999994
aF0.33300000000000002
ag4
asS'2y9x'
p988
(lp989
g988
aF0.23499999999999999
aF0.23799999999999999
aF0.23799999999999999
ag4
asS'3uv3'
p990
(lp991
g990
aF0.16700000000000001
aF0.16
aF0.16
ag4
asS'1nsk'
p992
(lp993
g992
aF0.249
aF0.23000000000000001
aF0.23000000000000001
ag4
asS'3uv6'
p994
(lp995
g994
aF0.14199999999999999
aF0.14000000000000001
aF0.14000000000000001
ag4
asS'3uv7'
p996
(lp997
g996
aF0.16
aF0.154
aF0.154
ag4
asS'1qfl'
p998
(lp999
g998
aF0.20899999999999999
aF0.255
aF0.255
ag4
asS'1qfo'
p1000
(lp1001
g1000
aF0.20000000000000001
aF0.19900000000000001
aF0.19900000000000001
ag4
asS'3unh'
p1002
(lp1003
g1002
aF0.23899999999999999
aF0.24099999999999999
aF0.24099999999999999
ag4
asS'1qfj'
p1004
(lp1005
g1004
aF0.23899999999999999
aF0.215
aF0.215
ag4
asS'2y9w'
p1006
(lp1007
g1006
aF0.18099999999999999
aF0.18099999999999999
aF0.18099999999999999
ag4
asS'2y9a'
p1008
(lp1009
g1008
aF0.27700000000000002
aF0.46700000000000003
aF0.46700000000000003
ag4
asS'2y9b'
p1010
(lp1011
g1010
aF0.27700000000000002
aF0.46100000000000002
aF0.46100000000000002
ag4
asS'2y9c'
p1012
(lp1013
g1012
aF0.27700000000000002
aF0.46200000000000002
aF0.46200000000000002
ag4
asS'2y9d'
p1014
(lp1015
g1014
aF0.27700000000000002
aF0.46600000000000003
aF0.46600000000000003
ag4
asS'1vcp'
p1016
(lp1017
g1016
aF0.157
aF0.16700000000000001
aF0.16700000000000001
ag4
asS'2gtl'
p1018
(lp1019
g1018
aF0.28799999999999998
aF0.52100000000000002
aF0.315
ag4
asS'4aqp'
p1020
(lp1021
g1020
aF0.217
aF0.21199999999999999
aF0.21199999999999999
ag4
asS'4aqq'
p1022
(lp1023
g1022
aF0.29099999999999998
aF0.53300000000000003
aF0.27500000000000002
ag4
asS'4aqf'
p1024
(lp1025
g1024
aF0.17000000000000001
aF0.17899999999999999
aF0.17899999999999999
ag4
asS'4iss'
p1026
(lp1027
g1026
aF0.17599999999999999
aF0.17999999999999999
aF0.17999999999999999
ag4
asS'4ist'
p1028
(lp1029
g1028
aF0.184
aF0.185
aF0.185
ag4
asS'3une'
p1030
(lp1031
g1030
aF0.22
aF0.222
aF0.222
ag4
asS'2ve7'
p1032
(lp1033
g1032
aF0.23200000000000001
aF0.24099999999999999
aF0.24099999999999999
ag4
asS'2scu'
p1034
(lp1035
g1034
aF0.189
aF0.189
aF0.189
aS'NO R-work information in pdb file!!!'
p1036
asS'2br7'
p1037
(lp1038
g1037
aF0.17399999999999999
aF0.20699999999999999
aF0.20699999999999999
ag4
asS'4aq3'
p1039
(lp1040
g1039
aF0.20100000000000001
aF0.19600000000000001
aF0.19600000000000001
ag4
asS'4gka'
p1041
(lp1042
g1041
aF0.188
aF0.19600000000000001
aF0.19600000000000001
ag4
asS'2vee'
p1043
(lp1044
g1043
aF0.20499999999999999
aF0.217
aF0.217
ag4
asS'2wuk'
p1045
(lp1046
g1045
aF0.159
aF0.16300000000000001
aF0.16300000000000001
ag4
asS'3v5i'
p1047
(lp1048
g1047
aF0.216
aF0.221
aF0.221
ag4
asS'3tn9'
p1049
(lp1050
g1049
aF0.26500000000000001
aF0.52700000000000002
aF0.25800000000000001
ag4
asS'4bqb'
p1051
(lp1052
g1051
aF0.20000000000000001
aF0.21299999999999999
aF0.21299999999999999
ag4
asS'3v5e'
p1053
(lp1054
g1053
aF0.20100000000000001
aF0.22700000000000001
aF0.22700000000000001
ag4
asS'3n7x'
p1055
(lp1056
g1055
aF0.27800000000000002
aF0.54000000000000004
aF0.54300000000000004
ag4
asS'1b2u'
p1057
(lp1058
g1057
aF0.214
aF0.19
aF0.19
ag4
asS'1a38'
p1059
(lp1060
g1059
aF0.33000000000000002
aF0.44
aF0.44
ag4
asS'1b2s'
p1061
(lp1062
g1061
aF0.19400000000000001
aF0.17899999999999999
aF0.17899999999999999
ag4
asS'4bqs'
p1063
(lp1064
g1063
aF0.17199999999999999
aF0.17999999999999999
aF0.17999999999999999
ag4
asS'1a37'
p1065
(lp1066
g1065
aF0.32000000000000001
aF0.46100000000000002
aF0.33000000000000002
ag4
asS'1b2z'
p1067
(lp1068
g1067
aF0.17000000000000001
aF0.159
aF0.159
ag4
asS'1a34'
p1069
(lp1070
g1069
aF0.17899999999999999
aF0.53400000000000003
aF0.17499999999999999
ag4
asS'2bh1'
p1071
(lp1072
g1071
aF0.191
aF0.253
aF0.253
ag4
asS'4eoy'
p1073
(lp1074
g1073
aF0.20499999999999999
aF0.20899999999999999
aF0.20899999999999999
ag4
asS'1h28'
p1075
(lp1076
g1075
aF0.24299999999999999
aF0.23999999999999999
aF0.23999999999999999
ag4
asS'4bc9'
p1077
(lp1078
g1077
aF0.186
aF0.188
aF0.188
ag4
asS'1ml1'
p1079
(lp1080
g1079
aF0.23100000000000001
aF0.217
aF0.217
ag4
asS'1h25'
p1081
(lp1082
g1081
aF0.249
aF0.29599999999999999
aF0.29599999999999999
ag4
asS'1h27'
p1083
(lp1084
g1083
aF0.22700000000000001
aF0.223
aF0.223
ag4
asS'1h26'
p1085
(lp1086
g1085
aF0.216
aF0.23200000000000001
aF0.23200000000000001
ag4
asS'1h21'
p1087
(lp1088
g1087
aF0.19900000000000001
aF0.193
aF0.193
ag4
asS'1a3a'
p1089
(lp1090
g1089
aF0.19
aF0.185
aF0.185
ag4
asS'1a3f'
p1091
(lp1092
g1091
aF0.20999999999999999
aF0.255
aF0.255
ag4
asS'1b27'
p1093
(lp1094
g1093
aF0.19500000000000001
aF0.189
aF0.189
ag4
asS'1b26'
p1095
(lp1096
g1095
aF0.22500000000000001
aF0.23000000000000001
aF0.23000000000000001
aS'OK'
p1097
asS'4bq7'
p1098
(lp1099
g1098
aF0.254
aF0.251
aF0.251
ag4
asS'4bq6'
p1100
(lp1101
g1100
aF0.218
aF0.221
aF0.221
ag4
asS'4bq0'
p1102
(lp1103
g1102
aF0.216
aF0.21299999999999999
aF0.21299999999999999
ag4
asS'1b21'
p1104
(lp1105
g1104
aF0.188
aF0.17899999999999999
aF0.17899999999999999
ag4
asS'1b20'
p1106
(lp1107
g1106
aF0.16600000000000001
aF0.14999999999999999
aF0.14999999999999999
ag4
asS'1umy'
p1108
(lp1109
g1108
aF0.253
aF0.26400000000000001
aF0.26400000000000001
ag4
asS'2r1r'
p1110
(lp1111
g1110
aF0.23799999999999999
aF0.249
aF0.249
ag4
asS'3uul'
p1112
(lp1113
g1112
aF0.19800000000000001
aF0.21099999999999999
aF0.21099999999999999
ag4
asS'1ohv'
p1114
(lp1115
g1114
aF0.188
aF0.19700000000000001
aF0.19700000000000001
ag4
asS'1ohw'
p1116
(lp1117
g1116
aF0.188
aF0.21199999999999999
aF0.21199999999999999
ag4
asS'1ump'
p1118
(lp1119
g1118
aF0.186
aF0.193
aF0.193
ag4
asS'4bce'
p1120
(lp1121
g1120
aF0.156
aF0.17599999999999999
aF0.17599999999999999
ag4
asS'2bhs'
p1122
(lp1123
g1122
aF0.222
aF0.22
aF0.22
ag4
asS'2hrp'
p1124
(lp1125
g1124
aF0.19800000000000001
aF0.214
aF0.214
ag4
asS'2wiw'
p1126
(lp1127
g1126
aF0.17199999999999999
aF0.17699999999999999
aF0.17699999999999999
ag4
asS'2bhw'
p1128
(lp1129
g1128
aF0.22
aF0.22
aF0.22
aS'NO R-work information in pdb file!!!'
p1130
asS'1ohf'
p1131
(lp1132
g1131
aF0.219
aF0.48299999999999998
aF0.214
ag4
asS'1umn'
p1133
(lp1134
g1133
aF0.185
aF0.17999999999999999
aF0.17999999999999999
ag4
asS'4bcu'
p1135
(lp1136
g1135
aF0.155
aF0.51900000000000002
aF0.20000000000000001
ag4
asS'2pbw'
p1137
(lp1138
g1137
aF0.20899999999999999
aF0.20599999999999999
aF0.20599999999999999
ag4
asS'3kk6'
p1139
(lp1140
g1139
aF0.20699999999999999
aF0.312
aF0.312
ag4
asS'1nds'
p1141
(lp1142
g1141
aF0.23599999999999999
aF0.497
aF0.497
ag4
asS'1ndr'
p1143
(lp1144
g1143
aF0.20300000000000001
aF0.433
aF0.433
ag4
asS'1ndo'
p1145
(lp1146
g1145
aF0.19
aF0.183
aF0.183
ag4
asS'1zba'
p1147
(lp1148
g1147
aF0.183
aF0.51300000000000001
aF0.17699999999999999
ag4
asS'1qip'
p1149
(lp1150
g1149
aF0.17999999999999999
aF0.16800000000000001
aF0.16800000000000001
ag4
asS'3fct'
p1151
(lp1152
g1151
aF0.20599999999999999
aF0.22600000000000001
aF0.22600000000000001
ag4
asS'2w2u'
p1153
(lp1154
g1153
aF0.22500000000000001
aF0.224
aF0.224
ag4
asS'2xrf'
p1155
(lp1156
g1155
aF0.16800000000000001
aF0.16400000000000001
aF0.16400000000000001
ag4
asS'2zzq'
p1157
(lp1158
g1157
aF0.24199999999999999
aF0.53500000000000003
aF0.26800000000000002
ag4
asS'1lp3'
p1159
(lp1160
g1159
aF0.33800000000000002
aF0.47299999999999998
aF0.32900000000000001
ag4
asS'2w2c'
p1161
(lp1162
g1161
aF0.21099999999999999
aF0.25800000000000001
aF0.25800000000000001
ag4
asS'1gzm'
p1163
(lp1164
g1163
aF0.20200000000000001
aF0.187
aF0.187
ag4
asS'3gqx'
p1165
(lp1166
g1165
aF0.252
aF0.34000000000000002
aF0.34000000000000002
ag4
asS'3znu'
p1167
(lp1168
g1167
aF0.157
aF0.154
aF0.154
ag4
asS'2dbv'
p1169
(lp1170
g1169
aF0.19500000000000001
aF0.19600000000000001
aF0.19600000000000001
ag4
asS'3p0s'
p1171
(lp1172
g1171
aF0.20899999999999999
aF0.56000000000000005
aF0.56299999999999994
ag4
asS'4a99'
p1173
(lp1174
g1173
aF0.185
aF0.185
aF0.185
ag4
asS'2vtb'
p1175
(lp1176
g1175
aF0.184
aF0.22
aF0.22
ag4
asS'1qgn'
p1177
(lp1178
g1177
aF0.20100000000000001
aF0.246
aF0.246
ag4
asS'3ky9'
p1179
(lp1180
g1179
aF0.223
aF0.22
aF0.22
ag4
asS'1qgu'
p1181
(lp1182
g1181
aF0.156
aF0.14999999999999999
aF0.14999999999999999
ag4
asS'3dap'
p1183
(lp1184
g1183
aF0.17499999999999999
aF0.20699999999999999
aF0.20699999999999999
ag4
asS'1ftr'
p1185
(lp1186
g1185
aF0.19800000000000001
aF0.183
aF0.183
ag4
asS'5cro'
p1187
(lp1188
g1187
aF0.20799999999999999
aF0.20799999999999999
aF0.20799999999999999
aS'NO R-work information in pdb file!!!'
p1189
asS'2e0z'
p1190
(lp1191
g1190
aF0.26800000000000002
aF0.55300000000000005
aF0.216
ag4
asS'2cdy'
p1192
(lp1193
g1192
aF0.17299999999999999
aF0.18099999999999999
aF0.18099999999999999
ag4
asS'2x5i'
p1194
(lp1195
g1194
aF0.28799999999999998
aF0.53400000000000003
aF0.28199999999999997
ag4
asS'2x5k'
p1196
(lp1197
g1196
aF0.16400000000000001
aF0.17499999999999999
aF0.17499999999999999
ag4
asS'2x5j'
p1198
(lp1199
g1198
aF0.20599999999999999
aF0.19800000000000001
aF0.19800000000000001
ag4
asS'4a9w'
p1200
(lp1201
g1200
aF0.182
aF0.19400000000000001
aF0.19400000000000001
ag4
asS'5hmg'
p1202
(lp1203
g1202
aF0.22
aF0.20799999999999999
aF0.20799999999999999
aS'OK'
p1204
asS'2xd0'
p1205
(lp1206
g1205
aF0.214
aF0.21299999999999999
aF0.21299999999999999
ag4
asS'2j3z'
p1207
(lp1208
g1207
aF0.20000000000000001
aF0.20499999999999999
aF0.20499999999999999
ag4
asS'2y85'
p1209
(lp1210
g1209
aF0.21299999999999999
aF0.222
aF0.222
ag4
asS'2y84'
p1211
(lp1212
g1211
aF0.218
aF0.20999999999999999
aF0.20999999999999999
ag4
asS'2ztn'
p1213
(lp1214
g1213
aF0.30499999999999999
aF0.57699999999999996
aF0.30299999999999999
ag4
asS'1hht'
p1215
(lp1216
g1215
aF0.23699999999999999
aF0.224
aF0.224
ag4
asS'1hhs'
p1217
(lp1218
g1217
aF0.221
aF0.215
aF0.215
ag4
asS'2uzy'
p1219
(lp1220
g1219
aF0.251
aF0.26100000000000001
aF0.26100000000000001
ag4
asS'2uzx'
p1221
(lp1222
g1221
aF0.26800000000000002
aF0.27900000000000003
aF0.27900000000000003
ag4
asS'2uzz'
p1223
(lp1224
g1223
aF0.23599999999999999
aF0.23000000000000001
aF0.23000000000000001
ag4
asS'1bz5'
p1225
(lp1226
g1225
aF0.19
aF0.20000000000000001
aF0.20000000000000001
ag4
asS'4ab7'
p1227
(lp1228
g1227
aF0.193
aF0.19400000000000001
aF0.19400000000000001
ag4
asS'2uzp'
p1229
(lp1230
g1229
aF0.17100000000000001
aF0.218
aF0.218
ag4
asS'1bz1'
p1231
(lp1232
g1231
aF0.158
aF0.158
aF0.158
aS'NO R-work information in pdb file!!!'
p1233
asS'1bz0'
p1234
(lp1235
g1234
aF0.159
aF0.159
aF0.159
aS'NO R-work information in pdb file!!!'
p1236
asS'2uzh'
p1237
(lp1238
g1237
aF0.16300000000000001
aF0.16700000000000001
aF0.16700000000000001
ag4
asS'2uzc'
p1239
(lp1240
g1239
aF0.16300000000000001
aF0.189
aF0.189
ag4
asS'2vfg'
p1241
(lp1242
g1241
aF0.20799999999999999
aF0.20699999999999999
aF0.20699999999999999
ag4
asS'4a72'
p1243
(lp1244
g1243
aF0.17299999999999999
aF0.16900000000000001
aF0.16900000000000001
ag4
asS'1dla'
p1245
(lp1246
g1245
aF0.219
aF0.47999999999999998
aF0.47999999999999998
ag4
asS'1r1r'
p1247
(lp1248
g1247
aF0.20999999999999999
aF0.217
aF0.217
ag4
asS'4aby'
p1249
(lp1250
g1249
aF0.20899999999999999
aF0.20699999999999999
aF0.20699999999999999
ag4
asS'2yq5'
p1251
(lp1252
g1251
aF0.188
aF0.19400000000000001
aF0.19400000000000001
ag4
asS'1bzy'
p1253
(lp1254
g1253
aF0.19
aF0.19400000000000001
aF0.19400000000000001
ag4
asS'1bzw'
p1255
(lp1256
g1255
aF0.188
aF0.17100000000000001
aF0.17100000000000001
ag4
asS'1bzq'
p1257
(lp1258
g1257
aF0.222
aF0.191
aF0.191
ag4
asS'2vf7'
p1259
(lp1260
g1259
aF0.219
aF0.26000000000000001
aF0.26000000000000001
ag4
asS'2vf1'
p1261
(lp1262
g1261
aF0.27300000000000002
aF0.502
aF0.42499999999999999
ag4
asS'2vf9'
p1263
(lp1264
g1263
aF0.311
aF0.52100000000000002
aF0.41899999999999998
ag4
asS'3uwm'
p1265
(lp1266
g1265
aF0.185
aF0.183
aF0.183
ag4
asS'1a0t'
p1267
(lp1268
g1267
aF0.20699999999999999
aF0.29799999999999999
aF0.29799999999999999
ag4
asS'3tmk'
p1269
(lp1270
g1269
aF0.20899999999999999
aF0.20000000000000001
aF0.20000000000000001
ag4
asS'1a0d'
p1271
(lp1272
g1271
aF0.193
aF0.17299999999999999
aF0.17299999999999999
ag4
asS'1a0c'
p1273
(lp1274
g1273
aF0.16800000000000001
aF0.16600000000000001
aF0.16600000000000001
ag4
asS'1vb4'
p1275
(lp1276
g1275
aF0.255
aF0.53600000000000003
aF0.22700000000000001
ag4
asS'1a0o'
p1277
(lp1278
g1277
aF0.187
aF0.187
aF0.187
ag4
asS'1a0j'
p1279
(lp1280
g1279
aF0.17299999999999999
aF0.17699999999999999
aF0.17699999999999999
ag4
asS'2ji3'
p1281
(lp1282
g1281
aF0.217
aF0.20999999999999999
aF0.20999999999999999
ag4
asS'4ap0'
p1283
(lp1284
g1283
aF0.20300000000000001
aF0.28299999999999997
aF0.28299999999999997
ag4
asS'2ji1'
p1285
(lp1286
g1285
aF0.20399999999999999
aF0.193
aF0.193
ag4
asS'1oiu'
p1287
(lp1288
g1287
aF0.216
aF0.20200000000000001
aF0.20200000000000001
ag4
asS'4ap6'
p1289
(lp1290
g1289
aF0.192
aF0.188
aF0.188
ag4
asS'2bis'
p1291
(lp1292
g1291
aF0.20000000000000001
aF0.20399999999999999
aF0.20399999999999999
ag4
asS'1oiy'
p1293
(lp1294
g1293
aF0.24399999999999999
aF0.223
aF0.223
ag4
asS'2biw'
p1295
(lp1296
g1295
aF0.17999999999999999
aF0.22700000000000001
aF0.22700000000000001
ag4
asS'1oij'
p1297
(lp1298
g1297
aF0.191
aF0.193
aF0.193
ag4
asS'1oii'
p1299
(lp1300
g1299
aF0.19500000000000001
aF0.193
aF0.193
ag4
asS'1oih'
p1301
(lp1302
g1301
aF0.17000000000000001
aF0.182
aF0.182
ag4
asS'2wh0'
p1303
(lp1304
g1303
aF0.18099999999999999
aF0.28199999999999997
aF0.28199999999999997
ag4
asS'2xaa'
p1305
(lp1306
g1305
aF0.188
aF0.19
aF0.19
ag4
asS'1trr'
p1307
(lp1308
g1307
aF0.24099999999999999
aF0.40500000000000003
aF0.40500000000000003
ag4
asS'4apt'
p1309
(lp1310
g1309
aF0.23599999999999999
aF0.23699999999999999
aF0.23699999999999999
ag4
asS'2hmg'
p1311
(lp1312
g1311
aF0.222
aF0.20699999999999999
aF0.20699999999999999
aS'OK'
p1313
asS'1oi9'
p1314
(lp1315
g1314
aF0.23300000000000001
aF0.22900000000000001
aF0.22900000000000001
ag4
asS'4apz'
p1316
(lp1317
g1316
aF0.16900000000000001
aF0.17100000000000001
aF0.17100000000000001
ag4
asS'4apa'
p1318
(lp1319
g1318
aF0.16500000000000001
aF0.16600000000000001
aF0.16600000000000001
ag4
asS'4apb'
p1320
(lp1321
g1320
aF0.14699999999999999
aF0.151
aF0.151
ag4
asS'2jif'
p1322
(lp1323
g1322
aF0.184
aF0.221
aF0.221
ag4
asS'2yc4'
p1324
(lp1325
g1324
aF0.22500000000000001
aF0.23200000000000001
aF0.23200000000000001
ag4
asS'2wzr'
p1326
(lp1327
g1326
aF0.23000000000000001
aF0.49299999999999999
aF0.39800000000000002
ag4
asS'2yc1'
p1328
(lp1329
g1328
aF0.186
aF0.183
aF0.183
ag4
asS'1am7'
p1330
(lp1331
g1330
aF0.16300000000000001
aF0.16200000000000001
aF0.16200000000000001
aS'OK'
p1332
asS'3mdj'
p1333
(lp1334
g1333
aF0.19900000000000001
aF0.19500000000000001
aF0.19500000000000001
ag4
asS'2xsc'
p1335
(lp1336
g1335
aF0.14199999999999999
aF0.152
aF0.152
ag4
asS'4bv2'
p1337
(lp1338
g1337
aF0.245
aF0.24099999999999999
aF0.24099999999999999
ag4
asS'2w1a'
p1339
(lp1340
g1339
aF0.191
aF0.20799999999999999
aF0.20799999999999999
ag4
asS'2xsz'
p1341
(lp1342
g1341
aF0.17799999999999999
aF0.19800000000000001
aF0.19800000000000001
ag4
asS'1rh2'
p1343
(lp1344
g1343
aF0.22700000000000001
aF0.47599999999999998
aF0.47599999999999998
ag4
asS'2ym9'
p1345
(lp1346
g1345
aF0.22900000000000001
aF0.22500000000000001
aF0.22500000000000001
ag4
asS'1laj'
p1347
(lp1348
g1347
aF0.218
aF0.48299999999999998
aF0.214
ag4
asS'1rhg'
p1349
(lp1350
g1349
aF0.215
aF0.29199999999999998
aF0.29199999999999998
ag4
asS'3v4h'
p1351
(lp1352
g1351
aF0.216
aF0.219
aF0.219
ag4
asS'4bvh'
p1353
(lp1354
g1353
aF0.17199999999999999
aF0.17199999999999999
aF0.17199999999999999
ag4
asS'2ymm'
p1355
(lp1356
g1355
aF0.16300000000000001
aF0.16
aF0.16
ag4
asS'2w19'
p1357
(lp1358
g1357
aF0.17799999999999999
aF0.22900000000000001
aF0.22900000000000001
ag4
asS'1rhq'
p1359
(lp1360
g1359
aF0.27300000000000002
aF0.27400000000000002
aF0.27400000000000002
ag4
asS'4a8j'
p1361
(lp1362
g1361
aF0.20100000000000001
aF0.19900000000000001
aF0.19900000000000001
ag4
asS'4a8p'
p1363
(lp1364
g1363
aF0.19600000000000001
aF0.20599999999999999
aF0.20599999999999999
ag4
asS'4lxf'
p1365
(lp1366
g1365
aF0.21299999999999999
aF0.218
aF0.218
ag4
asS'1w3z'
p1367
(lp1368
g1367
aF0.248
aF0.248
aF0.248
aS'NO R-work information in pdb file!!!'
p1369
asS'1hkn'
p1370
(lp1371
g1370
aF0.22800000000000001
aF0.221
aF0.221
ag4
asS'4ivc'
p1372
(lp1373
g1372
aF0.19700000000000001
aF0.191
aF0.191
ag4
asS'1h31'
p1374
(lp1375
g1374
aF0.20999999999999999
aF0.20399999999999999
aF0.20399999999999999
ag4
asS'4lfg'
p1376
(lp1377
g1376
aF0.153
aF0.16500000000000001
aF0.16500000000000001
ag4
asS'4lfe'
p1378
(lp1379
g1378
aF0.20699999999999999
aF0.21099999999999999
aF0.21099999999999999
ag4
asS'2ya7'
p1380
(lp1381
g1380
aF0.20799999999999999
aF0.20200000000000001
aF0.20200000000000001
ag4
asS'4lfy'
p1382
(lp1383
g1382
aF0.157
aF0.16700000000000001
aF0.16700000000000001
ag4
asS'1uvh'
p1384
(lp1385
g1384
aF0.26000000000000001
aF0.26600000000000001
aF0.26600000000000001
ag4
asS'1uvi'
p1386
(lp1387
g1386
aF0.23000000000000001
aF0.217
aF0.217
ag4
asS'1uvj'
p1388
(lp1389
g1388
aF0.24199999999999999
aF0.22900000000000001
aF0.22900000000000001
ag4
asS'1uvk'
p1390
(lp1391
g1390
aF0.24299999999999999
aF0.22800000000000001
aF0.22800000000000001
ag4
asS'1uvl'
p1392
(lp1393
g1392
aF0.28100000000000003
aF0.26300000000000001
aF0.26300000000000001
ag4
asS'1uvm'
p1394
(lp1395
g1394
aF0.24099999999999999
aF0.22500000000000001
aF0.22500000000000001
ag4
asS'1w33'
p1396
(lp1397
g1396
aF0.22900000000000001
aF0.22900000000000001
aF0.22900000000000001
aS'NO R-work information in pdb file!!!'
p1398
asS'3ukl'
p1399
(lp1400
g1399
aF0.185
aF0.18099999999999999
aF0.18099999999999999
aS' F(+),SIGF(+),F(-),SIGF(-) :: '
p1401
asS'1uvz'
p1402
(lp1403
g1402
aF0.20000000000000001
aF0.254
aF0.254
ag4
asS'1hk9'
p1404
(lp1405
g1404
aF0.20799999999999999
aF0.20300000000000001
aF0.20300000000000001
ag4
asS'3fbm'
p1406
(lp1407
g1406
aF0.29399999999999998
aF0.54600000000000004
aF0.27500000000000002
ag4
asS'4jt0'
p1408
(lp1409
g1408
aF0.216
aF0.222
aF0.222
ag4
asS'3fbn'
p1410
(lp1411
g1410
aF0.17799999999999999
aF0.17999999999999999
aF0.17999999999999999
ag4
asS'5msf'
p1412
(lp1413
g1412
aF0.188
aF0.53000000000000003
aF0.186
ag4
asS'2cf7'
p1414
(lp1415
g1414
aF0.153
aF0.154
aF0.154
ag4
asS'3hhn'
p1416
(lp1417
g1416
aF0.20200000000000001
aF0.20000000000000001
aF0.20000000000000001
ag4
asS'4a6g'
p1418
(lp1419
g1418
aF0.155
aF0.16800000000000001
aF0.16800000000000001
ag4
asS'4a6n'
p1420
(lp1421
g1420
aF0.218
aF0.216
aF0.216
ag4
asS'4e08'
p1422
(lp1423
g1422
aF0.193
aF0.193
aF0.193
ag4
asS'4a6t'
p1424
(lp1425
g1424
aF0.16500000000000001
aF0.16700000000000001
aF0.16700000000000001
ag4
asS'2x8j'
p1426
(lp1427
g1426
aF0.187
aF0.19
aF0.19
ag4
asS'2otc'
p1428
(lp1429
g1428
aF0.21299999999999999
aF0.193
aF0.193
ag4
asS'2ipg'
p1430
(lp1431
g1430
aF0.182
aF0.17599999999999999
aF0.17599999999999999
ag4
asS'2ipf'
p1432
(lp1433
g1432
aF0.17100000000000001
aF0.16500000000000001
aF0.16500000000000001
ag4
asS'2ipj'
p1434
(lp1435
g1434
aF0.20399999999999999
aF0.19800000000000001
aF0.19800000000000001
ag4
asS'2vun'
p1436
(lp1437
g1436
aF0.17599999999999999
aF0.17399999999999999
aF0.17399999999999999
ag4
asS'2cfy'
p1438
(lp1439
g1438
aF0.20300000000000001
aF0.224
aF0.224
ag4
asS'2bnz'
p1440
(lp1441
g1440
aF0.22500000000000001
aF0.23699999999999999
aF0.23699999999999999
ag4
asS'1shs'
p1442
(lp1443
g1442
aF0.216
aF0.22
aF0.22
ag4
asS'1egz'
p1444
(lp1445
g1444
aF0.17899999999999999
aF0.17499999999999999
aF0.17499999999999999
ag4
asS'4djz'
p1446
(lp1447
g1446
aF0.22800000000000001
aF0.215
aF0.215
ag4
asS'1vak'
p1448
(lp1449
g1448
aF0.21099999999999999
aF0.55200000000000005
aF0.20599999999999999
ag4
asS'4ihc'
p1450
(lp1451
g1450
aF0.17299999999999999
aF0.182
aF0.182
ag4
asS'2gd1'
p1452
(lp1453
g1452
aF0.16700000000000001
aF0.16700000000000001
aF0.16700000000000001
aS'NO R-work information in pdb file!!!'
p1454
asS'2jjx'
p1455
(lp1456
g1455
aF0.20000000000000001
aF0.22500000000000001
aF0.22500000000000001
ag4
asS'2jjy'
p1457
(lp1458
g1457
aF0.20200000000000001
aF0.214
aF0.214
ag4
asS'4aa7'
p1459
(lp1460
g1459
aF0.17699999999999999
aF0.17599999999999999
aF0.17599999999999999
ag4
asS'2jjm'
p1461
(lp1462
g1461
aF0.254
aF0.26100000000000001
aF0.26100000000000001
ag4
asS'2jjd'
p1463
(lp1464
g1463
aF0.221
aF0.23899999999999999
aF0.23899999999999999
ag4
asS'2yps'
p1465
(lp1466
g1465
aF0.21099999999999999
aF0.20999999999999999
aF0.20999999999999999
ag4
asS'2ypq'
p1467
(lp1468
g1467
aF0.17699999999999999
aF0.20100000000000001
aF0.20100000000000001
ag4
asS'2ypt'
p1469
(lp1470
g1469
aF0.26300000000000001
aF0.27100000000000002
aF0.27100000000000002
ag4
asS'4iv3'
p1471
(lp1472
g1471
aF0.23499999999999999
aF0.503
aF0.23499999999999999
ag4
asS'4iv1'
p1473
(lp1474
g1473
aF0.19
aF0.51600000000000001
aF0.187
ag4
asS'4gmp'
p1475
(lp1476
g1475
aF0.26900000000000002
aF0.54600000000000004
aF0.35699999999999998
ag4
asS'3f79'
p1477
(lp1478
g1477
aF0.24299999999999999
aF0.34799999999999998
aF0.34799999999999998
ag4
asS'2jj4'
p1479
(lp1480
g1479
aF0.23300000000000001
aF0.26400000000000001
aF0.26400000000000001
ag4
asS'4gme'
p1481
(lp1482
g1481
aF0.156
aF0.27600000000000002
aF0.27600000000000002
aS'OK'
p1483
asS'1g31'
p1484
(lp1485
g1484
aF0.22500000000000001
aF0.28000000000000003
aF0.28000000000000003
aS'OK'
p1486
asS'2wy3'
p1487
(lp1488
g1487
aF0.17699999999999999
aF0.17000000000000001
aF0.17000000000000001
aS'OK'
p1489
asS'2wy6'
p1490
(lp1491
g1490
aF0.219
aF0.216
aF0.216
aS'OK'
p1492
asS'4iq1'
p1493
(lp1494
g1493
aF0.17399999999999999
aF0.17199999999999999
aF0.17199999999999999
aS'OK'
p1495
asS'2bty'
p1496
(lp1497
g1496
aF0.24199999999999999
aF0.23400000000000001
aF0.23400000000000001
aS'OK'
p1498
asS'1ods'
p1499
(lp1500
g1499
aF0.152
aF0.19700000000000001
aF0.19700000000000001
aS' FC,PHIFC :: FOM,PHIM :: '
p1501
asS'1b0c'
p1502
(lp1503
g1502
aF0.19800000000000001
aF0.19900000000000001
aF0.19900000000000001
aS'OK'
p1504
asS'2bj4'
p1505
(lp1506
g1505
aF0.187
aF0.224
aF0.224
aS' FC,PHIFC :: '
p1507
asS'2bj0'
p1508
(lp1509
g1508
aF0.20999999999999999
aF0.20699999999999999
aF0.20699999999999999
aS'OK'
p1510
asS'1mpr'
p1511
(lp1512
g1511
aF0.183
aF0.17499999999999999
aF0.17499999999999999
aS'OK'
p1513
asS'1oj7'
p1514
(lp1515
g1514
aF0.14499999999999999
aF0.17499999999999999
aF0.17499999999999999
aS' FC,PHIFC :: '
p1516
asS'1mpq'
p1517
(lp1518
g1517
aF0.218
aF0.20899999999999999
aF0.20899999999999999
aS'OK'
p1519
asS'1h48'
p1520
(lp1521
g1520
aF0.20200000000000001
aF0.20000000000000001
aF0.20000000000000001
aS'OK'
p1522
asS'1mpn'
p1523
(lp1524
g1523
aF0.218
aF0.21099999999999999
aF0.21099999999999999
aS'OK'
p1525
asS'1mpo'
p1526
(lp1527
g1526
aF0.23000000000000001
aF0.218
aF0.218
aS'OK'
p1528
asS'1mpm'
p1529
(lp1530
g1529
aF0.22600000000000001
aF0.21099999999999999
aF0.21099999999999999
aS'OK'
p1531
asS'1h47'
p1532
(lp1533
g1532
aF0.214
aF0.20499999999999999
aF0.20499999999999999
aS'OK'
p1534
asS'4ich'
p1535
(lp1536
g1535
aF0.19900000000000001
aF0.20599999999999999
aF0.20599999999999999
aS' FC,PHIFC :: FOM :: '
p1537
asS'2woc'
p1538
(lp1539
g1538
aF0.17399999999999999
aF0.20200000000000001
aF0.20200000000000001
aS' DANO,SIGDANO :: F(+),SIGF(+),F(-),SIGF(-) :: I(+),SIGI(+),I(-),SIGI(-) :: '
p1540
asS'2woe'
p1541
(lp1542
g1541
aF0.16700000000000001
aF0.20499999999999999
aF0.20499999999999999
aS'Warning: merging non-unique data :: DANO,SIGDANO :: F(+),SIGF(+),F(-),SIGF(-) :: I(+),SIGI(+),I(-),SIGI(-) :: '
p1543
asS'2woi'
p1544
(lp1545
g1544
aF0.16
aF0.159
aF0.159
aS'OK'
p1546
asS'3e8k'
p1547
(lp1548
g1547
aF0.36499999999999999
aF0.42399999999999999
aF0.311
aS' PHIC :: '
p1549
asS'2bjh'
p1550
(lp1551
g1550
aF0.216
aF0.224
aF0.224
ag4
asS'4bw5'
p1552
(lp1553
g1552
aF0.23699999999999999
aF0.251
aF0.251
ag4
asS'2bjy'
p1554
(lp1555
g1554
aF0.20699999999999999
aF0.20499999999999999
aF0.20499999999999999
ag4
asS'1h4o'
p1556
(lp1557
g1556
aF0.16500000000000001
aF0.218
aF0.218
aS' FC,PHIFC :: '
p1558
asS'1ojx'
p1559
(lp1560
g1559
aF0.14899999999999999
aF0.191
aF0.191
aS' FC,PHIFC :: '
p1561
asS'1ojy'
p1562
(lp1563
g1562
aF0.251
aF0.251
aF0.251
aS'NO R-work information in pdb file!!!'
p1564
asS'1ojl'
p1565
(lp1566
g1565
aF0.252
aF0.29699999999999999
aF0.29699999999999999
aS'OK'
p1567
asS'4bab'
p1568
(lp1569
g1568
aF0.214
aF0.20499999999999999
aF0.20499999999999999
aS' FC,PHIFC :: FOM :: '
p1570
asS'1ojd'
p1571
(lp1572
g1571
aF0.252
aF0.24099999999999999
aF0.24099999999999999
aS'OK'
p1573
asS'2ybr'
p1574
(lp1575
g1574
aF0.192
aF0.183
aF0.183
ag4
asS'1e9i'
p1576
(lp1577
g1576
aF0.22900000000000001
aF0.22500000000000001
aF0.22500000000000001
aS'OK'
p1578
asS'1h4t'
p1579
(lp1580
g1579
aF0.20000000000000001
aF0.188
aF0.188
aS'OK'
p1581
asS'1fdu'
p1582
(lp1583
g1582
aF0.22
aF0.20699999999999999
aF0.20699999999999999
aS'OK'
p1584
asS'1fdv'
p1585
(lp1586
g1585
aF0.219
aF0.222
aF0.222
aS'OK'
p1587
asS'1gt8'
p1588
(lp1589
g1588
aF0.214
aF0.186
aF0.186
aS'OK'
p1590
asS'1fdp'
p1591
(lp1592
g1591
aF0.20399999999999999
aF0.19600000000000001
aF0.19600000000000001
ag4
asS'1gt7'
p1593
(lp1594
g1593
aF0.23300000000000001
aF0.224
aF0.224
aS'OK'
p1595
asS'2w01'
p1596
(lp1597
g1596
aF0.19400000000000001
aF0.22700000000000001
aF0.22700000000000001
aS' FC,PHIFC :: '
p1598
asS'4fet'
p1599
(lp1600
g1599
aF0.20300000000000001
aF0.20300000000000001
aF0.20300000000000001
aS' FC,PHIFC :: FOM :: '
p1601
asS'1qni'
p1602
(lp1603
g1602
aF0.22800000000000001
aF0.223
aF0.223
aS'OK'
p1604
asS'3me1'
p1605
(lp1606
g1605
aF0.32100000000000001
aF0.314
aF0.314
aS'OK'
p1607
asS'1uwi'
p1608
(lp1609
g1608
aF0.20899999999999999
aF0.20100000000000001
aF0.20100000000000001
aS'OK'
p1610
asS'1axk'
p1611
(lp1612
g1611
aF0.17599999999999999
aF0.17100000000000001
aF0.17100000000000001
aS'OK'
p1613
asS'1axg'
p1614
(lp1615
g1614
aF0.214
aF0.186
aF0.186
aS'OK'
p1616
asS'1uwa'
p1617
(lp1618
g1617
aF0.17100000000000001
aF0.182
aF0.182
aS'OK'
p1619
asS'1ovo'
p1620
(lp1621
g1620
aF0.19400000000000001
aF0.19400000000000001
aF0.19400000000000001
aS'NO R-work information in pdb file!!!'
p1622
asS'4hwk'
p1623
(lp1624
g1623
aF0.19400000000000001
aF0.19400000000000001
aF0.19400000000000001
aS' FC,PHIFC :: FOM :: '
p1625
asS'1cde'
p1626
(lp1627
g1626
aF0.25
aF0.22700000000000001
aF0.22700000000000001
ag4
asS'2xpj'
p1628
(lp1629
g1628
aF0.308
aF0.57599999999999996
aF0.58199999999999996
aS'OK'
p1630
asS'3qhw'
p1631
(lp1632
g1631
aF0.188
aF0.17999999999999999
aF0.17999999999999999
aS'Warning: merging non-unique data :: DANO,SIGDANO :: F(+),SIGF(+),F(-),SIGF(-) :: I(+),SIGI(+),I(-),SIGI(-) :: '
p1633
asS'3qhr'
p1634
(lp1635
g1634
aF0.17899999999999999
aF0.17199999999999999
aF0.17199999999999999
aS'Warning: merging non-unique data :: DANO,SIGDANO :: F(+),SIGF(+),F(-),SIGF(-) :: I(+),SIGI(+),I(-),SIGI(-) :: '
p1636
asS'1gtu'
p1637
(lp1638
g1637
aF0.21099999999999999
aF0.182
aF0.182
aS'OK'
p1639
asS'4jcd'
p1640
(lp1641
g1640
aF0.16400000000000001
aF0.161
aF0.161
aS'OK'
p1642
asS'1gth'
p1643
(lp1644
g1643
aF0.17699999999999999
aF0.17299999999999999
aF0.17299999999999999
aS'OK'
p1645
asS'1gte'
p1646
(lp1647
g1646
aF0.18099999999999999
aF0.17699999999999999
aF0.17699999999999999
ag4
asS'3kie'
p1648
(lp1649
g1648
aF0.23100000000000001
aF0.25700000000000001
aF0.25700000000000001
aS'OK'
p1650
asS'1cd9'
p1651
(lp1652
g1651
aF0.23699999999999999
aF0.20000000000000001
aF0.20000000000000001
aS'OK'
p1653
asS'4dwh'
p1654
(lp1655
g1654
aF0.23300000000000001
aF0.22700000000000001
aF0.22700000000000001
aS'OK'
p1656
asS'1uw9'
p1657
(lp1658
g1657
aF0.157
aF0.16400000000000001
aF0.16400000000000001
aS'OK'
p1659
asS'4dwj'
p1660
(lp1661
g1660
aF0.20100000000000001
aF0.20499999999999999
aF0.20499999999999999
aS' FC,PHIFC :: FOM :: '
p1662
asS'1ax4'
p1663
(lp1664
g1663
aF0.187
aF0.16600000000000001
aF0.16600000000000001
aS'OK'
p1665
asS'1uw4'
p1666
(lp1667
g1666
aF0.20399999999999999
aF0.24099999999999999
aF0.24099999999999999
aS'OK'
p1668
asS'1av1'
p1669
(lp1670
g1669
aF0.38200000000000001
aF0.39500000000000002
aF0.39500000000000002
aS' PHIC :: '
p1671
asS'1bjq'
p1672
(lp1673
g1672
aF0.219
aF0.21199999999999999
aF0.21199999999999999
aS' PHIM :: '
p1674
asS'2e2a'
p1675
(lp1676
g1675
aF0.19800000000000001
aF0.20100000000000001
aF0.20100000000000001
aS'OK'
p1677
asS'1fro'
p1678
(lp1679
g1678
aF0.21099999999999999
aF0.20300000000000001
aF0.20300000000000001
aS'OK'
p1680
asS'4jkr'
p1681
(lp1682
g1681
aF0.247
aF0.22900000000000001
aF0.22900000000000001
aS' FC,PHIFC :: FOM :: '
p1683
asS'4jcr'
p1684
(lp1685
g1684
aF0.219
aF0.214
aF0.214
aS' FC,PHIFC :: FOM :: '
p1686
asS'4bub'
p1687
(lp1688
g1687
aF0.218
aF0.20599999999999999
aF0.20599999999999999
aS' FC,PHIFC :: FOM :: '
p1689
aS' FC,PHIFC :: FOM :: '
p1690
asS'4jcq'
p1691
(lp1692
g1691
aF0.192
aF0.191
aF0.191
aS' FC,PHIFC :: FOM :: '
p1693
asS'4ajk'
p1694
(lp1695
g1694
aF0.14699999999999999
aF0.153
aF0.153
aS' FC,PHIFC :: '
p1696
asS'4ajj'
p1697
(lp1698
g1697
aF0.14399999999999999
aF0.14499999999999999
aF0.14499999999999999
aS' FC,PHIFC :: '
p1699
asS'1cvn'
p1700
(lp1701
g1700
aF0.20399999999999999
aF0.20100000000000001
aF0.20100000000000001
aS'OK'
p1702
asS'4aji'
p1703
(lp1704
g1703
aF0.16200000000000001
aF0.16800000000000001
aF0.16800000000000001
aS' FC,PHIFC :: '
p1705
asS'1bj1'
p1706
(lp1707
g1706
aF0.19600000000000001
aF0.186
aF0.186
aS'OK'
p1708
asS'1swa'
p1709
(lp1710
g1709
aF0.14699999999999999
aF0.16800000000000001
aF0.16800000000000001
aS'OK'
p1711
asS'1swc'
p1712
(lp1713
g1712
aF0.159
aF0.17299999999999999
aF0.17299999999999999
aS'OK'
p1714
asS'4ajh'
p1715
(lp1716
g1715
aF0.151
aF0.153
aF0.153
ag4
asS'4jk3'
p1717
(lp1718
g1717
aF0.216
aF0.214
aF0.214
aS' FC,PHIFC :: FOM :: '
p1719
aS' FC,PHIFC :: FOM :: '
p1720
aS' FC,PHIFC :: FOM :: '
p1721
aS' FC,PHIFC :: FOM :: '
p1722
asS'3w5a'
p1723
(lp1724
g1723
aF0.248
aF0.246
aF0.246
aS'OK'
p1725
asS'2vhx'
p1726
(lp1727
g1726
aF0.17199999999999999
aF0.20599999999999999
aF0.20599999999999999
aS'OK'
p1728
asS'4glv'
p1729
(lp1730
g1729
aF0.20100000000000001
aF0.19
aF0.19
aS' DANO,SIGDANO :: F(+),SIGF(+),F(-),SIGF(-) :: I(+),SIGI(+),I(-),SIGI(-) :: '
p1731
asS'1bxc'
p1732
(lp1733
g1732
aF0.17799999999999999
aF0.20200000000000001
aF0.20200000000000001
aS'OK'
p1734
asS'1bxb'
p1735
(lp1736
g1735
aF0.17999999999999999
aF0.182
aF0.182
aS'OK'
p1737
asS'1bxn'
p1738
(lp1739
g1738
aF0.26600000000000001
aF0.27000000000000002
aF0.27000000000000002
ag4
asS'1bxh'
p1740
(lp1741
g1740
aF0.19600000000000001
aF0.184
aF0.184
aS' PHIM :: '
p1742
aS' PHIM :: '
p1743
asS'4g93'
p1744
(lp1745
g1744
aF0.379
aF0.54200000000000004
aF0.34499999999999997
aS'OK'
p1746
asS'2vhh'
p1747
(lp1748
g1747
aF0.215
aF0.21199999999999999
aF0.21199999999999999
aS'OK'
p1749
asS'2vhi'
p1750
(lp1751
g1750
aF0.22600000000000001
aF0.22700000000000001
aF0.22700000000000001
aS'OK'
p1752
asS'1bxs'
p1753
(lp1754
g1753
aF0.23499999999999999
aF0.224
aF0.224
aS'OK'
p1755
asS'4a59'
p1756
(lp1757
g1756
aF0.17999999999999999
aF0.184
aF0.184
ag4
asS'4j24'
p1758
(lp1759
g1758
aF0.19
aF0.193
aF0.193
aS'OK'
p1760
asS'4fsj'
p1761
(lp1762
g1761
aF0.26200000000000001
aF0.57399999999999995
aF0.27000000000000002
aS'OK'
p1763
asS'3hoh'
p1764
(lp1765
g1764
aF0.16700000000000001
aF0.16900000000000001
aF0.16900000000000001
aS' FC,PHIFC :: PHIM :: '
p1766
asS'2vvf'
p1767
(lp1768
g1767
aF0.23999999999999999
aF0.24099999999999999
aF0.24099999999999999
aS'OK'
p1769
asS'4a5a'
p1770
(lp1771
g1770
aF0.23400000000000001
aF0.23100000000000001
aF0.23100000000000001
aS' FC,PHIFC :: '
p1772
aS' FC,PHIFC :: '
p1773
asS'2vvo'
p1774
(lp1775
g1774
aF0.16
aF0.16300000000000001
aF0.16300000000000001
aS'OK'
p1776
asS'1h1c'
p1777
(lp1778
g1777
aF0.25800000000000001
aF0.224
aF0.224
aS'OK'
p1779
asS'4a5n'
p1780
(lp1781
g1780
aF0.183
aF0.189
aF0.189
aS'Warning: merging non-unique data :: DANO,SIGDANO :: F(+),SIGF(+),F(-),SIGF(-) :: I(+),SIGI(+),I(-),SIGI(-) :: '
p1782
asS'4a5m'
p1783
(lp1784
g1783
aF0.20699999999999999
aF0.29699999999999999
aF0.29699999999999999
aS'OK'
p1785
asS'2x9m'
p1786
(lp1787
g1786
aF0.23300000000000001
aF0.23799999999999999
aF0.23799999999999999
aS' FC,PHIFC :: '
p1788
asS'4a5p'
p1789
(lp1790
g1789
aF0.23100000000000001
aF0.24099999999999999
aF0.24099999999999999
aS' FC,PHIFC :: '
p1791
asS'2x9i'
p1792
(lp1793
g1792
aF0.17599999999999999
aF0.17100000000000001
aF0.17100000000000001
aS'OK'
p1794
asS'2vvp'
p1795
(lp1796
g1795
aF0.16600000000000001
aF0.16800000000000001
aF0.16800000000000001
ag4
asS'2vvq'
p1797
(lp1798
g1797
aF0.159
aF0.16500000000000001
aF0.16500000000000001
aS'OK'
p1799
asS'4a5z'
p1800
(lp1801
g1800
aF0.191
aF0.19
aF0.19
aS'Warning: merging non-unique data :: DANO,SIGDANO :: F(+),SIGF(+),F(-),SIGF(-) :: I(+),SIGI(+),I(-),SIGI(-) :: FOBS-1,SIGFOBS-1 :: IOBS-1,SIGIOBS-1 :: DANO-1,SIGDANO-1 :: F-1(+),SIGF-1(+),F-1(-),SIGF-1(-) :: I-1(+),SIGI-1(+),I-1(-),SIGI-1(-) :: '
p1802
asS'4a5x'
p1803
(lp1804
g1803
aF0.20100000000000001
aF0.20699999999999999
aF0.20699999999999999
ag4
asS'2bkc'
p1805
(lp1806
g1805
aF0.20899999999999999
aF0.20999999999999999
aF0.20999999999999999
ag4
asS'2jer'
p1807
(lp1808
g1807
aF0.16700000000000001
aF0.221
aF0.221
ag4
asS'2bkq'
p1809
(lp1810
g1809
aF0.193
aF0.216
aF0.216
ag4
asS'2jee'
p1811
(lp1812
g1811
aF0.31
aF0.31
aF0.31
ag4
asS'2caz'
p1813
(lp1814
g1813
aF0.32800000000000001
aF0.31900000000000001
aF0.31900000000000001
ag4
asS'2bkz'
p1815
(lp1816
g1815
aF0.23000000000000001
aF0.22600000000000001
aF0.22600000000000001
ag4
asS'2jk8'
p1817
(lp1818
g1817
aF0.216
aF0.26600000000000001
aF0.26600000000000001
ag4
asS'4bfx'
p1819
(lp1820
g1819
aF0.20499999999999999
aF0.20300000000000001
aF0.20300000000000001
ag4
asS'1h7z'
p1821
(lp1822
g1821
aF0.17599999999999999
aF0.16700000000000001
aF0.16700000000000001
ag4
asS'1h7x'
p1823
(lp1824
g1823
aF0.17100000000000001
aF0.16800000000000001
aF0.16800000000000001
ag4
asS'4bfe'
p1825
(lp1826
g1825
aF0.17100000000000001
aF0.17699999999999999
aF0.17699999999999999
ag4
asS'1rxo'
p1827
(lp1828
g1827
aF0.20499999999999999
aF0.19600000000000001
aF0.19600000000000001
ag4
asS'4bfl'
p1829
(lp1830
g1829
aF0.17399999999999999
aF0.19400000000000001
aF0.19400000000000001
ag4
asS'2oow'
p1831
(lp1832
g1831
aF0.19800000000000001
aF0.193
aF0.193
ag4
asS'3zpy'
p1833
(lp1834
g1833
aF0.16
aF0.157
aF0.157
ag4
asS'2bk6'
p1835
(lp1836
g1835
aF0.21099999999999999
aF0.21099999999999999
aF0.21099999999999999
ag4
asS'1ok9'
p1837
(lp1838
g1837
aF0.24299999999999999
aF0.24299999999999999
aF0.24299999999999999
aS'NO R-work information in pdb file!!!'
p1839
asS'2jkz'
p1840
(lp1841
g1840
aF0.221
aF0.21299999999999999
aF0.21299999999999999
ag4
asS'2a2g'
p1842
(lp1843
g1842
aF0.248
aF0.23699999999999999
aF0.23699999999999999
ag4
asS'1ok6'
p1844
(lp1845
g1844
aF0.23200000000000001
aF0.24399999999999999
aF0.24399999999999999
ag4
asS'2jki'
p1846
(lp1847
g1846
aF0.19900000000000001
aF0.189
aF0.189
ag4
asS'2jkj'
p1848
(lp1849
g1848
aF0.249
aF0.26300000000000001
aF0.26300000000000001
ag4
asS'2jkl'
p1850
(lp1851
g1850
aF0.183
aF0.19700000000000001
aF0.19700000000000001
ag4
asS'2jkn'
p1852
(lp1853
g1852
aF0.191
aF0.185
aF0.185
ag4
asS'3v65'
p1854
(lp1855
g1854
aF0.20200000000000001
aF0.246
aF0.246
ag4
asS'2xqq'
p1856
(lp1857
g1856
aF0.123
aF0.13400000000000001
aF0.13400000000000001
ag4
asS'1oe0'
p1858
(lp1859
g1858
aF0.22
aF0.214
aF0.214
ag4
asS'1uf2'
p1860
(lp1861
g1860
aF0.30299999999999999
aF0.58399999999999996
aF0.308
ag4
asS'1gut'
p1862
(lp1863
g1862
aF0.17799999999999999
aF0.17100000000000001
aF0.17100000000000001
ag4
asS'1gus'
p1864
(lp1865
g1864
aF0.17899999999999999
aF0.17799999999999999
aF0.17799999999999999
ag4
asS'2bu1'
p1866
(lp1867
g1866
aF0.219
aF0.55400000000000005
aF0.215
ag4
asS'1guo'
p1868
(lp1869
g1868
aF0.20999999999999999
aF0.20599999999999999
aF0.20599999999999999
ag4
asS'1gun'
p1870
(lp1871
g1870
aF0.215
aF0.21199999999999999
aF0.21199999999999999
ag4
asS'1gk2'
p1872
(lp1873
g1872
aF0.17000000000000001
aF0.17299999999999999
aF0.17299999999999999
ag4
asS'1gug'
p1874
(lp1875
g1874
aF0.154
aF0.155
aF0.155
ag4
asS'3gtu'
p1876
(lp1877
g1876
aF0.22500000000000001
aF0.214
aF0.214
ag4
asS'1b77'
p1878
(lp1879
g1878
aF0.22500000000000001
aF0.221
aF0.221
ag4
asS'4ftb'
p1880
(lp1881
g1880
aF0.23999999999999999
aF0.57199999999999995
aF0.245
ag4
asS'4fte'
p1882
(lp1883
g1882
aF0.23899999999999999
aF0.53900000000000003
aF0.245
ag4
asS'3zq4'
p1884
(lp1885
g1884
aF0.214
aF0.20999999999999999
aF0.20999999999999999
ag4
asS'4fts'
p1886
(lp1887
g1886
aF0.25900000000000001
aF0.56100000000000005
aF0.26700000000000002
ag4
asS'1b7b'
p1888
(lp1889
g1888
aF0.224
aF0.216
aF0.216
aS' FC :: '
p1890
asS'1oez'
p1891
(lp1892
g1891
aF0.20599999999999999
aF0.23400000000000001
aF0.23400000000000001
ag4
asS'1oey'
p1893
(lp1894
g1893
aF0.20999999999999999
aF0.22500000000000001
aF0.22500000000000001
ag4
asS'1gkq'
p1895
(lp1896
g1895
aF0.188
aF0.183
aF0.183
ag4
asS'2yop'
p1897
(lp1898
g1897
aF0.185
aF0.17999999999999999
aF0.17999999999999999
ag4
asS'2yoq'
p1899
(lp1900
g1899
aF0.158
aF0.159
aF0.159
ag4
asS'2buk'
p1901
(lp1902
g1901
aF0.27300000000000002
aF0.54800000000000004
aF0.27300000000000002
ag4
asS'1akm'
p1903
(lp1904
g1903
aF0.22900000000000001
aF0.24099999999999999
aF0.24099999999999999
ag4
asS'4gpd'
p1905
(lp1906
g1905
aF0.25
aF0.25
aF0.25
aS'NO R-work information in pdb file!!!'
p1907
asS'3zc0'
p1908
(lp1909
g1908
aF0.20799999999999999
aF0.21099999999999999
aF0.21099999999999999
ag4
asS'3zc1'
p1910
(lp1911
g1910
aF0.221
aF0.22600000000000001
aF0.22600000000000001
ag4
asS'4elm'
p1912
(lp1913
g1912
aF0.20899999999999999
aF0.20599999999999999
aF0.20599999999999999
ag4
asS'2c9p'
p1914
(lp1915
g1914
aF0.19
aF0.20200000000000001
aF0.20200000000000001
ag4
asS'1awv'
p1916
(lp1917
g1916
aF0.35799999999999998
aF0.36499999999999999
aF0.36499999999999999
ag4
asS'1awt'
p1918
(lp1919
g1918
aF0.378
aF0.39300000000000002
aF0.39300000000000002
ag4
asS'1awr'
p1920
(lp1921
g1920
aF0.39400000000000002
aF0.39200000000000002
aF0.39200000000000002
ag4
asS'2c9j'
p1922
(lp1923
g1922
aF0.22800000000000001
aF0.218
aF0.218
ag4
asS'2c9i'
p1924
(lp1925
g1924
aF0.245
aF0.24099999999999999
aF0.24099999999999999
ag4
asS'1ut2'
p1926
(lp1927
g1926
aF0.23300000000000001
aF0.23300000000000001
aF0.23300000000000001
aS'NO R-work information in pdb file!!!'
p1928
asS'2xgf'
p1929
(lp1930
g1929
aF0.17899999999999999
aF0.193
aF0.193
ag4
asS'1ut1'
p1931
(lp1932
g1931
aF0.17399999999999999
aF0.17399999999999999
aF0.17399999999999999
aS'NO R-work information in pdb file!!!'
p1933
asS'2xgk'
p1934
(lp1935
g1934
aF0.30299999999999999
aF0.56200000000000006
aF0.30299999999999999
ag4
asS'2xgj'
p1936
(lp1937
g1936
aF0.20100000000000001
aF0.19600000000000001
aF0.19600000000000001
ag4
asS'1nal'
p1938
(lp1939
g1938
aF0.20799999999999999
aF0.20200000000000001
aF0.20200000000000001
aS' FC,PHIFC :: '
p1940
asS'4jza'
p1941
(lp1942
g1941
aF0.19600000000000001
aF0.20300000000000001
aF0.20300000000000001
ag4
asS'3ct4'
p1943
(lp1944
g1943
aF0.20000000000000001
aF0.192
aF0.192
ag4
asS'2v0v'
p1945
(lp1946
g1945
aF0.17599999999999999
aF0.29799999999999999
aF0.29799999999999999
ag4
asS'3i3j'
p1947
(lp1948
g1947
aF0.22900000000000001
aF0.22800000000000001
aF0.22800000000000001
ag4
asS'1y1a'
p1949
(lp1950
g1949
aF0.23599999999999999
aF0.22600000000000001
aF0.22600000000000001
ag4
asS'1aw2'
p1951
(lp1952
g1951
aF0.20000000000000001
aF0.17999999999999999
aF0.17999999999999999
ag4
asS'1aw1'
p1953
(lp1954
g1953
aF0.192
aF0.17299999999999999
aF0.17299999999999999
ag4
asS'2v0n'
p1955
(lp1956
g1955
aF0.215
aF0.24399999999999999
aF0.24399999999999999
ag4
asS'4dzi'
p1957
(lp1958
g1957
aF0.16600000000000001
aF0.16500000000000001
aF0.16500000000000001
ag4
asS'4hpq'
p1959
(lp1960
g1959
aF0.30299999999999999
aF0.29899999999999999
aF0.29899999999999999
ag4
asS'2xg8'
p1961
(lp1962
g1961
aF0.22700000000000001
aF0.23699999999999999
aF0.23699999999999999
ag4
asS'4cox'
p1963
(lp1964
g1963
aF0.219
aF0.22700000000000001
aF0.22700000000000001
ag4
asS'7mdh'
p1965
(lp1966
g1965
aF0.221
aF0.221
aF0.221
ag4
asS'3lns'
p1967
(lp1968
g1967
aF0.22800000000000001
aF0.221
aF0.221
ag4
asS'4a4k'
p1969
(lp1970
g1969
aF0.23599999999999999
aF0.23100000000000001
aF0.23100000000000001
ag4
asS'3vw4'
p1971
(lp1972
g1971
aF0.22
aF0.215
aF0.215
ag4
asS'2y5m'
p1973
(lp1974
g1973
aF0.13
aF0.14599999999999999
aF0.14599999999999999
ag4
asS'2cdp'
p1975
(lp1976
g1975
aF0.20999999999999999
aF0.20200000000000001
aF0.20200000000000001
ag4
asS'2c6s'
p1977
(lp1978
g1977
aF0.27500000000000002
aF0.27000000000000002
aF0.27000000000000002
ag4
asS'3hn8'
p1979
(lp1980
g1979
aF0.23799999999999999
aF0.23400000000000001
aF0.23400000000000001
ag4
asS'4i6s'
p1981
(lp1982
g1981
aF0.14799999999999999
aF0.157
aF0.157
ag4
asS'2cde'
p1983
(lp1984
g1983
aF0.28299999999999997
aF0.26100000000000001
aF0.26100000000000001
ag4
asS'2y5z'
p1985
(lp1986
g1985
aF0.14999999999999999
aF0.153
aF0.153
ag4
asS'2cdo'
p1987
(lp1988
g1987
aF0.17599999999999999
aF0.17499999999999999
aF0.17499999999999999
ag4
asS'2y5p'
p1989
(lp1990
g1989
aF0.157
aF0.17000000000000001
aF0.17000000000000001
ag4
asS'4g83'
p1991
(lp1992
g1991
aF0.24099999999999999
aF0.251
aF0.251
ag4
asS'1f8v'
p1993
(lp1994
g1993
aF0.219
aF0.55200000000000005
aF0.23699999999999999
ag4
asS'1llu'
p1995
(lp1996
g1995
aF0.22900000000000001
aF0.22800000000000001
aF0.22800000000000001
ag4
asS'2vi7'
p1997
(lp1998
g1997
aF0.191
aF0.187
aF0.187
ag4
asS'2vi6'
p1999
(lp2000
g1999
aF0.221
aF0.245
aF0.245
ag4
asS'4ao4'
p2001
(lp2002
g2001
aF0.183
aF0.17699999999999999
aF0.17699999999999999
ag4
asS'1dio'
p2003
(lp2004
g2003
aF0.187
aF0.16900000000000001
aF0.16900000000000001
ag4
asS'2wkt'
p2005
(lp2006
g2005
aF0.187
aF0.182
aF0.182
ag4
asS'2vix'
p2007
(lp2008
g2007
aF0.25700000000000001
aF0.25700000000000001
aF0.25700000000000001
aS'NO R-work information in pdb file!!!'
p2009
asS'2vih'
p2010
(lp2011
g2010
aF0.22500000000000001
aF0.21199999999999999
aF0.21199999999999999
ag4
asS'2vig'
p2012
(lp2013
g2012
aF0.19800000000000001
aF0.20200000000000001
aF0.20200000000000001
ag4
asS'4aow'
p2014
(lp2015
g2014
aF0.193
aF0.22500000000000001
aF0.22500000000000001
ag4
asS'2vic'
p2016
(lp2017
g2016
aF0.20300000000000001
aF0.19600000000000001
aF0.19600000000000001
ag4
asS'2tep'
p2018
(lp2019
g2018
aF0.17499999999999999
aF0.24399999999999999
aF0.24399999999999999
ag4
asS'2jf9'
p2020
(lp2021
g2020
aF0.17999999999999999
aF0.217
aF0.217
ag4
asS'1ahs'
p2022
(lp2023
g2022
aF0.21299999999999999
aF0.193
aF0.193
ag4
asS'1ahj'
p2024
(lp2025
g2024
aF0.26400000000000001
aF0.23000000000000001
aF0.23000000000000001
ag4
asS'1ofg'
p2026
(lp2027
g2026
aF0.18099999999999999
aF0.18099999999999999
aF0.18099999999999999
aS'NO R-work information in pdb file!!!'
p2028
asS'2wm2'
p2029
(lp2030
g2029
aF0.21099999999999999
aF0.28599999999999998
aF0.28599999999999998
ag4
asS'3ndm'
p2031
(lp2032
g2031
aF0.24099999999999999
aF0.23200000000000001
aF0.23200000000000001
ag4
asS'4eci'
p2033
(lp2034
g2033
aF0.17499999999999999
aF0.17599999999999999
aF0.17599999999999999
ag4
asS'4ecj'
p2035
(lp2036
g2035
aF0.16300000000000001
aF0.16900000000000001
aF0.16900000000000001
ag4
asS'4ece'
p2037
(lp2038
g2037
aF0.222
aF0.22
aF0.22
ag4
asS'3zpr'
p2039
(lp2040
g2039
aF0.224
aF0.20899999999999999
aF0.20899999999999999
ag4
asS'3zpq'
p2041
(lp2042
g2041
aF0.22
aF0.20799999999999999
aF0.20799999999999999
ag4
asS'4hg4'
p2043
(lp2044
g2043
aF0.249
aF0.245
aF0.245
ag4
asS'2wmc'
p2045
(lp2046
g2045
aF0.17999999999999999
aF0.20200000000000001
aF0.20200000000000001
ag4
asS'2jfa'
p2047
(lp2048
g2047
aF0.193
aF0.23499999999999999
aF0.23499999999999999
ag4
asS'2wmz'
p2049
(lp2050
g2049
aF0.25800000000000001
aF0.245
aF0.245
ag4
asS'2jfd'
p2051
(lp2052
g2051
aF0.21199999999999999
aF0.27100000000000002
aF0.27100000000000002
ag4
asS'2jfk'
p2053
(lp2054
g2053
aF0.222
aF0.27900000000000003
aF0.27900000000000003
ag4
asS'1gd1'
p2055
(lp2056
g2055
aF0.17799999999999999
aF0.17799999999999999
aF0.17799999999999999
aS'NO R-work information in pdb file!!!'
p2057
asS'1h6v'
p2058
(lp2059
g2058
aF0.224
aF0.25700000000000001
aF0.25700000000000001
ag4
asS'4bgg'
p2060
(lp2061
g2060
aF0.215
aF0.21099999999999999
aF0.21099999999999999
ag4
asS'1h6k'
p2062
(lp2063
g2062
aF0.20300000000000001
aF0.20200000000000001
aF0.20200000000000001
ag4
asS'1wac'
p2064
(lp2065
g2064
aF0.24099999999999999
aF0.23799999999999999
aF0.23799999999999999
ag4
asS'2w69'
p2066
(lp2067
g2066
aF0.217
aF0.23599999999999999
aF0.23599999999999999
ag4
asS'2v1t'
p2068
(lp2069
g2068
aF0.17799999999999999
aF0.19500000000000001
aF0.19500000000000001
ag4
asS'2v1s'
p2070
(lp2071
g2070
aF0.248
aF0.27300000000000002
aF0.27300000000000002
ag4
asS'4lih'
p2072
(lp2073
g2072
aF0.189
aF0.19500000000000001
aF0.19500000000000001
ag4
asS'1cfm'
p2074
(lp2075
g2074
aF0.214
aF0.214
aF0.214
ag4
asS'2w65'
p2076
(lp2077
g2076
aF0.23400000000000001
aF0.27800000000000002
aF0.27800000000000002
ag4
asS'1fba'
p2078
(lp2079
g2078
aF0.16300000000000001
aF0.16300000000000001
aF0.16300000000000001
aS'NO R-work information in pdb file!!!'
p2080
asS'1llc'
p2081
(lp2082
g2081
aF0.374
aF0.48199999999999998
aF0.495
aS'OK'
p2083
asS'1wav'
p2084
(lp2085
g2084
aF0.20599999999999999
aF0.25
aF0.25
ag4
asS'1afv'
p2086
(lp2087
g2086
aF0.217
aF0.28100000000000003
aF0.28100000000000003
ag4
asS'1rco'
p2088
(lp2089
g2088
aF0.23899999999999999
aF0.224
aF0.224
ag4
asS'1afd'
p2090
(lp2091
g2090
aF0.23400000000000001
aF0.22500000000000001
aF0.22500000000000001
ag4
asS'1afa'
p2092
(lp2093
g2092
aF0.221
aF0.20499999999999999
aF0.20499999999999999
ag4
asS'1afb'
p2094
(lp2095
g2094
aF0.217
aF0.20200000000000001
aF0.20200000000000001
ag4
asS'1rcx'
p2096
(lp2097
g2096
aF0.224
aF0.20499999999999999
aF0.20499999999999999
ag4
asS'1uug'
p2098
(lp2099
g2098
aF0.19
aF0.182
aF0.182
ag4
asS'3zbn'
p2100
(lp2101
g2100
aF0.20899999999999999
aF0.21099999999999999
aF0.21099999999999999
ag4
asS'2v19'
p2102
(lp2103
g2102
aF0.20599999999999999
aF0.22800000000000001
aF0.22800000000000001
ag4
asS'2v18'
p2104
(lp2105
g2104
aF0.219
aF0.24299999999999999
aF0.24299999999999999
ag4
asS'2xva'
p2106
(lp2107
g2106
aF0.17499999999999999
aF0.182
aF0.182
ag4
asS'2vgr'
p2108
(lp2109
g2108
aF0.22600000000000001
aF0.246
aF0.246
ag4
asS'1gvn'
p2110
(lp2111
g2110
aF0.20000000000000001
aF0.19400000000000001
aF0.19400000000000001
ag4
asS'1gvm'
p2112
(lp2113
g2112
aF0.22600000000000001
aF0.22600000000000001
aF0.22600000000000001
ag4
asS'1cf9'
p2114
(lp2115
g2114
aF0.18099999999999999
aF0.17899999999999999
aF0.17899999999999999
ag4
asS'1af6'
p2116
(lp2117
g2116
aF0.17999999999999999
aF0.17999999999999999
aF0.17999999999999999
aS'NO R-work information in pdb file!!!'
p2118
asS'1lbs'
p2119
(lp2120
g2119
aF0.193
aF0.20499999999999999
aF0.20499999999999999
ag4
asS'2wcw'
p2121
(lp2122
g2121
aF0.154
aF0.16400000000000001
aF0.16400000000000001
ag4
asS'1cx2'
p2123
(lp2124
g2123
aF0.216
aF0.22600000000000001
aF0.22600000000000001
ag4
asS'2y4y'
p2125
(lp2126
g2125
aF0.17799999999999999
aF0.18099999999999999
aF0.18099999999999999
ag4
asS'2y4t'
p2127
(lp2128
g2127
aF0.24299999999999999
aF0.248
aF0.248
ag4
asS'1w8d'
p2129
(lp2130
g2129
aF0.219
aF0.219
aF0.219
ag4
asS'2y4p'
p2131
(lp2132
g2131
aF0.252
aF0.25
aF0.25
ag4
asS'3es5'
p2133
(lp2134
g2133
aF0.248
aF0.51400000000000001
aF0.24099999999999999
ag4
asS'4b2y'
p2135
(lp2136
g2135
aF0.14999999999999999
aF0.14999999999999999
aF0.14999999999999999
ag4
asS'1hl5'
p2137
(lp2138
g2137
aF0.185
aF0.23200000000000001
aF0.23200000000000001
ag4
asS'1hl4'
p2139
(lp2140
g2139
aF0.23200000000000001
aF0.26000000000000001
aF0.26000000000000001
ag4
asS'4b2o'
p2141
(lp2142
g2141
aF0.159
aF0.154
aF0.154
ag4
asS'4b2a'
p2143
(lp2144
g2143
aF0.20300000000000001
aF0.20399999999999999
aF0.20399999999999999
ag4
asS'4b2b'
p2145
(lp2146
g2145
aF0.183
aF0.183
aF0.183
ag4
asS'1bh5'
p2147
(lp2148
g2147
aF0.17999999999999999
aF0.17399999999999999
aF0.17399999999999999
ag4
asS'4i58'
p2149
(lp2150
g2149
aF0.23699999999999999
aF0.23000000000000001
aF0.23000000000000001
ag4
asS'4i59'
p2151
(lp2152
g2151
aF0.22800000000000001
aF0.219
aF0.219
ag4
asS'1z7s'
p2153
(lp2154
g2153
aF0.224
aF0.501
aF0.20300000000000001
ag4
asS'2y46'
p2155
(lp2156
g2155
aF0.157
aF0.156
aF0.156
ag4
asS'2xdc'
p2157
(lp2158
g2157
aF0.17899999999999999
aF0.17799999999999999
aF0.17799999999999999
ag4
asS'3ker'
p2159
(lp2160
g2159
aF0.222
aF0.217
aF0.217
ag4
asS'1cf2'
p2161
(lp2162
g2161
aF0.19400000000000001
aF0.182
aF0.182
ag4
asS'4ang'
p2163
(lp2164
g2163
aF0.308
aF0.53400000000000003
aF0.30299999999999999
ag4
asS'1jlx'
p2165
(lp2166
g2165
aF0.19600000000000001
aF0.17399999999999999
aF0.17399999999999999
ag4
asS'2vju'
p2167
(lp2168
g2167
aF0.186
aF0.17499999999999999
aF0.17499999999999999
ag4
asS'2vjh'
p2169
(lp2170
g2169
aF0.153
aF0.17999999999999999
aF0.17999999999999999
ag4
asS'4a36'
p2171
(lp2172
g2171
aF0.193
aF0.19600000000000001
aF0.19600000000000001
ag4
asS'2vx3'
p2173
(lp2174
g2173
aF0.185
aF0.22800000000000001
aF0.22800000000000001
ag4
asS'1qf3'
p2175
(lp2176
g2175
aF0.19500000000000001
aF0.17199999999999999
aF0.17199999999999999
ag4
asS'2ldx'
p2177
(lp2178
g2177
aF0.25800000000000001
aF0.25800000000000001
aF0.25800000000000001
aS'NO R-work information in pdb file!!!'
p2179
asS'3bcc'
p2180
(lp2181
g2180
aF0.28899999999999998
aF0.50900000000000001
aF0.373
ag4
asS'3hmg'
p2182
(lp2183
g2182
aF0.23799999999999999
aF0.22500000000000001
aF0.22500000000000001
aS'OK'
p2184
asS'3lmt'
p2185
(lp2186
g2185
aF0.18099999999999999
aF0.17999999999999999
aF0.17999999999999999
ag4
asS'3lmu'
p2187
(lp2188
g2187
aF0.185
aF0.182
aF0.182
ag4
asS'2vxa'
p2189
(lp2190
g2189
aF0.251
aF0.247
aF0.247
ag4
asS'2vxu'
p2191
(lp2192
g2191
aF0.184
aF0.216
aF0.216
ag4
asS'4an4'
p2193
(lp2194
g2193
aF0.22700000000000001
aF0.221
aF0.221
ag4
asS'2bel'
p2195
(lp2196
g2195
aF0.188
aF0.23799999999999999
aF0.23799999999999999
ag4
asS'2wlb'
p2197
(lp2198
g2197
aF0.182
aF0.193
aF0.193
ag4
asS'2jgs'
p2199
(lp2200
g2199
aF0.20300000000000001
aF0.24399999999999999
aF0.24399999999999999
ag4
asS'1o82'
p2201
(lp2202
g2201
aF0.20799999999999999
aF0.20300000000000001
aF0.20300000000000001
ag4
asS'1o83'
p2203
(lp2204
g2203
aF0.193
aF0.184
aF0.184
ag4
asS'2bet'
p2205
(lp2206
g2205
aF0.21199999999999999
aF0.20999999999999999
aF0.20999999999999999
ag4
asS'2bes'
p2207
(lp2208
g2207
aF0.20200000000000001
aF0.20499999999999999
aF0.20499999999999999
ag4
asS'4bdn'
p2209
(lp2210
g2209
aF0.19800000000000001
aF0.19
aF0.19
ag4
asS'4bdo'
p2211
(lp2212
g2211
aF0.191
aF0.187
aF0.187
ag4
asS'4bdm'
p2213
(lp2214
g2213
aF0.23899999999999999
aF0.23899999999999999
aF0.23899999999999999
ag4
asS'1maa'
p2215
(lp2216
g2215
aF0.20000000000000001
aF0.20300000000000001
aF0.20300000000000001
ag4
asS'2jg1'
p2217
(lp2218
g2217
aF0.19
aF0.188
aF0.188
ag4
asS'3ve1'
p2219
(lp2220
g2219
aF0.20699999999999999
aF0.20399999999999999
aF0.20399999999999999
ag4
asS'1o8n'
p2221
(lp2222
g2221
aF0.19400000000000001
aF0.193
aF0.193
ag4
asS'1o8o'
p2223
(lp2224
g2223
aF0.19800000000000001
aF0.20000000000000001
aF0.20000000000000001
ag4
asS'1o8q'
p2225
(lp2226
g2225
aF0.193
aF0.19
aF0.19
ag4
asS'2wl5'
p2227
(lp2228
g2227
aF0.221
aF0.21099999999999999
aF0.21099999999999999
ag4
asS'2wl4'
p2229
(lp2230
g2229
aF0.23100000000000001
aF0.224
aF0.224
ag4
asS'2wl6'
p2231
(lp2232
g2231
aF0.23200000000000001
aF0.23400000000000001
aF0.23400000000000001
aS' FC,PHIFC :: '
p2233
asS'4inu'
p2234
(lp2235
g2234
aF0.218
aF0.222
aF0.222
ag4
asS'4int'
p2236
(lp2237
g2236
aF0.222
aF0.22
aF0.22
ag4
asS'4inr'
p2238
(lp2239
g2238
aF0.224
aF0.22500000000000001
aF0.22500000000000001
ag4
asS'4bd8'
p2240
(lp2241
g2240
aF0.19700000000000001
aF0.20200000000000001
aF0.20200000000000001
ag4
asS'4bd7'
p2242
(lp2243
g2242
aF0.20100000000000001
aF0.20399999999999999
aF0.20399999999999999
ag4
asS'4bd4'
p2244
(lp2245
g2244
aF0.17999999999999999
aF0.187
aF0.187
ag4
asS'4inn'
p2246
(lp2247
g2246
aF0.191
aF0.19700000000000001
aF0.19700000000000001
ag4
asS'2xwq'
p2248
(lp2249
g2248
aF0.217
aF0.21199999999999999
aF0.21199999999999999
ag4
asS'3zed'
p2250
(lp2251
g2250
aF0.18099999999999999
aF0.18099999999999999
aF0.18099999999999999
aS'NO R-work information in pdb file!!!'
p2252
asS'2xwg'
p2253
(lp2254
g2253
aF0.20499999999999999
aF0.19700000000000001
aF0.19700000000000001
ag4
asS'3zw0'
p2255
(lp2256
g2255
aF0.14299999999999999
aF0.14799999999999999
aF0.14799999999999999
ag4
asS'1x9t'
p2257
(lp2258
g2257
aF0.30599999999999999
aF0.52900000000000003
aF0.28199999999999997
ag4
asS'1x9p'
p2259
(lp2260
g2259
aF0.307
aF0.51300000000000001
aF0.29499999999999998
ag4
asS'2bwe'
p2261
(lp2262
g2261
aF0.23899999999999999
aF0.307
aF0.307
ag4
asS'2bwg'
p2263
(lp2264
g2263
aF0.19600000000000001
aF0.218
aF0.218
ag4
asS'2bwb'
p2265
(lp2266
g2265
aF0.24299999999999999
aF0.29999999999999999
aF0.29999999999999999
ag4
asS'2wbl'
p2267
(lp2268
g2267
aF0.215
aF0.22600000000000001
aF0.22600000000000001
ag4
asS'4eb3'
p2269
(lp2270
g2269
aF0.189
aF0.186
aF0.186
ag4
asS'2wbh'
p2271
(lp2272
g2271
aF0.27500000000000002
aF0.50800000000000001
aF0.27500000000000002
aS'NO R-work information in pdb file!!!'
p2273
asS'4bju'
p2274
(lp2275
g2274
aF0.218
aF0.245
aF0.245
ag4
asS'2yil'
p2276
(lp2277
g2276
aF0.16800000000000001
aF0.17499999999999999
aF0.17499999999999999
ag4
asS'2vzk'
p2278
(lp2279
g2278
aF0.254
aF0.254
aF0.254
ag4
asS'1ogu'
p2280
(lp2281
g2280
aF0.19800000000000001
aF0.19900000000000001
aF0.19900000000000001
ag4
asS'1aip'
p2282
(lp2283
g2282
aF0.216
aF0.23999999999999999
aF0.23999999999999999
ag4
asS'2yic'
p2284
(lp2285
g2284
aF0.188
aF0.20599999999999999
aF0.20599999999999999
ag4
asS'2yid'
p2286
(lp2287
g2286
aF0.192
aF0.20399999999999999
aF0.20399999999999999
ag4
asS'1e2y'
p2288
(lp2289
g2288
aF0.27300000000000002
aF0.246
aF0.246
ag4
asS'2yiz'
p2290
(lp2291
g2290
aF0.17199999999999999
aF0.17799999999999999
aF0.17799999999999999
ag4
asS'4dhg'
p2292
(lp2293
g2292
aF0.161
aF0.16800000000000001
aF0.16800000000000001
ag4
asS'3ze4'
p2294
(lp2295
g2294
aF0.28499999999999998
aF0.28899999999999998
aF0.28899999999999998
ag4
asS'2yip'
p2296
(lp2297
g2296
aF0.159
aF0.16700000000000001
aF0.16700000000000001
ag4
asS'4grm'
p2298
(lp2299
g2298
aF0.23400000000000001
aF0.22800000000000001
aF0.22800000000000001
ag4
asS'4fr4'
p2300
(lp2301
g2300
aF0.20399999999999999
aF0.20699999999999999
aF0.20699999999999999
ag4
asS'4gra'
p2302
(lp2303
g2302
aF0.214
aF0.20699999999999999
aF0.20699999999999999
ag4
asS'2bw1'
p2304
(lp2305
g2304
aF0.187
aF0.186
aF0.186
ag4
asS'2v21'
p2306
(lp2307
g2306
aF0.22500000000000001
aF0.28000000000000003
aF0.28000000000000003
ag4
asS'1aug'
p2308
(lp2309
g2308
aF0.19700000000000001
aF0.189
aF0.189
ag4
asS'1qr4'
p2310
(lp2311
g2310
aF0.20899999999999999
aF0.19800000000000001
aF0.19800000000000001
ag4
asS'3od8'
p2312
(lp2313
g2312
aF0.192
aF0.17899999999999999
aF0.17899999999999999
ag4
asS'2j8x'
p2314
(lp2315
g2314
aF0.193
aF0.20100000000000001
aF0.20100000000000001
ag4
asS'2j8y'
p2316
(lp2317
g2316
aF0.187
aF0.19400000000000001
aF0.19400000000000001
ag4
asS'1auw'
p2318
(lp2319
g2318
aF0.161
aF0.16300000000000001
aF0.16300000000000001
ag4
asS'4b9b'
p2320
(lp2321
g2320
aF0.17399999999999999
aF0.17100000000000001
aF0.17100000000000001
ag4
asS'1aus'
p2322
(lp2323
g2322
aF0.217
aF0.223
aF0.223
ag4
asS'1gav'
p2324
(lp2325
g2324
aF0.27900000000000003
aF0.22
aF0.22
ag4
asS'4jxk'
p2326
(lp2327
g2326
aF0.185
aF0.19500000000000001
aF0.19500000000000001
ag4
asS'3gxe'
p2328
(lp2329
g2328
aF0.219
aF0.217
aF0.217
ag4
asS'1uz6'
p2330
(lp2331
g2330
aF0.19800000000000001
aF0.24299999999999999
aF0.24299999999999999
ag4
asS'1ag8'
p2332
(lp2333
g2332
aF0.217
aF0.19700000000000001
aF0.19700000000000001
ag4
asS'2w54'
p2334
(lp2335
g2334
aF0.186
aF0.22800000000000001
aF0.22800000000000001
ag4
asS'2w55'
p2336
(lp2337
g2336
aF0.221
aF0.248
aF0.248
ag4
asS'2xev'
p2338
(lp2339
g2338
aF0.20399999999999999
aF0.19800000000000001
aF0.19800000000000001
ag4
asS'1wbl'
p2340
(lp2341
g2340
aF0.187
aF0.17100000000000001
aF0.17100000000000001
ag4
asS'1hgd'
p2342
(lp2343
g2342
aF0.224
aF0.21299999999999999
aF0.21299999999999999
ag4
asS'2dub'
p2344
(lp2345
g2344
aF0.20399999999999999
aF0.19800000000000001
aF0.19800000000000001
ag4
asS'2v2g'
p2346
(lp2347
g2346
aF0.16
aF0.214
aF0.214
ag4
asS'1fag'
p2348
(lp2349
g2348
aF0.246
aF0.23799999999999999
aF0.23799999999999999
ag4
asS'4b9w'
p2350
(lp2351
g2350
aF0.219
aF0.219
aF0.219
ag4
asS'1eav'
p2352
(lp2353
g2352
aF0.223
aF0.216
aF0.216
ag4
asS'1rbo'
p2354
(lp2355
g2354
aF0.154
aF0.14399999999999999
aF0.14399999999999999
ag4
asS'1rbl'
p2356
(lp2357
g2356
aF0.20000000000000001
aF0.20300000000000001
aF0.20300000000000001
ag4
asS'1uzd'
p2358
(lp2359
g2358
aF0.188
aF0.186
aF0.186
ag4
asS'1agn'
p2360
(lp2361
g2360
aF0.22500000000000001
aF0.20399999999999999
aF0.20399999999999999
ag4
asS'4jx6'
p2362
(lp2363
g2362
aF0.20899999999999999
aF0.20899999999999999
aF0.20899999999999999
ag4
asS'4jx4'
p2364
(lp2365
g2364
aF0.214
aF0.215
aF0.215
ag4
asS'4jx5'
p2366
(lp2367
g2366
aF0.187
aF0.188
aF0.188
ag4
asS'2cb2'
p2368
(lp2369
g2368
aF0.183
aF0.185
aF0.185
ag4
asS'2wov'
p2370
(lp2371
g2370
aF0.17899999999999999
aF0.18099999999999999
aF0.18099999999999999
aS'OK'
p2372
asS'1w96'
p2373
(lp2374
g2373
aF0.19500000000000001
aF0.19
aF0.19
ag4
asS'1hgh'
p2375
(lp2376
g2375
aF0.22600000000000001
aF0.216
aF0.216
ag4
asS'2y75'
p2377
(lp2378
g2377
aF0.187
aF0.193
aF0.193
ag4
asS'2vyn'
p2379
(lp2380
g2379
aF0.157
aF0.159
aF0.159
ag4
asS'4a2l'
p2381
(lp2382
g2381
aF0.186
aF0.184
aF0.184
ag4
asS'4i4l'
p2383
(lp2384
g2383
aF0.29999999999999999
aF0.29699999999999999
aF0.29699999999999999
ag4
asS'3anz'
p2385
(lp2386
g2385
aF0.193
aF0.19600000000000001
aF0.19600000000000001
ag4
asS'4b31'
p2387
(lp2388
g2387
aF0.151
aF0.151
aF0.151
ag4
asS'4a2x'
p2389
(lp2390
g2389
aF0.20399999999999999
aF0.20799999999999999
aF0.20799999999999999
ag4
asS'2vyx'
p2391
(lp2392
g2391
aF0.218
aF0.223
aF0.223
ag4
asS'2vyv'
p2393
(lp2394
g2393
aF0.17999999999999999
aF0.20899999999999999
aF0.20899999999999999
ag4
asS'4a2q'
p2395
(lp2396
g2395
aF0.23899999999999999
aF0.23999999999999999
aF0.23999999999999999
ag4
asS'2y7k'
p2397
(lp2398
g2397
aF0.20000000000000001
aF0.19800000000000001
aF0.19800000000000001
ag4
asS'1bos'
p2399
(lp2400
g2399
aF0.17000000000000001
aF0.17100000000000001
aF0.17100000000000001
ag4
asS'2xkb'
p2401
(lp2402
g2401
aF0.23400000000000001
aF0.23000000000000001
aF0.23000000000000001
ag4
asS'2xka'
p2403
(lp2404
g2403
aF0.23200000000000001
aF0.23400000000000001
aF0.23400000000000001
ag4
asS'2xko'
p2405
(lp2406
g2405
aF0.214
aF0.23300000000000001
aF0.23300000000000001
ag4
asS'2y7f'
p2407
(lp2408
g2407
aF0.14999999999999999
aF0.152
aF0.152
ag4
asS'2y7d'
p2409
(lp2410
g2409
aF0.158
aF0.159
aF0.159
ag4
asS'4gvr'
p2411
(lp2412
g2411
aF0.16400000000000001
aF0.158
aF0.158
ag4
asS'1dxx'
p2413
(lp2414
g2413
aF0.23200000000000001
aF0.219
aF0.219
ag4
asS'2y7r'
p2415
(lp2416
g2415
aF0.19400000000000001
aF0.193
aF0.193
ag4
asS'2y7w'
p2417
(lp2418
g2417
aF0.24199999999999999
aF0.23699999999999999
aF0.23699999999999999
ag4
asS'4b3u'
p2419
(lp2420
g2419
aF0.218
aF0.21099999999999999
aF0.21099999999999999
ag4
asS'1ekm'
p2421
(lp2422
g2421
aF0.183
aF0.17599999999999999
aF0.17599999999999999
ag4
asS'4b3l'
p2423
(lp2424
g2423
aF0.20499999999999999
aF0.20000000000000001
aF0.20000000000000001
ag4
asS'4b3k'
p2425
(lp2426
g2425
aF0.223
aF0.221
aF0.221
ag4
asS'4e4l'
p2427
(lp2428
g2427
aF0.19
aF0.192
aF0.192
ag4
asS'4a25'
p2429
(lp2430
g2429
aF0.19400000000000001
aF0.216
aF0.216
ag4
asS'3un8'
p2431
(lp2432
g2431
aF0.217
aF0.214
aF0.214
ag4
asS'3ntt'
p2433
(lp2434
g2433
aF0.252
aF0.54700000000000004
aF0.34799999999999998
ag4
asS'2gh8'
p2435
(lp2436
g2435
aF0.249
aF0.51200000000000001
aF0.23100000000000001
ag4
asS'3un4'
p2437
(lp2438
g2437
aF0.17899999999999999
aF0.17999999999999999
aF0.17999999999999999
ag4
asS'1o9r'
p2439
(lp2440
g2439
aF0.17000000000000001
aF0.16600000000000001
aF0.16600000000000001
ag4
asS'4imr'
p2441
(lp2442
g2441
aF0.18099999999999999
aF0.17999999999999999
aF0.17999999999999999
ag4
asS'2bs9'
p2443
(lp2444
g2443
aF0.20899999999999999
aF0.22900000000000001
aF0.22900000000000001
ag4
asS'3bto'
p2445
(lp2446
g2445
aF0.185
aF0.17299999999999999
aF0.17299999999999999
ag4
asS'3hbx'
p2447
(lp2448
g2447
aF0.20799999999999999
aF0.20200000000000001
aF0.20200000000000001
ag4
asS'4am8'
p2449
(lp2450
g2449
aF0.182
aF0.182
aF0.182
ag4
asS'2bs1'
p2451
(lp2452
g2451
aF0.245
aF0.54700000000000004
aF0.22800000000000001
ag4
asS'1o91'
p2453
(lp2454
g2453
aF0.185
aF0.17599999999999999
aF0.17599999999999999
ag4
asS'3unb'
p2455
(lp2456
g2455
aF0.23000000000000001
aF0.23899999999999999
aF0.23899999999999999
ag4
asS'3unf'
p2457
(lp2458
g2457
aF0.23499999999999999
aF0.23499999999999999
aF0.23499999999999999
ag4
asS'2vkx'
p2459
(lp2460
g2459
aF0.223
aF0.216
aF0.216
ag4
asS'2vkz'
p2461
(lp2462
g2461
aF0.26800000000000002
aF0.25700000000000001
aF0.25700000000000001
ag4
asS'4amj'
p2463
(lp2464
g2463
aF0.20200000000000001
aF0.19800000000000001
aF0.19800000000000001
ag4
asS'4ami'
p2465
(lp2466
g2465
aF0.24199999999999999
aF0.23000000000000001
aF0.23000000000000001
ag4
asS'4ama'
p2467
(lp2468
g2467
aF0.189
aF0.188
aF0.188
ag4
asS'4amx'
p2469
(lp2470
g2469
aF0.22
aF0.218
aF0.218
ag4
asS'1jch'
p2471
(lp2472
g2471
aF0.23699999999999999
aF0.221
aF0.221
ag4
asS'3p9u'
p2473
(lp2474
g2473
aF0.23799999999999999
aF0.23499999999999999
aF0.23499999999999999
ag4
asS'4amw'
p2475
(lp2476
g2475
aF0.20699999999999999
aF0.20300000000000001
aF0.20300000000000001
ag4
asS'1e3u'
p2477
(lp2478
g2477
aF0.18099999999999999
aF0.17499999999999999
aF0.17499999999999999
ag4
asS'1b4w'
p2479
(lp2480
g2479
aF0.20499999999999999
aF0.20300000000000001
aF0.20300000000000001
ag4
asS'2ws3'
p2481
(lp2482
g2481
aF0.219
aF0.20599999999999999
aF0.20599999999999999
ag4
asS'2ws9'
p2483
(lp2484
g2483
aF0.27500000000000002
aF0.51600000000000001
aF0.249
ag4
asS'2yhe'
p2485
(lp2486
g2485
aF0.183
aF0.17399999999999999
aF0.17399999999999999
ag4
asS'3v3n'
p2487
(lp2488
g2487
aF0.221
aF0.218
aF0.218
ag4
asS'2xmh'
p2489
(lp2490
g2489
aF0.23300000000000001
aF0.25800000000000001
aF0.25800000000000001
ag4
asS'4bkn'
p2491
(lp2492
g2491
aF0.19700000000000001
aF0.19800000000000001
aF0.19800000000000001
ag4
asS'2bf7'
p2493
(lp2494
g2493
aF0.219
aF0.217
aF0.217
ag4
asS'3r9i'
p2495
(lp2496
g2495
aF0.20100000000000001
aF0.192
aF0.192
aS'OK'
p2497
asS'3zrt'
p2498
(lp2499
g2498
aF0.219
aF0.219
aF0.219
ag4
asS'1mf2'
p2500
(lp2501
g2500
aF0.20599999999999999
aF0.19500000000000001
aF0.19500000000000001
ag4
asS'1vkl'
p2502
(lp2503
g2502
aF0.17000000000000001
aF0.24299999999999999
aF0.24299999999999999
ag4
asS'4aye'
p2504
(lp2505
g2504
aF0.20699999999999999
aF0.21099999999999999
aF0.21099999999999999
ag4
asS'1pci'
p2506
(lp2507
g2506
aF0.22600000000000001
aF0.30599999999999999
aF0.30599999999999999
ag4
asS'4guq'
p2508
(lp2509
g2508
aF0.30199999999999999
aF0.29999999999999999
aF0.29999999999999999
ag4
asS'1pcf'
p2510
(lp2511
g2510
aF0.18099999999999999
aF0.18099999999999999
aF0.18099999999999999
aS'NO R-work information in pdb file!!!'
p2512
asS'4guv'
p2513
(lp2514
g2513
aF0.18099999999999999
aF0.184
aF0.184
ag4
asS'2wst'
p2515
(lp2516
g2515
aF0.17299999999999999
aF0.182
aF0.182
ag4
asS'2wsu'
p2517
(lp2518
g2517
aF0.20599999999999999
aF0.21299999999999999
aF0.21299999999999999
ag4
asS'2bfo'
p2519
(lp2520
g2519
aF0.22600000000000001
aF0.22500000000000001
aF0.22500000000000001
ag4
asS'1b47'
p2521
(lp2522
g2521
aF0.218
aF0.21199999999999999
aF0.21199999999999999
ag4
asS'2bfm'
p2523
(lp2524
g2523
aF0.253
aF0.251
aF0.251
ag4
asS'2bfa'
p2525
(lp2526
g2525
aF0.20300000000000001
aF0.19900000000000001
aF0.19900000000000001
ag4
asS'2bfg'
p2527
(lp2528
g2527
aF0.19400000000000001
aF0.20300000000000001
aF0.20300000000000001
ag4
asS'2yh2'
p2529
(lp2530
g2529
aF0.16400000000000001
aF0.17000000000000001
aF0.17000000000000001
ag4
asS'2bfp'
p2531
(lp2532
g2531
aF0.19800000000000001
aF0.19400000000000001
aF0.19400000000000001
ag4
asS'3vdd'
p2533
(lp2534
g2533
aF0.23000000000000001
aF0.48599999999999999
aF0.316
ag4
asS'2bfu'
p2535
(lp2536
g2535
aF0.23000000000000001
aF0.54500000000000004
aF0.499
ag4
asS'3zr4'
p2537
(lp2538
g2537
aF0.19400000000000001
aF0.29099999999999998
aF0.29099999999999998
ag4
asS'1h8v'
p2539
(lp2540
g2539
aF0.189
aF0.186
aF0.186
ag4
asS'1h8t'
p2541
(lp2542
g2541
aF0.246
aF0.497
aF0.249
ag4
asS'2mpr'
p2543
(lp2544
g2543
aF0.191
aF0.17299999999999999
aF0.17299999999999999
aS'OK'
p2545
asS'406d'
p2546
(lp2547
g2546
aF0.26200000000000001
aF0.32200000000000001
aF0.32200000000000001
ag4
asS'4fao'
p2548
(lp2549
g2548
aF0.219
aF0.20899999999999999
aF0.20899999999999999
ag4
asS'1kzu'
p2550
(lp2551
g2550
aF0.22700000000000001
aF0.20100000000000001
aF0.20100000000000001
ag4
asS'2v3w'
p2552
(lp2553
g2552
aF0.17999999999999999
aF0.17999999999999999
aF0.17999999999999999
ag4
asS'1wcb'
p2554
(lp2555
g2554
aF0.223
aF0.22600000000000001
aF0.22600000000000001
ag4
asS'1wce'
p2556
(lp2557
g2556
aF0.371
aF0.55200000000000005
aF0.371
aS'NO R-work information in pdb file!!!'
p2558
asS'1wcd'
p2559
(lp2560
g2559
aF0.219
aF0.47999999999999998
aF0.26800000000000002
ag4
asS'2bp1'
p2561
(lp2562
g2561
aF0.155
aF0.17699999999999999
aF0.17699999999999999
ag4
asS'3kz4'
p2563
(lp2564
g2563
aF0.32800000000000001
aF0.53600000000000003
aF0.32900000000000001
ag4
asS'2w4z'
p2565
(lp2566
g2565
aF0.29599999999999999
aF0.52100000000000002
aF0.27100000000000002
ag4
asS'3zdg'
p2567
(lp2568
g2567
aF0.17299999999999999
aF0.17499999999999999
aF0.17499999999999999
ag4
asS'2fz2'
p2569
(lp2570
g2569
aF0.27600000000000002
aF0.52800000000000002
aF0.26400000000000001
ag4
asS'2fz1'
p2571
(lp2572
g2571
aF0.309
aF0.54300000000000004
aF0.32100000000000001
ag4
asS'2v32'
p2573
(lp2574
g2573
aF0.192
aF0.192
aF0.192
ag4
asS'1ch0'
p2575
(lp2576
g2575
aF0.19800000000000001
aF0.193
aF0.193
ag4
asS'2xta'
p2577
(lp2578
g2577
aF0.188
aF0.20100000000000001
aF0.20100000000000001
ag4
asS'7msf'
p2579
(lp2580
g2579
aF0.20000000000000001
aF0.52700000000000002
aF0.19700000000000001
ag4
asS'2j04'
p2581
(lp2582
g2581
aF0.21199999999999999
aF0.26600000000000001
aF0.26600000000000001
ag4
asS'3zke'
p2583
(lp2584
g2583
aF0.19600000000000001
aF0.191
aF0.191
ag4
asS'2bpm'
p2585
(lp2586
g2585
aF0.22900000000000001
aF0.222
aF0.222
ag4
asS'2wam'
p2587
(lp2588
g2587
aF0.17499999999999999
aF0.16800000000000001
aF0.16800000000000001
ag4
asS'3k8z'
p2589
(lp2590
g2589
aF0.247
aF0.24199999999999999
aF0.24199999999999999
ag4
asS'1urz'
p2591
(lp2592
g2591
aF0.20699999999999999
aF0.20200000000000001
aF0.20200000000000001
ag4
asS'1gp7'
p2593
(lp2594
g2593
aF0.20499999999999999
aF0.20000000000000001
aF0.20000000000000001
ag4
asS'2w48'
p2595
(lp2596
g2595
aF0.218
aF0.216
aF0.216
ag4
asS'2y6v'
p2597
(lp2598
g2597
aF0.20699999999999999
aF0.20200000000000001
aF0.20200000000000001
ag4
asS'2y6q'
p2599
(lp2600
g2599
aF0.218
aF0.216
aF0.216
ag4
asS'2y6s'
p2601
(lp2602
g2601
aF0.23599999999999999
aF0.27500000000000002
aF0.27500000000000002
ag4
asS'2y6r'
p2603
(lp2604
g2603
aF0.22500000000000001
aF0.222
aF0.222
ag4
asS'2c63'
p2605
(lp2606
g2605
aF0.184
aF0.22700000000000001
aF0.22700000000000001
ag4
asS'2can'
p2607
(lp2608
g2607
aF0.21199999999999999
aF0.221
aF0.221
ag4
asS'2y6n'
p2609
(lp2610
g2609
aF0.14799999999999999
aF0.13600000000000001
aF0.13600000000000001
ag4
asS'1ehy'
p2611
(lp2612
g2611
aF0.19
aF0.189
aF0.189
ag4
asS'2xz1'
p2613
(lp2614
g2613
aF0.20899999999999999
aF0.20599999999999999
aF0.20599999999999999
ag4
asS'4b0j'
p2615
(lp2616
g2615
aF0.23300000000000001
aF0.23499999999999999
aF0.23499999999999999
ag4
asS'4b0c'
p2617
(lp2618
g2617
aF0.20499999999999999
aF0.20100000000000001
aF0.20100000000000001
ag4
asS'1lxt'
p2619
(lp2620
g2619
aF0.20100000000000001
aF0.249
aF0.249
ag4
asS'2c6x'
p2621
(lp2622
g2621
aF0.28399999999999997
aF0.26000000000000001
aF0.26000000000000001
ag4
asS'2j9o'
p2623
(lp2624
g2623
aF0.17699999999999999
aF0.184
aF0.184
ag4
asS'2j9l'
p2625
(lp2626
g2625
aF0.26300000000000001
aF0.29499999999999998
aF0.29499999999999998
ag4
asS'1arz'
p2627
(lp2628
g2627
aF0.214
aF0.21199999999999999
aF0.21199999999999999
ag4
asS'2j9u'
p2629
(lp2630
g2629
aF0.223
aF0.254
aF0.254
ag4
asS'2xzt'
p2631
(lp2632
g2631
aF0.19700000000000001
aF0.20799999999999999
aF0.20799999999999999
ag4
asS'1axs'
p2633
(lp2634
g2633
aF0.20000000000000001
aF0.20100000000000001
aF0.20100000000000001
aS'OK'
p2635
asS'1dji'
p2636
(lp2637
g2636
aF0.20899999999999999
aF0.20899999999999999
aF0.20899999999999999
aS'NO R-work information in pdb file!!!'
p2638
asS'1djh'
p2639
(lp2640
g2639
aF0.20300000000000001
aF0.20300000000000001
aF0.20300000000000001
aS'NO R-work information in pdb file!!!'
p2641
asS'2vle'
p2642
(lp2643
g2642
aF0.19600000000000001
aF0.187
aF0.187
ag4
asS'1dx9'
p2644
(lp2645
g2644
aF0.16900000000000001
aF0.159
aF0.159
ag4
asS'4alx'
p2646
(lp2647
g2646
aF0.20300000000000001
aF0.19600000000000001
aF0.19600000000000001
ag4
asS'4alb'
p2648
(lp2649
g2648
aF0.20200000000000001
aF0.20499999999999999
aF0.20499999999999999
ag4
asS'2iyp'
p2650
(lp2651
g2650
aF0.17899999999999999
aF0.182
aF0.182
ag4
asS'2vz0'
p2652
(lp2653
g2652
aF0.154
aF0.17100000000000001
aF0.17100000000000001
ag4
asS'2vl0'
p2654
(lp2655
g2654
aF0.26300000000000001
aF0.248
aF0.248
ag4
asS'2vl1'
p2656
(lp2657
g2656
aF0.20200000000000001
aF0.21299999999999999
aF0.21299999999999999
ag4
asS'2vl6'
p2658
(lp2659
g2658
aF0.23300000000000001
aF0.30599999999999999
aF0.30599999999999999
ag4
asS'4h4d'
p2660
(lp2661
g2660
aF0.191
aF0.187
aF0.187
ag4
asS'4h4e'
p2662
(lp2663
g2662
aF0.17799999999999999
aF0.17599999999999999
aF0.17599999999999999
ag4
asS'4h4c'
p2664
(lp2665
g2664
aF0.182
aF0.182
aF0.182
ag4
asS'4al4'
p2666
(lp2667
g2666
aF0.188
aF0.19400000000000001
aF0.19400000000000001
ag4
asS'2vzb'
p2668
(lp2669
g2668
aF0.19500000000000001
aF0.19900000000000001
aF0.19900000000000001
ag4
asS'2vza'
p2670
(lp2671
g2670
aF0.24399999999999999
aF0.29499999999999998
aF0.29499999999999998
ag4
asS'4al9'
p2672
(lp2673
g2672
aF0.16700000000000001
aF0.16700000000000001
aF0.16700000000000001
ag4
asS'2iy4'
p2674
(lp2675
g2674
aF0.182
aF0.182
aF0.182
ag4
asS'4gb3'
p2676
(lp2677
g2676
aF0.33000000000000002
aF0.52500000000000002
aF0.35399999999999998
ag4
asS'2w0d'
p2678
(lp2679
g2678
aF0.17899999999999999
aF0.20100000000000001
aF0.20100000000000001
aS'OK'
p2680
asS'2bgn'
p2681
(lp2682
g2681
aF0.22700000000000001
aF0.222
aF0.222
ag4
asS'2bgj'
p2683
(lp2684
g2683
aF0.216
aF0.224
aF0.224
ag4
asS'1ddo'
p2685
(lp2686
g2685
aF0.218
aF0.218
aF0.218
aS'NO R-work information in pdb file!!!'
p2687
asS'1ddl'
p2688
(lp2689
g2688
aF0.151
aF0.51500000000000001
aF0.17199999999999999
ag4
asS'1ppr'
p2690
(lp2691
g2690
aF0.17899999999999999
aF0.16900000000000001
aF0.16900000000000001
ag4
asS'4l6w'
p2692
(lp2693
g2692
aF0.17399999999999999
aF0.17899999999999999
aF0.17899999999999999
ag4
asS'3vun'
p2694
(lp2695
g2694
aF0.216
aF0.21199999999999999
aF0.21199999999999999
ag4
asS'2ja3'
p2696
(lp2697
g2696
aF0.27800000000000002
aF0.25600000000000001
aF0.25600000000000001
ag4
asS'4gbt'
p2698
(lp2699
g2698
aF0.25600000000000001
aF0.52200000000000002
aF0.26200000000000001
ag4
asS'1brm'
p2700
(lp2701
g2700
aF0.22500000000000001
aF0.21199999999999999
aF0.21199999999999999
ag4
asS'2xut'
p2702
(lp2703
g2702
aF0.27700000000000002
aF0.36299999999999999
aF0.36299999999999999
ag4
asS'1brr'
p2704
(lp2705
g2704
aF0.25600000000000001
aF0.247
aF0.247
ag4
asS'4iz5'
p2706
(lp2707
g2706
aF0.24299999999999999
aF0.23899999999999999
aF0.23899999999999999
ag4
asS'3hag'
p2708
(lp2709
g2708
aF0.27700000000000002
aF0.54000000000000004
aF0.28899999999999998
ag4
asS'1vpf'
p2710
(lp2711
g2710
aF0.20499999999999999
aF0.20200000000000001
aF0.20200000000000001
ag4
asS'3v29'
p2712
(lp2713
g2712
aF0.216
aF0.44900000000000001
aF0.44900000000000001
ag4
asS'4bh0'
p2714
(lp2715
g2714
aF0.21099999999999999
aF0.21299999999999999
aF0.21299999999999999
ag4
asS'4bh6'
p2716
(lp2717
g2716
aF0.219
aF0.22
aF0.22
ag4
asS'2xuq'
p2718
(lp2719
g2718
aF0.20100000000000001
aF0.20100000000000001
aF0.20100000000000001
ag4
asS'2xup'
p2720
(lp2721
g2720
aF0.20300000000000001
aF0.20200000000000001
aF0.20200000000000001
ag4
asS'3sqc'
p2722
(lp2723
g2722
aF0.20899999999999999
aF0.20699999999999999
aF0.20699999999999999
ag4
asS'3v22'
p2724
(lp2725
g2724
aF0.218
aF0.51200000000000001
aF0.51200000000000001
ag4
asS'3v25'
p2726
(lp2727
g2726
aF0.218
aF0.45600000000000002
aF0.45600000000000002
ag4
asS'3v24'
p2728
(lp2729
g2728
aF0.218
aF0.51000000000000001
aF0.51000000000000001
ag4
asS'3v26'
p2730
(lp2731
g2730
aF0.216
aF0.497
aF0.497
ag4
asS'2xui'
p2732
(lp2733
g2732
aF0.192
aF0.20000000000000001
aF0.20000000000000001
ag4
asS'2xuh'
p2734
(lp2735
g2734
aF0.19700000000000001
aF0.19500000000000001
aF0.19500000000000001
ag4
asS'2xuk'
p2736
(lp2737
g2736
aF0.19900000000000001
aF0.19700000000000001
aF0.19700000000000001
ag4
asS'2xuj'
p2738
(lp2739
g2738
aF0.20699999999999999
aF0.20799999999999999
aF0.20799999999999999
ag4
asS'2xuo'
p2740
(lp2741
g2740
aF0.19900000000000001
aF0.19700000000000001
aF0.19700000000000001
ag4
asS'1c4q'
p2742
(lp2743
g2742
aF0.17000000000000001
aF0.16500000000000001
aF0.16500000000000001
ag4
asS'2xud'
p2744
(lp2745
g2744
aF0.193
aF0.19700000000000001
aF0.19700000000000001
ag4
asS'2xug'
p2746
(lp2747
g2746
aF0.192
aF0.19700000000000001
aF0.19700000000000001
ag4
asS'2xuf'
p2748
(lp2749
g2748
aF0.191
aF0.19500000000000001
aF0.19500000000000001
ag4
asS'3tw7'
p2750
(lp2751
g2750
aF0.25
aF0.249
aF0.249
ag4
asS'1b2x'
p2752
(lp2753
g2752
aF0.17299999999999999
aF0.16300000000000001
aF0.16300000000000001
ag4
asS'2ykv'
p2754
(lp2755
g2754
aF0.17599999999999999
aF0.17699999999999999
aF0.17699999999999999
ag4
asS'1oaz'
p2756
(lp2757
g2756
aF0.20799999999999999
aF0.311
aF0.311
ag4
asS'1oay'
p2758
(lp2759
g2758
aF0.25800000000000001
aF0.36699999999999999
aF0.36699999999999999
ag4
asS'1oax'
p2760
(lp2761
g2760
aF0.23799999999999999
aF0.29499999999999998
aF0.29499999999999998
ag4
asS'2yks'
p2762
(lp2763
g2762
aF0.24199999999999999
aF0.246
aF0.246
ag4
asS'1oar'
p2764
(lp2765
g2764
aF0.20499999999999999
aF0.23999999999999999
aF0.23999999999999999
ag4
asS'1oau'
p2766
(lp2767
g2766
aF0.22600000000000001
aF0.28199999999999997
aF0.28199999999999997
ag4
asS'1oat'
p2768
(lp2769
g2768
aF0.185
aF0.185
aF0.185
ag4
asS'1c48'
p2770
(lp2771
g2770
aF0.19600000000000001
aF0.191
aF0.191
ag4
asS'1c41'
p2772
(lp2773
g2772
aF0.248
aF0.22500000000000001
aF0.22500000000000001
ag4
asS'4bhh'
p2774
(lp2775
g2774
aF0.19800000000000001
aF0.219
aF0.219
ag4
asS'1d3b'
p2776
(lp2777
g2776
aF0.21299999999999999
aF0.19800000000000001
aF0.19800000000000001
ag4
asS'4gtl'
p2778
(lp2779
g2778
aF0.189
aF0.193
aF0.193
ag4
asS'2bq5'
p2780
(lp2781
g2780
aF0.29299999999999998
aF0.59899999999999998
aF0.27300000000000002
ag4
asS'4gtu'
p2782
(lp2783
g2782
aF0.245
aF0.27000000000000002
aF0.27000000000000002
ag4
asS'3zuo'
p2784
(lp2785
g2784
aF0.22
aF0.22700000000000001
aF0.22700000000000001
ag4
asS'2c5r'
p2786
(lp2787
g2786
aF0.251
aF0.32900000000000001
aF0.32900000000000001
ag4
asS'2v41'
p2788
(lp2789
g2788
aF0.17699999999999999
aF0.23599999999999999
aF0.23599999999999999
ag4
asS'2v43'
p2790
(lp2791
g2790
aF0.22800000000000001
aF0.26100000000000001
aF0.26100000000000001
ag4
asS'2c5c'
p2792
(lp2793
g2792
aF0.19800000000000001
aF0.245
aF0.245
ag4
asS'1ci4'
p2794
(lp2795
g2794
aF0.20999999999999999
aF0.20499999999999999
aF0.20499999999999999
ag4
asS'2c5d'
p2796
(lp2797
g2796
aF0.24099999999999999
aF0.21199999999999999
aF0.21199999999999999
ag4
asS'1ux1'
p2798
(lp2799
g2798
aF0.21299999999999999
aF0.20599999999999999
aF0.20599999999999999
ag4
asS'4hl8'
p2800
(lp2801
g2800
aF0.35199999999999998
aF0.51000000000000001
aF0.35899999999999999
ag4
asS'2pel'
p2802
(lp2803
g2802
aF0.157
aF0.157
aF0.157
aS'NO R-work information in pdb file!!!'
p2804
asS'1gq3'
p2805
(lp2806
g2805
aF0.187
aF0.187
aF0.187
aS'NO R-work information in pdb file!!!'
p2807
asS'1qpr'
p2808
(lp2809
g2808
aF0.186
aF0.17399999999999999
aF0.17399999999999999
ag4
asS'1gq6'
p2810
(lp2811
g2810
aF0.14199999999999999
aF0.17499999999999999
aF0.17499999999999999
ag4
asS'1nmt'
p2812
(lp2813
g2812
aF0.214
aF0.29899999999999999
aF0.29899999999999999
ag4
asS'2c50'
p2814
(lp2815
g2814
aF0.219
aF0.51500000000000001
aF0.219
ag4
asS'2c51'
p2816
(lp2817
g2816
aF0.185
aF0.54500000000000004
aF0.17999999999999999
ag4
asS'2c57'
p2818
(lp2819
g2818
aF0.20699999999999999
aF0.27700000000000002
aF0.27700000000000002
ag4
asS'2v4h'
p2820
(lp2821
g2820
aF0.20799999999999999
aF0.26000000000000001
aF0.26000000000000001
ag4
asS'2v4i'
p2822
(lp2823
g2822
aF0.214
aF0.29399999999999998
aF0.29399999999999998
ag4
asS'1as8'
p2824
(lp2825
g2824
aF0.19400000000000001
aF0.27500000000000002
aF0.27500000000000002
ag4
asS'1ciw'
p2826
(lp2827
g2826
aF0.19400000000000001
aF0.184
aF0.184
ag4
asS'1as7'
p2828
(lp2829
g2828
aF0.191
aF0.17899999999999999
aF0.17899999999999999
ag4
asS'1as6'
p2830
(lp2831
g2830
aF0.18099999999999999
aF0.17299999999999999
aF0.17299999999999999
ag4
asS'4hls'
p2832
(lp2833
g2832
aF0.14599999999999999
aF0.158
aF0.158
ag4
asS'2vhg'
p2834
(lp2835
g2834
aF0.28499999999999998
aF0.27500000000000002
aF0.27500000000000002
aS'OK'
p2836
asS'1gqm'
p2837
(lp2838
g2837
aF0.217
aF0.26000000000000001
aF0.26000000000000001
ag4
asS'1uxl'
p2839
(lp2840
g2839
aF0.17000000000000001
aF0.20499999999999999
aF0.20499999999999999
ag4
asS'1uxm'
p2841
(lp2842
g2841
aF0.22800000000000001
aF0.26900000000000002
aF0.26900000000000002
ag4
asS'1uxb'
p2843
(lp2844
g2843
aF0.17499999999999999
aF0.17299999999999999
aF0.17299999999999999
ag4
asS'1uxa'
p2845
(lp2846
g2845
aF0.17999999999999999
aF0.17499999999999999
aF0.17499999999999999
ag4
asS'1osm'
p2847
(lp2848
g2847
aF0.20799999999999999
aF0.442
aF0.442
ag4
asS'2x2h'
p2849
(lp2850
g2849
aF0.16800000000000001
aF0.17299999999999999
aF0.17299999999999999
ag4
asS'1hc7'
p2851
(lp2852
g2851
aF0.20599999999999999
aF0.192
aF0.192
ag4
asS'2x2j'
p2853
(lp2854
g2853
aF0.23400000000000001
aF0.23599999999999999
aF0.23599999999999999
ag4
asS'2x2s'
p2855
(lp2856
g2855
aF0.14000000000000001
aF0.17000000000000001
aF0.17000000000000001
ag4
asS'4a0u'
p2857
(lp2858
g2857
aF0.14899999999999999
aF0.14699999999999999
aF0.14699999999999999
ag4
asS'4a0t'
p2859
(lp2860
g2859
aF0.155
aF0.152
aF0.152
ag4
asS'2j4l'
p2861
(lp2862
g2861
aF0.246
aF0.23799999999999999
aF0.23799999999999999
ag4
asS'3s6p'
p2863
(lp2864
g2863
aF0.23699999999999999
aF0.52900000000000003
aF0.24099999999999999
ag4
asS'2j4j'
p2865
(lp2866
g2865
aF0.215
aF0.218
aF0.218
ag4
asS'2j4k'
p2867
(lp2868
g2867
aF0.219
aF0.21099999999999999
aF0.21099999999999999
ag4
asS'2j4u'
p2869
(lp2870
g2869
aF0.215
aF0.20899999999999999
aF0.20899999999999999
ag4
asS'4a0g'
p2871
(lp2872
g2871
aF0.17699999999999999
aF0.16800000000000001
aF0.16800000000000001
ag4
asS'2qij'
p2873
(lp2874
g2873
aF0.33100000000000002
aF0.52400000000000002
aF0.33100000000000002
aS'NO R-work information in pdb file!!!'
p2875
asS'2y1v'
p2876
(lp2877
g2876
aF0.187
aF0.23899999999999999
aF0.23899999999999999
ag4
asS'1hcu'
p2878
(lp2879
g2878
aF0.17699999999999999
aF0.17299999999999999
aF0.17299999999999999
ag4
asS'4b1o'
p2880
(lp2881
g2880
aF0.29199999999999998
aF0.438
aF0.438
ag4
asS'1hcy'
p2882
(lp2883
g2882
aF0.218
aF0.218
aF0.218
aS'NO R-work information in pdb file!!!'
p2884
asS'1bmo'
p2885
(lp2886
g2885
aF0.26200000000000001
aF0.246
aF0.246
ag4
asS'4b1p'
p2887
(lp2888
g2887
aF0.29199999999999998
aF0.45300000000000001
aF0.45300000000000001
ag4
asS'4h1z'
p2889
(lp2890
g2889
aF0.17199999999999999
aF0.17499999999999999
aF0.17499999999999999
ag4
asS'2x23'
p2891
(lp2892
g2891
aF0.16800000000000001
aF0.17899999999999999
aF0.17899999999999999
ag4
asS'1kmm'
p2893
(lp2894
g2893
aF0.221
aF0.26200000000000001
aF0.26200000000000001
ag4
asS'1kmb'
p2895
(lp2896
g2895
aF0.20200000000000001
aF0.19900000000000001
aF0.19900000000000001
ag4
asS'8gss'
p2897
(lp2898
g2897
aF0.193
aF0.183
aF0.183
ag4
asS'1qnn'
p2899
(lp2900
g2899
aF0.17899999999999999
aF0.17100000000000001
aF0.17100000000000001
ag4
asS'4hk2'
p2901
(lp2902
g2901
aF0.19700000000000001
aF0.20200000000000001
aF0.20200000000000001
ag4
asS'3djf'
p2903
(lp2904
g2903
aF0.20100000000000001
aF0.193
aF0.193
ag4
asS'4aym'
p2905
(lp2906
g2905
aF0.254
aF0.27200000000000002
aF0.27200000000000002
ag4
asS'4ger'
p2907
(lp2908
g2907
aF0.20000000000000001
aF0.192
aF0.192
ag4
asS'4j70'
p2909
(lp2910
g2909
aF0.17199999999999999
aF0.17699999999999999
aF0.17699999999999999
ag4
asS'4gej'
p2911
(lp2912
g2911
aF0.21199999999999999
aF0.219
aF0.219
ag4
asS'4gek'
p2913
(lp2914
g2913
aF0.17100000000000001
aF0.16800000000000001
aF0.16800000000000001
ag4
asS'4ak9'
p2915
(lp2916
g2915
aF0.215
aF0.21299999999999999
aF0.21299999999999999
ag4
asS'3obv'
p2917
(lp2918
g2917
aF0.19900000000000001
aF0.189
aF0.189
ag4
asS'1j4a'
p2919
(lp2920
g2919
aF0.20399999999999999
aF0.19800000000000001
aF0.19800000000000001
ag4
asS'1j4e'
p2921
(lp2922
g2921
aF0.21299999999999999
aF0.21199999999999999
aF0.21199999999999999
ag4
asS'2jgv'
p2923
(lp2924
g2923
aF0.19800000000000001
aF0.19700000000000001
aF0.19700000000000001
ag4
asS'4r1r'
p2925
(lp2926
g2925
aF0.27300000000000002
aF0.27300000000000002
aF0.27300000000000002
aS'NO R-work information in pdb file!!!'
p2927
asS'2vml'
p2928
(lp2929
g2928
aF0.192
aF0.20399999999999999
aF0.20399999999999999
ag4
asS'4ay6'
p2930
(lp2931
g2930
aF0.22700000000000001
aF0.22800000000000001
aF0.22800000000000001
ag4
asS'4ay4'
p2932
(lp2933
g2932
aF0.14699999999999999
aF0.16300000000000001
aF0.16300000000000001
ag4
asS'4ay5'
p2934
(lp2935
g2934
aF0.17399999999999999
aF0.17799999999999999
aF0.17799999999999999
ag4
asS'2cnw'
p2936
(lp2937
g2936
aF0.183
aF0.184
aF0.184
ag4
asS'2ixf'
p2938
(lp2939
g2938
aF0.216
aF0.25600000000000001
aF0.25600000000000001
ag4
asS'4f7r'
p2940
(lp2941
g2940
aF0.185
aF0.19400000000000001
aF0.19400000000000001
ag4
asS'2cnb'
p2942
(lp2943
g2942
aF0.19900000000000001
aF0.20200000000000001
aF0.20200000000000001
ag4
asS'1ohy'
p2944
(lp2945
g2944
aF0.19800000000000001
aF0.22
aF0.22
ag4
asS'1jac'
p2946
(lp2947
g2946
aF0.17399999999999999
aF0.20000000000000001
aF0.20000000000000001
ag4
asS'1bch'
p2948
(lp2949
g2948
aF0.219
aF0.222
aF0.222
ag4
asS'1bcj'
p2950
(lp2951
g2950
aF0.22
aF0.223
aF0.223
ag4
asS'2yjz'
p2952
(lp2953
g2952
aF0.20300000000000001
aF0.20999999999999999
aF0.20999999999999999
ag4
asS'4egr'
p2954
(lp2955
g2954
aF0.17699999999999999
aF0.186
aF0.186
ag4
asS'1e1h'
p2956
(lp2957
g2956
aF0.19600000000000001
aF0.187
aF0.187
ag4
asS'4bia'
p2958
(lp2959
g2958
aF0.26700000000000002
aF0.35999999999999999
aF0.35999999999999999
ag4
asS'2yjl'
p2960
(lp2961
g2960
aF0.217
aF0.215
aF0.215
ag4
asS'2jbf'
p2962
(lp2963
g2962
aF0.17799999999999999
aF0.185
aF0.185
ag4
asS'2jbw'
p2964
(lp2965
g2964
aF0.18099999999999999
aF0.17899999999999999
aF0.17899999999999999
ag4
asS'2jbt'
p2966
(lp2967
g2966
aF0.217
aF0.253
aF0.253
ag4
asS'2jbr'
p2968
(lp2969
g2968
aF0.218
aF0.254
aF0.254
ag4
asS'2jbs'
p2970
(lp2971
g2970
aF0.251
aF0.307
aF0.307
ag4
asS'3ztj'
p2972
(lp2973
g2972
aF0.23400000000000001
aF0.224
aF0.224
ag4
asS'3c6q'
p2974
(lp2975
g2974
aF0.214
aF0.20499999999999999
aF0.20499999999999999
ag4
asS'2yj0'
p2976
(lp2977
g2976
aF0.217
aF0.224
aF0.224
ag4
asS'4bi9'
p2978
(lp2979
g2978
aF0.224
aF0.313
aF0.313
ag4
asS'2wqu'
p2980
(lp2981
g2980
aF0.191
aF0.20399999999999999
aF0.20399999999999999
ag4
asS'4bi5'
p2982
(lp2983
g2982
aF0.23899999999999999
aF0.22800000000000001
aF0.22800000000000001
ag4
asS'1ohg'
p2984
(lp2985
g2984
aF0.373
aF0.54500000000000004
aF0.307
ag4
asS'2wql'
p2986
(lp2987
g2986
aF0.221
aF0.24099999999999999
aF0.24099999999999999
ag4
asS'4gw9'
p2988
(lp2989
g2988
aF0.20000000000000001
aF0.217
aF0.217
ag4
asS'4aw4'
p2990
(lp2991
g2990
aF0.16700000000000001
aF0.20899999999999999
aF0.20899999999999999
ag4
asS'4aw6'
p2992
(lp2993
g2992
aF0.246
aF0.25800000000000001
aF0.25800000000000001
ag4
asS'4eqv'
p2994
(lp2995
g2994
aF0.221
aF0.249
aF0.249
ag4
asS'3k4g'
p2996
(lp2997
g2996
aF0.193
aF0.27500000000000002
aF0.27500000000000002
ag4
asS'1cjd'
p2998
(lp2999
g2998
aF0.17799999999999999
aF0.19
aF0.19
ag4
asS'1uyj'
p3000
(lp3001
g3000
aF0.23599999999999999
aF0.23499999999999999
aF0.23499999999999999
ag4
asS'1uyw'
p3002
(lp3003
g3002
aF0.19900000000000001
aF0.21099999999999999
aF0.21099999999999999
ag4
asS'2v5h'
p3004
(lp3005
g3004
aF0.20000000000000001
aF0.22800000000000001
aF0.22800000000000001
ag4
asS'1uyp'
p3006
(lp3007
g3006
aF0.17699999999999999
aF0.188
aF0.188
ag4
asS'4hmr'
p3008
(lp3009
g3008
aF0.155
aF0.17199999999999999
aF0.17199999999999999
ag4
asS'4hmg'
p3010
(lp3011
g3010
aF0.23100000000000001
aF0.218
aF0.218
aS'OK'
p3012
asS'2br8'
p3013
(lp3014
g3013
aF0.19800000000000001
aF0.22500000000000001
aF0.22500000000000001
ag4
asS'1grw'
p3015
(lp3016
g3015
aF0.22800000000000001
aF0.224
aF0.224
ag4
asS'4hmm'
p3017
(lp3018
g3017
aF0.14699999999999999
aF0.16200000000000001
aF0.16200000000000001
ag4
asS'2wg3'
p3019
(lp3020
g3019
aF0.224
aF0.25
aF0.25
ag4
asS'2bt2'
p3021
(lp3022
g3021
aF0.192
aF0.246
aF0.246
aS' FC,PHIFC :: FOM :: '
p3023
asS'2c5q'
p3024
(lp3025
g3024
aF0.155
aF0.16500000000000001
aF0.16500000000000001
ag4
asS'3i85'
p3026
(lp3027
g3026
aF0.22700000000000001
aF0.22600000000000001
aF0.22600000000000001
ag4
asS'2v50'
p3028
(lp3029
g3028
aF0.24199999999999999
aF0.23699999999999999
aF0.23699999999999999
ag4
asS'3zfe'
p3030
(lp3031
g3030
aF0.23999999999999999
aF0.51800000000000002
aF0.23100000000000001
ag4
asS'3zfg'
p3032
(lp3033
g3032
aF0.249
aF0.53000000000000003
aF0.24399999999999999
ag4
asS'3zff'
p3034
(lp3035
g3034
aF0.24299999999999999
aF0.51100000000000001
aF0.23799999999999999
ag4
asS'3gie'
p3036
(lp3037
g3036
aF0.19400000000000001
aF0.255
aF0.255
ag4
asS'1cj1'
p3038
(lp3039
g3038
aF0.30499999999999999
aF0.26600000000000001
aF0.26600000000000001
ag4
asS'3zfw'
p3040
(lp3041
g3040
aF0.216
aF0.216
aF0.216
aS'NO R-work information in pdb file!!!'
p3042
asS'2wgf'
p3043
(lp3044
g3043
aF0.16600000000000001
aF0.28599999999999998
aF0.28599999999999998
ag4
asS'2wgg'
p3045
(lp3046
g3045
aF0.13700000000000001
aF0.20999999999999999
aF0.20999999999999999
ag4
asS'3o44'
p3047
(lp3048
g3047
aF0.218
aF0.215
aF0.215
ag4
asS'1gr7'
p3049
(lp3050
g3049
aF0.17499999999999999
aF0.185
aF0.185
ag4
asS'4fqb'
p3051
(lp3052
g3051
aF0.20100000000000001
aF0.20499999999999999
aF0.20499999999999999
ag4
asS'2brq'
p3053
(lp3054
g3053
aF0.192
aF0.23999999999999999
aF0.23999999999999999
ag4
asS'2y0p'
p3055
(lp3056
g3055
aF0.19700000000000001
aF0.21299999999999999
aF0.21299999999999999
ag4
asS'1ap2'
p3057
(lp3058
g3057
aF0.20399999999999999
aF0.218
aF0.218
ag4
asS'2y0c'
p3059
(lp3060
g3059
aF0.16300000000000001
aF0.161
aF0.161
ag4
asS'2y0b'
p3061
(lp3062
g3061
aF0.192
aF0.21199999999999999
aF0.21199999999999999
ag4
asS'2y0f'
p3063
(lp3064
g3063
aF0.19900000000000001
aF0.193
aF0.193
ag4
asS'2y0e'
p3065
(lp3066
g3065
aF0.16300000000000001
aF0.16
aF0.16
ag4
asS'2y0d'
p3067
(lp3068
g3067
aF0.21199999999999999
aF0.20999999999999999
aF0.20999999999999999
ag4
asS'2xns'
p3069
(lp3070
g3069
aF0.223
aF0.21099999999999999
aF0.21099999999999999
ag4
asS'2y0n'
p3071
(lp3072
g3071
aF0.23200000000000001
aF0.23200000000000001
aF0.23200000000000001
ag4
asS'3r1r'
p3073
(lp3074
g3073
aF0.23499999999999999
aF0.23499999999999999
aF0.23499999999999999
aS'NO R-work information in pdb file!!!'
p3075
asS'2c4o'
p3076
(lp3077
g3076
aF0.22700000000000001
aF0.33900000000000002
aF0.33900000000000002
ag4
asS'2c4j'
p3078
(lp3079
g3078
aF0.19400000000000001
aF0.192
aF0.192
ag4
asS'2c4q'
p3080
(lp3081
g3080
aF0.19
aF0.54100000000000004
aF0.182
ag4
asS'1qoh'
p3082
(lp3083
g3082
aF0.188
aF0.184
aF0.184
ag4
asS'2c4y'
p3084
(lp3085
g3084
aF0.192
aF0.54200000000000004
aF0.17100000000000001
ag4
asS'2c4z'
p3086
(lp3087
g3086
aF0.191
aF0.53900000000000003
aF0.17199999999999999
ag4
asS'1bl8'
p3088
(lp3089
g3088
aF0.28000000000000003
aF0.29399999999999998
aF0.29399999999999998
ag4
asS'3kae'
p3090
(lp3091
g3090
aF0.217
aF0.20899999999999999
aF0.20899999999999999
ag4
asS'1hb8'
p3092
(lp3093
g3092
aF0.223
aF0.219
aF0.219
ag4
asS'1apx'
p3094
(lp3095
g3094
aF0.193
aF0.20399999999999999
aF0.20399999999999999
ag4
asS'2xn1'
p3096
(lp3097
g3096
aF0.14699999999999999
aF0.13400000000000001
aF0.13400000000000001
ag4
asS'3zhe'
p3098
(lp3099
g3098
aF0.222
aF0.224
aF0.224
ag4
asS'3qpr'
p3100
(lp3101
g3100
aF0.46100000000000002
aF0.48699999999999999
aF0.38700000000000001
ag4
asS'2c44'
p3102
(lp3103
g3102
aF0.19600000000000001
aF0.189
aF0.189
ag4
asS'2c47'
p3104
(lp3105
g3104
aF0.20799999999999999
aF0.26600000000000001
aF0.26600000000000001
ag4
asS'2c46'
p3106
(lp3107
g3106
aF0.20399999999999999
aF0.26000000000000001
aF0.26000000000000001
ag4
asS'2c41'
p3108
(lp3109
g3108
aF0.16800000000000001
aF0.16700000000000001
aF0.16700000000000001
ag4
asS'3zhp'
p3110
(lp3111
g3110
aF0.22700000000000001
aF0.23899999999999999
aF0.23899999999999999
ag4
asS'4fm5'
p3112
(lp3113
g3112
aF0.23999999999999999
aF0.23599999999999999
aF0.23599999999999999
ag4
asS'2vnk'
p3114
(lp3115
g3114
aF0.20000000000000001
aF0.22500000000000001
aF0.22500000000000001
ag4
asS'1ae1'
p3116
(lp3117
g3116
aF0.155
aF0.153
aF0.153
ag4
asS'5cox'
p3118
(lp3119
g3118
aF0.32100000000000001
aF0.249
aF0.249
ag4
asS'2qzv'
p3120
(lp3121
g3120
aF0.61499999999999999
aF0.61399999999999999
aF0.56299999999999994
ag4
asS'4jcf'
p3122
(lp3123
g3122
aF0.16400000000000001
aF0.16700000000000001
aF0.16700000000000001
ag4
asS'4jce'
p3124
(lp3125
g3124
aF0.14899999999999999
aF0.157
aF0.157
ag4
asS'4ajp'
p3126
(lp3127
g3126
aF0.16600000000000001
aF0.17399999999999999
aF0.17399999999999999
ag4
asS'1bbz'
p3128
(lp3129
g3128
aF0.20499999999999999
aF0.47799999999999998
aF0.47799999999999998
ag4
asS'4jct'
p3130
(lp3131
g3130
aF0.21099999999999999
aF0.20499999999999999
aF0.20499999999999999
ag4
asS'1w48'
p3132
(lp3133
g3132
aF0.16400000000000001
aF0.16
aF0.16
ag4
asS'1w49'
p3134
(lp3135
g3134
aF0.188
aF0.17399999999999999
aF0.17399999999999999
ag4
asS'4aje'
p3136
(lp3137
g3136
aF0.20200000000000001
aF0.19600000000000001
aF0.19600000000000001
ag4
asS'1w44'
p3138
(lp3139
g3138
aF0.182
aF0.17399999999999999
aF0.17399999999999999
ag4
asS'1gq7'
p3140
(lp3141
g3140
aF0.222
aF0.214
aF0.214
ag4
asS'1w46'
p3142
(lp3143
g3142
aF0.20899999999999999
aF0.20000000000000001
aF0.20000000000000001
ag4
asS'1w47'
p3144
(lp3145
g3144
aF0.23899999999999999
aF0.188
aF0.188
ag4
asS'4ajo'
p3146
(lp3147
g3146
aF0.14899999999999999
aF0.155
aF0.155
ag4
asS'4ajn'
p3148
(lp3149
g3148
aF0.17899999999999999
aF0.18099999999999999
aF0.18099999999999999
ag4
asS'4ajl'
p3150
(lp3151
g3150
aF0.14199999999999999
aF0.14399999999999999
aF0.14399999999999999
ag4
asS'2x3h'
p3152
(lp3153
g3152
aF0.17599999999999999
aF0.17199999999999999
aF0.17199999999999999
ag4
asS'1bwf'
p3154
(lp3155
g3154
aF0.16700000000000001
aF0.16700000000000001
aF0.16700000000000001
aS'NO R-work information in pdb file!!!'
p3156
asS'4aj2'
p3157
(lp3158
g3157
aF0.158
aF0.16700000000000001
aF0.16700000000000001
ag4
asS'4aj1'
p3159
(lp3160
g3159
aF0.17299999999999999
aF0.17799999999999999
aF0.17799999999999999
ag4
asS'4aj5'
p3161
(lp3162
g3161
aF0.23400000000000001
aF0.22500000000000001
aF0.22500000000000001
ag4
asS'4aj4'
p3163
(lp3164
g3163
aF0.19500000000000001
aF0.191
aF0.191
ag4
asS'2kmb'
p3165
(lp3166
g3165
aF0.19
aF0.191
aF0.191
ag4
asS'1w4a'
p3167
(lp3168
g3167
aF0.24299999999999999
aF0.34699999999999998
aF0.34699999999999998
ag4
asS'1w4b'
p3169
(lp3170
g3169
aF0.23599999999999999
aF0.25900000000000001
aF0.25900000000000001
ag4
asS'1w4c'
p3171
(lp3172
g3171
aF0.251
aF0.221
aF0.221
ag4
asS'2j5t'
p3173
(lp3174
g3173
aF0.19700000000000001
aF0.23799999999999999
aF0.23799999999999999
ag4
asS'2a2u'
p3175
(lp3176
g3175
aF0.248
aF0.24299999999999999
aF0.24299999999999999
ag4
asS'2qhd'
p3177
(lp3178
g3177
aF0.22800000000000001
aF0.247
aF0.247
ag4
asS'1w4v'
p3179
(lp3180
g3179
aF0.16900000000000001
aF0.22600000000000001
aF0.22600000000000001
ag4
asS'1w4r'
p3181
(lp3182
g3181
aF0.159
aF0.16700000000000001
aF0.16700000000000001
ag4
asS'1vz8'
p3183
(lp3184
g3183
aF0.23499999999999999
aF0.22500000000000001
aF0.22500000000000001
ag4
asS'2wpw'
p3185
(lp3186
g3185
aF0.20899999999999999
aF0.20499999999999999
aF0.20499999999999999
ag4
asS'1vz7'
p3187
(lp3188
g3187
aF0.223
aF0.222
aF0.222
ag4
asS'2wpe'
p3189
(lp3190
g3189
aF0.16800000000000001
aF0.16600000000000001
aF0.16600000000000001
ag4
asS'2wpf'
p3191
(lp3192
g3191
aF0.185
aF0.183
aF0.183
ag4
asS'2wpc'
p3193
(lp3194
g3193
aF0.16500000000000001
aF0.16200000000000001
aF0.16200000000000001
ag4
asS'2wu5'
p3195
(lp3196
g3195
aF0.21299999999999999
aF0.21099999999999999
aF0.21099999999999999
ag4
asS'1mel'
p3197
(lp3198
g3197
aF0.221
aF0.191
aF0.191
ag4
asS'2wu2'
p3199
(lp3200
g3199
aF0.17699999999999999
aF0.189
aF0.189
ag4
asS'2oag'
p3201
(lp3202
g3201
aF0.19700000000000001
aF0.19
aF0.19
ag4
asS'2wp9'
p3203
(lp3204
g3203
aF0.19
aF0.191
aF0.191
ag4
asS'4ix9'
p3205
(lp3206
g3205
aF0.152
aF0.16200000000000001
aF0.16200000000000001
ag4
asS'2wp2'
p3207
(lp3208
g3207
aF0.217
aF0.20899999999999999
aF0.20899999999999999
ag4
asS'1dcn'
p3209
(lp3210
g3209
aF0.22900000000000001
aF0.34899999999999998
aF0.34899999999999998
ag4
asS'4gdc'
p3211
(lp3212
g3211
aF0.20999999999999999
aF0.20300000000000001
aF0.20300000000000001
ag4
asS'1bpw'
p3213
(lp3214
g3213
aF0.23899999999999999
aF0.22500000000000001
aF0.22500000000000001
ag4
asS'2xrc'
p3215
(lp3216
g3215
aF0.20000000000000001
aF0.30399999999999999
aF0.30399999999999999
ag4
asS'4gdd'
p3217
(lp3218
g3217
aF0.21199999999999999
aF0.19900000000000001
aF0.19900000000000001
ag4
asS'3uic'
p3219
(lp3220
g3219
aF0.24099999999999999
aF0.24099999999999999
aF0.24099999999999999
ag4
asS'4j4b'
p3221
(lp3222
g3221
aF0.20499999999999999
aF0.20399999999999999
aF0.20399999999999999
ag4
asS'4g1b'
p3223
(lp3224
g3223
aF0.22900000000000001
aF0.248
aF0.248
ag4
asS'4j4h'
p3225
(lp3226
g3225
aF0.17899999999999999
aF0.17699999999999999
aF0.17699999999999999
ag4
asS'2vcp'
p3227
(lp3228
g3227
aF0.27500000000000002
aF0.38600000000000001
aF0.38600000000000001
ag4
asS'4j4x'
p3229
(lp3230
g3229
aF0.19500000000000001
aF0.19700000000000001
aF0.19700000000000001
ag4
asS'4j4y'
p3231
(lp3232
g3231
aF0.20999999999999999
aF0.221
aF0.221
ag4
asS'2vhw'
p3233
(lp3234
g3233
aF0.17599999999999999
aF0.219
aF0.219
aS'OK'
p3235
asS'3rku'
p3236
(lp3237
g3236
aF0.189
aF0.19900000000000001
aF0.19900000000000001
ag4
asS'3sod'
p3238
(lp3239
g3238
aF0.19
aF0.498
aF0.498
aS'Warning: merging non-unique data :: '
p3240
asS'3rko'
p3241
(lp3242
g3241
aF0.23200000000000001
aF0.22800000000000001
aF0.22800000000000001
ag4
asS'3nc0'
p3243
(lp3244
g3243
aF0.24199999999999999
aF0.23999999999999999
aF0.23999999999999999
ag4
asS'2wfc'
p3245
(lp3246
g3245
aF0.16300000000000001
aF0.20699999999999999
aF0.20699999999999999
ag4
asS'3zw2'
p3247
(lp3248
g3247
aF0.16
aF0.16600000000000001
aF0.16600000000000001
ag4
asS'2wff'
p3249
(lp3250
g3249
aF0.46200000000000002
aF0.47999999999999998
aF0.45000000000000001
ag4
asS'2wfe'
p3251
(lp3252
g3251
aF0.24099999999999999
aF0.23000000000000001
aF0.23000000000000001
ag4
asS'4av7'
p3253
(lp3254
g3253
aF0.186
aF0.191
aF0.191
ag4
asS'2jc3'
p3255
(lp3256
g3255
aF0.21299999999999999
aF0.19
aF0.19
ag4
asS'1a88'
p3257
(lp3258
g3257
aF0.16
aF0.14699999999999999
aF0.14699999999999999
ag4
asS'1rpx'
p3259
(lp3260
g3259
aF0.17399999999999999
aF0.17499999999999999
aF0.17499999999999999
ag4
asS'2yev'
p3261
(lp3262
g3261
aF0.17100000000000001
aF0.16300000000000001
aF0.16300000000000001
ag4
asS'2yep'
p3263
(lp3264
g3263
aF0.218
aF0.20599999999999999
aF0.20599999999999999
ag4
asS'2yeq'
p3265
(lp3266
g3265
aF0.17799999999999999
aF0.183
aF0.183
ag4
asS'1b9c'
p3267
(lp3268
g3267
aF0.20399999999999999
aF0.221
aF0.221
ag4
asS'2jca'
p3269
(lp3270
g3269
aF0.17799999999999999
aF0.182
aF0.182
ag4
asS'4gvs'
p3271
(lp3272
g3271
aF0.187
aF0.186
aF0.186
ag4
asS'1a8m'
p3273
(lp3274
g3273
aF0.218
aF0.34799999999999998
aF0.34799999999999998
ag4
asS'3zwx'
p3275
(lp3276
g3275
aF0.20300000000000001
aF0.192
aF0.192
ag4
asS'3zwy'
p3277
(lp3278
g3277
aF0.215
aF0.20200000000000001
aF0.20200000000000001
ag4
asS'3zwv'
p3279
(lp3280
g3279
aF0.215
aF0.20699999999999999
aF0.20699999999999999
ag4
asS'3zww'
p3281
(lp3282
g3281
aF0.20000000000000001
aF0.19
aF0.19
ag4
asS'1o6h'
p3283
(lp3284
g3283
aF0.17399999999999999
aF0.17299999999999999
aF0.17299999999999999
ag4
asS'3zwp'
p3285
(lp3286
g3285
aF0.185
aF0.18099999999999999
aF0.18099999999999999
ag4
asS'1o6r'
p3287
(lp3288
g3287
aF0.193
aF0.188
aF0.188
ag4
asS'3zwo'
p3289
(lp3290
g3289
aF0.17699999999999999
aF0.17299999999999999
aF0.17299999999999999
ag4
asS'1oc3'
p3291
(lp3292
g3291
aF0.221
aF0.249
aF0.249
ag4
asS'1o6q'
p3293
(lp3294
g3293
aF0.20100000000000001
aF0.19700000000000001
aF0.19700000000000001
ag4
asS'3tue'
p3295
(lp3296
g3295
aF0.19700000000000001
aF0.192
aF0.192
ag4
asS'1o6z'
p3297
(lp3298
g3297
aF0.19
aF0.223
aF0.223
ag4
asS'3zwe'
p3299
(lp3300
g3299
aF0.20799999999999999
aF0.20499999999999999
aF0.20499999999999999
ag4
asS'1aqd'
p3301
(lp3302
g3301
aF0.216
aF0.20599999999999999
aF0.20599999999999999
ag4
asS'4dpl'
p3303
(lp3304
g3303
aF0.16300000000000001
aF0.159
aF0.159
ag4
asS'4dpm'
p3305
(lp3306
g3305
aF0.19800000000000001
aF0.182
aF0.182
ag4
asS'2v6a'
p3307
(lp3308
g3307
aF0.17599999999999999
aF0.17299999999999999
aF0.17299999999999999
ag4
asS'2xyo'
p3309
(lp3310
g3309
aF0.249
aF0.25700000000000001
aF0.25700000000000001
ag4
asS'2xyn'
p3311
(lp3312
g3311
aF0.246
aF0.23100000000000001
aF0.23100000000000001
ag4
asS'1aq8'
p3313
(lp3314
g3313
aF0.189
aF0.189
aF0.189
ag4
asS'1gsd'
p3315
(lp3316
g3315
aF0.23799999999999999
aF0.23599999999999999
aF0.23599999999999999
ag4
asS'1gsf'
p3317
(lp3318
g3317
aF0.22900000000000001
aF0.312
aF0.312
ag4
asS'2v64'
p3319
(lp3320
g3319
aF0.23300000000000001
aF0.222
aF0.222
ag4
asS'1gsz'
p3321
(lp3322
g3321
aF0.20300000000000001
aF0.19700000000000001
aF0.19700000000000001
ag4
asS'4hnk'
p3323
(lp3324
g3323
aF0.20200000000000001
aF0.20100000000000001
aF0.20100000000000001
ag4
asS'2v69'
p3325
(lp3326
g3325
aF0.19700000000000001
aF0.19
aF0.19
ag4
asS'3lhb'
p3327
(lp3328
g3327
aF0.19500000000000001
aF0.216
aF0.216
ag4
asS'4lrh'
p3329
(lp3330
g3329
aF0.22700000000000001
aF0.22700000000000001
aF0.22700000000000001
ag4
asS'2y32'
p3331
(lp3332
g3331
aF0.14399999999999999
aF0.14199999999999999
aF0.14199999999999999
ag4
asS'1ny7'
p3333
(lp3334
g3333
aF0.20200000000000001
aF0.48599999999999999
aF0.17199999999999999
ag4
asS'2bwj'
p3335
(lp3336
g3335
aF0.17199999999999999
aF0.26100000000000001
aF0.26100000000000001
ag4
asS'3cji'
p3337
(lp3338
g3337
aF0.25800000000000001
aF0.52100000000000002
aF0.253
ag4
asS'1jqi'
p3339
(lp3340
g3339
aF0.16800000000000001
aF0.16400000000000001
aF0.16400000000000001
ag4
asS'4f7i'
p3341
(lp3342
g3341
aF0.152
aF0.157
aF0.157
ag4
asS'2j6l'
p3343
(lp3344
g3343
aF0.13700000000000001
aF0.14399999999999999
aF0.14399999999999999
ag4
asS'2j6y'
p3345
(lp3346
g3345
aF0.183
aF0.185
aF0.185
ag4
asS'3s4g'
p3347
(lp3348
g3347
aF0.38
aF0.51600000000000001
aF0.29999999999999999
ag4
asS'4b7c'
p3349
(lp3350
g3349
aF0.223
aF0.22
aF0.22
ag4
asS'3ux1'
p3351
(lp3352
g3351
aF0.28299999999999997
aF0.51600000000000001
aF0.27800000000000002
ag4
asS'3ux4'
p3353
(lp3354
g3353
aF0.23899999999999999
aF0.24299999999999999
aF0.24299999999999999
ag4
asS'4jrq'
p3355
(lp3356
g3355
aF0.218
aF0.28499999999999998
aF0.28499999999999998
ag4
asS'2y3v'
p3357
(lp3358
g3357
aF0.22600000000000001
aF0.221
aF0.221
ag4
asS'2y3t'
p3359
(lp3360
g3359
aF0.27800000000000002
aF0.27600000000000002
aF0.27600000000000002
ag4
asS'2y3r'
p3361
(lp3362
g3361
aF0.14599999999999999
aF0.14000000000000001
aF0.14000000000000001
ag4
asS'4jre'
p3363
(lp3364
g3363
aF0.223
aF0.219
aF0.219
ag4
asS'4b7y'
p3365
(lp3366
g3365
aF0.24399999999999999
aF0.246
aF0.246
ag4
asS'4b7x'
p3367
(lp3368
g3367
aF0.23699999999999999
aF0.23499999999999999
aF0.23499999999999999
ag4
asS'3r0r'
p3369
(lp3370
g3369
aF0.22500000000000001
aF0.48799999999999999
aF0.249
ag4
asS'1qlr'
p3371
(lp3372
g3371
aF0.216
aF0.185
aF0.185
ag4
asS'4dbv'
p3373
(lp3374
g3373
aF0.14699999999999999
aF0.14699999999999999
aF0.14699999999999999
ag4
asS'2c3n'
p3375
(lp3376
g3375
aF0.214
aF0.21199999999999999
aF0.21199999999999999
ag4
asS'1lul'
p3377
(lp3378
g3377
aF0.22600000000000001
aF0.22500000000000001
aF0.22500000000000001
ag4
asS'2c3q'
p3379
(lp3380
g3379
aF0.223
aF0.221
aF0.221
ag4
asS'2c3t'
p3381
(lp3382
g3381
aF0.21299999999999999
aF0.217
aF0.217
ag4
asS'2j69'
p3383
(lp3384
g3383
aF0.23599999999999999
aF0.245
aF0.245
ag4
asS'4agu'
p3385
(lp3386
g3385
aF0.186
aF0.188
aF0.188
ag4
asS'2qe7'
p3387
(lp3388
g3387
aF0.252
aF0.255
aF0.255
ag4
asS'1m1c'
p3389
(lp3390
g3389
aF0.26600000000000001
aF0.49299999999999999
aF0.39200000000000002
ag4
asS'2yii'
p3391
(lp3392
g3391
aF0.17899999999999999
aF0.17899999999999999
aF0.17899999999999999
ag4
asS'1dw9'
p3393
(lp3394
g3393
aF0.14999999999999999
aF0.14899999999999999
aF0.14899999999999999
ag4
asS'1tez'
p3395
(lp3396
g3395
aF0.20499999999999999
aF0.19800000000000001
aF0.19800000000000001
ag4
asS'6ald'
p3397
(lp3398
g3397
aF0.22800000000000001
aF0.23000000000000001
aF0.23000000000000001
ag4
asS'2vo9'
p3399
(lp3400
g3399
aF0.19600000000000001
aF0.22600000000000001
aF0.22600000000000001
ag4
asS'1ogy'
p3401
(lp3402
g3401
aF0.25
aF0.23499999999999999
aF0.23499999999999999
ag4
asS'1bwv'
p3403
(lp3404
g3403
aF0.16300000000000001
aF0.16600000000000001
aF0.16600000000000001
ag4
asS'2iz0'
p3405
(lp3406
g3405
aF0.123
aF0.151
aF0.151
ag4
asS'2uuu'
p3407
(lp3408
g3407
aF0.193
aF0.22
aF0.22
ag4
asS'2iz9'
p3409
(lp3410
g3409
aF0.20000000000000001
aF0.54300000000000004
aF0.46000000000000002
ag4
asS'2iz8'
p3411
(lp3412
g3411
aF0.192
aF0.53900000000000003
aF0.17499999999999999
ag4
asS'1b5q'
p3413
(lp3414
g3413
aF0.182
aF0.182
aF0.182
aS'NO R-work information in pdb file!!!'
p3415
asS'4g0j'
p3416
(lp3417
g3416
aF0.23699999999999999
aF0.20599999999999999
aF0.20599999999999999
ag4
asS'2uud'
p3418
(lp3419
g3418
aF0.22800000000000001
aF0.23200000000000001
aF0.23200000000000001
ag4
asS'4g0r'
p3420
(lp3421
g3420
aF0.216
aF0.53300000000000003
aF0.21199999999999999
ag4
asS'2uug'
p3422
(lp3423
g3422
aF0.17799999999999999
aF0.187
aF0.187
ag4
asS'2vom'
p3424
(lp3425
g3424
aF0.219
aF0.217
aF0.217
ag4
asS'3lob'
p3426
(lp3427
g3426
aF0.34699999999999998
aF0.64300000000000002
aF0.42299999999999999
aS' PHIC :: '
p3428
asS'1ogp'
p3429
(lp3430
g3429
aF0.23499999999999999
aF0.24099999999999999
aF0.24099999999999999
ag4
asS'1dwk'
p3431
(lp3432
g3431
aF0.14599999999999999
aF0.13900000000000001
aF0.13900000000000001
ag4
asS'1dwn'
p3433
(lp3434
g3433
aF0.28799999999999998
aF0.53900000000000003
aF0.45900000000000002
aS'OK'
p3435
asS'1sbb'
p3436
(lp3437
g3436
aF0.22800000000000001
aF0.22800000000000001
aF0.22800000000000001
ag4
asS'1baw'
p3438
(lp3439
g3438
aF0.193
aF0.20399999999999999
aF0.20399999999999999
ag4
asS'2clw'
p3440
(lp3441
g3440
aF0.218
aF0.32300000000000001
aF0.32300000000000001
ag4
asS'2izz'
p3442
(lp3443
g3442
aF0.16600000000000001
aF0.22600000000000001
aF0.22600000000000001
ag4
asS'2clp'
p3444
(lp3445
g3444
aF0.23899999999999999
aF0.28799999999999998
aF0.28799999999999998
ag4
asS'4aip'
p3446
(lp3447
g3446
aF0.24199999999999999
aF0.24099999999999999
aF0.24099999999999999
ag4
asS'4aih'
p3448
(lp3449
g3448
aF0.22
aF0.219
aF0.219
ag4
asS'2izn'
p3450
(lp3451
g3450
aF0.19700000000000001
aF0.52700000000000002
aF0.191
ag4
asS'2clb'
p3452
(lp3453
g3452
aF0.19900000000000001
aF0.22900000000000001
aF0.22900000000000001
ag4
as.