(lp1
(lp2
S'4a5x'
p3
aF0.20100000000000001
aF0.20699999999999999
aF0.20699999999999999
aS'OK'
p4
aa(lp5
S'1pgl'
p6
aF0.19600000000000001
aF0.51300000000000001
aF0.186
ag4
aa(lp7
S'2yf2'
p8
aF0.22
aF0.224
aF0.224
ag4
aa(lp9
S'2zzq'
p10
aF0.24199999999999999
aF0.53500000000000003
aF0.26800000000000002
ag4
aa(lp11
S'4bi5'
p12
aF0.23899999999999999
aF0.22800000000000001
aF0.22800000000000001
ag4
aa(lp13
S'4a2q'
p14
aF0.23899999999999999
aF0.23999999999999999
aF0.23999999999999999
ag4
aa(lp15
S'2bkc'
p16
aF0.20899999999999999
aF0.20999999999999999
aF0.20999999999999999
ag4
aa(lp17
S'4kmb'
p18
aF0.20799999999999999
aF0.20999999999999999
aF0.20999999999999999
ag4
aa(lp19
S'3zzv'
p20
aF0.21099999999999999
aF0.21199999999999999
aF0.21199999999999999
ag4
aa(lp21
S'2bjy'
p22
aF0.20699999999999999
aF0.20499999999999999
aF0.20499999999999999
ag4
aa(lp23
S'3n58'
p24
aF0.17199999999999999
aF0.17299999999999999
aF0.17299999999999999
ag4
aa(lp25
S'2y7k'
p26
aF0.20000000000000001
aF0.19800000000000001
aF0.19800000000000001
ag4
aa(lp27
S'1umn'
p28
aF0.185
aF0.17999999999999999
aF0.17999999999999999
ag4
aa(lp29
S'3zzh'
p30
aF0.17999999999999999
aF0.19400000000000001
aF0.19400000000000001
ag4
aa(lp31
S'2jer'
p32
aF0.16700000000000001
aF0.221
aF0.221
ag4
aa(lp33
S'1bos'
p34
aF0.17000000000000001
aF0.17100000000000001
aF0.17100000000000001
ag4
aa(lp35
S'2xkb'
p36
aF0.23400000000000001
aF0.23000000000000001
aF0.23000000000000001
ag4
aa(lp37
S'3zzg'
p38
aF0.21199999999999999
aF0.21299999999999999
aF0.21299999999999999
ag4
aa(lp39
S'2wql'
p40
aF0.221
aF0.24099999999999999
aF0.24099999999999999
ag4
aa(lp41
S'1lp3'
p42
aF0.33800000000000002
aF0.47299999999999998
aF0.32900000000000001
ag4
aa(lp43
S'3zzf'
p44
aF0.17899999999999999
aF0.19500000000000001
aF0.19500000000000001
ag4
aa(lp45
S'4gw9'
p46
aF0.20000000000000001
aF0.217
aF0.217
ag4
aa(lp47
S'2xka'
p48
aF0.23200000000000001
aF0.23400000000000001
aF0.23400000000000001
ag4
aa(lp49
S'4iw4'
p50
aF0.20799999999999999
aF0.20899999999999999
aF0.20899999999999999
ag4
aa(lp51
S'1uos'
p52
aF0.23499999999999999
aF0.19800000000000001
aF0.19800000000000001
ag4
aa(lp53
S'1gbn'
p54
aF0.20899999999999999
aF0.222
aF0.222
ag4
aa(lp55
S'1gn6'
p56
aF0.183
aF0.183
aF0.183
aS'NO R-work information in pdb file!!!'
p57
aa(lp58
S'2xko'
p59
aF0.214
aF0.23300000000000001
aF0.23300000000000001
ag4
aa(lp60
S'2bnw'
p61
aF0.22600000000000001
aF0.23999999999999999
aF0.23999999999999999
ag4
aa(lp62
S'4aw4'
p63
aF0.16700000000000001
aF0.20899999999999999
aF0.20899999999999999
ag4
aa(lp64
S'1mhc'
p65
aF0.19
aF0.187
aF0.187
ag4
aa(lp66
S'2y7f'
p67
aF0.14999999999999999
aF0.152
aF0.152
ag4
aa(lp68
S'4bmg'
p69
aF0.252
aF0.252
aF0.252
ag4
aa(lp70
S'4kn2'
p71
aF0.19400000000000001
aF0.192
aF0.192
ag4
aa(lp72
S'4aw6'
p73
aF0.246
aF0.25800000000000001
aF0.25800000000000001
ag4
aa(lp74
S'3tmk'
p75
aF0.20899999999999999
aF0.20000000000000001
aF0.20000000000000001
ag4
aa(lp76
S'1pgw'
p77
aF0.21199999999999999
aF0.49299999999999999
aF0.19900000000000001
ag4
aa(lp78
S'4gtu'
p79
aF0.245
aF0.27000000000000002
aF0.27000000000000002
ag4
aa(lp80
S'2wkt'
p81
aF0.187
aF0.182
aF0.182
ag4
aa(lp82
S'2bkq'
p83
aF0.193
aF0.216
aF0.216
ag4
aa(lp84
S'4eqv'
p85
aF0.221
aF0.249
aF0.249
ag4
aa(lp86
S'2y7d'
p87
aF0.158
aF0.159
aF0.159
ag4
aa(lp88
S'2jee'
p89
aF0.31
aF0.31
aF0.31
ag4
aa(lp90
S'2y6q'
p91
aF0.218
aF0.216
aF0.216
ag4
aa(lp92
S'2wku'
p93
aF0.20100000000000001
aF0.19400000000000001
aF0.19400000000000001
ag4
aa(lp94
S'2bkz'
p95
aF0.23000000000000001
aF0.22600000000000001
aF0.22600000000000001
ag4
aa(lp96
S'4gvr'
p97
aF0.16400000000000001
aF0.158
aF0.158
ag4
aa(lp98
S'1pgr'
p99
aF0.317
aF0.29099999999999998
aF0.29099999999999998
ag4
aa(lp100
S'3k4g'
p101
aF0.193
aF0.27500000000000002
aF0.27500000000000002
ag4
aa(lp102
S'2wkv'
p103
aF0.17199999999999999
aF0.16800000000000001
aF0.16800000000000001
ag4
aa(lp104
S'2jk8'
p105
aF0.216
aF0.26600000000000001
aF0.26600000000000001
ag4
aa(lp106
S'4bof'
p107
aF0.21099999999999999
aF0.218
aF0.218
ag4
aa(lp108
S'4bfx'
p109
aF0.20499999999999999
aF0.20300000000000001
aF0.20300000000000001
ag4
aa(lp110
S'1cjd'
p111
aF0.17799999999999999
aF0.19
aF0.19
ag4
aa(lp112
S'1h7z'
p113
aF0.17599999999999999
aF0.16700000000000001
aF0.16700000000000001
ag4
aa(lp114
S'2yfk'
p115
aF0.16900000000000001
aF0.188
aF0.188
ag4
aa(lp116
S'1uyj'
p117
aF0.23599999999999999
aF0.23499999999999999
aF0.23499999999999999
ag4
aa(lp118
S'1e5q'
p119
aF0.20699999999999999
aF0.19900000000000001
aF0.19900000000000001
ag4
aa(lp120
S'1o7l'
p121
aF0.20699999999999999
aF0.28699999999999998
aF0.28699999999999998
ag4
aa(lp122
S'2xkp'
p123
aF0.20599999999999999
aF0.222
aF0.222
ag4
aa(lp124
S'1h7x'
p125
aF0.17100000000000001
aF0.16800000000000001
aF0.16800000000000001
ag4
aa(lp126
S'1uyw'
p127
aF0.19900000000000001
aF0.21099999999999999
aF0.21099999999999999
ag4
aa(lp128
S'1o7k'
p129
aF0.20999999999999999
aF0.251
aF0.251
ag4
aa(lp130
S'2y7r'
p131
aF0.19400000000000001
aF0.193
aF0.193
ag4
aa(lp132
S'2v5h'
p133
aF0.20000000000000001
aF0.22800000000000001
aF0.22800000000000001
ag4
aa(lp134
S'1a9n'
p135
aF0.28199999999999997
aF0.24299999999999999
aF0.24299999999999999
ag4
aa(lp136
S'2y7w'
p137
aF0.24199999999999999
aF0.23699999999999999
aF0.23699999999999999
ag4
aa(lp138
S'3nby'
p139
aF0.25800000000000001
aF0.29099999999999998
aF0.29099999999999998
ag4
aa(lp140
S'1uyp'
p141
aF0.17699999999999999
aF0.188
aF0.188
ag4
aa(lp142
S'4b3u'
p143
aF0.218
aF0.21099999999999999
aF0.21099999999999999
ag4
aa(lp144
S'3nbz'
p145
aF0.22600000000000001
aF0.22600000000000001
aF0.22600000000000001
ag4
aa(lp146
S'2yfw'
p147
aF0.218
aF0.215
aF0.215
ag4
aa(lp148
S'4bfe'
p149
aF0.17100000000000001
aF0.17699999999999999
aF0.17699999999999999
ag4
aa(lp150
S'1ekm'
p151
aF0.183
aF0.17599999999999999
aF0.17599999999999999
ag4
aa(lp152
S'2bng'
p153
aF0.222
aF0.222
aF0.222
ag4
aa(lp154
S'1rxo'
p155
aF0.20499999999999999
aF0.19600000000000001
aF0.19600000000000001
ag4
aa(lp156
S'4b3l'
p157
aF0.20499999999999999
aF0.20000000000000001
aF0.20000000000000001
ag4
aa(lp158
S'4dej'
p159
aF0.20699999999999999
aF0.21199999999999999
aF0.21199999999999999
ag4
aa(lp160
S'4hmr'
p161
aF0.155
aF0.17199999999999999
aF0.17199999999999999
ag4
aa(lp162
S'4aun'
p163
aF0.16400000000000001
aF0.16300000000000001
aF0.16300000000000001
ag4
aa(lp164
S'2br8'
p165
aF0.19800000000000001
aF0.22500000000000001
aF0.22500000000000001
ag4
aa(lp166
S'1qki'
p167
aF0.247
aF0.23999999999999999
aF0.23999999999999999
ag4
aa(lp168
S'4bfl'
p169
aF0.17399999999999999
aF0.19400000000000001
aF0.19400000000000001
ag4
aa(lp170
S'2br7'
p171
aF0.17399999999999999
aF0.20699999999999999
aF0.20699999999999999
ag4
aa(lp172
S'4hmm'
p173
aF0.14699999999999999
aF0.16200000000000001
aF0.16200000000000001
ag4
aa(lp174
S'4b3k'
p175
aF0.223
aF0.221
aF0.221
ag4
aa(lp176
S'2w88'
p177
aF0.19400000000000001
aF0.20200000000000001
aF0.20200000000000001
ag4
aa(lp178
S'2wg3'
p179
aF0.224
aF0.25
aF0.25
ag4
aa(lp180
S'1ere'
p181
aF0.218
aF0.186
aF0.186
ag4
aa(lp182
S'2xbo'
p183
aF0.247
aF0.50800000000000001
aF0.24399999999999999
ag4
aa(lp184
S'2v43'
p185
aF0.22800000000000001
aF0.26100000000000001
aF0.26100000000000001
ag4
aa(lp186
S'4b2b'
p187
aF0.183
aF0.183
aF0.183
ag4
aa(lp188
S'3i85'
p189
aF0.22700000000000001
aF0.22600000000000001
aF0.22600000000000001
ag4
aa(lp190
S'2v50'
p191
aF0.24199999999999999
aF0.23699999999999999
aF0.23699999999999999
ag4
aa(lp192
S'4a25'
p193
aF0.19400000000000001
aF0.216
aF0.216
ag4
aa(lp194
S'3un8'
p195
aF0.217
aF0.214
aF0.214
ag4
aa(lp196
S'1gx3'
p197
aF0.20899999999999999
aF0.21199999999999999
aF0.21199999999999999
ag4
aa(lp198
S'3zfe'
p199
aF0.23999999999999999
aF0.51800000000000002
aF0.23100000000000001
ag4
aa(lp200
S'2oow'
p201
aF0.19800000000000001
aF0.193
aF0.193
ag4
aa(lp202
S'4ecj'
p203
aF0.16300000000000001
aF0.16900000000000001
aF0.16900000000000001
ag4
aa(lp204
S'2jla'
p205
aF0.16900000000000001
aF0.16900000000000001
aF0.16900000000000001
ag4
aa(lp206
S'2w2c'
p207
aF0.21099999999999999
aF0.25800000000000001
aF0.25800000000000001
ag4
aa(lp208
S'4jsu'
p209
aF0.221
aF0.22600000000000001
aF0.22600000000000001
ag4
aa(lp210
S'2xbb'
p211
aF0.20499999999999999
aF0.20000000000000001
aF0.20000000000000001
ag4
aa(lp212
S'1usl'
p213
aF0.16800000000000001
aF0.17499999999999999
aF0.17499999999999999
ag4
aa(lp214
S'4aul'
p215
aF0.14299999999999999
aF0.14199999999999999
aF0.14199999999999999
ag4
aa(lp216
S'1gzm'
p217
aF0.20200000000000001
aF0.187
aF0.187
ag4
aa(lp218
S'3gqx'
p219
aF0.252
aF0.34000000000000002
aF0.34000000000000002
ag4
aa(lp220
S'3znu'
p221
aF0.157
aF0.154
aF0.154
ag4
aa(lp222
S'2wdv'
p223
aF0.20499999999999999
aF0.28199999999999997
aF0.28199999999999997
ag4
aa(lp224
S'3ntt'
p225
aF0.252
aF0.54700000000000004
aF0.34799999999999998
ag4
aa(lp226
S'4fie'
p227
aF0.25600000000000001
aF0.24299999999999999
aF0.24299999999999999
ag4
aa(lp228
S'1usq'
p229
aF0.20399999999999999
aF0.20399999999999999
aF0.20399999999999999
aS'NO R-work information in pdb file!!!'
p230
aa(lp231
S'2bk6'
p232
aF0.21099999999999999
aF0.21099999999999999
aF0.21099999999999999
ag4
aa(lp233
S'2dbv'
p234
aF0.19500000000000001
aF0.19600000000000001
aF0.19600000000000001
ag4
aa(lp235
S'4fif'
p236
aF0.20599999999999999
aF0.21199999999999999
aF0.21199999999999999
ag4
aa(lp237
S'1ok9'
p238
aF0.24299999999999999
aF0.24299999999999999
aF0.24299999999999999
aS'NO R-work information in pdb file!!!'
p239
aa(lp240
S'4fio'
p241
aF0.13
aF0.12
aF0.12
ag4
aa(lp242
S'3p0s'
p243
aF0.20899999999999999
aF0.56000000000000005
aF0.56299999999999994
ag4
aa(lp244
S'2jkz'
p245
aF0.221
aF0.21299999999999999
aF0.21299999999999999
ag4
aa(lp246
S'4aj5'
p247
aF0.23400000000000001
aF0.22500000000000001
aF0.22500000000000001
ag4
aa(lp248
S'4aum'
p249
aF0.11799999999999999
aF0.114
aF0.114
ag4
aa(lp250
S'1ok6'
p251
aF0.23200000000000001
aF0.24399999999999999
aF0.24399999999999999
ag4
aa(lp252
S'2v90'
p253
aF0.193
aF0.215
aF0.215
ag4
aa(lp254
S'2xb9'
p255
aF0.185
aF0.188
aF0.188
ag4
aa(lp256
S'4ap0'
p257
aF0.20300000000000001
aF0.28299999999999997
aF0.28299999999999997
ag4
aa(lp258
S'2xb2'
p259
aF0.22
aF0.221
aF0.221
ag4
aa(lp260
S'2jki'
p261
aF0.19900000000000001
aF0.189
aF0.189
ag4
aa(lp262
S'1qk3'
p263
aF0.20200000000000001
aF0.20999999999999999
aF0.20999999999999999
ag4
aa(lp264
S'2jkj'
p265
aF0.249
aF0.26300000000000001
aF0.26300000000000001
ag4
aa(lp266
S'2jkl'
p267
aF0.183
aF0.19700000000000001
aF0.19700000000000001
ag4
aa(lp268
S'3kmb'
p269
aF0.20399999999999999
aF0.21099999999999999
aF0.21099999999999999
ag4
aa(lp270
S'3zlk'
p271
aF0.23300000000000001
aF0.23799999999999999
aF0.23799999999999999
ag4
aa(lp272
S'2jkn'
p273
aF0.191
aF0.185
aF0.185
ag4
aa(lp274
S'4a99'
p275
aF0.185
aF0.185
aF0.185
ag4
aa(lp276
S'3v65'
p277
aF0.20200000000000001
aF0.246
aF0.246
ag4
aa(lp278
S'2xqq'
p279
aF0.123
aF0.13400000000000001
aF0.13400000000000001
ag4
aa(lp280
S'2gh8'
p281
aF0.249
aF0.51200000000000001
aF0.23100000000000001
ag4
aa(lp282
S'1lde'
p283
aF0.20499999999999999
aF0.185
aF0.185
ag4
aa(lp284
S'2vtb'
p285
aF0.184
aF0.22
aF0.22
ag4
aa(lp286
S'2v9d'
p287
aF0.16600000000000001
aF0.16500000000000001
aF0.16500000000000001
ag4
aa(lp288
S'1oe0'
p289
aF0.22
aF0.214
aF0.214
ag4
aa(lp290
S'1uf2'
p291
aF0.30299999999999999
aF0.58399999999999996
aF0.308
ag4
aa(lp292
S'1ldy'
p293
aF0.20699999999999999
aF0.19600000000000001
aF0.19600000000000001
ag4
aa(lp294
S'4auv'
p295
aF0.193
aF0.193
aF0.193
ag4
aa(lp296
S'2v9s'
p297
aF0.21299999999999999
aF0.22800000000000001
aF0.22800000000000001
ag4
aa(lp298
S'2va0'
p299
aF0.19900000000000001
aF0.23300000000000001
aF0.23300000000000001
ag4
aa(lp300
S'1o7t'
p301
aF0.16400000000000001
aF0.28799999999999998
aF0.28799999999999998
ag4
aa(lp302
S'3sqc'
p303
aF0.20899999999999999
aF0.20699999999999999
aF0.20699999999999999
ag4
aa(lp304
S'1qgn'
p305
aF0.20100000000000001
aF0.246
aF0.246
ag4
aa(lp306
S'2vrs'
p307
aF0.17999999999999999
aF0.17899999999999999
aF0.17899999999999999
ag4
aa(lp308
S'3un4'
p309
aF0.17899999999999999
aF0.17999999999999999
aF0.17999999999999999
ag4
aa(lp310
S'3ky9'
p311
aF0.223
aF0.22
aF0.22
ag4
aa(lp312
S'3zfg'
p313
aF0.249
aF0.53000000000000003
aF0.24399999999999999
ag4
aa(lp314
S'2vrq'
p315
aF0.182
aF0.18099999999999999
aF0.18099999999999999
ag4
aa(lp316
S'1qgu'
p317
aF0.156
aF0.14999999999999999
aF0.14999999999999999
ag4
aa(lp318
S'1o9r'
p319
aF0.17000000000000001
aF0.16600000000000001
aF0.16600000000000001
ag4
aa(lp320
S'1a9w'
p321
aF0.185
aF0.187
aF0.187
ag4
aa(lp322
S'2fpf'
p323
aF0.224
aF0.217
aF0.217
ag4
aa(lp324
S'3dap'
p325
aF0.17499999999999999
aF0.20699999999999999
aF0.20699999999999999
ag4
aa(lp326
S'1dpt'
p327
aF0.16400000000000001
aF0.161
aF0.161
ag4
aa(lp328
S'1gn2'
p329
aF0.23100000000000001
aF0.23100000000000001
aF0.23100000000000001
aS'NO R-work information in pdb file!!!'
p330
aa(lp331
S'1ftr'
p332
aF0.19800000000000001
aF0.183
aF0.183
ag4
aa(lp333
S'2wwr'
p334
aF0.217
aF0.24099999999999999
aF0.24099999999999999
ag4
aa(lp335
S'1jdy'
p336
aF0.186
aF0.214
aF0.214
ag4
aa(lp337
S'2wws'
p338
aF0.23000000000000001
aF0.53000000000000003
aF0.54600000000000004
ag4
aa(lp339
S'4imr'
p340
aF0.18099999999999999
aF0.17999999999999999
aF0.17999999999999999
ag4
aa(lp341
S'2vra'
p342
aF0.251
aF0.245
aF0.245
ag4
aa(lp343
S'2vrf'
p344
aF0.184
aF0.23100000000000001
aF0.23100000000000001
ag4
aa(lp345
S'2bs9'
p346
aF0.20899999999999999
aF0.22900000000000001
aF0.22900000000000001
ag4
aa(lp347
S'2qfj'
p348
aF0.25800000000000001
aF0.253
aF0.253
ag4
aa(lp349
S'2vrk'
p350
aF0.16500000000000001
aF0.16900000000000001
aF0.16900000000000001
ag4
aa(lp351
S'2e0z'
p352
aF0.26800000000000002
aF0.55300000000000005
aF0.216
ag4
aa(lp353
S'2pro'
p354
aF0.20200000000000001
aF0.20799999999999999
aF0.20799999999999999
ag4
aa(lp355
S'4jgz'
p356
aF0.28599999999999998
aF0.45600000000000002
aF0.28799999999999998
ag4
aa(lp357
S'2wwt'
p358
aF0.16600000000000001
aF0.24399999999999999
aF0.24399999999999999
ag4
aa(lp359
S'3bto'
p360
aF0.185
aF0.17299999999999999
aF0.17299999999999999
ag4
aa(lp361
S'4kq6'
p362
aF0.20000000000000001
aF0.19
aF0.19
ag4
aa(lp363
S'4jgy'
p364
aF0.22700000000000001
aF0.497
aF0.222
ag4
aa(lp365
S'3hbx'
p366
aF0.20799999999999999
aF0.20200000000000001
aF0.20200000000000001
ag4
aa(lp367
S'2wwh'
p368
aF0.187
aF0.189
aF0.189
ag4
aa(lp369
S'2wwi'
p370
aF0.19900000000000001
aF0.20000000000000001
aF0.20000000000000001
ag4
aa(lp371
S'2wwf'
p372
aF0.16
aF0.16
aF0.16
ag4
aa(lp373
S'4am8'
p374
aF0.182
aF0.182
aF0.182
ag4
aa(lp375
S'3zff'
p376
aF0.24299999999999999
aF0.51100000000000001
aF0.23799999999999999
ag4
aa(lp377
S'3zv0'
p378
aF0.17799999999999999
aF0.185
aF0.185
ag4
aa(lp379
S'2iwe'
p380
aF0.192
aF0.24299999999999999
aF0.24299999999999999
ag4
aa(lp381
S'4b4b'
p382
aF0.22600000000000001
aF0.223
aF0.223
ag4
aa(lp383
S'1f2n'
p384
aF0.218
aF0.52900000000000003
aF0.249
ag4
aa(lp385
S'2bs1'
p386
aF0.245
aF0.54700000000000004
aF0.22800000000000001
ag4
aa(lp387
S'2vr9'
p388
aF0.23699999999999999
aF0.23899999999999999
aF0.23899999999999999
ag4
aa(lp389
S'1fvf'
p390
aF0.24299999999999999
aF0.23000000000000001
aF0.23000000000000001
ag4
aa(lp391
S'2x7o'
p392
aF0.26700000000000002
aF0.307
aF0.307
ag4
aa(lp393
S'2j1k'
p394
aF0.17199999999999999
aF0.19600000000000001
aF0.19600000000000001
ag4
aa(lp395
S'4i6s'
p396
aF0.14799999999999999
aF0.157
aF0.157
ag4
aa(lp397
S'3unh'
p398
aF0.23899999999999999
aF0.24099999999999999
aF0.24099999999999999
ag4
aa(lp399
S'2j1n'
p400
aF0.17999999999999999
aF0.20599999999999999
aF0.20599999999999999
ag4
aa(lp401
S'2x5i'
p402
aF0.28799999999999998
aF0.53400000000000003
aF0.28199999999999997
ag4
aa(lp403
S'4a59'
p404
aF0.17999999999999999
aF0.184
aF0.184
ag4
aa(lp405
S'3unb'
p406
aF0.23000000000000001
aF0.23899999999999999
aF0.23899999999999999
ag4
aa(lp407
S'1a99'
p408
aF0.185
aF0.17299999999999999
aF0.17299999999999999
ag4
aa(lp409
S'3ice'
p410
aF0.27000000000000002
aF0.26400000000000001
aF0.26400000000000001
ag4
aa(lp411
S'3gie'
p412
aF0.19400000000000001
aF0.255
aF0.255
ag4
aa(lp413
S'1cj1'
p414
aF0.30499999999999999
aF0.26600000000000001
aF0.26600000000000001
ag4
aa(lp415
S'2vat'
p416
aF0.20000000000000001
aF0.26600000000000001
aF0.26600000000000001
ag4
aa(lp417
S'3zfw'
p418
aF0.216
aF0.216
aF0.216
aS'NO R-work information in pdb file!!!'
p419
aa(lp420
S'2wgf'
p421
aF0.16600000000000001
aF0.28599999999999998
aF0.28599999999999998
ag4
aa(lp422
S'2xlc'
p423
aF0.216
aF0.21099999999999999
aF0.21099999999999999
ag4
aa(lp424
S'3pkp'
p425
aF0.20000000000000001
aF0.19600000000000001
aF0.19600000000000001
ag4
aa(lp426
S'1k5g'
p427
aF0.25
aF0.23400000000000001
aF0.23400000000000001
ag4
aa(lp428
S'3pkq'
p429
aF0.21199999999999999
aF0.20799999999999999
aF0.20799999999999999
ag4
aa(lp430
S'2wgg'
p431
aF0.13700000000000001
aF0.20999999999999999
aF0.20999999999999999
ag4
aa(lp432
S'2x5k'
p433
aF0.16400000000000001
aF0.17499999999999999
aF0.17499999999999999
ag4
aa(lp434
S'3unf'
p435
aF0.23499999999999999
aF0.23499999999999999
aF0.23499999999999999
ag4
aa(lp436
S'1bt6'
p437
aF0.22800000000000001
aF0.26700000000000002
aF0.26700000000000002
ag4
aa(lp438
S'1tf6'
p439
aF0.308
aF0.30399999999999999
aF0.30399999999999999
ag4
aa(lp440
S'2var'
p441
aF0.18099999999999999
aF0.182
aF0.182
ag4
aa(lp442
S'3ey9'
p443
aF0.182
aF0.17799999999999999
aF0.17799999999999999
ag4
aa(lp444
S'2vdi'
p445
aF0.20499999999999999
aF0.19600000000000001
aF0.19600000000000001
ag4
aa(lp446
S'2x5j'
p447
aF0.20599999999999999
aF0.19800000000000001
aF0.19800000000000001
ag4
aa(lp448
S'1k5d'
p449
aF0.23699999999999999
aF0.23899999999999999
aF0.23899999999999999
ag4
aa(lp450
S'2vkx'
p451
aF0.223
aF0.216
aF0.216
ag4
aa(lp452
S'1h3f'
p453
aF0.23400000000000001
aF0.22500000000000001
aF0.22500000000000001
ag4
aa(lp454
S'1dbv'
p455
aF0.14000000000000001
aF0.157
aF0.157
ag4
aa(lp456
S'3une'
p457
aF0.22
aF0.222
aF0.222
ag4
aa(lp458
S'3o44'
p459
aF0.218
aF0.215
aF0.215
ag4
aa(lp460
S'2j3z'
p461
aF0.20000000000000001
aF0.20499999999999999
aF0.20499999999999999
ag4
aa(lp462
S'2uv0'
p463
aF0.20899999999999999
aF0.25
aF0.25
ag4
aa(lp464
S'1h0m'
p465
aF0.23300000000000001
aF0.23300000000000001
aF0.23300000000000001
ag4
aa(lp466
S'2ewy'
p467
aF0.22700000000000001
aF0.20999999999999999
aF0.20999999999999999
ag4
aa(lp468
S'1k5m'
p469
aF0.216
aF0.50700000000000001
aF0.222
ag4
aa(lp470
S'4etg'
p471
aF0.221
aF0.20399999999999999
aF0.20399999999999999
ag4
aa(lp472
S'2vdw'
p473
aF0.223
aF0.222
aF0.222
ag4
aa(lp474
S'2y85'
p475
aF0.21299999999999999
aF0.222
aF0.222
ag4
aa(lp476
S'2y84'
p477
aF0.218
aF0.20999999999999999
aF0.20999999999999999
ag4
aa(lp478
S'4amj'
p479
aF0.20200000000000001
aF0.19800000000000001
aF0.19800000000000001
ag4
aa(lp480
S'4pgm'
p481
aF0.192
aF0.20100000000000001
aF0.20100000000000001
ag4
aa(lp482
S'4eca'
p483
aF0.18099999999999999
aF0.17699999999999999
aF0.17699999999999999
ag4
aa(lp484
S'2ybr'
p485
aF0.192
aF0.183
aF0.183
ag4
aa(lp486
S'2ztn'
p487
aF0.30499999999999999
aF0.57699999999999996
aF0.30299999999999999
ag4
aa(lp488
S'1gut'
p489
aF0.17799999999999999
aF0.17100000000000001
aF0.17100000000000001
ag4
aa(lp490
S'2ux0'
p491
aF0.184
aF0.23999999999999999
aF0.23999999999999999
ag4
aa(lp492
S'4ama'
p493
aF0.189
aF0.188
aF0.188
ag4
aa(lp494
S'1gr7'
p495
aF0.17499999999999999
aF0.185
aF0.185
ag4
aa(lp496
S'4adq'
p497
aF0.223
aF0.215
aF0.215
ag4
aa(lp498
S'1gus'
p499
aF0.17899999999999999
aF0.17799999999999999
aF0.17799999999999999
ag4
aa(lp500
S'4amx'
p501
aF0.22
aF0.218
aF0.218
ag4
aa(lp502
S'2ux9'
p503
aF0.17000000000000001
aF0.19
aF0.19
ag4
aa(lp504
S'4fqb'
p505
aF0.20100000000000001
aF0.20499999999999999
aF0.20499999999999999
ag4
aa(lp506
S'2bu1'
p507
aF0.219
aF0.55400000000000005
aF0.215
ag4
aa(lp508
S'3zx2'
p509
aF0.17499999999999999
aF0.17799999999999999
aF0.17799999999999999
ag4
aa(lp510
S'2brq'
p511
aF0.192
aF0.23999999999999999
aF0.23999999999999999
ag4
aa(lp512
S'4adf'
p513
aF0.23799999999999999
aF0.23499999999999999
aF0.23499999999999999
ag4
aa(lp514
S'2y0p'
p515
aF0.19700000000000001
aF0.21299999999999999
aF0.21299999999999999
ag4
aa(lp516
S'1bto'
p517
aF0.19
aF0.16500000000000001
aF0.16500000000000001
ag4
aa(lp518
S'3zx0'
p519
aF0.21299999999999999
aF0.217
aF0.217
ag4
aa(lp520
S'3dqz'
p521
aF0.159
aF0.245
aF0.245
ag4
aa(lp522
S'3uun'
p523
aF0.19
aF0.218
aF0.218
ag4
aa(lp524
S'4loq'
p525
aF0.192
aF0.255
aF0.255
ag4
aa(lp526
S'1ap2'
p527
aF0.20399999999999999
aF0.218
aF0.218
ag4
aa(lp528
S'3uum'
p529
aF0.19700000000000001
aF0.20799999999999999
aF0.20799999999999999
ag4
aa(lp530
S'1jch'
p531
aF0.23699999999999999
aF0.221
aF0.221
ag4
aa(lp532
S'2y0c'
p533
aF0.16300000000000001
aF0.161
aF0.161
ag4
aa(lp534
S'3uul'
p535
aF0.19800000000000001
aF0.21099999999999999
aF0.21099999999999999
ag4
aa(lp536
S'2uvd'
p537
aF0.17999999999999999
aF0.20599999999999999
aF0.20599999999999999
ag4
aa(lp538
S'3p9u'
p539
aF0.23799999999999999
aF0.23499999999999999
aF0.23499999999999999
ag4
aa(lp540
S'4lop'
p541
aF0.14799999999999999
aF0.16
aF0.16
ag4
aa(lp542
S'1hht'
p543
aF0.23699999999999999
aF0.224
aF0.224
ag4
aa(lp544
S'2vd6'
p545
aF0.192
aF0.26700000000000002
aF0.26700000000000002
ag4
aa(lp546
S'4amw'
p547
aF0.20699999999999999
aF0.20300000000000001
aF0.20300000000000001
ag4
aa(lp548
S'2y0b'
p549
aF0.192
aF0.21199999999999999
aF0.21199999999999999
ag4
aa(lp550
S'1hhs'
p551
aF0.221
aF0.215
aF0.215
ag4
aa(lp552
S'1rk2'
p553
aF0.22800000000000001
aF0.21099999999999999
aF0.21099999999999999
ag4
aa(lp554
S'2y0f'
p555
aF0.19900000000000001
aF0.193
aF0.193
ag4
aa(lp556
S'1guo'
p557
aF0.20999999999999999
aF0.20599999999999999
aF0.20599999999999999
ag4
aa(lp558
S'1gun'
p559
aF0.215
aF0.21199999999999999
aF0.21199999999999999
ag4
aa(lp560
S'2bjh'
p561
aF0.216
aF0.224
aF0.224
ag4
aa(lp562
S'1a2o'
p563
aF0.222
aF0.23999999999999999
aF0.23999999999999999
ag4
aa(lp564
S'1gk2'
p565
aF0.17000000000000001
aF0.17299999999999999
aF0.17299999999999999
ag4
aa(lp566
S'2we4'
p567
aF0.19500000000000001
aF0.188
aF0.188
ag4
aa(lp568
S'2y0e'
p569
aF0.16300000000000001
aF0.16
aF0.16
ag4
aa(lp570
S'1a2z'
p571
aF0.17999999999999999
aF0.17199999999999999
aF0.17199999999999999
ag4
aa(lp572
S'2uzy'
p573
aF0.251
aF0.26100000000000001
aF0.26100000000000001
ag4
aa(lp574
S'3toi'
p575
aF0.19900000000000001
aF0.19500000000000001
aF0.19500000000000001
ag4
aa(lp576
S'2w8s'
p577
aF0.182
aF0.20200000000000001
aF0.20200000000000001
ag4
aa(lp578
S'2uzx'
p579
aF0.26800000000000002
aF0.27900000000000003
aF0.27900000000000003
ag4
aa(lp580
S'1a2p'
p581
aF0.111
aF0.125
aF0.125
ag4
aa(lp582
S'1gug'
p583
aF0.154
aF0.155
aF0.155
ag4
aa(lp584
S'2uzz'
p585
aF0.23599999999999999
aF0.23000000000000001
aF0.23000000000000001
ag4
aa(lp586
S'1h3b'
p587
aF0.20599999999999999
aF0.20000000000000001
aF0.20000000000000001
ag4
aa(lp588
S'3gtu'
p589
aF0.22500000000000001
aF0.214
aF0.214
ag4
aa(lp590
S'2y0d'
p591
aF0.21199999999999999
aF0.20999999999999999
aF0.20999999999999999
ag4
aa(lp592
S'1bz5'
p593
aF0.19
aF0.20000000000000001
aF0.20000000000000001
ag4
aa(lp594
S'1b77'
p595
aF0.22500000000000001
aF0.221
aF0.221
ag4
aa(lp596
S'2wkn'
p597
aF0.22
aF0.217
aF0.217
ag4
aa(lp598
S'1e3u'
p599
aF0.18099999999999999
aF0.17499999999999999
aF0.17499999999999999
ag4
aa(lp600
S'2uzq'
p601
aF0.22600000000000001
aF0.218
aF0.218
ag4
aa(lp602
S'2xns'
p603
aF0.223
aF0.21099999999999999
aF0.21099999999999999
ag4
aa(lp604
S'1h3c'
p605
aF0.25800000000000001
aF0.25
aF0.25
ag4
aa(lp606
S'4ftb'
p607
aF0.23999999999999999
aF0.57199999999999995
aF0.245
ag4
aa(lp608
S'2uzp'
p609
aF0.17100000000000001
aF0.218
aF0.218
ag4
aa(lp610
S'1b4w'
p611
aF0.20499999999999999
aF0.20300000000000001
aF0.20300000000000001
ag4
aa(lp612
S'1h3a'
p613
aF0.248
aF0.23999999999999999
aF0.23999999999999999
ag4
aa(lp614
S'2y0n'
p615
aF0.23200000000000001
aF0.23200000000000001
aF0.23200000000000001
ag4
aa(lp616
S'2ws3'
p617
aF0.219
aF0.20599999999999999
aF0.20599999999999999
ag4
aa(lp618
S'3r1r'
p619
aF0.23499999999999999
aF0.23499999999999999
aF0.23499999999999999
aS'NO R-work information in pdb file!!!'
p620
aa(lp621
S'1bz1'
p622
aF0.158
aF0.158
aF0.158
aS'NO R-work information in pdb file!!!'
p623
aa(lp624
S'2wjz'
p625
aF0.185
aF0.21199999999999999
aF0.21199999999999999
ag4
aa(lp626
S'2ws9'
p627
aF0.27500000000000002
aF0.51600000000000001
aF0.249
ag4
aa(lp628
S'1bz0'
p629
aF0.159
aF0.159
aF0.159
aS'NO R-work information in pdb file!!!'
p630
aa(lp631
S'3v9h'
p632
aF0.20999999999999999
aF0.20300000000000001
aF0.20300000000000001
ag4
aa(lp633
S'2wjx'
p634
aF0.28999999999999998
aF0.311
aF0.311
ag4
aa(lp635
S'2wju'
p636
aF0.246
aF0.24199999999999999
aF0.24199999999999999
ag4
aa(lp637
S'2c4o'
p638
aF0.22700000000000001
aF0.33900000000000002
aF0.33900000000000002
ag4
aa(lp639
S'2uzh'
p640
aF0.16300000000000001
aF0.16700000000000001
aF0.16700000000000001
ag4
aa(lp641
S'2c4j'
p642
aF0.19400000000000001
aF0.192
aF0.192
ag4
aa(lp643
S'1rtm'
p644
aF0.22
aF0.20899999999999999
aF0.20899999999999999
ag4
aa(lp645
S'3v9i'
p646
aF0.20899999999999999
aF0.20599999999999999
aF0.20599999999999999
ag4
aa(lp647
S'2uzc'
p648
aF0.16300000000000001
aF0.189
aF0.189
ag4
aa(lp649
S'2bos'
p650
aF0.155
aF0.14599999999999999
aF0.14599999999999999
ag4
aa(lp651
S'2vfg'
p652
aF0.20799999999999999
aF0.20699999999999999
aF0.20699999999999999
ag4
aa(lp653
S'4bby'
p654
aF0.191
aF0.188
aF0.188
ag4
aa(lp655
S'4hoh'
p656
aF0.19
aF0.191
aF0.191
ag4
aa(lp657
S'2c4q'
p658
aF0.19
aF0.54100000000000004
aF0.182
ag4
aa(lp659
S'1gll'
p660
aF0.16500000000000001
aF0.16500000000000001
aF0.16500000000000001
aS'NO R-work information in pdb file!!!'
p661
aa(lp662
S'4a72'
p663
aF0.17299999999999999
aF0.16900000000000001
aF0.16900000000000001
ag4
aa(lp664
S'3rul'
p665
aF0.24299999999999999
aF0.23999999999999999
aF0.23999999999999999
ag4
aa(lp666
S'1glj'
p667
aF0.158
aF0.158
aF0.158
aS'NO R-work information in pdb file!!!'
p668
aa(lp669
S'3v9g'
p670
aF0.20399999999999999
aF0.19800000000000001
aF0.19800000000000001
ag4
aa(lp671
S'1dla'
p672
aF0.219
aF0.47999999999999998
aF0.47999999999999998
ag4
aa(lp673
S'1r1r'
p674
aF0.20999999999999999
aF0.217
aF0.217
ag4
aa(lp675
S'3zxw'
p676
aF0.18099999999999999
aF0.182
aF0.182
ag4
aa(lp677
S'2yav'
p678
aF0.16400000000000001
aF0.158
aF0.158
ag4
aa(lp679
S'4aby'
p680
aF0.20899999999999999
aF0.20699999999999999
aF0.20699999999999999
ag4
aa(lp681
S'2yq5'
p682
aF0.188
aF0.19400000000000001
aF0.19400000000000001
ag4
aa(lp683
S'2yhe'
p684
aF0.183
aF0.17399999999999999
aF0.17399999999999999
ag4
aa(lp685
S'1bzy'
p686
aF0.19
aF0.19400000000000001
aF0.19400000000000001
ag4
aa(lp687
S'3zxv'
p688
aF0.19500000000000001
aF0.192
aF0.192
ag4
aa(lp689
S'1bzw'
p690
aF0.188
aF0.17100000000000001
aF0.17100000000000001
ag4
aa(lp691
S'2yax'
p692
aF0.16900000000000001
aF0.16800000000000001
aF0.16800000000000001
ag4
aa(lp693
S'1bzq'
p694
aF0.222
aF0.191
aF0.191
ag4
aa(lp695
S'3v3n'
p696
aF0.221
aF0.218
aF0.218
ag4
aa(lp697
S'2vf7'
p698
aF0.219
aF0.26000000000000001
aF0.26000000000000001
ag4
aa(lp699
S'1qoh'
p700
aF0.188
aF0.184
aF0.184
ag4
aa(lp701
S'4fte'
p702
aF0.23899999999999999
aF0.53900000000000003
aF0.245
ag4
aa(lp703
S'2c4y'
p704
aF0.192
aF0.54200000000000004
aF0.17100000000000001
ag4
aa(lp705
S'3zxu'
p706
aF0.183
aF0.247
aF0.247
ag4
aa(lp707
S'2xmh'
p708
aF0.23300000000000001
aF0.25800000000000001
aF0.25800000000000001
ag4
aa(lp709
S'2vf1'
p710
aF0.27300000000000002
aF0.502
aF0.42499999999999999
ag4
aa(lp711
S'4ar2'
p712
aF0.28000000000000003
aF0.50900000000000001
aF0.371
ag4
aa(lp713
S'3zxt'
p714
aF0.216
aF0.216
aF0.216
ag4
aa(lp715
S'4bkn'
p716
aF0.19700000000000001
aF0.19800000000000001
aF0.19800000000000001
ag4
aa(lp717
S'3zxs'
p718
aF0.19800000000000001
aF0.19800000000000001
aF0.19800000000000001
ag4
aa(lp719
S'2bf7'
p720
aF0.219
aF0.217
aF0.217
ag4
aa(lp721
S'2c4z'
p722
aF0.191
aF0.53900000000000003
aF0.17199999999999999
ag4
aa(lp723
S'1fdp'
p724
aF0.20399999999999999
aF0.19600000000000001
aF0.19600000000000001
ag4
aa(lp725
S'3zxr'
p726
aF0.22500000000000001
aF0.21199999999999999
aF0.21199999999999999
ag4
aa(lp727
S'3zrt'
p728
aF0.219
aF0.219
aF0.219
ag4
aa(lp729
S'1mf2'
p730
aF0.20599999999999999
aF0.19500000000000001
aF0.19500000000000001
ag4
aa(lp731
S'1vkl'
p732
aF0.17000000000000001
aF0.24299999999999999
aF0.24299999999999999
ag4
aa(lp733
S'1pci'
p734
aF0.22600000000000001
aF0.30599999999999999
aF0.30599999999999999
ag4
aa(lp735
S'4gzm'
p736
aF0.254
aF0.26500000000000001
aF0.26500000000000001
ag4
aa(lp737
S'2jlm'
p738
aF0.182
aF0.16600000000000001
aF0.16600000000000001
ag4
aa(lp739
S'4gzl'
p740
aF0.186
aF0.189
aF0.189
ag4
aa(lp741
S'4guq'
p742
aF0.30199999999999999
aF0.29999999999999999
aF0.29999999999999999
ag4
aa(lp743
S'1a21'
p744
aF0.191
aF0.19600000000000001
aF0.19600000000000001
ag4
aa(lp745
S'1pcf'
p746
aF0.18099999999999999
aF0.18099999999999999
aF0.18099999999999999
aS'NO R-work information in pdb file!!!'
p747
aa(lp748
S'3zxd'
p749
aF0.21299999999999999
aF0.23000000000000001
aF0.23000000000000001
ag4
aa(lp750
S'2wj8'
p751
aF0.20499999999999999
aF0.22800000000000001
aF0.22800000000000001
ag4
aa(lp752
S'3zq4'
p753
aF0.214
aF0.20999999999999999
aF0.20999999999999999
ag4
aa(lp754
S'1bl8'
p755
aF0.28000000000000003
aF0.29399999999999998
aF0.29399999999999998
ag4
aa(lp756
S'3kae'
p757
aF0.217
aF0.20899999999999999
aF0.20899999999999999
ag4
aa(lp758
S'4guv'
p759
aF0.18099999999999999
aF0.184
aF0.184
ag4
aa(lp760
S'2afn'
p761
aF0.158
aF0.155
aF0.155
ag4
aa(lp762
S'4fts'
p763
aF0.25900000000000001
aF0.56100000000000005
aF0.26700000000000002
ag4
aa(lp764
S'1hb8'
p765
aF0.223
aF0.219
aF0.219
ag4
aa(lp766
S'1apx'
p767
aF0.193
aF0.20399999999999999
aF0.20399999999999999
ag4
aa(lp768
S'2wst'
p769
aF0.17299999999999999
aF0.182
aF0.182
ag4
aa(lp770
S'2xn1'
p771
aF0.14699999999999999
aF0.13400000000000001
aF0.13400000000000001
ag4
aa(lp772
S'2wj7'
p773
aF0.252
aF0.24199999999999999
aF0.24199999999999999
ag4
aa(lp774
S'1b8h'
p775
aF0.26500000000000001
aF0.23100000000000001
aF0.23100000000000001
ag4
aa(lp776
S'2vf9'
p777
aF0.311
aF0.52100000000000002
aF0.41899999999999998
ag4
aa(lp778
S'2wsu'
p779
aF0.20599999999999999
aF0.21299999999999999
aF0.21299999999999999
ag4
aa(lp780
S'2wj6'
p781
aF0.17899999999999999
aF0.20999999999999999
aF0.20999999999999999
ag4
aa(lp782
S'5hoh'
p783
aF0.16600000000000001
aF0.16700000000000001
aF0.16700000000000001
ag4
aa(lp784
S'1olp'
p785
aF0.17799999999999999
aF0.186
aF0.186
ag4
aa(lp786
S'1qmg'
p787
aF0.19600000000000001
aF0.185
aF0.185
ag4
aa(lp788
S'2bfo'
p789
aF0.22600000000000001
aF0.22500000000000001
aF0.22500000000000001
ag4
aa(lp790
S'1b47'
p791
aF0.218
aF0.21199999999999999
aF0.21199999999999999
ag4
aa(lp792
S'3zhe'
p793
aF0.222
aF0.224
aF0.224
ag4
aa(lp794
S'2bfm'
p795
aF0.253
aF0.251
aF0.251
ag4
aa(lp796
S'2bfa'
p797
aF0.20300000000000001
aF0.19900000000000001
aF0.19900000000000001
ag4
aa(lp798
S'3qpr'
p799
aF0.46100000000000002
aF0.48699999999999999
aF0.38700000000000001
ag4
aa(lp800
S'2wj4'
p801
aF0.17599999999999999
aF0.221
aF0.221
ag4
aa(lp802
S'2bfg'
p803
aF0.19400000000000001
aF0.20300000000000001
aF0.20300000000000001
ag4
aa(lp804
S'2wj3'
p805
aF0.19600000000000001
aF0.20300000000000001
aF0.20300000000000001
ag4
aa(lp806
S'4b4m'
p807
aF0.183
aF0.184
aF0.184
ag4
aa(lp808
S'4jsq'
p809
aF0.23499999999999999
aF0.23699999999999999
aF0.23699999999999999
ag4
aa(lp810
S'1oez'
p811
aF0.20599999999999999
aF0.23400000000000001
aF0.23400000000000001
ag4
aa(lp812
S'1oey'
p813
aF0.20999999999999999
aF0.22500000000000001
aF0.22500000000000001
ag4
aa(lp814
S'1gkq'
p815
aF0.188
aF0.183
aF0.183
ag4
aa(lp816
S'2yh2'
p817
aF0.16400000000000001
aF0.17000000000000001
aF0.17000000000000001
ag4
aa(lp818
S'2c44'
p819
aF0.19600000000000001
aF0.189
aF0.189
ag4
aa(lp820
S'2yop'
p821
aF0.185
aF0.17999999999999999
aF0.17999999999999999
ag4
aa(lp822
S'2bfp'
p823
aF0.19800000000000001
aF0.19400000000000001
aF0.19400000000000001
ag4
aa(lp824
S'1gkr'
p825
aF0.224
aF0.214
aF0.214
ag4
aa(lp826
S'3vdd'
p827
aF0.23000000000000001
aF0.48599999999999999
aF0.316
ag4
aa(lp828
S'2c47'
p829
aF0.20799999999999999
aF0.26600000000000001
aF0.26600000000000001
ag4
aa(lp830
S'2buk'
p831
aF0.27300000000000002
aF0.54800000000000004
aF0.27300000000000002
ag4
aa(lp832
S'4b4g'
p833
aF0.20000000000000001
aF0.19700000000000001
aF0.19700000000000001
ag4
aa(lp834
S'2c46'
p835
aF0.20399999999999999
aF0.26000000000000001
aF0.26000000000000001
ag4
aa(lp836
S'1qmo'
p837
aF0.23200000000000001
aF0.23400000000000001
aF0.23400000000000001
ag4
aa(lp838
S'1qmi'
p839
aF0.24399999999999999
aF0.223
aF0.223
ag4
aa(lp840
S'2c41'
p841
aF0.16800000000000001
aF0.16700000000000001
aF0.16700000000000001
ag4
aa(lp842
S'1qmv'
p843
aF0.192
aF0.17499999999999999
aF0.17499999999999999
ag4
aa(lp844
S'4ary'
p845
aF0.215
aF0.215
aF0.215
ag4
aa(lp846
S'1h31'
p847
aF0.20999999999999999
aF0.20399999999999999
aF0.20399999999999999
ag4
aa(lp848
S'1h36'
p849
aF0.221
aF0.216
aF0.216
ag4
aa(lp850
S'2xlb'
p851
aF0.13600000000000001
aF0.28799999999999998
aF0.28799999999999998
ag4
aa(lp852
S'3zhp'
p853
aF0.22700000000000001
aF0.23899999999999999
aF0.23899999999999999
ag4
aa(lp854
S'1akm'
p855
aF0.22900000000000001
aF0.24099999999999999
aF0.24099999999999999
ag4
aa(lp856
S'4gpd'
p857
aF0.25
aF0.25
aF0.25
aS'NO R-work information in pdb file!!!'
p858
aa(lp859
S'4fm5'
p860
aF0.23999999999999999
aF0.23599999999999999
aF0.23599999999999999
ag4
aa(lp861
S'1h37'
p862
aF0.20499999999999999
aF0.19800000000000001
aF0.19800000000000001
ag4
aa(lp863
S'3zc0'
p864
aF0.20799999999999999
aF0.21099999999999999
aF0.21099999999999999
ag4
aa(lp865
S'2ya7'
p866
aF0.20799999999999999
aF0.20200000000000001
aF0.20200000000000001
ag4
aa(lp867
S'2vnk'
p868
aF0.20000000000000001
aF0.22500000000000001
aF0.22500000000000001
ag4
aa(lp869
S'3zc1'
p870
aF0.221
aF0.22600000000000001
aF0.22600000000000001
ag4
aa(lp871
S'4bb5'
p872
aF0.182
aF0.17999999999999999
aF0.17999999999999999
ag4
aa(lp873
S'1qmp'
p874
aF0.19500000000000001
aF0.18099999999999999
aF0.18099999999999999
ag4
aa(lp875
S'4elm'
p876
aF0.20899999999999999
aF0.20599999999999999
aF0.20599999999999999
ag4
aa(lp877
S'4a9w'
p878
aF0.182
aF0.19400000000000001
aF0.19400000000000001
ag4
aa(lp879
S'1h39'
p880
aF0.22500000000000001
aF0.219
aF0.219
ag4
aa(lp881
S'2c9p'
p882
aF0.19
aF0.20200000000000001
aF0.20200000000000001
ag4
aa(lp883
S'4jsn'
p884
aF0.215
aF0.222
aF0.222
ag4
aa(lp885
S'1awv'
p886
aF0.35799999999999998
aF0.36499999999999999
aF0.36499999999999999
ag4
aa(lp887
S'4arw'
p888
aF0.17499999999999999
aF0.17799999999999999
aF0.17799999999999999
ag4
aa(lp889
S'3uwm'
p890
aF0.185
aF0.183
aF0.183
ag4
aa(lp891
S'1awt'
p892
aF0.378
aF0.39300000000000002
aF0.39300000000000002
ag4
aa(lp893
S'4hl8'
p894
aF0.35199999999999998
aF0.51000000000000001
aF0.35899999999999999
ag4
aa(lp895
S'2xll'
p896
aF0.17000000000000001
aF0.16900000000000001
aF0.16900000000000001
ag4
aa(lp897
S'1awr'
p898
aF0.39400000000000002
aF0.39200000000000002
aF0.39200000000000002
ag4
aa(lp899
S'1gyk'
p900
aF0.186
aF0.28599999999999998
aF0.28599999999999998
ag4
aa(lp901
S'1a0t'
p902
aF0.20699999999999999
aF0.29799999999999999
aF0.29799999999999999
ag4
aa(lp903
S'3raa'
p904
aF0.29399999999999998
aF0.54300000000000004
aF0.28599999999999998
ag4
aa(lp905
S'2c2b'
p906
aF0.20599999999999999
aF0.26700000000000002
aF0.26700000000000002
ag4
aa(lp907
S'1vb2'
p908
aF0.26100000000000001
aF0.52400000000000002
aF0.26000000000000001
ag4
aa(lp909
S'2c9j'
p910
aF0.22800000000000001
aF0.218
aF0.218
ag4
aa(lp911
S'2bfu'
p912
aF0.23000000000000001
aF0.54500000000000004
aF0.499
ag4
aa(lp913
S'3qr3'
p914
aF0.16300000000000001
aF0.158
aF0.158
ag4
aa(lp915
S'2w3r'
p916
aF0.23999999999999999
aF0.23400000000000001
aF0.23400000000000001
ag4
aa(lp917
S'3zr4'
p918
aF0.19400000000000001
aF0.29099999999999998
aF0.29099999999999998
ag4
aa(lp919
S'1lts'
p920
aF0.17499999999999999
aF0.17499999999999999
aF0.17499999999999999
aS'NO R-work information in pdb file!!!'
p921
aa(lp922
S'1ltr'
p923
aF0.183
aF0.188
aF0.188
ag4
aa(lp924
S'1h8v'
p925
aF0.189
aF0.186
aF0.186
ag4
aa(lp926
S'2c2l'
p927
aF0.247
aF0.23499999999999999
aF0.23499999999999999
ag4
aa(lp928
S'1h8t'
p929
aF0.246
aF0.497
aF0.249
ag4
aa(lp930
S'2v70'
p931
aF0.222
aF0.24099999999999999
aF0.24099999999999999
ag4
aa(lp932
S'1a0d'
p933
aF0.193
aF0.17299999999999999
aF0.17299999999999999
ag4
aa(lp934
S'2w3s'
p935
aF0.23200000000000001
aF0.223
aF0.223
ag4
aa(lp936
S'1v1j'
p937
aF0.215
aF0.224
aF0.224
ag4
aa(lp938
S'1a0c'
p939
aF0.16800000000000001
aF0.16600000000000001
aF0.16600000000000001
ag4
aa(lp940
S'2c9i'
p941
aF0.245
aF0.24099999999999999
aF0.24099999999999999
ag4
aa(lp942
S'1vb4'
p943
aF0.255
aF0.53600000000000003
aF0.22700000000000001
ag4
aa(lp944
S'1v1h'
p945
aF0.182
aF0.18099999999999999
aF0.18099999999999999
ag4
aa(lp946
S'1v1i'
p947
aF0.23200000000000001
aF0.23100000000000001
aF0.23100000000000001
ag4
aa(lp948
S'1ut2'
p949
aF0.23300000000000001
aF0.23300000000000001
aF0.23300000000000001
aS'NO R-work information in pdb file!!!'
p950
aa(lp951
S'2w3x'
p952
aF0.19600000000000001
aF0.193
aF0.193
ag4
aa(lp953
S'2v78'
p954
aF0.16200000000000001
aF0.16900000000000001
aF0.16900000000000001
ag4
aa(lp955
S'2xgf'
p956
aF0.17899999999999999
aF0.193
aF0.193
ag4
aa(lp957
S'1ut1'
p958
aF0.17399999999999999
aF0.17399999999999999
aF0.17399999999999999
aS'NO R-work information in pdb file!!!'
p959
aa(lp960
S'1b35'
p961
aF0.22800000000000001
aF0.54000000000000004
aF0.22600000000000001
ag4
aa(lp962
S'1aug'
p963
aF0.19700000000000001
aF0.189
aF0.189
ag4
aa(lp964
S'1a0o'
p965
aF0.187
aF0.187
aF0.187
ag4
aa(lp966
S'2xgk'
p967
aF0.30299999999999999
aF0.56200000000000006
aF0.30299999999999999
ag4
aa(lp968
S'4js5'
p969
aF0.30599999999999999
aF0.29699999999999999
aF0.29699999999999999
ag4
aa(lp970
S'1a0j'
p971
aF0.17299999999999999
aF0.17699999999999999
aF0.17699999999999999
ag4
aa(lp972
S'4js4'
p973
aF0.22500000000000001
aF0.26000000000000001
aF0.26000000000000001
ag4
aa(lp974
S'1qr4'
p975
aF0.20899999999999999
aF0.19800000000000001
aF0.19800000000000001
ag4
aa(lp976
S'2y22'
p977
aF0.21299999999999999
aF0.24099999999999999
aF0.24099999999999999
ag4
aa(lp978
S'2ji3'
p979
aF0.217
aF0.20999999999999999
aF0.20999999999999999
ag4
aa(lp980
S'4b42'
p981
aF0.223
aF0.219
aF0.219
ag4
aa(lp982
S'2ji2'
p983
aF0.19500000000000001
aF0.186
aF0.186
ag4
aa(lp984
S'4b40'
p985
aF0.16600000000000001
aF0.16600000000000001
aF0.16600000000000001
ag4
aa(lp986
S'2ji1'
p987
aF0.20399999999999999
aF0.193
aF0.193
ag4
aa(lp988
S'2xgj'
p989
aF0.20100000000000001
aF0.19600000000000001
aF0.19600000000000001
ag4
aa(lp990
S'1oiu'
p991
aF0.216
aF0.20200000000000001
aF0.20200000000000001
ag4
aa(lp992
S'1b37'
p993
aF0.187
aF0.187
aF0.187
aS'NO R-work information in pdb file!!!'
p994
aa(lp995
S'2v7d'
p996
aF0.22800000000000001
aF0.29399999999999998
aF0.29399999999999998
ag4
aa(lp997
S'4ap6'
p998
aF0.192
aF0.188
aF0.188
ag4
aa(lp999
S'4jza'
p1000
aF0.19600000000000001
aF0.20300000000000001
aF0.20300000000000001
ag4
aa(lp1001
S'3zjk'
p1002
aF0.17299999999999999
aF0.17599999999999999
aF0.17599999999999999
ag4
aa(lp1003
S'2bis'
p1004
aF0.20000000000000001
aF0.20399999999999999
aF0.20399999999999999
ag4
aa(lp1005
S'1gyr'
p1006
aF0.193
aF0.23200000000000001
aF0.23200000000000001
ag4
aa(lp1007
S'406d'
p1008
aF0.26200000000000001
aF0.32200000000000001
aF0.32200000000000001
ag4
aa(lp1009
S'1oiy'
p1010
aF0.24399999999999999
aF0.223
aF0.223
ag4
aa(lp1011
S'4fao'
p1012
aF0.219
aF0.20899999999999999
aF0.20899999999999999
ag4
aa(lp1013
S'2c21'
p1014
aF0.155
aF0.25900000000000001
aF0.25900000000000001
ag4
aa(lp1015
S'1ao5'
p1016
aF0.19700000000000001
aF0.20699999999999999
aF0.20699999999999999
ag4
aa(lp1017
S'1ao0'
p1018
aF0.214
aF0.20499999999999999
aF0.20499999999999999
ag4
aa(lp1019
S'2biw'
p1020
aF0.17999999999999999
aF0.22700000000000001
aF0.22700000000000001
ag4
aa(lp1021
S'3zjx'
p1022
aF0.247
aF0.26400000000000001
aF0.26400000000000001
ag4
aa(lp1023
S'1lgn'
p1024
aF0.23200000000000001
aF0.21099999999999999
aF0.21099999999999999
ag4
aa(lp1025
S'3ct4'
p1026
aF0.20000000000000001
aF0.192
aF0.192
ag4
aa(lp1027
S'1kzu'
p1028
aF0.22700000000000001
aF0.20100000000000001
aF0.20100000000000001
ag4
aa(lp1029
S'2v3w'
p1030
aF0.17999999999999999
aF0.17999999999999999
aF0.17999999999999999
ag4
aa(lp1031
S'2v0v'
p1032
aF0.17599999999999999
aF0.29799999999999999
aF0.29799999999999999
ag4
aa(lp1033
S'1qzw'
p1034
aF0.34000000000000002
aF0.34799999999999998
aF0.34799999999999998
ag4
aa(lp1035
S'4dqy'
p1036
aF0.23799999999999999
aF0.23400000000000001
aF0.23400000000000001
ag4
aa(lp1037
S'3i3j'
p1038
aF0.22900000000000001
aF0.22800000000000001
aF0.22800000000000001
ag4
aa(lp1039
S'1oij'
p1040
aF0.191
aF0.193
aF0.193
ag4
aa(lp1041
S'2c91'
p1042
aF0.16
aF0.19700000000000001
aF0.19700000000000001
ag4
aa(lp1043
S'6msf'
p1044
aF0.19500000000000001
aF0.53100000000000003
aF0.19400000000000001
ag4
aa(lp1045
S'1wcb'
p1046
aF0.223
aF0.22600000000000001
aF0.22600000000000001
ag4
aa(lp1047
S'1oii'
p1048
aF0.19500000000000001
aF0.193
aF0.193
ag4
aa(lp1049
S'1y1a'
p1050
aF0.23599999999999999
aF0.22600000000000001
aF0.22600000000000001
ag4
aa(lp1051
S'1wce'
p1052
aF0.371
aF0.55200000000000005
aF0.371
aS'NO R-work information in pdb file!!!'
p1053
aa(lp1054
S'1oih'
p1055
aF0.17000000000000001
aF0.182
aF0.182
ag4
aa(lp1056
S'1aw2'
p1057
aF0.20000000000000001
aF0.17999999999999999
aF0.17999999999999999
ag4
aa(lp1058
S'2wh0'
p1059
aF0.18099999999999999
aF0.28199999999999997
aF0.28199999999999997
ag4
aa(lp1060
S'1aw1'
p1061
aF0.192
aF0.17299999999999999
aF0.17299999999999999
ag4
aa(lp1062
S'3w9i'
p1063
aF0.28199999999999997
aF0.26800000000000002
aF0.26800000000000002
ag4
aa(lp1064
S'2xaa'
p1065
aF0.188
aF0.19
aF0.19
ag4
aa(lp1066
S'2v0n'
p1067
aF0.215
aF0.24399999999999999
aF0.24399999999999999
ag4
aa(lp1068
S'1trr'
p1069
aF0.24099999999999999
aF0.40500000000000003
aF0.40500000000000003
ag4
aa(lp1070
S'2v0o'
p1071
aF0.27800000000000002
aF0.27800000000000002
aF0.27800000000000002
ag4
aa(lp1072
S'4apt'
p1073
aF0.23599999999999999
aF0.23699999999999999
aF0.23699999999999999
ag4
aa(lp1074
S'1oi9'
p1075
aF0.23300000000000001
aF0.22900000000000001
aF0.22900000000000001
ag4
aa(lp1076
S'2vpf'
p1077
aF0.20899999999999999
aF0.20100000000000001
aF0.20100000000000001
ag4
aa(lp1078
S'4hi3'
p1079
aF0.19
aF0.188
aF0.188
ag4
aa(lp1080
S'5cox'
p1081
aF0.32100000000000001
aF0.249
aF0.249
ag4
aa(lp1082
S'4hpq'
p1083
aF0.30299999999999999
aF0.29899999999999999
aF0.29899999999999999
ag4
aa(lp1084
S'4apz'
p1085
aF0.16900000000000001
aF0.17100000000000001
aF0.17100000000000001
ag4
aa(lp1086
S'3ia0'
p1087
aF0.217
aF0.29199999999999998
aF0.29199999999999998
ag4
aa(lp1088
S'2qzv'
p1089
aF0.61499999999999999
aF0.61399999999999999
aF0.56299999999999994
ag4
aa(lp1090
S'2xg8'
p1091
aF0.22700000000000001
aF0.23699999999999999
aF0.23699999999999999
ag4
aa(lp1092
S'4cox'
p1093
aF0.219
aF0.22700000000000001
aF0.22700000000000001
ag4
aa(lp1094
S'2byk'
p1095
aF0.23699999999999999
aF0.23699999999999999
aF0.23699999999999999
ag4
aa(lp1096
S'1aon'
p1097
aF0.248
aF0.27100000000000002
aF0.27100000000000002
ag4
aa(lp1098
S'7mdh'
p1099
aF0.221
aF0.221
aF0.221
ag4
aa(lp1100
S'3lns'
p1101
aF0.22800000000000001
aF0.221
aF0.221
ag4
aa(lp1102
S'4ahq'
p1103
aF0.191
aF0.189
aF0.189
ag4
aa(lp1104
S'4a4k'
p1105
aF0.23599999999999999
aF0.23100000000000001
aF0.23100000000000001
ag4
aa(lp1106
S'4jcf'
p1107
aF0.16400000000000001
aF0.16700000000000001
aF0.16700000000000001
ag4
aa(lp1108
S'4ahp'
p1109
aF0.19600000000000001
aF0.193
aF0.193
ag4
aa(lp1110
S'2wpc'
p1111
aF0.16500000000000001
aF0.16200000000000001
aF0.16200000000000001
ag4
aa(lp1112
S'2bym'
p1113
aF0.217
aF0.217
aF0.217
ag4
aa(lp1114
S'3ra4'
p1115
aF0.21199999999999999
aF0.52300000000000002
aF0.20799999999999999
ag4
aa(lp1116
S'4jce'
p1117
aF0.14899999999999999
aF0.157
aF0.157
ag4
aa(lp1118
S'12e8'
p1119
aF0.221
aF0.218
aF0.218
ag4
aa(lp1120
S'4aho'
p1121
aF0.19600000000000001
aF0.19
aF0.19
ag4
aa(lp1122
S'2y5m'
p1123
aF0.13
aF0.14599999999999999
aF0.14599999999999999
ag4
aa(lp1124
S'2cdp'
p1125
aF0.20999999999999999
aF0.20200000000000001
aF0.20200000000000001
ag4
aa(lp1126
S'4ajp'
p1127
aF0.16600000000000001
aF0.17399999999999999
aF0.17399999999999999
ag4
aa(lp1128
S'43c9'
p1129
aF0.20999999999999999
aF0.252
aF0.252
ag4
aa(lp1130
S'4apa'
p1131
aF0.16500000000000001
aF0.16600000000000001
aF0.16600000000000001
ag4
aa(lp1132
S'2c6s'
p1133
aF0.27500000000000002
aF0.27000000000000002
aF0.27000000000000002
ag4
aa(lp1134
S'1bbz'
p1135
aF0.20499999999999999
aF0.47799999999999998
aF0.47799999999999998
ag4
aa(lp1136
S'1w62'
p1137
aF0.17000000000000001
aF0.183
aF0.183
ag4
aa(lp1138
S'4jct'
p1139
aF0.21099999999999999
aF0.20499999999999999
aF0.20499999999999999
ag4
aa(lp1140
S'4ahc'
p1141
aF0.20599999999999999
aF0.28999999999999998
aF0.28999999999999998
ag4
aa(lp1142
S'1w48'
p1143
aF0.16400000000000001
aF0.16
aF0.16
ag4
aa(lp1144
S'2iua'
p1145
aF0.20899999999999999
aF0.21199999999999999
aF0.21199999999999999
ag4
aa(lp1146
S'1w49'
p1147
aF0.188
aF0.17399999999999999
aF0.17399999999999999
ag4
aa(lp1148
S'3ra2'
p1149
aF0.24399999999999999
aF0.51700000000000002
aF0.24299999999999999
ag4
aa(lp1150
S'3hn8'
p1151
aF0.23799999999999999
aF0.23400000000000001
aF0.23400000000000001
ag4
aa(lp1152
S'4apb'
p1153
aF0.14699999999999999
aF0.151
aF0.151
ag4
aa(lp1154
S'4aje'
p1155
aF0.20200000000000001
aF0.19600000000000001
aF0.19600000000000001
ag4
aa(lp1156
S'3djf'
p1157
aF0.20100000000000001
aF0.193
aF0.193
ag4
aa(lp1158
S'2cdy'
p1159
aF0.17299999999999999
aF0.18099999999999999
aF0.18099999999999999
ag4
aa(lp1160
S'2cde'
p1161
aF0.28299999999999997
aF0.26100000000000001
aF0.26100000000000001
ag4
aa(lp1162
S'2iu8'
p1163
aF0.20599999999999999
aF0.27200000000000002
aF0.27200000000000002
ag4
aa(lp1164
S'2y5z'
p1165
aF0.14999999999999999
aF0.153
aF0.153
ag4
aa(lp1166
S'1w44'
p1167
aF0.182
aF0.17399999999999999
aF0.17399999999999999
ag4
aa(lp1168
S'2iu9'
p1169
aF0.221
aF0.28199999999999997
aF0.28199999999999997
ag4
aa(lp1170
S'2cdo'
p1171
aF0.17599999999999999
aF0.17499999999999999
aF0.17499999999999999
ag4
aa(lp1172
S'2jif'
p1173
aF0.184
aF0.221
aF0.221
ag4
aa(lp1174
S'1qpr'
p1175
aF0.186
aF0.17399999999999999
aF0.17399999999999999
ag4
aa(lp1176
S'43ca'
p1177
aF0.20599999999999999
aF0.20599999999999999
aF0.20599999999999999
ag4
aa(lp1178
S'1w46'
p1179
aF0.20899999999999999
aF0.20000000000000001
aF0.20000000000000001
ag4
aa(lp1180
S'2y5p'
p1181
aF0.157
aF0.17000000000000001
aF0.17000000000000001
ag4
aa(lp1182
S'1b3s'
p1183
aF0.247
aF0.215
aF0.215
ag4
aa(lp1184
S'4h04'
p1185
aF0.155
aF0.14999999999999999
aF0.14999999999999999
ag4
aa(lp1186
S'1w47'
p1187
aF0.23899999999999999
aF0.188
aF0.188
ag4
aa(lp1188
S'2bys'
p1189
aF0.216
aF0.24299999999999999
aF0.24299999999999999
ag4
aa(lp1190
S'1wcd'
p1191
aF0.219
aF0.47999999999999998
aF0.26800000000000002
ag4
aa(lp1192
S'4ajo'
p1193
aF0.14899999999999999
aF0.155
aF0.155
ag4
aa(lp1194
S'4g83'
p1195
aF0.24099999999999999
aF0.251
aF0.251
ag4
aa(lp1196
S'1f8v'
p1197
aF0.219
aF0.55200000000000005
aF0.23699999999999999
ag4
aa(lp1198
S'2yc4'
p1199
aF0.22500000000000001
aF0.23200000000000001
aF0.23200000000000001
ag4
aa(lp1200
S'2wzr'
p1201
aF0.23000000000000001
aF0.49299999999999999
aF0.39800000000000002
ag4
aa(lp1202
S'4ajn'
p1203
aF0.17899999999999999
aF0.18099999999999999
aF0.18099999999999999
ag4
aa(lp1204
S'2j7v'
p1205
aF0.17199999999999999
aF0.17799999999999999
aF0.17799999999999999
ag4
aa(lp1206
S'2byr'
p1207
aF0.193
aF0.21199999999999999
aF0.21199999999999999
ag4
aa(lp1208
S'4ajl'
p1209
aF0.14199999999999999
aF0.14399999999999999
aF0.14399999999999999
ag4
aa(lp1210
S'4aue'
p1211
aF0.192
aF0.189
aF0.189
ag4
aa(lp1212
S'2j7q'
p1213
aF0.156
aF0.183
aF0.183
ag4
aa(lp1214
S'3ra8'
p1215
aF0.245
aF0.51400000000000001
aF0.248
ag4
aa(lp1216
S'2j7p'
p1217
aF0.184
aF0.184
aF0.184
ag4
aa(lp1218
S'2bp1'
p1219
aF0.155
aF0.17699999999999999
aF0.17699999999999999
ag4
aa(lp1220
S'2x3h'
p1221
aF0.17599999999999999
aF0.17199999999999999
aF0.17199999999999999
ag4
aa(lp1222
S'1w6u'
p1223
aF0.22700000000000001
aF0.22500000000000001
aF0.22500000000000001
ag4
aa(lp1224
S'2yc1'
p1225
aF0.186
aF0.183
aF0.183
ag4
aa(lp1226
S'3kz4'
p1227
aF0.32800000000000001
aF0.53600000000000003
aF0.32900000000000001
ag4
aa(lp1228
S'1bwf'
p1229
aF0.16700000000000001
aF0.16700000000000001
aF0.16700000000000001
aS'NO R-work information in pdb file!!!'
p1230
aa(lp1231
S'3ueo'
p1232
aF0.19
aF0.187
aF0.187
ag4
aa(lp1233
S'4aj2'
p1234
aF0.158
aF0.16700000000000001
aF0.16700000000000001
ag4
aa(lp1235
S'3ra9'
p1236
aF0.24299999999999999
aF0.499
aF0.23999999999999999
ag4
aa(lp1237
S'3uel'
p1238
aF0.245
aF0.24199999999999999
aF0.24199999999999999
ag4
aa(lp1239
S'3mdj'
p1240
aF0.19900000000000001
aF0.19500000000000001
aF0.19500000000000001
ag4
aa(lp1241
S'2wvh'
p1242
aF0.17100000000000001
aF0.16600000000000001
aF0.16600000000000001
ag4
aa(lp1243
S'4aj1'
p1244
aF0.17299999999999999
aF0.17799999999999999
aF0.17799999999999999
ag4
aa(lp1245
S'2xsc'
p1246
aF0.14199999999999999
aF0.152
aF0.152
ag4
aa(lp1247
S'4bv2'
p1248
aF0.245
aF0.24099999999999999
aF0.24099999999999999
ag4
aa(lp1249
S'2w1a'
p1250
aF0.191
aF0.20799999999999999
aF0.20799999999999999
ag4
aa(lp1251
S'2a2g'
p1252
aF0.248
aF0.23699999999999999
aF0.23699999999999999
ag4
aa(lp1253
S'4aj4'
p1254
aF0.19500000000000001
aF0.191
aF0.191
ag4
aa(lp1255
S'2xsz'
p1256
aF0.17799999999999999
aF0.19800000000000001
aF0.19800000000000001
ag4
aa(lp1257
S'3zo7'
p1258
aF0.186
aF0.18099999999999999
aF0.18099999999999999
ag4
aa(lp1259
S'1rh2'
p1260
aF0.22700000000000001
aF0.47599999999999998
aF0.47599999999999998
ag4
aa(lp1261
S'2kmb'
p1262
aF0.19
aF0.191
aF0.191
ag4
aa(lp1263
S'1x36'
p1264
aF0.245
aF0.58099999999999996
aF0.23000000000000001
ag4
aa(lp1265
S'1w4a'
p1266
aF0.24299999999999999
aF0.34699999999999998
aF0.34699999999999998
ag4
aa(lp1267
S'2ym9'
p1268
aF0.22900000000000001
aF0.22500000000000001
aF0.22500000000000001
ag4
aa(lp1269
S'2wva'
p1270
aF0.19400000000000001
aF0.185
aF0.185
ag4
aa(lp1271
S'1w4b'
p1272
aF0.23599999999999999
aF0.25900000000000001
aF0.25900000000000001
ag4
aa(lp1273
S'1laj'
p1274
aF0.218
aF0.48299999999999998
aF0.214
ag4
aa(lp1275
S'1w4c'
p1276
aF0.251
aF0.221
aF0.221
ag4
aa(lp1277
S'1rhg'
p1278
aF0.215
aF0.29199999999999998
aF0.29199999999999998
ag4
aa(lp1279
S'3v4h'
p1280
aF0.216
aF0.219
aF0.219
ag4
aa(lp1281
S'4bvh'
p1282
aF0.17199999999999999
aF0.17199999999999999
aF0.17199999999999999
ag4
aa(lp1283
S'4ivd'
p1284
aF0.20200000000000001
aF0.20200000000000001
aF0.20200000000000001
ag4
aa(lp1285
S'2ymm'
p1286
aF0.16300000000000001
aF0.16
aF0.16
ag4
aa(lp1287
S'2j5t'
p1288
aF0.19700000000000001
aF0.23799999999999999
aF0.23799999999999999
ag4
aa(lp1289
S'2wvg'
p1290
aF0.157
aF0.153
aF0.153
ag4
aa(lp1291
S'2w19'
p1292
aF0.17799999999999999
aF0.22900000000000001
aF0.22900000000000001
ag4
aa(lp1293
S'2a2u'
p1294
aF0.248
aF0.24299999999999999
aF0.24299999999999999
ag4
aa(lp1295
S'1rjw'
p1296
aF0.214
aF0.20799999999999999
aF0.20799999999999999
ag4
aa(lp1297
S'1rhq'
p1298
aF0.27300000000000002
aF0.27400000000000002
aF0.27400000000000002
ag4
aa(lp1299
S'2qhd'
p1300
aF0.22800000000000001
aF0.247
aF0.247
ag4
aa(lp1301
S'4a8j'
p1302
aF0.20100000000000001
aF0.19900000000000001
aF0.19900000000000001
ag4
aa(lp1303
S'3ejh'
p1304
aF0.20899999999999999
aF0.20799999999999999
aF0.20799999999999999
ag4
aa(lp1305
S'1w4v'
p1306
aF0.16900000000000001
aF0.22600000000000001
aF0.22600000000000001
ag4
aa(lp1307
S'1qh8'
p1308
aF0.155
aF0.17999999999999999
aF0.17999999999999999
ag4
aa(lp1309
S'4ivb'
p1310
aF0.18099999999999999
aF0.184
aF0.184
ag4
aa(lp1311
S'1w4r'
p1312
aF0.159
aF0.16700000000000001
aF0.16700000000000001
ag4
aa(lp1313
S'4a8p'
p1314
aF0.19600000000000001
aF0.20599999999999999
aF0.20599999999999999
ag4
aa(lp1315
S'2vbf'
p1316
aF0.16300000000000001
aF0.16800000000000001
aF0.16800000000000001
ag4
aa(lp1317
S'1qh1'
p1318
aF0.158
aF0.14999999999999999
aF0.14999999999999999
ag4
aa(lp1319
S'1vz8'
p1320
aF0.23499999999999999
aF0.22500000000000001
aF0.22500000000000001
ag4
aa(lp1321
S'1llu'
p1322
aF0.22900000000000001
aF0.22800000000000001
aF0.22800000000000001
ag4
aa(lp1323
S'4lxf'
p1324
aF0.21299999999999999
aF0.218
aF0.218
ag4
aa(lp1325
S'4evg'
p1326
aF0.17799999999999999
aF0.17100000000000001
aF0.17100000000000001
ag4
aa(lp1327
S'2wpw'
p1328
aF0.20899999999999999
aF0.20499999999999999
aF0.20499999999999999
ag4
aa(lp1329
S'4ger'
p1330
aF0.20000000000000001
aF0.192
aF0.192
ag4
aa(lp1331
S'4dzi'
p1332
aF0.16600000000000001
aF0.16500000000000001
aF0.16500000000000001
ag4
aa(lp1333
S'2bo2'
p1334
aF0.247
aF0.247
aF0.247
aS'NO R-work information in pdb file!!!'
p1335
aa(lp1336
S'1vz7'
p1337
aF0.223
aF0.222
aF0.222
ag4
aa(lp1338
S'2vi7'
p1339
aF0.191
aF0.187
aF0.187
ag4
aa(lp1340
S'1w3z'
p1341
aF0.248
aF0.248
aF0.248
aS'NO R-work information in pdb file!!!'
p1342
aa(lp1343
S'1zpd'
p1344
aF0.16200000000000001
aF0.14699999999999999
aF0.14699999999999999
ag4
aa(lp1345
S'1hkn'
p1346
aF0.22800000000000001
aF0.221
aF0.221
ag4
aa(lp1347
S'2vi6'
p1348
aF0.221
aF0.245
aF0.245
ag4
aa(lp1349
S'2wpe'
p1350
aF0.16800000000000001
aF0.16600000000000001
aF0.16600000000000001
ag4
aa(lp1351
S'4ao4'
p1352
aF0.183
aF0.17699999999999999
aF0.17699999999999999
ag4
aa(lp1353
S'4ivc'
p1354
aF0.19700000000000001
aF0.191
aF0.191
ag4
aa(lp1355
S'4arx'
p1356
aF0.184
aF0.185
aF0.185
ag4
aa(lp1357
S'1bvi'
p1358
aF0.17699999999999999
aF0.17599999999999999
aF0.17599999999999999
ag4
aa(lp1359
S'2wpf'
p1360
aF0.185
aF0.183
aF0.183
ag4
aa(lp1361
S'1hia'
p1362
aF0.20499999999999999
aF0.17899999999999999
aF0.17899999999999999
ag4
aa(lp1363
S'1dio'
p1364
aF0.187
aF0.16900000000000001
aF0.16900000000000001
ag4
aa(lp1365
S'1tdt'
p1366
aF0.159
aF0.159
aF0.159
aS'NO R-work information in pdb file!!!'
p1367
aa(lp1368
S'2j2f'
p1369
aF0.23999999999999999
aF0.318
aF0.318
ag4
aa(lp1370
S'4fig'
p1371
aF0.19600000000000001
aF0.186
aF0.186
ag4
aa(lp1372
S'2vix'
p1373
aF0.25700000000000001
aF0.25700000000000001
aF0.25700000000000001
aS'NO R-work information in pdb file!!!'
p1374
aa(lp1375
S'4lfg'
p1376
aF0.153
aF0.16500000000000001
aF0.16500000000000001
ag4
aa(lp1377
S'2vih'
p1378
aF0.22500000000000001
aF0.21199999999999999
aF0.21199999999999999
ag4
aa(lp1379
S'4ab7'
p1380
aF0.193
aF0.19400000000000001
aF0.19400000000000001
ag4
aa(lp1381
S'2i99'
p1382
aF0.21299999999999999
aF0.20300000000000001
aF0.20300000000000001
ag4
aa(lp1383
S'2vig'
p1384
aF0.19800000000000001
aF0.20200000000000001
aF0.20200000000000001
ag4
aa(lp1385
S'1juj'
p1386
aF0.26800000000000002
aF0.26700000000000002
aF0.26700000000000002
ag4
aa(lp1387
S'3vw4'
p1388
aF0.22
aF0.215
aF0.215
ag4
aa(lp1389
S'4lfe'
p1390
aF0.20699999999999999
aF0.21099999999999999
aF0.21099999999999999
ag4
aa(lp1391
S'1mel'
p1392
aF0.221
aF0.191
aF0.191
ag4
aa(lp1393
S'2vcy'
p1394
aF0.20699999999999999
aF0.21199999999999999
aF0.21199999999999999
ag4
aa(lp1395
S'2wv7'
p1396
aF0.19700000000000001
aF0.20000000000000001
aF0.20000000000000001
ag4
aa(lp1397
S'1h35'
p1398
aF0.219
aF0.214
aF0.214
ag4
aa(lp1399
S'2oag'
p1400
aF0.19700000000000001
aF0.19
aF0.19
ag4
aa(lp1401
S'4ajh'
p1402
aF0.151
aF0.153
aF0.153
ag4
aa(lp1403
S'1up8'
p1404
aF0.16800000000000001
aF0.17199999999999999
aF0.17199999999999999
ag4
aa(lp1405
S'2wv5'
p1406
aF0.23599999999999999
aF0.23000000000000001
aF0.23000000000000001
ag4
aa(lp1407
S'4afn'
p1408
aF0.20100000000000001
aF0.193
aF0.193
ag4
aa(lp1409
S'4lfy'
p1410
aF0.157
aF0.16700000000000001
aF0.16700000000000001
ag4
aa(lp1411
S'2wp9'
p1412
aF0.19
aF0.191
aF0.191
ag4
aa(lp1413
S'4aow'
p1414
aF0.193
aF0.22500000000000001
aF0.22500000000000001
ag4
aa(lp1415
S'1tdi'
p1416
aF0.22800000000000001
aF0.51300000000000001
aF0.29599999999999999
ag4
aa(lp1417
S'1uvh'
p1418
aF0.26000000000000001
aF0.26600000000000001
aF0.26600000000000001
ag4
aa(lp1419
S'2j2j'
p1420
aF0.16500000000000001
aF0.17000000000000001
aF0.17000000000000001
ag4
aa(lp1421
S'2vic'
p1422
aF0.20300000000000001
aF0.19600000000000001
aF0.19600000000000001
ag4
aa(lp1423
S'1uvi'
p1424
aF0.23000000000000001
aF0.217
aF0.217
ag4
aa(lp1425
S'2tep'
p1426
aF0.17499999999999999
aF0.24399999999999999
aF0.24399999999999999
ag4
aa(lp1427
S'3ukh'
p1428
aF0.222
aF0.20999999999999999
aF0.20999999999999999
ag4
aa(lp1429
S'2jf9'
p1430
aF0.17999999999999999
aF0.217
aF0.217
ag4
aa(lp1431
S'4ix9'
p1432
aF0.152
aF0.16200000000000001
aF0.16200000000000001
ag4
aa(lp1433
S'2wp2'
p1434
aF0.217
aF0.20899999999999999
aF0.20899999999999999
ag4
aa(lp1435
S'2qqp'
p1436
aF0.28499999999999998
aF0.52000000000000002
aF0.27900000000000003
ag4
aa(lp1437
S'3ide'
p1438
aF0.217
aF0.21199999999999999
aF0.21199999999999999
ag4
aa(lp1439
S'1uvj'
p1440
aF0.24199999999999999
aF0.22900000000000001
aF0.22900000000000001
ag4
aa(lp1441
S'1ahs'
p1442
aF0.21299999999999999
aF0.193
aF0.193
ag4
aa(lp1443
S'4ts1'
p1444
aF0.17599999999999999
aF0.17599999999999999
aF0.17599999999999999
aS'NO R-work information in pdb file!!!'
p1445
aa(lp1446
S'1ahj'
p1447
aF0.26400000000000001
aF0.23000000000000001
aF0.23000000000000001
ag4
aa(lp1448
S'1ofg'
p1449
aF0.18099999999999999
aF0.18099999999999999
aF0.18099999999999999
aS'NO R-work information in pdb file!!!'
p1450
aa(lp1451
S'2wm2'
p1452
aF0.21099999999999999
aF0.28599999999999998
aF0.28599999999999998
ag4
aa(lp1453
S'3ukk'
p1454
aF0.183
aF0.17999999999999999
aF0.17999999999999999
ag4
aa(lp1455
S'1uvk'
p1456
aF0.24299999999999999
aF0.22800000000000001
aF0.22800000000000001
ag4
aa(lp1457
S'3ndm'
p1458
aF0.24099999999999999
aF0.23200000000000001
aF0.23200000000000001
ag4
aa(lp1459
S'4dfd'
p1460
aF0.17999999999999999
aF0.189
aF0.189
ag4
aa(lp1461
S'4eci'
p1462
aF0.17499999999999999
aF0.17599999999999999
aF0.17599999999999999
ag4
aa(lp1463
S'3oah'
p1464
aF0.27500000000000002
aF0.52500000000000002
aF0.246
ag4
aa(lp1465
S'2x45'
p1466
aF0.13
aF0.157
aF0.157
ag4
aa(lp1467
S'3zpy'
p1468
aF0.16
aF0.157
aF0.157
ag4
aa(lp1469
S'1uvl'
p1470
aF0.28100000000000003
aF0.26300000000000001
aF0.26300000000000001
ag4
aa(lp1471
S'1qhb'
p1472
aF0.17199999999999999
aF0.156
aF0.156
ag4
aa(lp1473
S'4ece'
p1474
aF0.222
aF0.22
aF0.22
ag4
aa(lp1475
S'3zpr'
p1476
aF0.224
aF0.20899999999999999
aF0.20899999999999999
ag4
aa(lp1477
S'4g3d'
p1478
aF0.20100000000000001
aF0.19800000000000001
aF0.19800000000000001
ag4
aa(lp1479
S'3zpq'
p1480
aF0.22
aF0.20799999999999999
aF0.20799999999999999
ag4
aa(lp1481
S'4jvu'
p1482
aF0.13800000000000001
aF0.14799999999999999
aF0.14799999999999999
ag4
aa(lp1483
S'1uvm'
p1484
aF0.24099999999999999
aF0.22500000000000001
aF0.22500000000000001
ag4
aa(lp1485
S'4g3e'
p1486
aF0.189
aF0.188
aF0.188
ag4
aa(lp1487
S'4gdc'
p1488
aF0.20999999999999999
aF0.20300000000000001
aF0.20300000000000001
ag4
aa(lp1489
S'4hg4'
p1490
aF0.249
aF0.245
aF0.245
ag4
aa(lp1491
S'4jvw'
p1492
aF0.19800000000000001
aF0.20100000000000001
aF0.20100000000000001
ag4
aa(lp1493
S'3uka'
p1494
aF0.20599999999999999
aF0.22
aF0.22
ag4
aa(lp1495
S'1nec'
p1496
aF0.17999999999999999
aF0.17100000000000001
aF0.17100000000000001
ag4
aa(lp1497
S'2xcm'
p1498
aF0.19800000000000001
aF0.193
aF0.193
ag4
aa(lp1499
S'3ukf'
p1500
aF0.25
aF0.23400000000000001
aF0.23400000000000001
ag4
aa(lp1501
S'1w33'
p1502
aF0.22900000000000001
aF0.22900000000000001
aF0.22900000000000001
aS'NO R-work information in pdb file!!!'
p1503
aa(lp1504
S'1bpw'
p1505
aF0.23899999999999999
aF0.22500000000000001
aF0.22500000000000001
ag4
aa(lp1506
S'1upb'
p1507
aF0.157
aF0.16900000000000001
aF0.16900000000000001
ag4
aa(lp1508
S'1uvz'
p1509
aF0.20000000000000001
aF0.254
aF0.254
ag4
aa(lp1510
S'2xrc'
p1511
aF0.20000000000000001
aF0.30399999999999999
aF0.30399999999999999
ag4
aa(lp1512
S'2wmc'
p1513
aF0.17999999999999999
aF0.20200000000000001
aF0.20200000000000001
ag4
aa(lp1514
S'1hk9'
p1515
aF0.20799999999999999
aF0.20300000000000001
aF0.20300000000000001
ag4
aa(lp1516
S'3fbm'
p1517
aF0.29399999999999998
aF0.54600000000000004
aF0.27500000000000002
ag4
aa(lp1518
S'4gdd'
p1519
aF0.21199999999999999
aF0.19900000000000001
aF0.19900000000000001
ag4
aa(lp1520
S'1upc'
p1521
aF0.17599999999999999
aF0.187
aF0.187
ag4
aa(lp1522
S'2jfa'
p1523
aF0.193
aF0.23499999999999999
aF0.23499999999999999
ag4
aa(lp1524
S'2wmz'
p1525
aF0.25800000000000001
aF0.245
aF0.245
ag4
aa(lp1526
S'2jfd'
p1527
aF0.21199999999999999
aF0.27100000000000002
aF0.27100000000000002
ag4
aa(lp1528
S'1upa'
p1529
aF0.157
aF0.16700000000000001
aF0.16700000000000001
ag4
aa(lp1530
S'3uic'
p1531
aF0.24099999999999999
aF0.24099999999999999
aF0.24099999999999999
ag4
aa(lp1532
S'3pgd'
p1533
aF0.19600000000000001
aF0.192
aF0.192
ag4
aa(lp1534
S'2jfk'
p1535
aF0.222
aF0.27900000000000003
aF0.27900000000000003
ag4
aa(lp1536
S'3ukq'
p1537
aF0.21199999999999999
aF0.20200000000000001
aF0.20200000000000001
ag4
aa(lp1538
S'4jt0'
p1539
aF0.216
aF0.222
aF0.222
ag4
aa(lp1540
S'1gd1'
p1541
aF0.17799999999999999
aF0.17799999999999999
aF0.17799999999999999
aS'NO R-work information in pdb file!!!'
p1542
aa(lp1543
S'2v7g'
p1544
aF0.156
aF0.182
aF0.182
ag4
aa(lp1545
S'3ukp'
p1546
aF0.20200000000000001
aF0.27500000000000002
aF0.27500000000000002
ag4
aa(lp1547
S'1h6v'
p1548
aF0.224
aF0.25700000000000001
aF0.25700000000000001
ag4
aa(lp1549
S'4j4b'
p1550
aF0.20499999999999999
aF0.20399999999999999
aF0.20399999999999999
ag4
aa(lp1551
S'4bgg'
p1552
aF0.215
aF0.21099999999999999
aF0.21099999999999999
ag4
aa(lp1553
S'4g1b'
p1554
aF0.22900000000000001
aF0.248
aF0.248
ag4
aa(lp1555
S'1a4e'
p1556
aF0.154
aF0.193
aF0.193
ag4
aa(lp1557
S'1h6k'
p1558
aF0.20300000000000001
aF0.20200000000000001
aF0.20200000000000001
ag4
aa(lp1559
S'4j4h'
p1560
aF0.17899999999999999
aF0.17699999999999999
aF0.17699999999999999
ag4
aa(lp1561
S'3w5u'
p1562
aF0.22600000000000001
aF0.22500000000000001
aF0.22500000000000001
ag4
aa(lp1563
S'3fbn'
p1564
aF0.17799999999999999
aF0.17999999999999999
aF0.17999999999999999
ag4
aa(lp1565
S'2w4z'
p1566
aF0.29599999999999999
aF0.52100000000000002
aF0.27100000000000002
ag4
aa(lp1567
S'1hi9'
p1568
aF0.23200000000000001
aF0.22800000000000001
aF0.22800000000000001
ag4
aa(lp1569
S'5msf'
p1570
aF0.188
aF0.53000000000000003
aF0.186
ag4
aa(lp1571
S'1upt'
p1572
aF0.221
aF0.22800000000000001
aF0.22800000000000001
ag4
aa(lp1573
S'1a4o'
p1574
aF0.31
aF0.312
aF0.312
ag4
aa(lp1575
S'4as5'
p1576
aF0.16
aF0.159
aF0.159
ag4
aa(lp1577
S'3w5v'
p1578
aF0.27700000000000002
aF0.27100000000000002
aF0.27100000000000002
ag4
aa(lp1579
S'1a4s'
p1580
aF0.223
aF0.20100000000000001
aF0.20100000000000001
ag4
aa(lp1581
S'4j4x'
p1582
aF0.19500000000000001
aF0.19700000000000001
aF0.19700000000000001
ag4
aa(lp1583
S'1hi0'
p1584
aF0.214
aF0.20599999999999999
aF0.20599999999999999
ag4
aa(lp1585
S'1c8n'
p1586
aF0.253
aF0.502
aF0.27800000000000002
ag4
aa(lp1587
S'3zdg'
p1588
aF0.17299999999999999
aF0.17499999999999999
aF0.17499999999999999
ag4
aa(lp1589
S'4j4y'
p1590
aF0.20999999999999999
aF0.221
aF0.221
ag4
aa(lp1591
S'4iem'
p1592
aF0.20799999999999999
aF0.21099999999999999
aF0.21099999999999999
ag4
aa(lp1593
S'1wac'
p1594
aF0.24099999999999999
aF0.23799999999999999
aF0.23799999999999999
ag4
aa(lp1595
S'1bxn'
p1596
aF0.26600000000000001
aF0.27000000000000002
aF0.27000000000000002
ag4
aa(lp1597
S'2w69'
p1598
aF0.217
aF0.23599999999999999
aF0.23599999999999999
ag4
aa(lp1599
S'4acp'
p1600
aF0.19500000000000001
aF0.19500000000000001
aF0.19500000000000001
ag4
aa(lp1601
S'3rku'
p1602
aF0.189
aF0.19900000000000001
aF0.19900000000000001
ag4
aa(lp1603
S'4acq'
p1604
aF0.23799999999999999
aF0.26500000000000001
aF0.26500000000000001
ag4
aa(lp1605
S'2cf7'
p1606
aF0.153
aF0.154
aF0.154
ag4
aa(lp1607
S'2v1t'
p1608
aF0.17799999999999999
aF0.19500000000000001
aF0.19500000000000001
ag4
aa(lp1609
S'2v1s'
p1610
aF0.248
aF0.27300000000000002
aF0.27300000000000002
ag4
aa(lp1611
S'3rko'
p1612
aF0.23200000000000001
aF0.22800000000000001
aF0.22800000000000001
ag4
aa(lp1613
S'4lih'
p1614
aF0.189
aF0.19500000000000001
aF0.19500000000000001
ag4
aa(lp1615
S'4acr'
p1616
aF0.251
aF0.247
aF0.247
ag4
aa(lp1617
S'3nc0'
p1618
aF0.24199999999999999
aF0.23999999999999999
aF0.23999999999999999
ag4
aa(lp1619
S'4acs'
p1620
aF0.26100000000000001
aF0.253
aF0.253
ag4
aa(lp1621
S'2fz2'
p1622
aF0.27600000000000002
aF0.52800000000000002
aF0.26400000000000001
ag4
aa(lp1623
S'1a4z'
p1624
aF0.23000000000000001
aF0.26400000000000001
aF0.26400000000000001
ag4
aa(lp1625
S'2ch5'
p1626
aF0.16700000000000001
aF0.19700000000000001
aF0.19700000000000001
ag4
aa(lp1627
S'3vyw'
p1628
aF0.191
aF0.191
aF0.191
ag4
aa(lp1629
S'2wfc'
p1630
aF0.16300000000000001
aF0.20699999999999999
aF0.20699999999999999
ag4
aa(lp1631
S'3hhn'
p1632
aF0.20200000000000001
aF0.20000000000000001
aF0.20000000000000001
ag4
aa(lp1633
S'2wdq'
p1634
aF0.17100000000000001
aF0.19600000000000001
aF0.19600000000000001
ag4
aa(lp1635
S'4a6g'
p1636
aF0.155
aF0.16800000000000001
aF0.16800000000000001
ag4
aa(lp1637
S'3zw2'
p1638
aF0.16
aF0.16600000000000001
aF0.16600000000000001
ag4
aa(lp1639
S'2ch6'
p1640
aF0.22700000000000001
aF0.26000000000000001
aF0.26000000000000001
ag4
aa(lp1641
S'2wff'
p1642
aF0.46200000000000002
aF0.47999999999999998
aF0.45000000000000001
ag4
aa(lp1643
S'1cfm'
p1644
aF0.214
aF0.214
aF0.214
ag4
aa(lp1645
S'1r2j'
p1646
aF0.247
aF0.434
aF0.24099999999999999
ag4
aa(lp1647
S'2w65'
p1648
aF0.23400000000000001
aF0.27800000000000002
aF0.27800000000000002
ag4
aa(lp1649
S'4a6n'
p1650
aF0.218
aF0.216
aF0.216
ag4
aa(lp1651
S'4acf'
p1652
aF0.16500000000000001
aF0.16800000000000001
aF0.16800000000000001
ag4
aa(lp1653
S'1fba'
p1654
aF0.16300000000000001
aF0.16300000000000001
aF0.16300000000000001
aS'NO R-work information in pdb file!!!'
p1655
aa(lp1656
S'2wdr'
p1657
aF0.19700000000000001
aF0.246
aF0.246
ag4
aa(lp1658
S'4e08'
p1659
aF0.193
aF0.193
aF0.193
ag4
aa(lp1660
S'1wav'
p1661
aF0.20599999999999999
aF0.25
aF0.25
ag4
aa(lp1662
S'1afv'
p1663
aF0.217
aF0.28100000000000003
aF0.28100000000000003
ag4
aa(lp1664
S'4a6t'
p1665
aF0.16500000000000001
aF0.16700000000000001
aF0.16700000000000001
ag4
aa(lp1666
S'1rco'
p1667
aF0.23899999999999999
aF0.224
aF0.224
ag4
aa(lp1668
S'2vav'
p1669
aF0.219
aF0.21099999999999999
aF0.21099999999999999
ag4
aa(lp1670
S'2fz1'
p1671
aF0.309
aF0.54300000000000004
aF0.32100000000000001
ag4
aa(lp1672
S'2x8j'
p1673
aF0.187
aF0.19
aF0.19
ag4
aa(lp1674
S'3ode'
p1675
aF0.19900000000000001
aF0.19700000000000001
aF0.19700000000000001
ag4
aa(lp1676
S'1h1l'
p1677
aF0.17599999999999999
aF0.161
aF0.161
ag4
aa(lp1678
S'4b98'
p1679
aF0.22
aF0.21199999999999999
aF0.21199999999999999
ag4
aa(lp1680
S'3zw0'
p1681
aF0.14299999999999999
aF0.14799999999999999
aF0.14799999999999999
ag4
aa(lp1682
S'1afd'
p1683
aF0.23400000000000001
aF0.22500000000000001
aF0.22500000000000001
ag4
aa(lp1684
S'4av7'
p1685
aF0.186
aF0.191
aF0.191
ag4
aa(lp1686
S'1afa'
p1687
aF0.221
aF0.20499999999999999
aF0.20499999999999999
ag4
aa(lp1688
S'2wdz'
p1689
aF0.187
aF0.184
aF0.184
ag4
aa(lp1690
S'1afb'
p1691
aF0.217
aF0.20200000000000001
aF0.20200000000000001
ag4
aa(lp1692
S'2jc3'
p1693
aF0.21299999999999999
aF0.19
aF0.19
ag4
aa(lp1694
S'1rcx'
p1695
aF0.224
aF0.20499999999999999
aF0.20499999999999999
ag4
aa(lp1696
S'4blv'
p1697
aF0.17000000000000001
aF0.17100000000000001
aF0.17100000000000001
ag4
aa(lp1698
S'4blu'
p1699
aF0.16600000000000001
aF0.16600000000000001
aF0.16600000000000001
ag4
aa(lp1700
S'2otc'
p1701
aF0.21299999999999999
aF0.193
aF0.193
ag4
aa(lp1702
S'3oda'
p1703
aF0.19600000000000001
aF0.188
aF0.188
ag4
aa(lp1704
S'1o79'
p1705
aF0.23899999999999999
aF0.22800000000000001
aF0.22800000000000001
ag4
aa(lp1706
S'1a88'
p1707
aF0.16
aF0.14699999999999999
aF0.14699999999999999
ag4
aa(lp1708
S'4ac8'
p1709
aF0.22
aF0.224
aF0.224
ag4
aa(lp1710
S'2v32'
p1711
aF0.192
aF0.192
aF0.192
ag4
aa(lp1712
S'4at6'
p1713
aF0.27900000000000003
aF0.35399999999999998
aF0.35399999999999998
ag4
aa(lp1714
S'2ipg'
p1715
aF0.182
aF0.17599999999999999
aF0.17599999999999999
ag4
aa(lp1716
S'1uug'
p1717
aF0.19
aF0.182
aF0.182
ag4
aa(lp1718
S'1rpx'
p1719
aF0.17399999999999999
aF0.17499999999999999
aF0.17499999999999999
ag4
aa(lp1720
S'2chb'
p1721
aF0.17100000000000001
aF0.22500000000000001
aF0.22500000000000001
ag4
aa(lp1722
S'3zbn'
p1723
aF0.20899999999999999
aF0.21099999999999999
aF0.21099999999999999
ag4
aa(lp1724
S'2yev'
p1725
aF0.17100000000000001
aF0.16300000000000001
aF0.16300000000000001
ag4
aa(lp1726
S'1ch0'
p1727
aF0.19800000000000001
aF0.193
aF0.193
ag4
aa(lp1728
S'2ipf'
p1729
aF0.17100000000000001
aF0.16500000000000001
aF0.16500000000000001
ag4
aa(lp1730
S'2g34'
p1731
aF0.36499999999999999
aF0.55100000000000005
aF0.34300000000000003
ag4
aa(lp1732
S'2xta'
p1733
aF0.188
aF0.20100000000000001
aF0.20100000000000001
ag4
aa(lp1734
S'2ipj'
p1735
aF0.20399999999999999
aF0.19800000000000001
aF0.19800000000000001
ag4
aa(lp1736
S'2v19'
p1737
aF0.20599999999999999
aF0.22800000000000001
aF0.22800000000000001
ag4
aa(lp1738
S'4au5'
p1739
aF0.318
aF0.30199999999999999
aF0.30199999999999999
ag4
aa(lp1740
S'2v18'
p1741
aF0.219
aF0.24299999999999999
aF0.24299999999999999
ag4
aa(lp1742
S'2ygu'
p1743
aF0.23699999999999999
aF0.23100000000000001
aF0.23100000000000001
ag4
aa(lp1744
S'2xva'
p1745
aF0.17499999999999999
aF0.182
aF0.182
ag4
aa(lp1746
S'2vun'
p1747
aF0.17599999999999999
aF0.17399999999999999
aF0.17399999999999999
ag4
aa(lp1748
S'2yep'
p1749
aF0.218
aF0.20599999999999999
aF0.20599999999999999
ag4
aa(lp1750
S'1pfz'
p1751
aF0.214
aF0.20499999999999999
aF0.20499999999999999
ag4
aa(lp1752
S'2vgr'
p1753
aF0.22600000000000001
aF0.246
aF0.246
ag4
aa(lp1754
S'2yeq'
p1755
aF0.17799999999999999
aF0.183
aF0.183
ag4
aa(lp1756
S'1gvn'
p1757
aF0.20000000000000001
aF0.19400000000000001
aF0.19400000000000001
ag4
aa(lp1758
S'7msf'
p1759
aF0.20000000000000001
aF0.52700000000000002
aF0.19700000000000001
ag4
aa(lp1760
S'3vcn'
p1761
aF0.13
aF0.14000000000000001
aF0.14000000000000001
ag4
aa(lp1762
S'2cfy'
p1763
aF0.20300000000000001
aF0.224
aF0.224
ag4
aa(lp1764
S'1gvm'
p1765
aF0.22600000000000001
aF0.22600000000000001
aF0.22600000000000001
ag4
aa(lp1766
S'1cf9'
p1767
aF0.18099999999999999
aF0.17899999999999999
aF0.17899999999999999
ag4
aa(lp1768
S'1b9c'
p1769
aF0.20399999999999999
aF0.221
aF0.221
ag4
aa(lp1770
S'2jca'
p1771
aF0.17799999999999999
aF0.182
aF0.182
ag4
aa(lp1772
S'4gvs'
p1773
aF0.187
aF0.186
aF0.186
ag4
aa(lp1774
S'2wd0'
p1775
aF0.219
aF0.255
aF0.255
ag4
aa(lp1776
S'2bnz'
p1777
aF0.22500000000000001
aF0.23699999999999999
aF0.23699999999999999
ag4
aa(lp1778
S'1af6'
p1779
aF0.17999999999999999
aF0.17999999999999999
aF0.17999999999999999
aS'NO R-work information in pdb file!!!'
p1780
aa(lp1781
S'1shs'
p1782
aF0.216
aF0.22
aF0.22
ag4
aa(lp1783
S'2bm2'
p1784
aF0.20300000000000001
aF0.19400000000000001
aF0.19400000000000001
ag4
aa(lp1785
S'1egz'
p1786
aF0.17899999999999999
aF0.17499999999999999
aF0.17499999999999999
ag4
aa(lp1787
S'2wd7'
p1788
aF0.155
aF0.17899999999999999
aF0.17899999999999999
ag4
aa(lp1789
S'1a8m'
p1790
aF0.218
aF0.34799999999999998
aF0.34799999999999998
ag4
aa(lp1791
S'3zwx'
p1792
aF0.20300000000000001
aF0.192
aF0.192
ag4
aa(lp1793
S'2chp'
p1794
aF0.155
aF0.16700000000000001
aF0.16700000000000001
ag4
aa(lp1795
S'2j04'
p1796
aF0.21199999999999999
aF0.26600000000000001
aF0.26600000000000001
ag4
aa(lp1797
S'4djz'
p1798
aF0.22800000000000001
aF0.215
aF0.215
ag4
aa(lp1799
S'1lbs'
p1800
aF0.193
aF0.20499999999999999
aF0.20499999999999999
ag4
aa(lp1801
S'1vew'
p1802
aF0.16300000000000001
aF0.16300000000000001
aF0.16300000000000001
aS'NO R-work information in pdb file!!!'
p1803
aa(lp1804
S'2vsk'
p1805
aF0.29999999999999999
aF0.28699999999999998
aF0.28699999999999998
ag4
aa(lp1806
S'3vcf'
p1807
aF0.187
aF0.18099999999999999
aF0.18099999999999999
ag4
aa(lp1808
S'1vak'
p1809
aF0.21099999999999999
aF0.55200000000000005
aF0.20599999999999999
ag4
aa(lp1810
S'3zke'
p1811
aF0.19600000000000001
aF0.191
aF0.191
ag4
aa(lp1812
S'2g33'
p1813
aF0.35999999999999999
aF0.56299999999999994
aF0.33300000000000002
ag4
aa(lp1814
S'2wcw'
p1815
aF0.154
aF0.16400000000000001
aF0.16400000000000001
ag4
aa(lp1816
S'3zwy'
p1817
aF0.215
aF0.20200000000000001
aF0.20200000000000001
ag4
aa(lp1818
S'2wd8'
p1819
aF0.158
aF0.184
aF0.184
ag4
aa(lp1820
S'2bpm'
p1821
aF0.22900000000000001
aF0.222
aF0.222
ag4
aa(lp1822
S'4atf'
p1823
aF0.13400000000000001
aF0.13500000000000001
aF0.13500000000000001
ag4
aa(lp1824
S'2jj4'
p1825
aF0.23300000000000001
aF0.26400000000000001
aF0.26400000000000001
ag4
aa(lp1826
S'2wam'
p1827
aF0.17499999999999999
aF0.16800000000000001
aF0.16800000000000001
ag4
aa(lp1828
S'1cx2'
p1829
aF0.216
aF0.22600000000000001
aF0.22600000000000001
ag4
aa(lp1830
S'3zwv'
p1831
aF0.215
aF0.20699999999999999
aF0.20699999999999999
ag4
aa(lp1832
S'2y4y'
p1833
aF0.17799999999999999
aF0.18099999999999999
aF0.18099999999999999
ag4
aa(lp1834
S'3k8z'
p1835
aF0.247
aF0.24199999999999999
aF0.24199999999999999
ag4
aa(lp1836
S'4ak9'
p1837
aF0.215
aF0.21299999999999999
aF0.21299999999999999
ag4
aa(lp1838
S'2y4t'
p1839
aF0.24299999999999999
aF0.248
aF0.248
ag4
aa(lp1840
S'3zww'
p1841
aF0.20000000000000001
aF0.19
aF0.19
ag4
aa(lp1842
S'4atv'
p1843
aF0.28699999999999998
aF0.29399999999999998
aF0.29399999999999998
ag4
aa(lp1844
S'1gp7'
p1845
aF0.20499999999999999
aF0.20000000000000001
aF0.20000000000000001
ag4
aa(lp1846
S'1w8d'
p1847
aF0.219
aF0.219
aF0.219
ag4
aa(lp1848
S'2w48'
p1849
aF0.218
aF0.216
aF0.216
ag4
aa(lp1850
S'1o6h'
p1851
aF0.17399999999999999
aF0.17299999999999999
aF0.17299999999999999
ag4
aa(lp1852
S'1qk4'
p1853
aF0.189
aF0.186
aF0.186
ag4
aa(lp1854
S'4ihc'
p1855
aF0.17299999999999999
aF0.182
aF0.182
ag4
aa(lp1856
S'2y6v'
p1857
aF0.20699999999999999
aF0.20200000000000001
aF0.20200000000000001
ag4
aa(lp1858
S'2y4p'
p1859
aF0.252
aF0.25
aF0.25
ag4
aa(lp1860
S'3zwp'
p1861
aF0.185
aF0.18099999999999999
aF0.18099999999999999
ag4
aa(lp1862
S'2caz'
p1863
aF0.32800000000000001
aF0.31900000000000001
aF0.31900000000000001
ag4
aa(lp1864
S'1aa1'
p1865
aF0.20699999999999999
aF0.19800000000000001
aF0.19800000000000001
ag4
aa(lp1866
S'2y6s'
p1867
aF0.23599999999999999
aF0.27500000000000002
aF0.27500000000000002
ag4
aa(lp1868
S'3es5'
p1869
aF0.248
aF0.51400000000000001
aF0.24099999999999999
ag4
aa(lp1870
S'2y6r'
p1871
aF0.22500000000000001
aF0.222
aF0.222
ag4
aa(lp1872
S'1o6r'
p1873
aF0.193
aF0.188
aF0.188
ag4
aa(lp1874
S'2c63'
p1875
aF0.184
aF0.22700000000000001
aF0.22700000000000001
ag4
aa(lp1876
S'4hzl'
p1877
aF0.221
aF0.254
aF0.254
ag4
aa(lp1878
S'2can'
p1879
aF0.21199999999999999
aF0.221
aF0.221
ag4
aa(lp1880
S'3zwo'
p1881
aF0.17699999999999999
aF0.17299999999999999
aF0.17299999999999999
ag4
aa(lp1882
S'2v8h'
p1883
aF0.17799999999999999
aF0.20699999999999999
aF0.20699999999999999
ag4
aa(lp1884
S'2gd1'
p1885
aF0.16700000000000001
aF0.16700000000000001
aF0.16700000000000001
aS'NO R-work information in pdb file!!!'
p1886
aa(lp1887
S'2y6n'
p1888
aF0.14799999999999999
aF0.13600000000000001
aF0.13600000000000001
ag4
aa(lp1889
S'2jjx'
p1890
aF0.20000000000000001
aF0.22500000000000001
aF0.22500000000000001
ag4
aa(lp1891
S'4b2y'
p1892
aF0.14999999999999999
aF0.14999999999999999
aF0.14999999999999999
ag4
aa(lp1893
S'1ehy'
p1894
aF0.19
aF0.189
aF0.189
ag4
aa(lp1895
S'2jjy'
p1896
aF0.20200000000000001
aF0.214
aF0.214
ag4
aa(lp1897
S'2v8d'
p1898
aF0.23000000000000001
aF0.28899999999999998
aF0.28899999999999998
ag4
aa(lp1899
S'4aa7'
p1900
aF0.17699999999999999
aF0.17599999999999999
aF0.17599999999999999
ag4
aa(lp1901
S'2xz1'
p1902
aF0.20899999999999999
aF0.20599999999999999
aF0.20599999999999999
ag4
aa(lp1903
S'1oc3'
p1904
aF0.221
aF0.249
aF0.249
ag4
aa(lp1905
S'2v8g'
p1906
aF0.189
aF0.20599999999999999
aF0.20599999999999999
ag4
aa(lp1907
S'2jjm'
p1908
aF0.254
aF0.26100000000000001
aF0.26100000000000001
ag4
aa(lp1909
S'4b0j'
p1910
aF0.23300000000000001
aF0.23499999999999999
aF0.23499999999999999
ag4
aa(lp1911
S'1o6q'
p1912
aF0.20100000000000001
aF0.19700000000000001
aF0.19700000000000001
ag4
aa(lp1913
S'2y9x'
p1914
aF0.23499999999999999
aF0.23799999999999999
aF0.23799999999999999
ag4
aa(lp1915
S'2v8x'
p1916
aF0.188
aF0.185
aF0.185
ag4
aa(lp1917
S'2v8y'
p1918
aF0.20300000000000001
aF0.19700000000000001
aF0.19700000000000001
ag4
aa(lp1919
S'3tue'
p1920
aF0.19700000000000001
aF0.192
aF0.192
ag4
aa(lp1921
S'2v8z'
p1922
aF0.19
aF0.22500000000000001
aF0.22500000000000001
ag4
aa(lp1923
S'3uv3'
p1924
aF0.16700000000000001
aF0.16
aF0.16
ag4
aa(lp1925
S'1hl5'
p1926
aF0.185
aF0.23200000000000001
aF0.23200000000000001
ag4
aa(lp1927
S'1o6z'
p1928
aF0.19
aF0.223
aF0.223
ag4
aa(lp1929
S'2jjd'
p1930
aF0.221
aF0.23899999999999999
aF0.23899999999999999
ag4
aa(lp1931
S'2v8v'
p1932
aF0.19400000000000001
aF0.21099999999999999
aF0.21099999999999999
ag4
aa(lp1933
S'4b0c'
p1934
aF0.20499999999999999
aF0.20100000000000001
aF0.20100000000000001
ag4
aa(lp1935
S'1nsk'
p1936
aF0.249
aF0.23000000000000001
aF0.23000000000000001
ag4
aa(lp1937
S'3zwe'
p1938
aF0.20799999999999999
aF0.20499999999999999
aF0.20499999999999999
ag4
aa(lp1939
S'2v8w'
p1940
aF0.184
aF0.17999999999999999
aF0.17999999999999999
ag4
aa(lp1941
S'1lxt'
p1942
aF0.20100000000000001
aF0.249
aF0.249
ag4
aa(lp1943
S'3uv6'
p1944
aF0.14199999999999999
aF0.14000000000000001
aF0.14000000000000001
ag4
aa(lp1945
S'1kpl'
p1946
aF0.254
aF0.24399999999999999
aF0.24399999999999999
ag4
aa(lp1947
S'1aqd'
p1948
aF0.216
aF0.20599999999999999
aF0.20599999999999999
ag4
aa(lp1949
S'2yps'
p1950
aF0.21099999999999999
aF0.20999999999999999
aF0.20999999999999999
ag4
aa(lp1951
S'2c6x'
p1952
aF0.28399999999999997
aF0.26000000000000001
aF0.26000000000000001
ag4
aa(lp1953
S'2ypq'
p1954
aF0.17699999999999999
aF0.20100000000000001
aF0.20100000000000001
ag4
aa(lp1955
S'4hz2'
p1956
aF0.13800000000000001
aF0.14199999999999999
aF0.14199999999999999
ag4
aa(lp1957
S'2j9o'
p1958
aF0.17699999999999999
aF0.184
aF0.184
ag4
aa(lp1959
S'3uv7'
p1960
aF0.16
aF0.154
aF0.154
ag4
aa(lp1961
S'4dpl'
p1962
aF0.16300000000000001
aF0.159
aF0.159
ag4
aa(lp1963
S'1hl4'
p1964
aF0.23200000000000001
aF0.26000000000000001
aF0.26000000000000001
ag4
aa(lp1965
S'2ypt'
p1966
aF0.26300000000000001
aF0.27100000000000002
aF0.27100000000000002
ag4
aa(lp1967
S'1qfl'
p1968
aF0.20899999999999999
aF0.255
aF0.255
ag4
aa(lp1969
S'4iv3'
p1970
aF0.23499999999999999
aF0.503
aF0.23499999999999999
ag4
aa(lp1971
S'2xqy'
p1972
aF0.188
aF0.186
aF0.186
ag4
aa(lp1973
S'4b2o'
p1974
aF0.159
aF0.154
aF0.154
ag4
aa(lp1975
S'2j9l'
p1976
aF0.26300000000000001
aF0.29499999999999998
aF0.29499999999999998
ag4
aa(lp1977
S'4dpm'
p1978
aF0.19800000000000001
aF0.182
aF0.182
ag4
aa(lp1979
S'1arz'
p1980
aF0.214
aF0.21199999999999999
aF0.21199999999999999
ag4
aa(lp1981
S'2j9u'
p1982
aF0.223
aF0.254
aF0.254
ag4
aa(lp1983
S'1qfo'
p1984
aF0.20000000000000001
aF0.19900000000000001
aF0.19900000000000001
ag4
aa(lp1985
S'2xzt'
p1986
aF0.19700000000000001
aF0.20799999999999999
aF0.20799999999999999
ag4
aa(lp1987
S'1o91'
p1988
aF0.185
aF0.17599999999999999
aF0.17599999999999999
ag4
aa(lp1989
S'4b2a'
p1990
aF0.20300000000000001
aF0.20399999999999999
aF0.20399999999999999
ag4
aa(lp1991
S'1cmx'
p1992
aF0.248
aF0.23200000000000001
aF0.23200000000000001
ag4
aa(lp1993
S'1cde'
p1994
aF0.25
aF0.22700000000000001
aF0.22700000000000001
ag4
aa(lp1995
S'2v6a'
p1996
aF0.17599999999999999
aF0.17299999999999999
aF0.17299999999999999
ag4
aa(lp1997
S'1qfj'
p1998
aF0.23899999999999999
aF0.215
aF0.215
ag4
aa(lp1999
S'2vza'
p2000
aF0.24399999999999999
aF0.29499999999999998
aF0.29499999999999998
ag4
aa(lp2001
S'2xd0'
p2002
aF0.214
aF0.21299999999999999
aF0.21299999999999999
ag4
aa(lp2003
S'1dji'
p2004
aF0.20899999999999999
aF0.20899999999999999
aF0.20899999999999999
aS'NO R-work information in pdb file!!!'
p2005
aa(lp2006
S'2y9w'
p2007
aF0.18099999999999999
aF0.18099999999999999
aF0.18099999999999999
ag4
aa(lp2008
S'1bh5'
p2009
aF0.17999999999999999
aF0.17399999999999999
aF0.17399999999999999
ag4
aa(lp2010
S'4i58'
p2011
aF0.23699999999999999
aF0.23000000000000001
aF0.23000000000000001
ag4
aa(lp2012
S'2y9a'
p2013
aF0.27700000000000002
aF0.46700000000000003
aF0.46700000000000003
ag4
aa(lp2014
S'1cmi'
p2015
aF0.23999999999999999
aF0.23499999999999999
aF0.23499999999999999
ag4
aa(lp2016
S'1gmw'
p2017
aF0.223
aF0.22
aF0.22
ag4
aa(lp2018
S'4i59'
p2019
aF0.22800000000000001
aF0.219
aF0.219
ag4
aa(lp2020
S'1kpk'
p2021
aF0.28999999999999998
aF0.27000000000000002
aF0.27000000000000002
ag4
aa(lp2022
S'2y9b'
p2023
aF0.27700000000000002
aF0.46100000000000002
aF0.46100000000000002
ag4
aa(lp2024
S'4iv1'
p2025
aF0.19
aF0.51600000000000001
aF0.187
ag4
aa(lp2026
S'1z7s'
p2027
aF0.224
aF0.501
aF0.20300000000000001
ag4
aa(lp2028
S'1djh'
p2029
aF0.20300000000000001
aF0.20300000000000001
aF0.20300000000000001
aS'NO R-work information in pdb file!!!'
p2030
aa(lp2031
S'4brp'
p2032
aF0.17699999999999999
aF0.19600000000000001
aF0.19600000000000001
ag4
aa(lp2033
S'2pi8'
p2034
aF0.182
aF0.33400000000000002
aF0.33400000000000002
ag4
aa(lp2035
S'1eav'
p2036
aF0.223
aF0.216
aF0.216
ag4
aa(lp2037
S'2y46'
p2038
aF0.157
aF0.156
aF0.156
ag4
aa(lp2039
S'2y9d'
p2040
aF0.27700000000000002
aF0.46600000000000003
aF0.46600000000000003
ag4
aa(lp2041
S'1gme'
p2042
aF0.23100000000000001
aF0.23699999999999999
aF0.23699999999999999
ag4
aa(lp2043
S'2vle'
p2044
aF0.19600000000000001
aF0.187
aF0.187
ag4
aa(lp2045
S'1cqd'
p2046
aF0.21299999999999999
aF0.23400000000000001
aF0.23400000000000001
ag4
aa(lp2047
S'2xdc'
p2048
aF0.17899999999999999
aF0.17799999999999999
aF0.17799999999999999
ag4
aa(lp2049
S'3ker'
p2050
aF0.222
aF0.217
aF0.217
ag4
aa(lp2051
S'1ng0'
p2052
aF0.28100000000000003
aF0.58099999999999996
aF0.32400000000000001
ag4
aa(lp2053
S'1cf2'
p2054
aF0.19400000000000001
aF0.182
aF0.182
ag4
aa(lp2055
S'1vcp'
p2056
aF0.157
aF0.16700000000000001
aF0.16700000000000001
ag4
aa(lp2057
S'2gtl'
p2058
aF0.28799999999999998
aF0.52100000000000002
aF0.315
ag4
aa(lp2059
S'4ang'
p2060
aF0.308
aF0.53400000000000003
aF0.30299999999999999
ag4
aa(lp2061
S'1dx9'
p2062
aF0.16900000000000001
aF0.159
aF0.159
ag4
aa(lp2063
S'4alx'
p2064
aF0.20300000000000001
aF0.19600000000000001
aF0.19600000000000001
ag4
aa(lp2065
S'4alb'
p2066
aF0.20200000000000001
aF0.20499999999999999
aF0.20499999999999999
ag4
aa(lp2067
S'2xyo'
p2068
aF0.249
aF0.25700000000000001
aF0.25700000000000001
ag4
aa(lp2069
S'2iyp'
p2070
aF0.17899999999999999
aF0.182
aF0.182
ag4
aa(lp2071
S'2vz0'
p2072
aF0.154
aF0.17100000000000001
aF0.17100000000000001
ag4
aa(lp2073
S'2xyn'
p2074
aF0.246
aF0.23100000000000001
aF0.23100000000000001
ag4
aa(lp2075
S'2vl0'
p2076
aF0.26300000000000001
aF0.248
aF0.248
ag4
aa(lp2077
S'1aq8'
p2078
aF0.189
aF0.189
aF0.189
ag4
aa(lp2079
S'1jlx'
p2080
aF0.19600000000000001
aF0.17399999999999999
aF0.17399999999999999
ag4
aa(lp2081
S'1gsd'
p2082
aF0.23799999999999999
aF0.23599999999999999
aF0.23599999999999999
ag4
aa(lp2083
S'2vju'
p2084
aF0.186
aF0.17499999999999999
aF0.17499999999999999
ag4
aa(lp2085
S'2vl1'
p2086
aF0.20200000000000001
aF0.21299999999999999
aF0.21299999999999999
ag4
aa(lp2087
S'1gsf'
p2088
aF0.22900000000000001
aF0.312
aF0.312
ag4
aa(lp2089
S'2vjh'
p2090
aF0.153
aF0.17999999999999999
aF0.17999999999999999
ag4
aa(lp2091
S'2v64'
p2092
aF0.23300000000000001
aF0.222
aF0.222
ag4
aa(lp2093
S'1gsz'
p2094
aF0.20300000000000001
aF0.19700000000000001
aF0.19700000000000001
ag4
aa(lp2095
S'4a36'
p2096
aF0.193
aF0.19600000000000001
aF0.19600000000000001
ag4
aa(lp2097
S'2vl6'
p2098
aF0.23300000000000001
aF0.30599999999999999
aF0.30599999999999999
ag4
aa(lp2099
S'1vpf'
p2100
aF0.20499999999999999
aF0.20200000000000001
aF0.20200000000000001
ag4
aa(lp2101
S'4hnk'
p2102
aF0.20200000000000001
aF0.20100000000000001
aF0.20100000000000001
ag4
aa(lp2103
S'4h4d'
p2104
aF0.191
aF0.187
aF0.187
ag4
aa(lp2105
S'1qf3'
p2106
aF0.19500000000000001
aF0.17199999999999999
aF0.17199999999999999
ag4
aa(lp2107
S'2ldx'
p2108
aF0.25800000000000001
aF0.25800000000000001
aF0.25800000000000001
aS'NO R-work information in pdb file!!!'
p2109
aa(lp2110
S'3bcc'
p2111
aF0.28899999999999998
aF0.50900000000000001
aF0.373
ag4
aa(lp2112
S'4gmp'
p2113
aF0.26900000000000002
aF0.54600000000000004
aF0.35699999999999998
ag4
aa(lp2114
S'2v69'
p2115
aF0.19700000000000001
aF0.19
aF0.19
ag4
aa(lp2116
S'4h4e'
p2117
aF0.17799999999999999
aF0.17599999999999999
aF0.17599999999999999
ag4
aa(lp2118
S'3f79'
p2119
aF0.24299999999999999
aF0.34799999999999998
aF0.34799999999999998
ag4
aa(lp2120
S'4h4c'
p2121
aF0.182
aF0.182
aF0.182
ag4
aa(lp2122
S'3lhb'
p2123
aF0.19500000000000001
aF0.216
aF0.216
ag4
aa(lp2124
S'2vzk'
p2125
aF0.254
aF0.254
aF0.254
ag4
aa(lp2126
S'3lmt'
p2127
aF0.18099999999999999
aF0.17999999999999999
aF0.17999999999999999
ag4
aa(lp2128
S'4lrh'
p2129
aF0.22700000000000001
aF0.22700000000000001
aF0.22700000000000001
ag4
aa(lp2130
S'4aqp'
p2131
aF0.217
aF0.21199999999999999
aF0.21199999999999999
ag4
aa(lp2132
S'3lmu'
p2133
aF0.185
aF0.182
aF0.182
ag4
aa(lp2134
S'4aqq'
p2135
aF0.29099999999999998
aF0.53300000000000003
aF0.27500000000000002
ag4
aa(lp2136
S'2vzb'
p2137
aF0.19500000000000001
aF0.19900000000000001
aF0.19900000000000001
ag4
aa(lp2138
S'2vxa'
p2139
aF0.251
aF0.247
aF0.247
ag4
aa(lp2140
S'2vxu'
p2141
aF0.184
aF0.216
aF0.216
ag4
aa(lp2142
S'2y32'
p2143
aF0.14399999999999999
aF0.14199999999999999
aF0.14199999999999999
ag4
aa(lp2144
S'1dxx'
p2145
aF0.23200000000000001
aF0.219
aF0.219
ag4
aa(lp2146
S'4al9'
p2147
aF0.16700000000000001
aF0.16700000000000001
aF0.16700000000000001
ag4
aa(lp2148
S'1ny7'
p2149
aF0.20200000000000001
aF0.48599999999999999
aF0.17199999999999999
ag4
aa(lp2150
S'4an4'
p2151
aF0.22700000000000001
aF0.221
aF0.221
ag4
aa(lp2152
S'2bel'
p2153
aF0.188
aF0.23799999999999999
aF0.23799999999999999
ag4
aa(lp2154
S'2iy4'
p2155
aF0.182
aF0.182
aF0.182
ag4
aa(lp2156
S'4al4'
p2157
aF0.188
aF0.19400000000000001
aF0.19400000000000001
ag4
aa(lp2158
S'2wlb'
p2159
aF0.182
aF0.193
aF0.193
ag4
aa(lp2160
S'2wbh'
p2161
aF0.27500000000000002
aF0.50800000000000001
aF0.27500000000000002
aS'NO R-work information in pdb file!!!'
p2162
aa(lp2163
S'2jgs'
p2164
aF0.20300000000000001
aF0.24399999999999999
aF0.24399999999999999
ag4
aa(lp2165
S'1o82'
p2166
aF0.20799999999999999
aF0.20300000000000001
aF0.20300000000000001
ag4
aa(lp2167
S'1o83'
p2168
aF0.193
aF0.184
aF0.184
ag4
aa(lp2169
S'4aqf'
p2170
aF0.17000000000000001
aF0.17899999999999999
aF0.17899999999999999
ag4
aa(lp2171
S'4gb3'
p2172
aF0.33000000000000002
aF0.52500000000000002
aF0.35399999999999998
ag4
aa(lp2173
S'3cji'
p2174
aF0.25800000000000001
aF0.52100000000000002
aF0.253
ag4
aa(lp2175
S'2bet'
p2176
aF0.21199999999999999
aF0.20999999999999999
aF0.20999999999999999
ag4
aa(lp2177
S'4iss'
p2178
aF0.17599999999999999
aF0.17999999999999999
aF0.17999999999999999
ag4
aa(lp2179
S'2bes'
p2180
aF0.20200000000000001
aF0.20499999999999999
aF0.20499999999999999
ag4
aa(lp2181
S'4ist'
p2182
aF0.184
aF0.185
aF0.185
ag4
aa(lp2183
S'4bdn'
p2184
aF0.19800000000000001
aF0.19
aF0.19
ag4
aa(lp2185
S'4b52'
p2186
aF0.19500000000000001
aF0.188
aF0.188
ag4
aa(lp2187
S'4bdo'
p2188
aF0.191
aF0.187
aF0.187
ag4
aa(lp2189
S'2vkz'
p2190
aF0.26800000000000002
aF0.25700000000000001
aF0.25700000000000001
ag4
aa(lp2191
S'1bzz'
p2192
aF0.158
aF0.158
aF0.158
aS'NO R-work information in pdb file!!!'
p2193
aa(lp2194
S'4bdm'
p2195
aF0.23899999999999999
aF0.23899999999999999
aF0.23899999999999999
ag4
aa(lp2196
S'1maa'
p2197
aF0.20000000000000001
aF0.20300000000000001
aF0.20300000000000001
ag4
aa(lp2198
S'1hgf'
p2199
aF0.23000000000000001
aF0.22
aF0.22
ag4
aa(lp2200
S'1hgg'
p2201
aF0.22900000000000001
aF0.222
aF0.222
ag4
aa(lp2202
S'1hgd'
p2203
aF0.224
aF0.21299999999999999
aF0.21299999999999999
ag4
aa(lp2204
S'2ve7'
p2205
aF0.23200000000000001
aF0.24099999999999999
aF0.24099999999999999
ag4
aa(lp2206
S'2jg1'
p2207
aF0.19
aF0.188
aF0.188
ag4
aa(lp2208
S'1hge'
p2209
aF0.22500000000000001
aF0.214
aF0.214
ag4
aa(lp2210
S'4ami'
p2211
aF0.24199999999999999
aF0.23000000000000001
aF0.23000000000000001
ag4
aa(lp2212
S'1gte'
p2213
aF0.18099999999999999
aF0.17699999999999999
aF0.17699999999999999
ag4
aa(lp2214
S'2scu'
p2215
aF0.189
aF0.189
aF0.189
aS'NO R-work information in pdb file!!!'
p2216
aa(lp2217
S'3ve1'
p2218
aF0.20699999999999999
aF0.20399999999999999
aF0.20399999999999999
ag4
aa(lp2219
S'1grw'
p2220
aF0.22800000000000001
aF0.224
aF0.224
ag4
aa(lp2221
S'1v02'
p2222
aF0.17199999999999999
aF0.152
aF0.152
ag4
aa(lp2223
S'1o8n'
p2224
aF0.19400000000000001
aF0.193
aF0.193
ag4
aa(lp2225
S'4aq3'
p2226
aF0.20100000000000001
aF0.19600000000000001
aF0.19600000000000001
ag4
aa(lp2227
S'1o8o'
p2228
aF0.19800000000000001
aF0.20000000000000001
aF0.20000000000000001
ag4
aa(lp2229
S'1o8q'
p2230
aF0.193
aF0.19
aF0.19
ag4
aa(lp2231
S'4gka'
p2232
aF0.188
aF0.19600000000000001
aF0.19600000000000001
ag4
aa(lp2233
S'2wl5'
p2234
aF0.221
aF0.21099999999999999
aF0.21099999999999999
ag4
aa(lp2235
S'2vee'
p2236
aF0.20499999999999999
aF0.217
aF0.217
ag4
aa(lp2237
S'4e4l'
p2238
aF0.19
aF0.192
aF0.192
ag4
aa(lp2239
S'3v5i'
p2240
aF0.216
aF0.221
aF0.221
ag4
aa(lp2241
S'1hgj'
p2242
aF0.22
aF0.20999999999999999
aF0.20999999999999999
ag4
aa(lp2243
S'2wl4'
p2244
aF0.23100000000000001
aF0.224
aF0.224
ag4
aa(lp2245
S'2bgn'
p2246
aF0.22700000000000001
aF0.222
aF0.222
ag4
aa(lp2247
S'4f5x'
p2248
aF0.29299999999999998
aF0.53600000000000003
aF0.32900000000000001
ag4
aa(lp2249
S'3tn9'
p2250
aF0.26500000000000001
aF0.52700000000000002
aF0.25800000000000001
ag4
aa(lp2251
S'2bgj'
p2252
aF0.216
aF0.224
aF0.224
ag4
aa(lp2253
S'4inu'
p2254
aF0.218
aF0.222
aF0.222
ag4
aa(lp2255
S'1ddo'
p2256
aF0.218
aF0.218
aF0.218
aS'NO R-work information in pdb file!!!'
p2257
aa(lp2258
S'1ddl'
p2259
aF0.151
aF0.51500000000000001
aF0.17199999999999999
ag4
aa(lp2260
S'4int'
p2261
aF0.222
aF0.22
aF0.22
ag4
aa(lp2262
S'4bqb'
p2263
aF0.20000000000000001
aF0.21299999999999999
aF0.21299999999999999
ag4
aa(lp2264
S'3v5e'
p2265
aF0.20100000000000001
aF0.22700000000000001
aF0.22700000000000001
ag4
aa(lp2266
S'1ppr'
p2267
aF0.17899999999999999
aF0.16900000000000001
aF0.16900000000000001
ag4
aa(lp2268
S'3n7x'
p2269
aF0.27800000000000002
aF0.54000000000000004
aF0.54300000000000004
ag4
aa(lp2270
S'4l6w'
p2271
aF0.17399999999999999
aF0.17899999999999999
aF0.17899999999999999
ag4
aa(lp2272
S'4inr'
p2273
aF0.224
aF0.22500000000000001
aF0.22500000000000001
ag4
aa(lp2274
S'3vun'
p2275
aF0.216
aF0.21199999999999999
aF0.21199999999999999
ag4
aa(lp2276
S'2ja3'
p2277
aF0.27800000000000002
aF0.25600000000000001
aF0.25600000000000001
ag4
aa(lp2278
S'4gbt'
p2279
aF0.25600000000000001
aF0.52200000000000002
aF0.26200000000000001
ag4
aa(lp2280
S'1b2u'
p2281
aF0.214
aF0.19
aF0.19
ag4
aa(lp2282
S'1a38'
p2283
aF0.33000000000000002
aF0.44
aF0.44
ag4
aa(lp2284
S'4bd8'
p2285
aF0.19700000000000001
aF0.20200000000000001
aF0.20200000000000001
ag4
aa(lp2286
S'1b2s'
p2287
aF0.19400000000000001
aF0.17899999999999999
aF0.17899999999999999
ag4
aa(lp2288
S'4bd7'
p2289
aF0.20100000000000001
aF0.20399999999999999
aF0.20399999999999999
ag4
aa(lp2290
S'4bqs'
p2291
aF0.17199999999999999
aF0.17999999999999999
aF0.17999999999999999
ag4
aa(lp2292
S'4bd4'
p2293
aF0.17999999999999999
aF0.187
aF0.187
ag4
aa(lp2294
S'1a37'
p2295
aF0.32000000000000001
aF0.46100000000000002
aF0.33000000000000002
ag4
aa(lp2296
S'4inn'
p2297
aF0.191
aF0.19700000000000001
aF0.19700000000000001
ag4
aa(lp2298
S'1b2z'
p2299
aF0.17000000000000001
aF0.159
aF0.159
ag4
aa(lp2300
S'2xwq'
p2301
aF0.217
aF0.21199999999999999
aF0.21199999999999999
ag4
aa(lp2302
S'1a34'
p2303
aF0.17899999999999999
aF0.53400000000000003
aF0.17499999999999999
ag4
aa(lp2304
S'3zed'
p2305
aF0.18099999999999999
aF0.18099999999999999
aF0.18099999999999999
aS'NO R-work information in pdb file!!!'
p2306
aa(lp2307
S'2xwg'
p2308
aF0.20499999999999999
aF0.19700000000000001
aF0.19700000000000001
ag4
aa(lp2309
S'1brm'
p2310
aF0.22500000000000001
aF0.21199999999999999
aF0.21199999999999999
ag4
aa(lp2311
S'1jqi'
p2312
aF0.16800000000000001
aF0.16400000000000001
aF0.16400000000000001
ag4
aa(lp2313
S'2wfe'
p2314
aF0.24099999999999999
aF0.23000000000000001
aF0.23000000000000001
ag4
aa(lp2315
S'1x9t'
p2316
aF0.30599999999999999
aF0.52900000000000003
aF0.28199999999999997
ag4
aa(lp2317
S'2xut'
p2318
aF0.27700000000000002
aF0.36299999999999999
aF0.36299999999999999
ag4
aa(lp2319
S'4f7i'
p2320
aF0.152
aF0.157
aF0.157
ag4
aa(lp2321
S'1brr'
p2322
aF0.25600000000000001
aF0.247
aF0.247
ag4
aa(lp2323
S'4iz5'
p2324
aF0.24299999999999999
aF0.23899999999999999
aF0.23899999999999999
ag4
aa(lp2325
S'2bh1'
p2326
aF0.191
aF0.253
aF0.253
ag4
aa(lp2327
S'2j6l'
p2328
aF0.13700000000000001
aF0.14399999999999999
aF0.14399999999999999
ag4
aa(lp2329
S'4eoy'
p2330
aF0.20499999999999999
aF0.20899999999999999
aF0.20899999999999999
ag4
aa(lp2331
S'3hag'
p2332
aF0.27700000000000002
aF0.54000000000000004
aF0.28899999999999998
ag4
aa(lp2333
S'1h28'
p2334
aF0.24299999999999999
aF0.23999999999999999
aF0.23999999999999999
ag4
aa(lp2335
S'4bc9'
p2336
aF0.186
aF0.188
aF0.188
ag4
aa(lp2337
S'2vx3'
p2338
aF0.185
aF0.22800000000000001
aF0.22800000000000001
ag4
aa(lp2339
S'1ml1'
p2340
aF0.23100000000000001
aF0.217
aF0.217
ag4
aa(lp2341
S'1h25'
p2342
aF0.249
aF0.29599999999999999
aF0.29599999999999999
ag4
aa(lp2343
S'3v29'
p2344
aF0.216
aF0.44900000000000001
aF0.44900000000000001
ag4
aa(lp2345
S'1h27'
p2346
aF0.22700000000000001
aF0.223
aF0.223
ag4
aa(lp2347
S'1x9p'
p2348
aF0.307
aF0.51300000000000001
aF0.29499999999999998
ag4
aa(lp2349
S'1h26'
p2350
aF0.216
aF0.23200000000000001
aF0.23200000000000001
ag4
aa(lp2351
S'1h21'
p2352
aF0.19900000000000001
aF0.193
aF0.193
ag4
aa(lp2353
S'1a3a'
p2354
aF0.19
aF0.185
aF0.185
ag4
aa(lp2355
S'1a3f'
p2356
aF0.20999999999999999
aF0.255
aF0.255
ag4
aa(lp2357
S'1b27'
p2358
aF0.19500000000000001
aF0.189
aF0.189
ag4
aa(lp2359
S'4bq7'
p2360
aF0.254
aF0.251
aF0.251
ag4
aa(lp2361
S'4bq6'
p2362
aF0.218
aF0.221
aF0.221
ag4
aa(lp2363
S'1b21'
p2364
aF0.188
aF0.17899999999999999
aF0.17899999999999999
ag4
aa(lp2365
S'1b20'
p2366
aF0.16600000000000001
aF0.14999999999999999
aF0.14999999999999999
ag4
aa(lp2367
S'1umy'
p2368
aF0.253
aF0.26400000000000001
aF0.26400000000000001
ag4
aa(lp2369
S'2j6y'
p2370
aF0.183
aF0.185
aF0.185
ag4
aa(lp2371
S'2r1r'
p2372
aF0.23799999999999999
aF0.249
aF0.249
ag4
aa(lp2373
S'3s4g'
p2374
aF0.38
aF0.51600000000000001
aF0.29999999999999999
ag4
aa(lp2375
S'4gh4'
p2376
aF0.16700000000000001
aF0.53700000000000003
aF0.17799999999999999
ag4
aa(lp2377
S'2bwe'
p2378
aF0.23899999999999999
aF0.307
aF0.307
ag4
aa(lp2379
S'2bwg'
p2380
aF0.19600000000000001
aF0.218
aF0.218
ag4
aa(lp2381
S'4b7c'
p2382
aF0.223
aF0.22
aF0.22
ag4
aa(lp2383
S'2bwb'
p2384
aF0.24299999999999999
aF0.29999999999999999
aF0.29999999999999999
ag4
aa(lp2385
S'2wbl'
p2386
aF0.215
aF0.22600000000000001
aF0.22600000000000001
ag4
aa(lp2387
S'4eb3'
p2388
aF0.189
aF0.186
aF0.186
ag4
aa(lp2389
S'4bh0'
p2390
aF0.21099999999999999
aF0.21299999999999999
aF0.21299999999999999
ag4
aa(lp2391
S'2bwj'
p2392
aF0.17199999999999999
aF0.26100000000000001
aF0.26100000000000001
ag4
aa(lp2393
S'4bh6'
p2394
aF0.219
aF0.22
aF0.22
ag4
aa(lp2395
S'2yii'
p2396
aF0.17899999999999999
aF0.17899999999999999
aF0.17899999999999999
ag4
aa(lp2397
S'1ohv'
p2398
aF0.188
aF0.19700000000000001
aF0.19700000000000001
ag4
aa(lp2399
S'1ohw'
p2400
aF0.188
aF0.21199999999999999
aF0.21199999999999999
ag4
aa(lp2401
S'3ux1'
p2402
aF0.28299999999999997
aF0.51600000000000001
aF0.27800000000000002
ag4
aa(lp2403
S'2xuq'
p2404
aF0.20100000000000001
aF0.20100000000000001
aF0.20100000000000001
ag4
aa(lp2405
S'1ump'
p2406
aF0.186
aF0.193
aF0.193
ag4
aa(lp2407
S'1ogy'
p2408
aF0.25
aF0.23499999999999999
aF0.23499999999999999
ag4
aa(lp2409
S'2xup'
p2410
aF0.20300000000000001
aF0.20200000000000001
aF0.20200000000000001
ag4
aa(lp2411
S'3v23'
p2412
aF0.218
aF0.40200000000000002
aF0.40200000000000002
ag4
aa(lp2413
S'1b5q'
p2414
aF0.182
aF0.182
aF0.182
aS'NO R-work information in pdb file!!!'
p2415
aa(lp2416
S'4bce'
p2417
aF0.156
aF0.17599999999999999
aF0.17599999999999999
ag4
aa(lp2418
S'2bhs'
p2419
aF0.222
aF0.22
aF0.22
ag4
aa(lp2420
S'1ogu'
p2421
aF0.19800000000000001
aF0.19900000000000001
aF0.19900000000000001
ag4
aa(lp2422
S'1aip'
p2423
aF0.216
aF0.23999999999999999
aF0.23999999999999999
ag4
aa(lp2424
S'2yic'
p2425
aF0.188
aF0.20599999999999999
aF0.20599999999999999
ag4
aa(lp2426
S'2wiw'
p2427
aF0.17199999999999999
aF0.17699999999999999
aF0.17699999999999999
ag4
aa(lp2428
S'2bhw'
p2429
aF0.22
aF0.22
aF0.22
aS'NO R-work information in pdb file!!!'
p2430
aa(lp2431
S'1ohf'
p2432
aF0.219
aF0.48299999999999998
aF0.214
ag4
aa(lp2433
S'2yid'
p2434
aF0.192
aF0.20399999999999999
aF0.20399999999999999
ag4
aa(lp2435
S'3ux4'
p2436
aF0.23899999999999999
aF0.24299999999999999
aF0.24299999999999999
ag4
aa(lp2437
S'4jrq'
p2438
aF0.218
aF0.28499999999999998
aF0.28499999999999998
ag4
aa(lp2439
S'1e2y'
p2440
aF0.27300000000000002
aF0.246
aF0.246
ag4
aa(lp2441
S'2y3v'
p2442
aF0.22600000000000001
aF0.221
aF0.221
ag4
aa(lp2443
S'2yiz'
p2444
aF0.17199999999999999
aF0.17799999999999999
aF0.17799999999999999
ag4
aa(lp2445
S'2y3t'
p2446
aF0.27800000000000002
aF0.27600000000000002
aF0.27600000000000002
ag4
aa(lp2447
S'3v22'
p2448
aF0.218
aF0.51200000000000001
aF0.51200000000000001
ag4
aa(lp2449
S'4dhg'
p2450
aF0.161
aF0.16800000000000001
aF0.16800000000000001
ag4
aa(lp2451
S'2y3r'
p2452
aF0.14599999999999999
aF0.14000000000000001
aF0.14000000000000001
ag4
aa(lp2453
S'3ze4'
p2454
aF0.28499999999999998
aF0.28899999999999998
aF0.28899999999999998
ag4
aa(lp2455
S'2yip'
p2456
aF0.159
aF0.16700000000000001
aF0.16700000000000001
ag4
aa(lp2457
S'4grm'
p2458
aF0.23400000000000001
aF0.22800000000000001
aF0.22800000000000001
ag4
aa(lp2459
S'4jre'
p2460
aF0.223
aF0.219
aF0.219
ag4
aa(lp2461
S'4fr4'
p2462
aF0.20399999999999999
aF0.20699999999999999
aF0.20699999999999999
ag4
aa(lp2463
S'4b7y'
p2464
aF0.24399999999999999
aF0.246
aF0.246
ag4
aa(lp2465
S'4b7x'
p2466
aF0.23699999999999999
aF0.23499999999999999
aF0.23499999999999999
ag4
aa(lp2467
S'4gra'
p2468
aF0.214
aF0.20699999999999999
aF0.20699999999999999
ag4
aa(lp2469
S'2bw1'
p2470
aF0.187
aF0.186
aF0.186
ag4
aa(lp2471
S'2v21'
p2472
aF0.22500000000000001
aF0.28000000000000003
aF0.28000000000000003
ag4
aa(lp2473
S'2c7v'
p2474
aF0.153
aF0.156
aF0.156
ag4
aa(lp2475
S'3r0r'
p2476
aF0.22500000000000001
aF0.48799999999999999
aF0.249
ag4
aa(lp2477
S'1hgh'
p2478
aF0.22600000000000001
aF0.216
aF0.216
ag4
aa(lp2479
S'1hgi'
p2480
aF0.223
aF0.21199999999999999
aF0.21199999999999999
ag4
aa(lp2481
S'3v25'
p2482
aF0.218
aF0.45600000000000002
aF0.45600000000000002
ag4
aa(lp2483
S'2c10'
p2484
aF0.20399999999999999
aF0.20799999999999999
aF0.20799999999999999
ag4
aa(lp2485
S'3od8'
p2486
aF0.192
aF0.17899999999999999
aF0.17899999999999999
ag4
aa(lp2487
S'2j8x'
p2488
aF0.193
aF0.20100000000000001
aF0.20100000000000001
ag4
aa(lp2489
S'2c11'
p2490
aF0.215
aF0.254
aF0.254
ag4
aa(lp2491
S'2j8y'
p2492
aF0.187
aF0.19400000000000001
aF0.19400000000000001
ag4
aa(lp2493
S'1auw'
p2494
aF0.161
aF0.16300000000000001
aF0.16300000000000001
ag4
aa(lp2495
S'4b5k'
p2496
aF0.153
aF0.153
aF0.153
ag4
aa(lp2497
S'4b9b'
p2498
aF0.17399999999999999
aF0.17100000000000001
aF0.17100000000000001
ag4
aa(lp2499
S'1emc'
p2500
aF0.20499999999999999
aF0.29799999999999999
aF0.29799999999999999
ag4
aa(lp2501
S'4b5b'
p2502
aF0.21199999999999999
aF0.214
aF0.214
ag4
aa(lp2503
S'1aus'
p2504
aF0.217
aF0.223
aF0.223
ag4
aa(lp2505
S'4b5g'
p2506
aF0.23200000000000001
aF0.23499999999999999
aF0.23499999999999999
ag4
aa(lp2507
S'2xma'
p2508
aF0.215
aF0.20799999999999999
aF0.20799999999999999
ag4
aa(lp2509
S'2xme'
p2510
aF0.20599999999999999
aF0.23699999999999999
aF0.23699999999999999
ag4
aa(lp2511
S'1qlr'
p2512
aF0.216
aF0.185
aF0.185
ag4
aa(lp2513
S'4dbv'
p2514
aF0.14699999999999999
aF0.14699999999999999
aF0.14699999999999999
ag4
aa(lp2515
S'1gav'
p2516
aF0.27900000000000003
aF0.22
aF0.22
ag4
aa(lp2517
S'2c3n'
p2518
aF0.214
aF0.21199999999999999
aF0.21199999999999999
ag4
aa(lp2519
S'4jxk'
p2520
aF0.185
aF0.19500000000000001
aF0.19500000000000001
ag4
aa(lp2521
S'3v24'
p2522
aF0.218
aF0.51000000000000001
aF0.51000000000000001
ag4
aa(lp2523
S'1lul'
p2524
aF0.22600000000000001
aF0.22500000000000001
aF0.22500000000000001
ag4
aa(lp2525
S'3gxe'
p2526
aF0.219
aF0.217
aF0.217
ag4
aa(lp2527
S'1qju'
p2528
aF0.20599999999999999
aF0.50900000000000001
aF0.221
ag4
aa(lp2529
S'1uz6'
p2530
aF0.19800000000000001
aF0.24299999999999999
aF0.24299999999999999
ag4
aa(lp2531
S'2c3q'
p2532
aF0.223
aF0.221
aF0.221
ag4
aa(lp2533
S'2c3t'
p2534
aF0.21299999999999999
aF0.217
aF0.217
ag4
aa(lp2535
S'2j69'
p2536
aF0.23599999999999999
aF0.245
aF0.245
ag4
aa(lp2537
S'1ag8'
p2538
aF0.217
aF0.19700000000000001
aF0.19700000000000001
ag4
aa(lp2539
S'2w54'
p2540
aF0.186
aF0.22800000000000001
aF0.22800000000000001
ag4
aa(lp2541
S'4agu'
p2542
aF0.186
aF0.188
aF0.188
ag4
aa(lp2543
S'2qe7'
p2544
aF0.252
aF0.255
aF0.255
ag4
aa(lp2545
S'1ohg'
p2546
aF0.373
aF0.54500000000000004
aF0.307
ag4
aa(lp2547
S'2w55'
p2548
aF0.221
aF0.248
aF0.248
ag4
aa(lp2549
S'1m1c'
p2550
aF0.26600000000000001
aF0.49299999999999999
aF0.39200000000000002
ag4
aa(lp2551
S'2xev'
p2552
aF0.20399999999999999
aF0.19800000000000001
aF0.19800000000000001
ag4
aa(lp2553
S'1wbl'
p2554
aF0.187
aF0.17100000000000001
aF0.17100000000000001
ag4
aa(lp2555
S'1w7w'
p2556
aF0.23699999999999999
aF0.23200000000000001
aF0.23200000000000001
ag4
aa(lp2557
S'2dub'
p2558
aF0.20399999999999999
aF0.19800000000000001
aF0.19800000000000001
ag4
aa(lp2559
S'2v2g'
p2560
aF0.16
aF0.214
aF0.214
ag4
aa(lp2561
S'1fag'
p2562
aF0.246
aF0.23799999999999999
aF0.23799999999999999
ag4
aa(lp2563
S'1qjx'
p2564
aF0.23100000000000001
aF0.495
aF0.249
ag4
aa(lp2565
S'3v26'
p2566
aF0.216
aF0.497
aF0.497
ag4
aa(lp2567
S'4b9w'
p2568
aF0.219
aF0.219
aF0.219
ag4
aa(lp2569
S'2y9c'
p2570
aF0.27700000000000002
aF0.46200000000000002
aF0.46200000000000002
ag4
aa(lp2571
S'1rbo'
p2572
aF0.154
aF0.14399999999999999
aF0.14399999999999999
ag4
aa(lp2573
S'1rbl'
p2574
aF0.20000000000000001
aF0.20300000000000001
aF0.20300000000000001
ag4
aa(lp2575
S'1uzd'
p2576
aF0.188
aF0.186
aF0.186
ag4
aa(lp2577
S'1agn'
p2578
aF0.22500000000000001
aF0.20399999999999999
aF0.20399999999999999
ag4
aa(lp2579
S'4jx6'
p2580
aF0.20899999999999999
aF0.20899999999999999
aF0.20899999999999999
ag4
aa(lp2581
S'4jx4'
p2582
aF0.214
aF0.215
aF0.215
ag4
aa(lp2583
S'2xui'
p2584
aF0.192
aF0.20000000000000001
aF0.20000000000000001
ag4
aa(lp2585
S'2xuh'
p2586
aF0.19700000000000001
aF0.19500000000000001
aF0.19500000000000001
ag4
aa(lp2587
S'4jx5'
p2588
aF0.187
aF0.188
aF0.188
ag4
aa(lp2589
S'1qjy'
p2590
aF0.23300000000000001
aF0.49099999999999999
aF0.24099999999999999
ag4
aa(lp2591
S'2xuk'
p2592
aF0.19900000000000001
aF0.19700000000000001
aF0.19700000000000001
ag4
aa(lp2593
S'4bju'
p2594
aF0.218
aF0.245
aF0.245
ag4
aa(lp2595
S'2xuj'
p2596
aF0.20699999999999999
aF0.20799999999999999
aF0.20799999999999999
ag4
aa(lp2597
S'2cb2'
p2598
aF0.183
aF0.185
aF0.185
ag4
aa(lp2599
S'1dw9'
p2600
aF0.14999999999999999
aF0.14899999999999999
aF0.14899999999999999
ag4
aa(lp2601
S'2xuo'
p2602
aF0.19900000000000001
aF0.19700000000000001
aF0.19700000000000001
ag4
aa(lp2603
S'1c4q'
p2604
aF0.17000000000000001
aF0.16500000000000001
aF0.16500000000000001
ag4
aa(lp2605
S'2xud'
p2606
aF0.193
aF0.19700000000000001
aF0.19700000000000001
ag4
aa(lp2607
S'1tez'
p2608
aF0.20499999999999999
aF0.19800000000000001
aF0.19800000000000001
ag4
aa(lp2609
S'2xug'
p2610
aF0.192
aF0.19700000000000001
aF0.19700000000000001
ag4
aa(lp2611
S'4bw5'
p2612
aF0.23699999999999999
aF0.251
aF0.251
ag4
aa(lp2613
S'1w96'
p2614
aF0.19500000000000001
aF0.19
aF0.19
ag4
aa(lp2615
S'2xuf'
p2616
aF0.191
aF0.19500000000000001
aF0.19500000000000001
ag4
aa(lp2617
S'3tw7'
p2618
aF0.25
aF0.249
aF0.249
ag4
aa(lp2619
S'6ald'
p2620
aF0.22800000000000001
aF0.23000000000000001
aF0.23000000000000001
ag4
aa(lp2621
S'3chx'
p2622
aF0.34200000000000003
aF0.32400000000000001
aF0.33200000000000002
ag4
aa(lp2623
S'1b2x'
p2624
aF0.17299999999999999
aF0.16300000000000001
aF0.16300000000000001
ag4
aa(lp2625
S'2vo9'
p2626
aF0.19600000000000001
aF0.22600000000000001
aF0.22600000000000001
ag4
aa(lp2627
S'2ykv'
p2628
aF0.17599999999999999
aF0.17699999999999999
aF0.17699999999999999
ag4
aa(lp2629
S'2y75'
p2630
aF0.187
aF0.193
aF0.193
ag4
aa(lp2631
S'2xmn'
p2632
aF0.27100000000000002
aF0.27200000000000002
aF0.27200000000000002
ag4
aa(lp2633
S'2yil'
p2634
aF0.16800000000000001
aF0.17499999999999999
aF0.17499999999999999
ag4
aa(lp2635
S'2vyn'
p2636
aF0.157
aF0.159
aF0.159
ag4
aa(lp2637
S'1bwv'
p2638
aF0.16300000000000001
aF0.16600000000000001
aF0.16600000000000001
ag4
aa(lp2639
S'1w73'
p2640
aF0.17999999999999999
aF0.18099999999999999
aF0.18099999999999999
ag4
aa(lp2641
S'1oaz'
p2642
aF0.20799999999999999
aF0.311
aF0.311
ag4
aa(lp2643
S'1oay'
p2644
aF0.25800000000000001
aF0.36699999999999999
aF0.36699999999999999
ag4
aa(lp2645
S'2iz0'
p2646
aF0.123
aF0.151
aF0.151
ag4
aa(lp2647
S'4ekc'
p2648
aF0.158
aF0.17799999999999999
aF0.17799999999999999
ag4
aa(lp2649
S'4a2l'
p2650
aF0.186
aF0.184
aF0.184
ag4
aa(lp2651
S'1urp'
p2652
aF0.23499999999999999
aF0.22900000000000001
aF0.22900000000000001
ag4
aa(lp2653
S'1oax'
p2654
aF0.23799999999999999
aF0.29499999999999998
aF0.29499999999999998
ag4
aa(lp2655
S'2c1w'
p2656
aF0.27400000000000002
aF0.26800000000000002
aF0.26800000000000002
ag4
aa(lp2657
S'2uuu'
p2658
aF0.193
aF0.22
aF0.22
ag4
aa(lp2659
S'2yks'
p2660
aF0.24199999999999999
aF0.246
aF0.246
ag4
aa(lp2661
S'1ayr'
p2662
aF0.254
aF0.254
aF0.254
ag4
aa(lp2663
S'1v0e'
p2664
aF0.16600000000000001
aF0.183
aF0.183
ag4
aa(lp2665
S'1oar'
p2666
aF0.20499999999999999
aF0.23999999999999999
aF0.23999999999999999
ag4
aa(lp2667
S'1oau'
p2668
aF0.22600000000000001
aF0.28199999999999997
aF0.28199999999999997
ag4
aa(lp2669
S'2iz9'
p2670
aF0.20000000000000001
aF0.54300000000000004
aF0.46000000000000002
ag4
aa(lp2671
S'4i4l'
p2672
aF0.29999999999999999
aF0.29699999999999999
aF0.29699999999999999
ag4
aa(lp2673
S'3anz'
p2674
aF0.193
aF0.19600000000000001
aF0.19600000000000001
ag4
aa(lp2675
S'1oat'
p2676
aF0.185
aF0.185
aF0.185
ag4
aa(lp2677
S'1urz'
p2678
aF0.20699999999999999
aF0.20200000000000001
aF0.20200000000000001
ag4
aa(lp2679
S'1c48'
p2680
aF0.19600000000000001
aF0.191
aF0.191
ag4
aa(lp2681
S'1c41'
p2682
aF0.248
aF0.22500000000000001
aF0.22500000000000001
ag4
aa(lp2683
S'2iz8'
p2684
aF0.192
aF0.53900000000000003
aF0.17499999999999999
ag4
aa(lp2685
S'4bhh'
p2686
aF0.19800000000000001
aF0.219
aF0.219
ag4
aa(lp2687
S'1v0f'
p2688
aF0.17999999999999999
aF0.19800000000000001
aF0.19800000000000001
ag4
aa(lp2689
S'1d3b'
p2690
aF0.21299999999999999
aF0.19800000000000001
aF0.19800000000000001
ag4
aa(lp2691
S'2vq0'
p2692
aF0.25700000000000001
aF0.53600000000000003
aF0.245
ag4
aa(lp2693
S'4gtl'
p2694
aF0.189
aF0.193
aF0.193
ag4
aa(lp2695
S'2bq5'
p2696
aF0.29299999999999998
aF0.59899999999999998
aF0.27300000000000002
ag4
aa(lp2697
S'4g0j'
p2698
aF0.23699999999999999
aF0.20599999999999999
aF0.20599999999999999
ag4
aa(lp2699
S'2uud'
p2700
aF0.22800000000000001
aF0.23200000000000001
aF0.23200000000000001
ag4
aa(lp2701
S'4g0r'
p2702
aF0.216
aF0.53300000000000003
aF0.21199999999999999
ag4
aa(lp2703
S'1tgx'
p2704
aF0.16600000000000001
aF0.16600000000000001
aF0.16600000000000001
aS'NO R-work information in pdb file!!!'
p2705
aa(lp2706
S'2cxe'
p2707
aF0.29499999999999998
aF0.252
aF0.252
ag4
aa(lp2708
S'4b31'
p2709
aF0.151
aF0.151
aF0.151
ag4
aa(lp2710
S'4aed'
p2711
aF0.27900000000000003
aF0.51800000000000002
aF0.27800000000000002
ag4
aa(lp2712
S'4a2x'
p2713
aF0.20399999999999999
aF0.20799999999999999
aF0.20799999999999999
ag4
aa(lp2714
S'3zuo'
p2715
aF0.22
aF0.22700000000000001
aF0.22700000000000001
ag4
aa(lp2716
S'2vyx'
p2717
aF0.218
aF0.223
aF0.223
ag4
aa(lp2718
S'2c5r'
p2719
aF0.251
aF0.32900000000000001
aF0.32900000000000001
ag4
aa(lp2720
S'2v41'
p2721
aF0.17699999999999999
aF0.23599999999999999
aF0.23599999999999999
ag4
aa(lp2722
S'2vyv'
p2723
aF0.17999999999999999
aF0.20899999999999999
aF0.20899999999999999
ag4
aa(lp2724
S'2c5q'
p2725
aF0.155
aF0.16500000000000001
aF0.16500000000000001
ag4
aa(lp2726
S'2c5c'
p2727
aF0.19800000000000001
aF0.245
aF0.245
ag4
aa(lp2728
S'1ci4'
p2729
aF0.20999999999999999
aF0.20499999999999999
aF0.20499999999999999
ag4
aa(lp2730
S'2c5d'
p2731
aF0.24099999999999999
aF0.21199999999999999
aF0.21199999999999999
ag4
aa(lp2732
S'1ux1'
p2733
aF0.21299999999999999
aF0.20599999999999999
aF0.20599999999999999
ag4
aa(lp2734
S'1ae1'
p2735
aF0.155
aF0.153
aF0.153
ag4
aa(lp2736
S'2pel'
p2737
aF0.157
aF0.157
aF0.157
aS'NO R-work information in pdb file!!!'
p2738
aa(lp2739
S'1gq3'
p2740
aF0.187
aF0.187
aF0.187
aS'NO R-work information in pdb file!!!'
p2741
aa(lp2742
S'1gq7'
p2743
aF0.222
aF0.214
aF0.214
ag4
aa(lp2744
S'1gq6'
p2745
aF0.14199999999999999
aF0.17499999999999999
aF0.17499999999999999
ag4
aa(lp2746
S'1nmt'
p2747
aF0.214
aF0.29899999999999999
aF0.29899999999999999
ag4
aa(lp2748
S'2uug'
p2749
aF0.17799999999999999
aF0.187
aF0.187
ag4
aa(lp2750
S'2vom'
p2751
aF0.219
aF0.217
aF0.217
ag4
aa(lp2752
S'2yoq'
p2753
aF0.158
aF0.159
aF0.159
ag4
aa(lp2754
S'2vvp'
p2755
aF0.16600000000000001
aF0.16800000000000001
aF0.16800000000000001
ag4
aa(lp2756
S'2c50'
p2757
aF0.219
aF0.51500000000000001
aF0.219
ag4
aa(lp2758
S'4aei'
p2759
aF0.19900000000000001
aF0.19600000000000001
aF0.19600000000000001
ag4
aa(lp2760
S'1ogp'
p2761
aF0.23499999999999999
aF0.24099999999999999
aF0.24099999999999999
ag4
aa(lp2762
S'1bg8'
p2763
aF0.16300000000000001
aF0.16800000000000001
aF0.16800000000000001
ag4
aa(lp2764
S'3utd'
p2765
aF0.14599999999999999
aF0.14499999999999999
aF0.14499999999999999
ag4
aa(lp2766
S'3utc'
p2767
aF0.14699999999999999
aF0.14299999999999999
aF0.14299999999999999
ag4
aa(lp2768
S'1za7'
p2769
aF0.245
aF0.53600000000000003
aF0.24399999999999999
ag4
aa(lp2770
S'2c51'
p2771
aF0.185
aF0.54500000000000004
aF0.17999999999999999
ag4
aa(lp2772
S'1dwk'
p2773
aF0.14599999999999999
aF0.13900000000000001
aF0.13900000000000001
ag4
aa(lp2774
S'1sbb'
p2775
aF0.22800000000000001
aF0.22800000000000001
aF0.22800000000000001
ag4
aa(lp2776
S'2c57'
p2777
aF0.20699999999999999
aF0.27700000000000002
aF0.27700000000000002
ag4
aa(lp2778
S'1baw'
p2779
aF0.193
aF0.20399999999999999
aF0.20399999999999999
ag4
aa(lp2780
S'2v4h'
p2781
aF0.20799999999999999
aF0.26000000000000001
aF0.26000000000000001
ag4
aa(lp2782
S'2v4i'
p2783
aF0.214
aF0.29399999999999998
aF0.29399999999999998
ag4
aa(lp2784
S'2clw'
p2785
aF0.218
aF0.32300000000000001
aF0.32300000000000001
ag4
aa(lp2786
S'1as8'
p2787
aF0.19400000000000001
aF0.27500000000000002
aF0.27500000000000002
ag4
aa(lp2788
S'2izz'
p2789
aF0.16600000000000001
aF0.22600000000000001
aF0.22600000000000001
ag4
aa(lp2790
S'1ciw'
p2791
aF0.19400000000000001
aF0.184
aF0.184
ag4
aa(lp2792
S'1as7'
p2793
aF0.191
aF0.17899999999999999
aF0.17899999999999999
ag4
aa(lp2794
S'4bcu'
p2795
aF0.155
aF0.51900000000000002
aF0.20000000000000001
ag4
aa(lp2796
S'2clp'
p2797
aF0.23899999999999999
aF0.28799999999999998
aF0.28799999999999998
ag4
aa(lp2798
S'1as6'
p2799
aF0.18099999999999999
aF0.17299999999999999
aF0.17299999999999999
ag4
aa(lp2800
S'4hls'
p2801
aF0.14599999999999999
aF0.158
aF0.158
ag4
aa(lp2802
S'4aip'
p2803
aF0.24199999999999999
aF0.24099999999999999
aF0.24099999999999999
ag4
aa(lp2804
S'1gqm'
p2805
aF0.217
aF0.26000000000000001
aF0.26000000000000001
ag4
aa(lp2806
S'1uxl'
p2807
aF0.17000000000000001
aF0.20499999999999999
aF0.20499999999999999
ag4
aa(lp2808
S'4aih'
p2809
aF0.22
aF0.219
aF0.219
ag4
aa(lp2810
S'2clb'
p2811
aF0.19900000000000001
aF0.22900000000000001
aF0.22900000000000001
ag4
aa(lp2812
S'2izn'
p2813
aF0.19700000000000001
aF0.52700000000000002
aF0.191
ag4
aa(lp2814
S'4g7w'
p2815
aF0.23200000000000001
aF0.23400000000000001
aF0.23400000000000001
ag4
aa(lp2816
S'4ae8'
p2817
aF0.185
aF0.18099999999999999
aF0.18099999999999999
ag4
aa(lp2818
S'1uxm'
p2819
aF0.22800000000000001
aF0.26900000000000002
aF0.26900000000000002
ag4
aa(lp2820
S'2vqz'
p2821
aF0.186
aF0.185
aF0.185
ag4
aa(lp2822
S'4gvq'
p2823
aF0.13400000000000001
aF0.129
aF0.129
ag4
aa(lp2824
S'2pbw'
p2825
aF0.20899999999999999
aF0.20599999999999999
aF0.20599999999999999
ag4
aa(lp2826
S'3kk6'
p2827
aF0.20699999999999999
aF0.312
aF0.312
ag4
aa(lp2828
S'1uxb'
p2829
aF0.17499999999999999
aF0.17299999999999999
aF0.17299999999999999
ag4
aa(lp2830
S'6pfk'
p2831
aF0.188
aF0.158
aF0.158
ag4
aa(lp2832
S'1uxa'
p2833
aF0.17999999999999999
aF0.17499999999999999
aF0.17499999999999999
ag4
aa(lp2834
S'1sdy'
p2835
aF0.161
aF0.161
aF0.161
aS'NO R-work information in pdb file!!!'
p2836
aa(lp2837
S'1hyh'
p2838
aF0.193
aF0.193
aF0.193
aS'NO R-work information in pdb file!!!'
p2839
aa(lp2840
S'1nds'
p2841
aF0.23599999999999999
aF0.497
aF0.497
ag4
aa(lp2842
S'1osm'
p2843
aF0.20799999999999999
aF0.442
aF0.442
ag4
aa(lp2844
S'1ndr'
p2845
aF0.20300000000000001
aF0.433
aF0.433
ag4
aa(lp2846
S'1ndo'
p2847
aF0.19
aF0.183
aF0.183
ag4
aa(lp2848
S'2x2h'
p2849
aF0.16800000000000001
aF0.17299999999999999
aF0.17299999999999999
ag4
aa(lp2850
S'4h1z'
p2851
aF0.17199999999999999
aF0.17499999999999999
aF0.17499999999999999
ag4
aa(lp2852
S'1zba'
p2853
aF0.183
aF0.51300000000000001
aF0.17699999999999999
ag4
aa(lp2854
S'1hc7'
p2855
aF0.20599999999999999
aF0.192
aF0.192
ag4
aa(lp2856
S'2cjf'
p2857
aF0.27400000000000002
aF0.433
aF0.433
ag4
aa(lp2858
S'2x2j'
p2859
aF0.23400000000000001
aF0.23599999999999999
aF0.23599999999999999
ag4
aa(lp2860
S'2x2s'
p2861
aF0.14000000000000001
aF0.17000000000000001
aF0.17000000000000001
ag4
aa(lp2862
S'4a0u'
p2863
aF0.14899999999999999
aF0.14699999999999999
aF0.14699999999999999
ag4
aa(lp2864
S'4a0t'
p2865
aF0.155
aF0.152
aF0.152
ag4
aa(lp2866
S'2j4l'
p2867
aF0.246
aF0.23799999999999999
aF0.23799999999999999
ag4
aa(lp2868
S'1qip'
p2869
aF0.17999999999999999
aF0.16800000000000001
aF0.16800000000000001
ag4
aa(lp2870
S'3s6p'
p2871
aF0.23699999999999999
aF0.52900000000000003
aF0.24099999999999999
ag4
aa(lp2872
S'4j70'
p2873
aF0.17199999999999999
aF0.17699999999999999
aF0.17699999999999999
ag4
aa(lp2874
S'3fct'
p2875
aF0.20599999999999999
aF0.22600000000000001
aF0.22600000000000001
ag4
aa(lp2876
S'2w2u'
p2877
aF0.22500000000000001
aF0.224
aF0.224
ag4
aa(lp2878
S'2xrf'
p2879
aF0.16800000000000001
aF0.16400000000000001
aF0.16400000000000001
ag4
aa(lp2880
S'4g22'
p2881
aF0.16800000000000001
aF0.16800000000000001
aF0.16800000000000001
ag4
aa(lp2882
S'1pya'
p2883
aF0.14999999999999999
aF0.16200000000000001
aF0.16200000000000001
ag4
aa(lp2884
S'3vbh'
p2885
aF0.217
aF0.505
aF0.217
ag4
aa(lp2886
S'2j4j'
p2887
aF0.215
aF0.218
aF0.218
ag4
aa(lp2888
S'2j4k'
p2889
aF0.219
aF0.21099999999999999
aF0.21099999999999999
ag4
aa(lp2890
S'2j4u'
p2891
aF0.215
aF0.20899999999999999
aF0.20899999999999999
ag4
aa(lp2892
S'4asj'
p2893
aF0.23799999999999999
aF0.246
aF0.246
ag4
aa(lp2894
S'4a0g'
p2895
aF0.17699999999999999
aF0.16800000000000001
aF0.16800000000000001
ag4
aa(lp2896
S'3vbo'
p2897
aF0.22700000000000001
aF0.48999999999999999
aF0.22500000000000001
ag4
aa(lp2898
S'2qij'
p2899
aF0.33100000000000002
aF0.52400000000000002
aF0.33100000000000002
aS'NO R-work information in pdb file!!!'
p2900
aa(lp2901
S'2wul'
p2902
aF0.20000000000000001
aF0.24299999999999999
aF0.24299999999999999
ag4
aa(lp2903
S'2wuk'
p2904
aF0.159
aF0.16300000000000001
aF0.16300000000000001
ag4
aa(lp2905
S'3vbf'
p2906
aF0.23599999999999999
aF0.496
aF0.23699999999999999
ag4
aa(lp2907
S'2y1v'
p2908
aF0.187
aF0.23899999999999999
aF0.23899999999999999
ag4
aa(lp2909
S'1hcu'
p2910
aF0.17699999999999999
aF0.17299999999999999
aF0.17299999999999999
ag4
aa(lp2911
S'4b1o'
p2912
aF0.29199999999999998
aF0.438
aF0.438
ag4
aa(lp2913
S'1bmo'
p2914
aF0.26200000000000001
aF0.246
aF0.246
ag4
aa(lp2915
S'4b1p'
p2916
aF0.29199999999999998
aF0.45300000000000001
aF0.45300000000000001
ag4
aa(lp2917
S'2x23'
p2918
aF0.16800000000000001
aF0.17899999999999999
aF0.17899999999999999
ag4
aa(lp2919
S'1kmm'
p2920
aF0.221
aF0.26200000000000001
aF0.26200000000000001
ag4
aa(lp2921
S'1kmb'
p2922
aF0.20200000000000001
aF0.19900000000000001
aF0.19900000000000001
ag4
aa(lp2923
S'8gss'
p2924
aF0.193
aF0.183
aF0.183
ag4
aa(lp2925
S'1qnn'
p2926
aF0.17899999999999999
aF0.17100000000000001
aF0.17100000000000001
ag4
aa(lp2927
S'4hk2'
p2928
aF0.19700000000000001
aF0.20200000000000001
aF0.20200000000000001
ag4
aa(lp2929
S'1js9'
p2930
aF0.23799999999999999
aF0.48399999999999999
aF0.23100000000000001
ag4
aa(lp2931
S'4bq0'
p2932
aF0.216
aF0.21299999999999999
aF0.21299999999999999
ag4
aa(lp2933
S'4aym'
p2934
aF0.254
aF0.27200000000000002
aF0.27200000000000002
ag4
aa(lp2935
S'4ayd'
p2936
aF0.20200000000000001
aF0.20300000000000001
aF0.20300000000000001
ag4
aa(lp2937
S'4aye'
p2938
aF0.20699999999999999
aF0.21099999999999999
aF0.21099999999999999
ag4
aa(lp2939
S'4gej'
p2940
aF0.21199999999999999
aF0.219
aF0.219
ag4
aa(lp2941
S'4gek'
p2942
aF0.17100000000000001
aF0.16800000000000001
aF0.16800000000000001
ag4
aa(lp2943
S'3q8m'
p2944
aF0.217
aF0.21099999999999999
aF0.21099999999999999
ag4
aa(lp2945
S'3obv'
p2946
aF0.19900000000000001
aF0.189
aF0.189
ag4
aa(lp2947
S'4asx'
p2948
aF0.187
aF0.187
aF0.187
ag4
aa(lp2949
S'1j4a'
p2950
aF0.20399999999999999
aF0.19800000000000001
aF0.19800000000000001
ag4
aa(lp2951
S'4asy'
p2952
aF0.20899999999999999
aF0.21199999999999999
aF0.21199999999999999
ag4
aa(lp2953
S'1j4e'
p2954
aF0.21299999999999999
aF0.21199999999999999
aF0.21199999999999999
ag4
aa(lp2955
S'3vbs'
p2956
aF0.27300000000000002
aF0.47699999999999998
aF0.27200000000000002
ag4
aa(lp2957
S'2jgv'
p2958
aF0.19800000000000001
aF0.19700000000000001
aF0.19700000000000001
ag4
aa(lp2959
S'4r1r'
p2960
aF0.27300000000000002
aF0.27300000000000002
aF0.27300000000000002
aS'NO R-work information in pdb file!!!'
p2961
aa(lp2962
S'2vml'
p2963
aF0.192
aF0.20399999999999999
aF0.20399999999999999
ag4
aa(lp2964
S'4ay6'
p2965
aF0.22700000000000001
aF0.22800000000000001
aF0.22800000000000001
ag4
aa(lp2966
S'4ay4'
p2967
aF0.14699999999999999
aF0.16300000000000001
aF0.16300000000000001
ag4
aa(lp2968
S'4ay5'
p2969
aF0.17399999999999999
aF0.17799999999999999
aF0.17799999999999999
ag4
aa(lp2970
S'2cnw'
p2971
aF0.183
aF0.184
aF0.184
ag4
aa(lp2972
S'2ixf'
p2973
aF0.216
aF0.25600000000000001
aF0.25600000000000001
ag4
aa(lp2974
S'4f7r'
p2975
aF0.185
aF0.19400000000000001
aF0.19400000000000001
ag4
aa(lp2976
S'2cnb'
p2977
aF0.19900000000000001
aF0.20200000000000001
aF0.20200000000000001
ag4
aa(lp2978
S'1ohy'
p2979
aF0.19800000000000001
aF0.22
aF0.22
ag4
aa(lp2980
S'1jac'
p2981
aF0.17399999999999999
aF0.20000000000000001
aF0.20000000000000001
ag4
aa(lp2982
S'1bch'
p2983
aF0.219
aF0.222
aF0.222
ag4
aa(lp2984
S'1bcj'
p2985
aF0.22
aF0.223
aF0.223
ag4
aa(lp2986
S'2hrp'
p2987
aF0.19800000000000001
aF0.214
aF0.214
ag4
aa(lp2988
S'2yjz'
p2989
aF0.20300000000000001
aF0.20999999999999999
aF0.20999999999999999
ag4
aa(lp2990
S'4egr'
p2991
aF0.17699999999999999
aF0.186
aF0.186
ag4
aa(lp2992
S'3vbr'
p2993
aF0.25700000000000001
aF0.496
aF0.25600000000000001
ag4
aa(lp2994
S'1e1h'
p2995
aF0.19600000000000001
aF0.187
aF0.187
ag4
aa(lp2996
S'3vbu'
p2997
aF0.27200000000000002
aF0.49099999999999999
aF0.28399999999999997
ag4
aa(lp2998
S'4bia'
p2999
aF0.26700000000000002
aF0.35999999999999999
aF0.35999999999999999
ag4
aa(lp3000
S'2yjl'
p3001
aF0.217
aF0.215
aF0.215
ag4
aa(lp3002
S'2jbf'
p3003
aF0.17799999999999999
aF0.185
aF0.185
ag4
aa(lp3004
S'2uyp'
p3005
aF0.16600000000000001
aF0.16500000000000001
aF0.16500000000000001
ag4
aa(lp3006
S'3ufj'
p3007
aF0.26300000000000001
aF0.255
aF0.255
ag4
aa(lp3008
S'1bcc'
p3009
aF0.27000000000000002
aF0.45700000000000002
aF0.30199999999999999
ag4
aa(lp3010
S'2jbw'
p3011
aF0.18099999999999999
aF0.17899999999999999
aF0.17899999999999999
ag4
aa(lp3012
S'2uyy'
p3013
aF0.17000000000000001
aF0.17799999999999999
aF0.17799999999999999
ag4
aa(lp3014
S'2jbt'
p3015
aF0.217
aF0.253
aF0.253
ag4
aa(lp3016
S'2uyl'
p3017
aF0.21099999999999999
aF0.252
aF0.252
ag4
aa(lp3018
S'2jbr'
p3019
aF0.218
aF0.254
aF0.254
ag4
aa(lp3020
S'2uyn'
p3021
aF0.16200000000000001
aF0.16
aF0.16
ag4
aa(lp3022
S'2jbs'
p3023
aF0.251
aF0.307
aF0.307
ag4
aa(lp3024
S'2uyj'
p3025
aF0.17199999999999999
aF0.17199999999999999
aF0.17199999999999999
ag4
aa(lp3026
S'2uyk'
p3027
aF0.155
aF0.16200000000000001
aF0.16200000000000001
ag4
aa(lp3028
S'3ztj'
p3029
aF0.23400000000000001
aF0.224
aF0.224
ag4
aa(lp3030
S'2vck'
p3031
aF0.184
aF0.182
aF0.182
ag4
aa(lp3032
S'4hfx'
p3033
aF0.23499999999999999
aF0.34200000000000003
aF0.34200000000000003
ag4
aa(lp3034
S'3c6q'
p3035
aF0.214
aF0.20499999999999999
aF0.20499999999999999
ag4
aa(lp3036
S'2wu5'
p3037
aF0.21299999999999999
aF0.21099999999999999
aF0.21099999999999999
ag4
aa(lp3038
S'2yj0'
p3039
aF0.217
aF0.224
aF0.224
ag4
aa(lp3040
S'4bi9'
p3041
aF0.224
aF0.313
aF0.313
ag4
aa(lp3042
S'2wqu'
p3043
aF0.191
aF0.20399999999999999
aF0.20399999999999999
ag4
aa(lp3044
S'2wu2'
p3045
aF0.17699999999999999
aF0.189
aF0.189
ag4
aa(lp3046
S'1dcn'
p3047
aF0.22900000000000001
aF0.34899999999999998
aF0.34899999999999998
ag4
aa(lp3048
S'2vct'
p3049
aF0.217
aF0.23200000000000001
aF0.23200000000000001
ag4
aa(lp3050
S'2vcv'
p3051
aF0.223
aF0.222
aF0.222
ag4
aa(lp3052
S'2vcp'
p3053
aF0.27500000000000002
aF0.38600000000000001
aF0.38600000000000001
ag4
aa(lp3054
S'2vyc'
p3055
aF0.17699999999999999
aF0.185
aF0.185
ag4
aa(lp3056
S'1wyk'
p3057
aF0.19700000000000001
aF0.19
aF0.19
ag4
aa(lp3058
S'1cno'
p3059
aF0.17799999999999999
aF0.17599999999999999
aF0.17599999999999999
ag4
aa(lp3060
S'3n5m'
p3061
aF0.156
aF0.17699999999999999
aF0.17699999999999999
ag4
aa(lp3062
S'4eiw'
p3063
aF0.29899999999999999
aF0.29099999999999998
aF0.29099999999999998
ag4
aa(lp3064
S'2bty'
p3065
aF0.24199999999999999
aF0.23400000000000001
aF0.23400000000000001
aS'OK'
p3066
aa(lp3067
S'1ods'
p3068
aF0.152
aF0.19700000000000001
aF0.19700000000000001
aS' FC,PHIFC :: FOM,PHIM :: '
p3069
aa(lp3070
S'1h1c'
p3071
aF0.25800000000000001
aF0.224
aF0.224
aS'OK'
p3072
aa(lp3073
S'1b0c'
p3074
aF0.19800000000000001
aF0.19900000000000001
aF0.19900000000000001
aS'OK'
p3075
aa(lp3076
S'2bj4'
p3077
aF0.187
aF0.224
aF0.224
aS' FC,PHIFC :: '
p3078
aa(lp3079
S'4hwk'
p3080
aF0.19400000000000001
aF0.19400000000000001
aF0.19400000000000001
aS' FC,PHIFC :: FOM :: '
p3081
aa(lp3082
S'2bj0'
p3083
aF0.20999999999999999
aF0.20699999999999999
aF0.20699999999999999
aS'OK'
p3084
aa(lp3085
S'4aji'
p3086
aF0.16200000000000001
aF0.16800000000000001
aF0.16800000000000001
aS' FC,PHIFC :: '
p3087
aa(lp3088
S'4bub'
p3089
aF0.218
aF0.20599999999999999
aF0.20599999999999999
aS' FC,PHIFC :: FOM :: '
p3090
aS' FC,PHIFC :: FOM :: '
p3091
aa(lp3092
S'1cd9'
p3093
aF0.23699999999999999
aF0.20000000000000001
aF0.20000000000000001
aS'OK'
p3094
aa(lp3095
S'1cvn'
p3096
aF0.20399999999999999
aF0.20100000000000001
aF0.20100000000000001
aS'OK'
p3097
aa(lp3098
S'1bj1'
p3099
aF0.19600000000000001
aF0.186
aF0.186
aS'OK'
p3100
aa(lp3101
S'1swa'
p3102
aF0.14699999999999999
aF0.16800000000000001
aF0.16800000000000001
aS'OK'
p3103
aa(lp3104
S'1swc'
p3105
aF0.159
aF0.17299999999999999
aF0.17299999999999999
aS'OK'
p3106
aa(lp3107
S'4jk3'
p3108
aF0.216
aF0.214
aF0.214
aS' FC,PHIFC :: FOM :: '
p3109
aS' FC,PHIFC :: FOM :: '
p3110
aS' FC,PHIFC :: FOM :: '
p3111
aS' FC,PHIFC :: FOM :: '
p3112
aa(lp3113
S'4a5n'
p3114
aF0.183
aF0.189
aF0.189
aS'Warning: merging non-unique data :: DANO,SIGDANO :: F(+),SIGF(+),F(-),SIGF(-) :: I(+),SIGI(+),I(-),SIGI(-) :: '
p3115
aa(lp3116
S'4a5z'
p3117
aF0.191
aF0.19
aF0.19
aS'Warning: merging non-unique data :: DANO,SIGDANO :: F(+),SIGF(+),F(-),SIGF(-) :: I(+),SIGI(+),I(-),SIGI(-) :: FOBS-1,SIGFOBS-1 :: IOBS-1,SIGIOBS-1 :: DANO-1,SIGDANO-1 :: F-1(+),SIGF-1(+),F-1(-),SIGF-1(-) :: I-1(+),SIGI-1(+),I-1(-),SIGI-1(-) :: '
p3118
aa(lp3119
S'4glv'
p3120
aF0.20100000000000001
aF0.19
aF0.19
aS' DANO,SIGDANO :: F(+),SIGF(+),F(-),SIGF(-) :: I(+),SIGI(+),I(-),SIGI(-) :: '
p3121
aa(lp3122
S'1bxc'
p3123
aF0.17799999999999999
aF0.20200000000000001
aF0.20200000000000001
aS'OK'
p3124
aa(lp3125
S'2vhw'
p3126
aF0.17599999999999999
aF0.219
aF0.219
aS'OK'
p3127
aa(lp3128
S'1uw9'
p3129
aF0.157
aF0.16400000000000001
aF0.16400000000000001
aS'OK'
p3130
aa(lp3131
S'4g93'
p3132
aF0.379
aF0.54200000000000004
aF0.34499999999999997
aS'OK'
p3133
aa(lp3134
S'2vhh'
p3135
aF0.215
aF0.21199999999999999
aF0.21199999999999999
aS'OK'
p3136
aa(lp3137
S'2vhi'
p3138
aF0.22600000000000001
aF0.22700000000000001
aF0.22700000000000001
aS'OK'
p3139
aa(lp3140
S'1bxs'
p3141
aF0.23499999999999999
aF0.224
aF0.224
aS'OK'
p3142
aa(lp3143
S'2vhg'
p3144
aF0.28499999999999998
aF0.27500000000000002
aF0.27500000000000002
aS'OK'
p3145
aa(lp3146
S'1qni'
p3147
aF0.22800000000000001
aF0.223
aF0.223
aS'OK'
p3148
aa(lp3149
S'4j24'
p3150
aF0.19
aF0.193
aF0.193
aS'OK'
p3151
aa(lp3152
S'1bxh'
p3153
aF0.19600000000000001
aF0.184
aF0.184
aS' PHIM :: '
p3154
aS' PHIM :: '
p3155
aa(lp3156
S'4fsj'
p3157
aF0.26200000000000001
aF0.57399999999999995
aF0.27000000000000002
aS'OK'
p3158
aa(lp3159
S'3hoh'
p3160
aF0.16700000000000001
aF0.16900000000000001
aF0.16900000000000001
aS' FC,PHIFC :: PHIM :: '
p3161
aa(lp3162
S'2vhx'
p3163
aF0.17199999999999999
aF0.20599999999999999
aF0.20599999999999999
aS'OK'
p3164
aa(lp3165
S'1ax4'
p3166
aF0.187
aF0.16600000000000001
aF0.16600000000000001
aS'OK'
p3167
aa(lp3168
S'2vvf'
p3169
aF0.23999999999999999
aF0.24099999999999999
aF0.24099999999999999
aS'OK'
p3170
aa(lp3171
S'4a5a'
p3172
aF0.23400000000000001
aF0.23100000000000001
aF0.23100000000000001
aS' FC,PHIFC :: '
p3173
aS' FC,PHIFC :: '
p3174
aa(lp3175
S'2vvo'
p3176
aF0.16
aF0.16300000000000001
aF0.16300000000000001
aS'OK'
p3177
aa(lp3178
S'1oj7'
p3179
aF0.14499999999999999
aF0.17499999999999999
aF0.17499999999999999
aS' FC,PHIFC :: '
p3180
aa(lp3181
S'1mpq'
p3182
aF0.218
aF0.20899999999999999
aF0.20899999999999999
aS'OK'
p3183
aa(lp3184
S'1h48'
p3185
aF0.20200000000000001
aF0.20000000000000001
aF0.20000000000000001
aS'OK'
p3186
aa(lp3187
S'1mpn'
p3188
aF0.218
aF0.21099999999999999
aF0.21099999999999999
aS'OK'
p3189
aa(lp3190
S'1mpo'
p3191
aF0.23000000000000001
aF0.218
aF0.218
aS'OK'
p3192
aa(lp3193
S'1mpm'
p3194
aF0.22600000000000001
aF0.21099999999999999
aF0.21099999999999999
aS'OK'
p3195
aa(lp3196
S'1h47'
p3197
aF0.214
aF0.20499999999999999
aF0.20499999999999999
aS'OK'
p3198
aa(lp3199
S'2woc'
p3200
aF0.17399999999999999
aF0.20200000000000001
aF0.20200000000000001
aS' DANO,SIGDANO :: F(+),SIGF(+),F(-),SIGF(-) :: I(+),SIGI(+),I(-),SIGI(-) :: '
p3201
aa(lp3202
S'2woe'
p3203
aF0.16700000000000001
aF0.20499999999999999
aF0.20499999999999999
aS'Warning: merging non-unique data :: DANO,SIGDANO :: F(+),SIGF(+),F(-),SIGF(-) :: I(+),SIGI(+),I(-),SIGI(-) :: '
p3204
aa(lp3205
S'2woi'
p3206
aF0.16
aF0.159
aF0.159
aS'OK'
p3207
aa(lp3208
S'3e8k'
p3209
aF0.36499999999999999
aF0.42399999999999999
aF0.311
aS' PHIC :: '
p3210
aa(lp3211
S'2bt2'
p3212
aF0.192
aF0.246
aF0.246
aS' FC,PHIFC :: FOM :: '
p3213
aa(lp3214
S'2wov'
p3215
aF0.17899999999999999
aF0.18099999999999999
aF0.18099999999999999
aS'OK'
p3216
aa(lp3217
S'1h4o'
p3218
aF0.16500000000000001
aF0.218
aF0.218
aS' FC,PHIFC :: '
p3219
aa(lp3220
S'3ukl'
p3221
aF0.185
aF0.18099999999999999
aF0.18099999999999999
aS' F(+),SIGF(+),F(-),SIGF(-) :: '
p3222
aa(lp3223
S'1ojx'
p3224
aF0.14899999999999999
aF0.191
aF0.191
aS' FC,PHIFC :: '
p3225
aa(lp3226
S'1ojy'
p3227
aF0.251
aF0.251
aF0.251
aS'NO R-work information in pdb file!!!'
p3228
aa(lp3229
S'4bab'
p3230
aF0.214
aF0.20499999999999999
aF0.20499999999999999
aS' FC,PHIFC :: FOM :: '
p3231
aa(lp3232
S'1ojd'
p3233
aF0.252
aF0.24099999999999999
aF0.24099999999999999
aS'OK'
p3234
aa(lp3235
S'1e9i'
p3236
aF0.22900000000000001
aF0.22500000000000001
aF0.22500000000000001
aS'OK'
p3237
aa(lp3238
S'1h4t'
p3239
aF0.20000000000000001
aF0.188
aF0.188
aS'OK'
p3240
aa(lp3241
S'1fdu'
p3242
aF0.22
aF0.20699999999999999
aF0.20699999999999999
aS'OK'
p3243
aa(lp3244
S'1gt8'
p3245
aF0.214
aF0.186
aF0.186
aS'OK'
p3246
aa(lp3247
S'3r9i'
p3248
aF0.20100000000000001
aF0.192
aF0.192
aS'OK'
p3249
aa(lp3250
S'1gt7'
p3251
aF0.23300000000000001
aF0.224
aF0.224
aS'OK'
p3252
aa(lp3253
S'2w01'
p3254
aF0.19400000000000001
aF0.22700000000000001
aF0.22700000000000001
aS' FC,PHIFC :: '
p3255
aa(lp3256
S'4fet'
p3257
aF0.20300000000000001
aF0.20300000000000001
aF0.20300000000000001
aS' FC,PHIFC :: FOM :: '
p3258
aa(lp3259
S'3w5a'
p3260
aF0.248
aF0.246
aF0.246
aS'OK'
p3261
aa(lp3262
S'3me1'
p3263
aF0.32100000000000001
aF0.314
aF0.314
aS'OK'
p3264
aa(lp3265
S'1uwi'
p3266
aF0.20899999999999999
aF0.20100000000000001
aF0.20100000000000001
aS'OK'
p3267
aa(lp3268
S'1axk'
p3269
aF0.17599999999999999
aF0.17100000000000001
aF0.17100000000000001
aS'OK'
p3270
aa(lp3271
S'1uwa'
p3272
aF0.17100000000000001
aF0.182
aF0.182
aS'OK'
p3273
aa(lp3274
S'1ojl'
p3275
aF0.252
aF0.29699999999999999
aF0.29699999999999999
aS'OK'
p3276
aa(lp3277
S'2e2a'
p3278
aF0.19800000000000001
aF0.20100000000000001
aF0.20100000000000001
aS'OK'
p3279
aa(lp3280
S'1axs'
p3281
aF0.20000000000000001
aF0.20100000000000001
aF0.20100000000000001
aS'OK'
p3282
aa(lp3283
S'2xpj'
p3284
aF0.308
aF0.57599999999999996
aF0.58199999999999996
aS'OK'
p3285
aa(lp3286
S'3qhw'
p3287
aF0.188
aF0.17999999999999999
aF0.17999999999999999
aS'Warning: merging non-unique data :: DANO,SIGDANO :: F(+),SIGF(+),F(-),SIGF(-) :: I(+),SIGI(+),I(-),SIGI(-) :: '
p3288
aa(lp3289
S'3qhr'
p3290
aF0.17899999999999999
aF0.17199999999999999
aF0.17199999999999999
aS'Warning: merging non-unique data :: DANO,SIGDANO :: F(+),SIGF(+),F(-),SIGF(-) :: I(+),SIGI(+),I(-),SIGI(-) :: '
p3291
aa(lp3292
S'1gtu'
p3293
aF0.21099999999999999
aF0.182
aF0.182
aS'OK'
p3294
aa(lp3295
S'1gth'
p3296
aF0.17699999999999999
aF0.17299999999999999
aF0.17299999999999999
aS'OK'
p3297
aa(lp3298
S'2w0d'
p3299
aF0.17899999999999999
aF0.20100000000000001
aF0.20100000000000001
aS'OK'
p3300
aa(lp3301
S'3kie'
p3302
aF0.23100000000000001
aF0.25700000000000001
aF0.25700000000000001
aS'OK'
p3303
aa(lp3304
S'1e9n'
p3305
aF0.17799999999999999
aF0.17799999999999999
aF0.17799999999999999
aS'NO R-work information in pdb file!!!'
p3306
aa(lp3307
S'4dwh'
p3308
aF0.23300000000000001
aF0.22700000000000001
aF0.22700000000000001
aS'OK'
p3309
aa(lp3310
S'4dwj'
p3311
aF0.20100000000000001
aF0.20499999999999999
aF0.20499999999999999
aS' FC,PHIFC :: FOM :: '
p3312
aa(lp3313
S'1uw4'
p3314
aF0.20399999999999999
aF0.24099999999999999
aF0.24099999999999999
aS'OK'
p3315
aa(lp3316
S'1fdv'
p3317
aF0.219
aF0.222
aF0.222
aS'OK'
p3318
aa(lp3319
S'1av1'
p3320
aF0.38200000000000001
aF0.39500000000000002
aF0.39500000000000002
aS' PHIC :: '
p3321
aa(lp3322
S'4ich'
p3323
aF0.19900000000000001
aF0.20599999999999999
aF0.20599999999999999
aS' FC,PHIFC :: FOM :: '
p3324
aa(lp3325
S'1bjq'
p3326
aF0.219
aF0.21199999999999999
aF0.21199999999999999
aS' PHIM :: '
p3327
aa(lp3328
S'4jcd'
p3329
aF0.16400000000000001
aF0.161
aF0.161
aS'OK'
p3330
aa(lp3331
S'1fro'
p3332
aF0.21099999999999999
aF0.20300000000000001
aF0.20300000000000001
aS'OK'
p3333
aa(lp3334
S'4jkr'
p3335
aF0.247
aF0.22900000000000001
aF0.22900000000000001
aS' FC,PHIFC :: FOM :: '
p3336
aa(lp3337
S'4jcr'
p3338
aF0.219
aF0.214
aF0.214
aS' FC,PHIFC :: FOM :: '
p3339
aa(lp3340
S'4jcq'
p3341
aF0.192
aF0.191
aF0.191
aS' FC,PHIFC :: FOM :: '
p3342
aa(lp3343
S'4ajk'
p3344
aF0.14699999999999999
aF0.153
aF0.153
aS' FC,PHIFC :: '
p3345
aa(lp3346
S'4ajj'
p3347
aF0.14399999999999999
aF0.14499999999999999
aF0.14499999999999999
aS' FC,PHIFC :: '
p3348
aa(lp3349
S'1bxb'
p3350
aF0.17999999999999999
aF0.182
aF0.182
aS'OK'
p3351
aa(lp3352
S'4a5m'
p3353
aF0.20699999999999999
aF0.29699999999999999
aF0.29699999999999999
aS'OK'
p3354
aa(lp3355
S'2x9m'
p3356
aF0.23300000000000001
aF0.23799999999999999
aF0.23799999999999999
aS' FC,PHIFC :: '
p3357
aa(lp3358
S'4a5p'
p3359
aF0.23100000000000001
aF0.24099999999999999
aF0.24099999999999999
aS' FC,PHIFC :: '
p3360
aa(lp3361
S'2x9i'
p3362
aF0.17599999999999999
aF0.17100000000000001
aF0.17100000000000001
aS'OK'
p3363
aa(lp3364
S'4gme'
p3365
aF0.156
aF0.27600000000000002
aF0.27600000000000002
aS'OK'
p3366
aa(lp3367
S'3lob'
p3368
aF0.34699999999999998
aF0.64300000000000002
aF0.42299999999999999
aS' PHIC :: '
p3369
aa(lp3370
S'2vvq'
p3371
aF0.159
aF0.16500000000000001
aF0.16500000000000001
aS'OK'
p3372
aa(lp3373
S'1g31'
p3374
aF0.22500000000000001
aF0.28000000000000003
aF0.28000000000000003
aS'OK'
p3375
aa(lp3376
S'2wy3'
p3377
aF0.17699999999999999
aF0.17000000000000001
aF0.17000000000000001
aS'OK'
p3378
aa(lp3379
S'2wy6'
p3380
aF0.219
aF0.216
aF0.216
aS'OK'
p3381
aa(lp3382
S'4iq1'
p3383
aF0.17399999999999999
aF0.17199999999999999
aF0.17199999999999999
aS'OK'
p3384
aa(lp3385
S'1am7'
p3386
aF0.16300000000000001
aF0.16200000000000001
aF0.16200000000000001
aS'OK'
p3387
aa(lp3388
S'1fui'
p3389
aF0.16200000000000001
aF0.154
aF0.154
aS'OK'
p3390
aa(lp3391
S'1mpr'
p3392
aF0.183
aF0.17499999999999999
aF0.17499999999999999
aS'OK'
p3393
aa(lp3394
S'4hmg'
p3395
aF0.23100000000000001
aF0.218
aF0.218
aS'OK'
p3396
aa(lp3397
S'3hmg'
p3398
aF0.23799999999999999
aF0.22500000000000001
aF0.22500000000000001
aS'OK'
p3399
aa(lp3400
S'3sod'
p3401
aF0.19
aF0.498
aF0.498
aS'Warning: merging non-unique data :: '
p3402
aa(lp3403
S'5hmg'
p3404
aF0.22
aF0.20799999999999999
aF0.20799999999999999
aS'OK'
p3405
aa(lp3406
S'1axg'
p3407
aF0.214
aF0.186
aF0.186
aS'OK'
p3408
aa(lp3409
S'1ovo'
p3410
aF0.19400000000000001
aF0.19400000000000001
aF0.19400000000000001
aS'NO R-work information in pdb file!!!'
p3411
aa(lp3412
S'5cro'
p3413
aF0.20799999999999999
aF0.20799999999999999
aF0.20799999999999999
aS'NO R-work information in pdb file!!!'
p3414
aa(lp3415
S'2ux2'
p3416
aF0.17399999999999999
aF0.17399999999999999
aF0.17399999999999999
aS'NO R-work information in pdb file!!!'
p3417
aa(lp3418
S'1b7b'
p3419
aF0.224
aF0.216
aF0.216
aS' FC :: '
p3420
aa(lp3421
S'1hcy'
p3422
aF0.218
aF0.218
aF0.218
aS'NO R-work information in pdb file!!!'
p3423
aa(lp3424
S'2wl6'
p3425
aF0.23200000000000001
aF0.23400000000000001
aF0.23400000000000001
aS' FC,PHIFC :: '
p3426
aa(lp3427
S'1b8d'
p3428
aF0.17499999999999999
aF0.27300000000000002
aF0.27300000000000002
aS'OK'
p3429
aa(lp3430
S'1llc'
p3431
aF0.374
aF0.48199999999999998
aF0.495
aS'OK'
p3432
aa(lp3433
S'1nal'
p3434
aF0.20799999999999999
aF0.20200000000000001
aF0.20200000000000001
aS' FC,PHIFC :: '
p3435
aa(lp3436
S'2mpr'
p3437
aF0.191
aF0.17299999999999999
aF0.17299999999999999
aS'OK'
p3438
aa(lp3439
S'2x17'
p3440
aF0.26000000000000001
aF0.24299999999999999
aF0.24299999999999999
aS'Warning: merging non-unique data :: DANO :: I(+),SIGI(+),I(-),SIGI(-) :: '
p3441
aa(lp3442
S'1b26'
p3443
aF0.22500000000000001
aF0.23000000000000001
aF0.23000000000000001
aS'OK'
p3444
aa(lp3445
S'1dwn'
p3446
aF0.28799999999999998
aF0.53900000000000003
aF0.45900000000000002
aS'OK'
p3447
aa(lp3448
S'4fi4'
p3449
aF0.14899999999999999
aF0.154
aF0.154
aS'Warning: merging non-unique data :: DANO :: F(+),SIGF(+),F(-),SIGF(-) :: I(+),SIGI(+),I(-),SIGI(-) :: '
p3450
aa(lp3451
S'2hmg'
p3452
aF0.222
aF0.20699999999999999
aF0.20699999999999999
aS'OK'
p3453
aa.