(dp1
S'pdb1qez'
p2
S'/net/chevy/raid1/pdb_mirror/pdb/qe/pdb1qez.ent.gz'
p3
sS'pdb4as5'
p4
S'/net/chevy/raid1/pdb_mirror/pdb/as/pdb4as5.ent.gz'
p5
sS'pdb2xrf'
p6
S'/net/chevy/raid1/pdb_mirror/pdb/xr/pdb2xrf.ent.gz'
p7
sS'pdb1w9z'
p8
S'/net/chevy/raid1/pdb_mirror/pdb/w9/pdb1w9z.ent.gz'
p9
sS'pdb2vpf'
p10
S'/net/chevy/raid1/pdb_mirror/pdb/vp/pdb2vpf.ent.gz'
p11
sS'pdb4ich'
p12
S'/net/chevy/raid1/pdb_mirror/pdb/ic/pdb4ich.ent.gz'
p13
sS'pdb2ebo'
p14
S'/net/chevy/raid1/pdb_mirror/pdb/eb/pdb2ebo.ent.gz'
p15
sS'pdb4iq1'
p16
S'/net/chevy/raid1/pdb_mirror/pdb/iq/pdb4iq1.ent.gz'
p17
sS'pdb1dao'
p18
S'/net/chevy/raid1/pdb_mirror/pdb/da/pdb1dao.ent.gz'
p19
sS'pdb1nob'
p20
S'/net/chevy/raid1/pdb_mirror/pdb/no/pdb1nob.ent.gz'
p21
sS'pdb2bfu'
p22
S'/net/chevy/raid1/pdb_mirror/pdb/bf/pdb2bfu.ent.gz'
p23
sS'pdb1uup'
p24
S'/net/chevy/raid1/pdb_mirror/pdb/uu/pdb1uup.ent.gz'
p25
sS'pdb2bfp'
p26
S'/net/chevy/raid1/pdb_mirror/pdb/bf/pdb2bfp.ent.gz'
p27
sS'pdb2bfo'
p28
S'/net/chevy/raid1/pdb_mirror/pdb/bf/pdb2bfo.ent.gz'
p29
sS'pdb2bfm'
p30
S'/net/chevy/raid1/pdb_mirror/pdb/bf/pdb2bfm.ent.gz'
p31
sS'pdb4jk3'
p32
S'/net/chevy/raid1/pdb_mirror/pdb/jk/pdb4jk3.ent.gz'
p33
sS'pdb2bfg'
p34
S'/net/chevy/raid1/pdb_mirror/pdb/bf/pdb2bfg.ent.gz'
p35
sS'pdb1uug'
p36
S'/net/chevy/raid1/pdb_mirror/pdb/uu/pdb1uug.ent.gz'
p37
sS'pdb1dap'
p38
S'/net/chevy/raid1/pdb_mirror/pdb/da/pdb1dap.ent.gz'
p39
sS'pdb2bfa'
p40
S'/net/chevy/raid1/pdb_mirror/pdb/bf/pdb2bfa.ent.gz'
p41
sS'pdb1w96'
p42
S'/net/chevy/raid1/pdb_mirror/pdb/w9/pdb1w96.ent.gz'
p43
sS'pdb4agu'
p44
S'/net/chevy/raid1/pdb_mirror/pdb/ag/pdb4agu.ent.gz'
p45
sS'pdb4gka'
p46
S'/net/chevy/raid1/pdb_mirror/pdb/gk/pdb4gka.ent.gz'
p47
sS'pdb4asy'
p48
S'/net/chevy/raid1/pdb_mirror/pdb/as/pdb4asy.ent.gz'
p49
sS'pdb4asx'
p50
S'/net/chevy/raid1/pdb_mirror/pdb/as/pdb4asx.ent.gz'
p51
sS'pdb2xyn'
p52
S'/net/chevy/raid1/pdb_mirror/pdb/xy/pdb2xyn.ent.gz'
p53
sS'pdb4asj'
p54
S'/net/chevy/raid1/pdb_mirror/pdb/as/pdb4asj.ent.gz'
p55
sS'pdb1bfo'
p56
S'/net/chevy/raid1/pdb_mirror/pdb/bf/pdb1bfo.ent.gz'
p57
sS'pdb2bf7'
p58
S'/net/chevy/raid1/pdb_mirror/pdb/bf/pdb2bf7.ent.gz'
p59
sS'pdb4jkr'
p60
S'/net/chevy/raid1/pdb_mirror/pdb/jk/pdb4jkr.ent.gz'
p61
sS'pdb4ekc'
p62
S'/net/chevy/raid1/pdb_mirror/pdb/ek/pdb4ekc.ent.gz'
p63
sS'pdb1euh'
p64
S'/net/chevy/raid1/pdb_mirror/pdb/eu/pdb1euh.ent.gz'
p65
sS'pdb1ftr'
p66
S'/net/chevy/raid1/pdb_mirror/pdb/ft/pdb1ftr.ent.gz'
p67
sS'pdb3ldh'
p68
S'/net/chevy/raid1/pdb_mirror/pdb/ld/pdb3ldh.ent.gz'
p69
sS'pdb1ogp'
p70
S'/net/chevy/raid1/pdb_mirror/pdb/og/pdb1ogp.ent.gz'
p71
sS'pdb4bfl'
p72
S'/net/chevy/raid1/pdb_mirror/pdb/bf/pdb4bfl.ent.gz'
p73
sS'pdb1ogu'
p74
S'/net/chevy/raid1/pdb_mirror/pdb/og/pdb1ogu.ent.gz'
p75
sS'pdb4bfe'
p76
S'/net/chevy/raid1/pdb_mirror/pdb/bf/pdb4bfe.ent.gz'
p77
sS'pdb1ogy'
p78
S'/net/chevy/raid1/pdb_mirror/pdb/og/pdb1ogy.ent.gz'
p79
sS'pdb1cyd'
p80
S'/net/chevy/raid1/pdb_mirror/pdb/cy/pdb1cyd.ent.gz'
p81
sS'pdb1swd'
p82
S'/net/chevy/raid1/pdb_mirror/pdb/sw/pdb1swd.ent.gz'
p83
sS'pdb1swe'
p84
S'/net/chevy/raid1/pdb_mirror/pdb/sw/pdb1swe.ent.gz'
p85
sS'pdb1swf'
p86
S'/net/chevy/raid1/pdb_mirror/pdb/sw/pdb1swf.ent.gz'
p87
sS'pdb1swg'
p88
S'/net/chevy/raid1/pdb_mirror/pdb/sw/pdb1swg.ent.gz'
p89
sS'pdb1jac'
p90
S'/net/chevy/raid1/pdb_mirror/pdb/ja/pdb1jac.ent.gz'
p91
sS'pdb1swa'
p92
S'/net/chevy/raid1/pdb_mirror/pdb/sw/pdb1swa.ent.gz'
p93
sS'pdb4a8j'
p94
S'/net/chevy/raid1/pdb_mirror/pdb/a8/pdb4a8j.ent.gz'
p95
sS'pdb1swc'
p96
S'/net/chevy/raid1/pdb_mirror/pdb/sw/pdb1swc.ent.gz'
p97
sS'pdb1gav'
p98
S'/net/chevy/raid1/pdb_mirror/pdb/ga/pdb1gav.ent.gz'
p99
sS'pdb1swn'
p100
S'/net/chevy/raid1/pdb_mirror/pdb/sw/pdb1swn.ent.gz'
p101
sS'pdb1swo'
p102
S'/net/chevy/raid1/pdb_mirror/pdb/sw/pdb1swo.ent.gz'
p103
sS'pdb1swh'
p104
S'/net/chevy/raid1/pdb_mirror/pdb/sw/pdb1swh.ent.gz'
p105
sS'pdb1swj'
p106
S'/net/chevy/raid1/pdb_mirror/pdb/sw/pdb1swj.ent.gz'
p107
sS'pdb1swk'
p108
S'/net/chevy/raid1/pdb_mirror/pdb/sw/pdb1swk.ent.gz'
p109
sS'pdb2xim'
p110
S'/net/chevy/raid1/pdb_mirror/pdb/xi/pdb2xim.ent.gz'
p111
sS'pdb4ae8'
p112
S'/net/chevy/raid1/pdb_mirror/pdb/ae/pdb4ae8.ent.gz'
p113
sS'pdb1swp'
p114
S'/net/chevy/raid1/pdb_mirror/pdb/sw/pdb1swp.ent.gz'
p115
sS'pdb1swq'
p116
S'/net/chevy/raid1/pdb_mirror/pdb/sw/pdb1swq.ent.gz'
p117
sS'pdb1swr'
p118
S'/net/chevy/raid1/pdb_mirror/pdb/sw/pdb1swr.ent.gz'
p119
sS'pdb4a8p'
p120
S'/net/chevy/raid1/pdb_mirror/pdb/a8/pdb4a8p.ent.gz'
p121
sS'pdb2wjx'
p122
S'/net/chevy/raid1/pdb_mirror/pdb/wj/pdb2wjx.ent.gz'
p123
sS'pdb1bos'
p124
S'/net/chevy/raid1/pdb_mirror/pdb/bo/pdb1bos.ent.gz'
p125
sS'pdb1x9p'
p126
S'/net/chevy/raid1/pdb_mirror/pdb/x9/pdb1x9p.ent.gz'
p127
sS'pdb4i6s'
p128
S'/net/chevy/raid1/pdb_mirror/pdb/i6/pdb4i6s.ent.gz'
p129
sS'pdb1qgu'
p130
S'/net/chevy/raid1/pdb_mirror/pdb/qg/pdb1qgu.ent.gz'
p131
sS'pdb4b1p'
p132
S'/net/chevy/raid1/pdb_mirror/pdb/b1/pdb4b1p.ent.gz'
p133
sS'pdb3kz4'
p134
S'/net/chevy/raid1/pdb_mirror/pdb/kz/pdb3kz4.ent.gz'
p135
sS'pdb1bfr'
p136
S'/net/chevy/raid1/pdb_mirror/pdb/bf/pdb1bfr.ent.gz'
p137
sS'pdb4b1o'
p138
S'/net/chevy/raid1/pdb_mirror/pdb/b1/pdb4b1o.ent.gz'
p139
sS'pdb1og6'
p140
S'/net/chevy/raid1/pdb_mirror/pdb/og/pdb1og6.ent.gz'
p141
sS'pdb3utd'
p142
S'/net/chevy/raid1/pdb_mirror/pdb/ut/pdb3utd.ent.gz'
p143
sS'pdb3utc'
p144
S'/net/chevy/raid1/pdb_mirror/pdb/ut/pdb3utc.ent.gz'
p145
sS'pdb4aei'
p146
S'/net/chevy/raid1/pdb_mirror/pdb/ae/pdb4aei.ent.gz'
p147
sS'pdb2xwg'
p148
S'/net/chevy/raid1/pdb_mirror/pdb/xw/pdb2xwg.ent.gz'
p149
sS'pdb4aed'
p150
S'/net/chevy/raid1/pdb_mirror/pdb/ae/pdb4aed.ent.gz'
p151
sS'pdb2cjf'
p152
S'/net/chevy/raid1/pdb_mirror/pdb/cj/pdb2cjf.ent.gz'
p153
sS'pdb2vf1'
p154
S'/net/chevy/raid1/pdb_mirror/pdb/vf/pdb2vf1.ent.gz'
p155
sS'pdb2xwq'
p156
S'/net/chevy/raid1/pdb_mirror/pdb/xw/pdb2xwq.ent.gz'
p157
sS'pdb3ide'
p158
S'/net/chevy/raid1/pdb_mirror/pdb/id/pdb3ide.ent.gz'
p159
sS'pdb2vf9'
p160
S'/net/chevy/raid1/pdb_mirror/pdb/vf/pdb2vf9.ent.gz'
p161
sS'pdb3fbm'
p162
S'/net/chevy/raid1/pdb_mirror/pdb/fb/pdb3fbm.ent.gz'
p163
sS'pdb4rla'
p164
S'/net/chevy/raid1/pdb_mirror/pdb/rl/pdb4rla.ent.gz'
p165
sS'pdb3nap'
p166
S'/net/chevy/raid1/pdb_mirror/pdb/na/pdb3nap.ent.gz'
p167
sS'pdb2y75'
p168
S'/net/chevy/raid1/pdb_mirror/pdb/y7/pdb2y75.ent.gz'
p169
sS'pdb1awr'
p170
S'/net/chevy/raid1/pdb_mirror/pdb/aw/pdb1awr.ent.gz'
p171
sS'pdb3unh'
p172
S'/net/chevy/raid1/pdb_mirror/pdb/un/pdb3unh.ent.gz'
p173
sS'pdb1awv'
p174
S'/net/chevy/raid1/pdb_mirror/pdb/aw/pdb1awv.ent.gz'
p175
sS'pdb1h1l'
p176
S'/net/chevy/raid1/pdb_mirror/pdb/h1/pdb1h1l.ent.gz'
p177
sS'pdb1awt'
p178
S'/net/chevy/raid1/pdb_mirror/pdb/aw/pdb1awt.ent.gz'
p179
sS'pdb1h1c'
p180
S'/net/chevy/raid1/pdb_mirror/pdb/h1/pdb1h1c.ent.gz'
p181
sS'pdb1b44'
p182
S'/net/chevy/raid1/pdb_mirror/pdb/b4/pdb1b44.ent.gz'
p183
sS'pdb4dzi'
p184
S'/net/chevy/raid1/pdb_mirror/pdb/dz/pdb4dzi.ent.gz'
p185
sS'pdb2ixf'
p186
S'/net/chevy/raid1/pdb_mirror/pdb/ix/pdb2ixf.ent.gz'
p187
sS'pdb1tdt'
p188
S'/net/chevy/raid1/pdb_mirror/pdb/td/pdb1tdt.ent.gz'
p189
sS'pdb1cwp'
p190
S'/net/chevy/raid1/pdb_mirror/pdb/cw/pdb1cwp.ent.gz'
p191
sS'pdb1maa'
p192
S'/net/chevy/raid1/pdb_mirror/pdb/ma/pdb1maa.ent.gz'
p193
sS'pdb1n5x'
p194
S'/net/chevy/raid1/pdb_mirror/pdb/n5/pdb1n5x.ent.gz'
p195
sS'pdb1egz'
p196
S'/net/chevy/raid1/pdb_mirror/pdb/eg/pdb1egz.ent.gz'
p197
sS'pdb4bhh'
p198
S'/net/chevy/raid1/pdb_mirror/pdb/bh/pdb4bhh.ent.gz'
p199
sS'pdb2y7r'
p200
S'/net/chevy/raid1/pdb_mirror/pdb/y7/pdb2y7r.ent.gz'
p201
sS'pdb1gwc'
p202
S'/net/chevy/raid1/pdb_mirror/pdb/gw/pdb1gwc.ent.gz'
p203
sS'pdb2y7w'
p204
S'/net/chevy/raid1/pdb_mirror/pdb/y7/pdb2y7w.ent.gz'
p205
sS'pdb4bub'
p206
S'/net/chevy/raid1/pdb_mirror/pdb/bu/pdb4bub.ent.gz'
p207
sS'pdb1aw2'
p208
S'/net/chevy/raid1/pdb_mirror/pdb/aw/pdb1aw2.ent.gz'
p209
sS'pdb1aw1'
p210
S'/net/chevy/raid1/pdb_mirror/pdb/aw/pdb1aw1.ent.gz'
p211
sS'pdb1aw7'
p212
S'/net/chevy/raid1/pdb_mirror/pdb/aw/pdb1aw7.ent.gz'
p213
sS'pdb2y7f'
p214
S'/net/chevy/raid1/pdb_mirror/pdb/y7/pdb2y7f.ent.gz'
p215
sS'pdb2y7d'
p216
S'/net/chevy/raid1/pdb_mirror/pdb/y7/pdb2y7d.ent.gz'
p217
sS'pdb4bh6'
p218
S'/net/chevy/raid1/pdb_mirror/pdb/bh/pdb4bh6.ent.gz'
p219
sS'pdb4bh0'
p220
S'/net/chevy/raid1/pdb_mirror/pdb/bh/pdb4bh0.ent.gz'
p221
sS'pdb2y5p'
p222
S'/net/chevy/raid1/pdb_mirror/pdb/y5/pdb2y5p.ent.gz'
p223
sS'pdb4jza'
p224
S'/net/chevy/raid1/pdb_mirror/pdb/jz/pdb4jza.ent.gz'
p225
sS'pdb3vyw'
p226
S'/net/chevy/raid1/pdb_mirror/pdb/vy/pdb3vyw.ent.gz'
p227
sS'pdb3hoh'
p228
S'/net/chevy/raid1/pdb_mirror/pdb/ho/pdb3hoh.ent.gz'
p229
sS'pdb1tr1'
p230
S'/net/chevy/raid1/pdb_mirror/pdb/tr/pdb1tr1.ent.gz'
p231
sS'pdb3nou'
p232
S'/net/chevy/raid1/pdb_mirror/pdb/no/pdb3nou.ent.gz'
p233
sS'pdb3not'
p234
S'/net/chevy/raid1/pdb_mirror/pdb/no/pdb3not.ent.gz'
p235
sS'pdb4dhg'
p236
S'/net/chevy/raid1/pdb_mirror/pdb/dh/pdb4dhg.ent.gz'
p237
sS'pdb3nop'
p238
S'/net/chevy/raid1/pdb_mirror/pdb/no/pdb3nop.ent.gz'
p239
sS'pdb4fr4'
p240
S'/net/chevy/raid1/pdb_mirror/pdb/fr/pdb4fr4.ent.gz'
p241
sS'pdb1mfr'
p242
S'/net/chevy/raid1/pdb_mirror/pdb/mf/pdb1mfr.ent.gz'
p243
sS'pdb3v4h'
p244
S'/net/chevy/raid1/pdb_mirror/pdb/v4/pdb3v4h.ent.gz'
p245
sS'pdb1hyh'
p246
S'/net/chevy/raid1/pdb_mirror/pdb/hy/pdb1hyh.ent.gz'
p247
sS'pdb1b5s'
p248
S'/net/chevy/raid1/pdb_mirror/pdb/b5/pdb1b5s.ent.gz'
p249
sS'pdb1b5q'
p250
S'/net/chevy/raid1/pdb_mirror/pdb/b5/pdb1b5q.ent.gz'
p251
sS'pdb2yjz'
p252
S'/net/chevy/raid1/pdb_mirror/pdb/yj/pdb2yjz.ent.gz'
p253
sS'pdb1rjw'
p254
S'/net/chevy/raid1/pdb_mirror/pdb/rj/pdb1rjw.ent.gz'
p255
sS'pdb1aip'
p256
S'/net/chevy/raid1/pdb_mirror/pdb/ai/pdb1aip.ent.gz'
p257
sS'pdb1trr'
p258
S'/net/chevy/raid1/pdb_mirror/pdb/tr/pdb1trr.ent.gz'
p259
sS'pdb1aih'
p260
S'/net/chevy/raid1/pdb_mirror/pdb/ai/pdb1aih.ent.gz'
p261
sS'pdb3w9i'
p262
S'/net/chevy/raid1/pdb_mirror/pdb/w9/pdb3w9i.ent.gz'
p263
sS'pdb2w55'
p264
S'/net/chevy/raid1/pdb_mirror/pdb/w5/pdb2w55.ent.gz'
p265
sS'pdb2w54'
p266
S'/net/chevy/raid1/pdb_mirror/pdb/w5/pdb2w54.ent.gz'
p267
sS'pdb4r1r'
p268
S'/net/chevy/raid1/pdb_mirror/pdb/r1/pdb4r1r.ent.gz'
p269
sS'pdb3ux4'
p270
S'/net/chevy/raid1/pdb_mirror/pdb/ux/pdb3ux4.ent.gz'
p271
sS'pdb1bre'
p272
S'/net/chevy/raid1/pdb_mirror/pdb/br/pdb1bre.ent.gz'
p273
sS'pdb3zrt'
p274
S'/net/chevy/raid1/pdb_mirror/pdb/zr/pdb3zrt.ent.gz'
p275
sS'pdb4arx'
p276
S'/net/chevy/raid1/pdb_mirror/pdb/ar/pdb4arx.ent.gz'
p277
sS'pdb4ary'
p278
S'/net/chevy/raid1/pdb_mirror/pdb/ar/pdb4ary.ent.gz'
p279
sS'pdb2jk8'
p280
S'/net/chevy/raid1/pdb_mirror/pdb/jk/pdb2jk8.ent.gz'
p281
sS'pdb4arw'
p282
S'/net/chevy/raid1/pdb_mirror/pdb/ar/pdb4arw.ent.gz'
p283
sS'pdb2yn6'
p284
S'/net/chevy/raid1/pdb_mirror/pdb/yn/pdb2yn6.ent.gz'
p285
sS'pdb1a0t'
p286
S'/net/chevy/raid1/pdb_mirror/pdb/a0/pdb1a0t.ent.gz'
p287
sS'pdb1a0s'
p288
S'/net/chevy/raid1/pdb_mirror/pdb/a0/pdb1a0s.ent.gz'
p289
sS'pdb2byj'
p290
S'/net/chevy/raid1/pdb_mirror/pdb/by/pdb2byj.ent.gz'
p291
sS'pdb2byk'
p292
S'/net/chevy/raid1/pdb_mirror/pdb/by/pdb2byk.ent.gz'
p293
sS'pdb2byl'
p294
S'/net/chevy/raid1/pdb_mirror/pdb/by/pdb2byl.ent.gz'
p295
sS'pdb2bym'
p296
S'/net/chevy/raid1/pdb_mirror/pdb/by/pdb2bym.ent.gz'
p297
sS'pdb2byr'
p298
S'/net/chevy/raid1/pdb_mirror/pdb/by/pdb2byr.ent.gz'
p299
sS'pdb2bys'
p300
S'/net/chevy/raid1/pdb_mirror/pdb/by/pdb2bys.ent.gz'
p301
sS'pdb1a0d'
p302
S'/net/chevy/raid1/pdb_mirror/pdb/a0/pdb1a0d.ent.gz'
p303
sS'pdb4ejf'
p304
S'/net/chevy/raid1/pdb_mirror/pdb/ej/pdb4ejf.ent.gz'
p305
sS'pdb1a0o'
p306
S'/net/chevy/raid1/pdb_mirror/pdb/a0/pdb1a0o.ent.gz'
p307
sS'pdb1a0l'
p308
S'/net/chevy/raid1/pdb_mirror/pdb/a0/pdb1a0l.ent.gz'
p309
sS'pdb3bcc'
p310
S'/net/chevy/raid1/pdb_mirror/pdb/bc/pdb3bcc.ent.gz'
p311
sS'pdb1a0j'
p312
S'/net/chevy/raid1/pdb_mirror/pdb/a0/pdb1a0j.ent.gz'
p313
sS'pdb1qr4'
p314
S'/net/chevy/raid1/pdb_mirror/pdb/qr/pdb1qr4.ent.gz'
p315
sS'pdb3zr4'
p316
S'/net/chevy/raid1/pdb_mirror/pdb/zr/pdb3zr4.ent.gz'
p317
sS'pdb1fba'
p318
S'/net/chevy/raid1/pdb_mirror/pdb/fb/pdb1fba.ent.gz'
p319
sS'pdb1h39'
p320
S'/net/chevy/raid1/pdb_mirror/pdb/h3/pdb1h39.ent.gz'
p321
sS'pdb2jkz'
p322
S'/net/chevy/raid1/pdb_mirror/pdb/jk/pdb2jkz.ent.gz'
p323
sS'pdb4ar2'
p324
S'/net/chevy/raid1/pdb_mirror/pdb/ar/pdb4ar2.ent.gz'
p325
sS'pdb2jki'
p326
S'/net/chevy/raid1/pdb_mirror/pdb/jk/pdb2jki.ent.gz'
p327
sS'pdb2jkj'
p328
S'/net/chevy/raid1/pdb_mirror/pdb/jk/pdb2jkj.ent.gz'
p329
sS'pdb2jkl'
p330
S'/net/chevy/raid1/pdb_mirror/pdb/jk/pdb2jkl.ent.gz'
p331
sS'pdb2jkn'
p332
S'/net/chevy/raid1/pdb_mirror/pdb/jk/pdb2jkn.ent.gz'
p333
sS'pdb1o7k'
p334
S'/net/chevy/raid1/pdb_mirror/pdb/o7/pdb1o7k.ent.gz'
p335
sS'pdb1hjr'
p336
S'/net/chevy/raid1/pdb_mirror/pdb/hj/pdb1hjr.ent.gz'
p337
sS'pdb1lp3'
p338
S'/net/chevy/raid1/pdb_mirror/pdb/lp/pdb1lp3.ent.gz'
p339
sS'pdb4b2y'
p340
S'/net/chevy/raid1/pdb_mirror/pdb/b2/pdb4b2y.ent.gz'
p341
sS'pdb4b2x'
p342
S'/net/chevy/raid1/pdb_mirror/pdb/b2/pdb4b2x.ent.gz'
p343
sS'pdb2vq0'
p344
S'/net/chevy/raid1/pdb_mirror/pdb/vq/pdb2vq0.ent.gz'
p345
sS'pdb3kie'
p346
S'/net/chevy/raid1/pdb_mirror/pdb/ki/pdb3kie.ent.gz'
p347
sS'pdb4b2w'
p348
S'/net/chevy/raid1/pdb_mirror/pdb/b2/pdb4b2w.ent.gz'
p349
sS'pdb3uun'
p350
S'/net/chevy/raid1/pdb_mirror/pdb/uu/pdb3uun.ent.gz'
p351
sS'pdb1ndr'
p352
S'/net/chevy/raid1/pdb_mirror/pdb/nd/pdb1ndr.ent.gz'
p353
sS'pdb4b2o'
p354
S'/net/chevy/raid1/pdb_mirror/pdb/b2/pdb4b2o.ent.gz'
p355
sS'pdb3uum'
p356
S'/net/chevy/raid1/pdb_mirror/pdb/uu/pdb3uum.ent.gz'
p357
sS'pdb4b2a'
p358
S'/net/chevy/raid1/pdb_mirror/pdb/b2/pdb4b2a.ent.gz'
p359
sS'pdb1nds'
p360
S'/net/chevy/raid1/pdb_mirror/pdb/nd/pdb1nds.ent.gz'
p361
sS'pdb1bnl'
p362
S'/net/chevy/raid1/pdb_mirror/pdb/bn/pdb1bnl.ent.gz'
p363
sS'pdb4g3d'
p364
S'/net/chevy/raid1/pdb_mirror/pdb/g3/pdb4g3d.ent.gz'
p365
sS'pdb1qfl'
p366
S'/net/chevy/raid1/pdb_mirror/pdb/qf/pdb1qfl.ent.gz'
p367
sS'pdb1qfo'
p368
S'/net/chevy/raid1/pdb_mirror/pdb/qf/pdb1qfo.ent.gz'
p369
sS'pdb1qfh'
p370
S'/net/chevy/raid1/pdb_mirror/pdb/qf/pdb1qfh.ent.gz'
p371
sS'pdb4adf'
p372
S'/net/chevy/raid1/pdb_mirror/pdb/ad/pdb4adf.ent.gz'
p373
sS'pdb1qfj'
p374
S'/net/chevy/raid1/pdb_mirror/pdb/qf/pdb1qfj.ent.gz'
p375
sS'pdb1ova'
p376
S'/net/chevy/raid1/pdb_mirror/pdb/ov/pdb1ova.ent.gz'
p377
sS'pdb4adq'
p378
S'/net/chevy/raid1/pdb_mirror/pdb/ad/pdb4adq.ent.gz'
p379
sS'pdb1ovo'
p380
S'/net/chevy/raid1/pdb_mirror/pdb/ov/pdb1ovo.ent.gz'
p381
sS'pdb1z7s'
p382
S'/net/chevy/raid1/pdb_mirror/pdb/z7/pdb1z7s.ent.gz'
p383
sS'pdb2vqz'
p384
S'/net/chevy/raid1/pdb_mirror/pdb/vq/pdb2vqz.ent.gz'
p385
sS'pdb4baa'
p386
S'/net/chevy/raid1/pdb_mirror/pdb/ba/pdb4baa.ent.gz'
p387
sS'pdb2r1r'
p388
S'/net/chevy/raid1/pdb_mirror/pdb/r1/pdb2r1r.ent.gz'
p389
sS'pdb2ztn'
p390
S'/net/chevy/raid1/pdb_mirror/pdb/zt/pdb2ztn.ent.gz'
p391
sS'pdb1uvz'
p392
S'/net/chevy/raid1/pdb_mirror/pdb/uv/pdb1uvz.ent.gz'
p393
sS'pdb2bgw'
p394
S'/net/chevy/raid1/pdb_mirror/pdb/bg/pdb2bgw.ent.gz'
p395
sS'pdb1uvi'
p396
S'/net/chevy/raid1/pdb_mirror/pdb/uv/pdb1uvi.ent.gz'
p397
sS'pdb1uvh'
p398
S'/net/chevy/raid1/pdb_mirror/pdb/uv/pdb1uvh.ent.gz'
p399
sS'pdb2bgn'
p400
S'/net/chevy/raid1/pdb_mirror/pdb/bg/pdb2bgn.ent.gz'
p401
sS'pdb1uvj'
p402
S'/net/chevy/raid1/pdb_mirror/pdb/uv/pdb1uvj.ent.gz'
p403
sS'pdb1uvm'
p404
S'/net/chevy/raid1/pdb_mirror/pdb/uv/pdb1uvm.ent.gz'
p405
sS'pdb1uvl'
p406
S'/net/chevy/raid1/pdb_mirror/pdb/uv/pdb1uvl.ent.gz'
p407
sS'pdb2bgj'
p408
S'/net/chevy/raid1/pdb_mirror/pdb/bg/pdb2bgj.ent.gz'
p409
sS'pdb2yip'
p410
S'/net/chevy/raid1/pdb_mirror/pdb/yi/pdb2yip.ent.gz'
p411
sS'pdb1gtu'
p412
S'/net/chevy/raid1/pdb_mirror/pdb/gt/pdb1gtu.ent.gz'
p413
sS'pdb3min'
p414
S'/net/chevy/raid1/pdb_mirror/pdb/mi/pdb3min.ent.gz'
p415
sS'pdb2taa'
p416
S'/net/chevy/raid1/pdb_mirror/pdb/ta/pdb2taa.ent.gz'
p417
sS'pdb2y6r'
p418
S'/net/chevy/raid1/pdb_mirror/pdb/y6/pdb2y6r.ent.gz'
p419
sS'pdb2y6s'
p420
S'/net/chevy/raid1/pdb_mirror/pdb/y6/pdb2y6s.ent.gz'
p421
sS'pdb2y6v'
p422
S'/net/chevy/raid1/pdb_mirror/pdb/y6/pdb2y6v.ent.gz'
p423
sS'pdb1gtz'
p424
S'/net/chevy/raid1/pdb_mirror/pdb/gt/pdb1gtz.ent.gz'
p425
sS'pdb1gte'
p426
S'/net/chevy/raid1/pdb_mirror/pdb/gt/pdb1gte.ent.gz'
p427
sS'pdb3n5m'
p428
S'/net/chevy/raid1/pdb_mirror/pdb/n5/pdb3n5m.ent.gz'
p429
sS'pdb2y6n'
p430
S'/net/chevy/raid1/pdb_mirror/pdb/y6/pdb2y6n.ent.gz'
p431
sS'pdb1gtm'
p432
S'/net/chevy/raid1/pdb_mirror/pdb/gt/pdb1gtm.ent.gz'
p433
sS'pdb2qij'
p434
S'/net/chevy/raid1/pdb_mirror/pdb/qi/pdb2qij.ent.gz'
p435
sS'pdb1gti'
p436
S'/net/chevy/raid1/pdb_mirror/pdb/gt/pdb1gti.ent.gz'
p437
sS'pdb1gth'
p438
S'/net/chevy/raid1/pdb_mirror/pdb/gt/pdb1gth.ent.gz'
p439
sS'pdb43ca'
p440
S'/net/chevy/raid1/pdb_mirror/pdb/3c/pdb43ca.ent.gz'
p441
sS'pdb4bfx'
p442
S'/net/chevy/raid1/pdb_mirror/pdb/bf/pdb4bfx.ent.gz'
p443
sS'pdb3n58'
p444
S'/net/chevy/raid1/pdb_mirror/pdb/n5/pdb3n58.ent.gz'
p445
sS'pdb1mpy'
p446
S'/net/chevy/raid1/pdb_mirror/pdb/mp/pdb1mpy.ent.gz'
p447
sS'pdb43c9'
p448
S'/net/chevy/raid1/pdb_mirror/pdb/3c/pdb43c9.ent.gz'
p449
sS'pdb1mpr'
p450
S'/net/chevy/raid1/pdb_mirror/pdb/mp/pdb1mpr.ent.gz'
p451
sS'pdb1mpq'
p452
S'/net/chevy/raid1/pdb_mirror/pdb/mp/pdb1mpq.ent.gz'
p453
sS'pdb1gt8'
p454
S'/net/chevy/raid1/pdb_mirror/pdb/gt/pdb1gt8.ent.gz'
p455
sS'pdb2xz1'
p456
S'/net/chevy/raid1/pdb_mirror/pdb/xz/pdb2xz1.ent.gz'
p457
sS'pdb1mpo'
p458
S'/net/chevy/raid1/pdb_mirror/pdb/mp/pdb1mpo.ent.gz'
p459
sS'pdb1mpn'
p460
S'/net/chevy/raid1/pdb_mirror/pdb/mp/pdb1mpn.ent.gz'
p461
sS'pdb1mpm'
p462
S'/net/chevy/raid1/pdb_mirror/pdb/mp/pdb1mpm.ent.gz'
p463
sS'pdb4bgg'
p464
S'/net/chevy/raid1/pdb_mirror/pdb/bg/pdb4bgg.ent.gz'
p465
sS'pdb1ods'
p466
S'/net/chevy/raid1/pdb_mirror/pdb/od/pdb1ods.ent.gz'
p467
sS'pdb1stm'
p468
S'/net/chevy/raid1/pdb_mirror/pdb/st/pdb1stm.ent.gz'
p469
sS'pdb2xdc'
p470
S'/net/chevy/raid1/pdb_mirror/pdb/xd/pdb2xdc.ent.gz'
p471
sS'pdb2vgr'
p472
S'/net/chevy/raid1/pdb_mirror/pdb/vg/pdb2vgr.ent.gz'
p473
sS'pdb2euh'
p474
S'/net/chevy/raid1/pdb_mirror/pdb/eu/pdb2euh.ent.gz'
p475
sS'pdb2kmb'
p476
S'/net/chevy/raid1/pdb_mirror/pdb/km/pdb2kmb.ent.gz'
p477
sS'pdb2w48'
p478
S'/net/chevy/raid1/pdb_mirror/pdb/w4/pdb2w48.ent.gz'
p479
sS'pdb2x17'
p480
S'/net/chevy/raid1/pdb_mirror/pdb/x1/pdb2x17.ent.gz'
p481
sS'pdb1b4u'
p482
S'/net/chevy/raid1/pdb_mirror/pdb/b4/pdb1b4u.ent.gz'
p483
sS'pdb1b4w'
p484
S'/net/chevy/raid1/pdb_mirror/pdb/b4/pdb1b4w.ent.gz'
p485
sS'pdb1ax4'
p486
S'/net/chevy/raid1/pdb_mirror/pdb/ax/pdb1ax4.ent.gz'
p487
sS'pdb2wiw'
p488
S'/net/chevy/raid1/pdb_mirror/pdb/wi/pdb2wiw.ent.gz'
p489
sS'pdb1b4n'
p490
S'/net/chevy/raid1/pdb_mirror/pdb/b4/pdb1b4n.ent.gz'
p491
sS'pdb4bi5'
p492
S'/net/chevy/raid1/pdb_mirror/pdb/bi/pdb4bi5.ent.gz'
p493
sS'pdb4fsj'
p494
S'/net/chevy/raid1/pdb_mirror/pdb/fs/pdb4fsj.ent.gz'
p495
sS'pdb1h0m'
p496
S'/net/chevy/raid1/pdb_mirror/pdb/h0/pdb1h0m.ent.gz'
p497
sS'pdb4bi9'
p498
S'/net/chevy/raid1/pdb_mirror/pdb/bi/pdb4bi9.ent.gz'
p499
sS'pdb1oj7'
p500
S'/net/chevy/raid1/pdb_mirror/pdb/oj/pdb1oj7.ent.gz'
p501
sS'pdb3zv0'
p502
S'/net/chevy/raid1/pdb_mirror/pdb/zv/pdb3zv0.ent.gz'
p503
sS'pdb1axm'
p504
S'/net/chevy/raid1/pdb_mirror/pdb/ax/pdb1axm.ent.gz'
p505
sS'pdb3lhb'
p506
S'/net/chevy/raid1/pdb_mirror/pdb/lh/pdb3lhb.ent.gz'
p507
sS'pdb1b47'
p508
S'/net/chevy/raid1/pdb_mirror/pdb/b4/pdb1b47.ent.gz'
p509
sS'pdb1axg'
p510
S'/net/chevy/raid1/pdb_mirror/pdb/ax/pdb1axg.ent.gz'
p511
sS'pdb3uic'
p512
S'/net/chevy/raid1/pdb_mirror/pdb/ui/pdb3uic.ent.gz'
p513
sS'pdb2vfg'
p514
S'/net/chevy/raid1/pdb_mirror/pdb/vf/pdb2vfg.ent.gz'
p515
sS'pdb1axs'
p516
S'/net/chevy/raid1/pdb_mirror/pdb/ax/pdb1axs.ent.gz'
p517
sS'pdb1cb5'
p518
S'/net/chevy/raid1/pdb_mirror/pdb/cb/pdb1cb5.ent.gz'
p519
sS'pdb4j4y'
p520
S'/net/chevy/raid1/pdb_mirror/pdb/j4/pdb4j4y.ent.gz'
p521
sS'pdb4j4x'
p522
S'/net/chevy/raid1/pdb_mirror/pdb/j4/pdb4j4x.ent.gz'
p523
sS'pdb1swb'
p524
S'/net/chevy/raid1/pdb_mirror/pdb/sw/pdb1swb.ent.gz'
p525
sS'pdb1ojl'
p526
S'/net/chevy/raid1/pdb_mirror/pdb/oj/pdb1ojl.ent.gz'
p527
sS'pdb3anz'
p528
S'/net/chevy/raid1/pdb_mirror/pdb/an/pdb3anz.ent.gz'
p529
sS'pdb1swl'
p530
S'/net/chevy/raid1/pdb_mirror/pdb/sw/pdb1swl.ent.gz'
p531
sS'pdb4j4h'
p532
S'/net/chevy/raid1/pdb_mirror/pdb/j4/pdb4j4h.ent.gz'
p533
sS'pdb4bia'
p534
S'/net/chevy/raid1/pdb_mirror/pdb/bi/pdb4bia.ent.gz'
p535
sS'pdb4j4b'
p536
S'/net/chevy/raid1/pdb_mirror/pdb/j4/pdb4j4b.ent.gz'
p537
sS'pdb1ojy'
p538
S'/net/chevy/raid1/pdb_mirror/pdb/oj/pdb1ojy.ent.gz'
p539
sS'pdb1ojx'
p540
S'/net/chevy/raid1/pdb_mirror/pdb/oj/pdb1ojx.ent.gz'
p541
sS'pdb2ymm'
p542
S'/net/chevy/raid1/pdb_mirror/pdb/ym/pdb2ymm.ent.gz'
p543
sS'pdb1wce'
p544
S'/net/chevy/raid1/pdb_mirror/pdb/wc/pdb1wce.ent.gz'
p545
sS'pdb1fmd'
p546
S'/net/chevy/raid1/pdb_mirror/pdb/fm/pdb1fmd.ent.gz'
p547
sS'pdb2ldb'
p548
S'/net/chevy/raid1/pdb_mirror/pdb/ld/pdb2ldb.ent.gz'
p549
sS'pdb2scu'
p550
S'/net/chevy/raid1/pdb_mirror/pdb/sc/pdb2scu.ent.gz'
p551
sS'pdb2ldx'
p552
S'/net/chevy/raid1/pdb_mirror/pdb/ld/pdb2ldx.ent.gz'
p553
sS'pdb3hn8'
p554
S'/net/chevy/raid1/pdb_mirror/pdb/hn/pdb3hn8.ent.gz'
p555
sS'pdb1w7w'
p556
S'/net/chevy/raid1/pdb_mirror/pdb/w7/pdb1w7w.ent.gz'
p557
sS'pdb2c63'
p558
S'/net/chevy/raid1/pdb_mirror/pdb/c6/pdb2c63.ent.gz'
p559
sS'pdb4fm5'
p560
S'/net/chevy/raid1/pdb_mirror/pdb/fm/pdb4fm5.ent.gz'
p561
sS'pdb1hia'
p562
S'/net/chevy/raid1/pdb_mirror/pdb/hi/pdb1hia.ent.gz'
p563
sS'pdb1hig'
p564
S'/net/chevy/raid1/pdb_mirror/pdb/hi/pdb1hig.ent.gz'
p565
sS'pdb2wg3'
p566
S'/net/chevy/raid1/pdb_mirror/pdb/wg/pdb2wg3.ent.gz'
p567
sS'pdb3k4g'
p568
S'/net/chevy/raid1/pdb_mirror/pdb/k4/pdb3k4g.ent.gz'
p569
sS'pdb2ym9'
p570
S'/net/chevy/raid1/pdb_mirror/pdb/ym/pdb2ym9.ent.gz'
p571
sS'pdb2w4y'
p572
S'/net/chevy/raid1/pdb_mirror/pdb/w4/pdb2w4y.ent.gz'
p573
sS'pdb2w4z'
p574
S'/net/chevy/raid1/pdb_mirror/pdb/w4/pdb2w4z.ent.gz'
p575
sS'pdb1hi1'
p576
S'/net/chevy/raid1/pdb_mirror/pdb/hi/pdb1hi1.ent.gz'
p577
sS'pdb1hi0'
p578
S'/net/chevy/raid1/pdb_mirror/pdb/hi/pdb1hi0.ent.gz'
p579
sS'pdb1hi9'
p580
S'/net/chevy/raid1/pdb_mirror/pdb/hi/pdb1hi9.ent.gz'
p581
sS'pdb2c6x'
p582
S'/net/chevy/raid1/pdb_mirror/pdb/c6/pdb2c6x.ent.gz'
p583
sS'pdb1qh8'
p584
S'/net/chevy/raid1/pdb_mirror/pdb/qh/pdb1qh8.ent.gz'
p585
sS'pdb3v3n'
p586
S'/net/chevy/raid1/pdb_mirror/pdb/v3/pdb3v3n.ent.gz'
p587
sS'pdb2pel'
p588
S'/net/chevy/raid1/pdb_mirror/pdb/pe/pdb2pel.ent.gz'
p589
sS'pdb1piv'
p590
S'/net/chevy/raid1/pdb_mirror/pdb/pi/pdb1piv.ent.gz'
p591
sS'pdb2vvq'
p592
S'/net/chevy/raid1/pdb_mirror/pdb/vv/pdb2vvq.ent.gz'
p593
sS'pdb2vvp'
p594
S'/net/chevy/raid1/pdb_mirror/pdb/vv/pdb2vvp.ent.gz'
p595
sS'pdb3zq4'
p596
S'/net/chevy/raid1/pdb_mirror/pdb/zq/pdb3zq4.ent.gz'
p597
sS'pdb1uwa'
p598
S'/net/chevy/raid1/pdb_mirror/pdb/uw/pdb1uwa.ent.gz'
p599
sS'pdb2v7g'
p600
S'/net/chevy/raid1/pdb_mirror/pdb/v7/pdb2v7g.ent.gz'
p601
sS'pdb4au5'
p602
S'/net/chevy/raid1/pdb_mirror/pdb/au/pdb4au5.ent.gz'
p603
sS'pdb1uwi'
p604
S'/net/chevy/raid1/pdb_mirror/pdb/uw/pdb1uwi.ent.gz'
p605
sS'pdb2vvf'
p606
S'/net/chevy/raid1/pdb_mirror/pdb/vv/pdb2vvf.ent.gz'
p607
sS'pdb2vvo'
p608
S'/net/chevy/raid1/pdb_mirror/pdb/vv/pdb2vvo.ent.gz'
p609
sS'pdb1z6o'
p610
S'/net/chevy/raid1/pdb_mirror/pdb/z6/pdb1z6o.ent.gz'
p611
sS'pdb1jqi'
p612
S'/net/chevy/raid1/pdb_mirror/pdb/jq/pdb1jqi.ent.gz'
p613
sS'pdb1a12'
p614
S'/net/chevy/raid1/pdb_mirror/pdb/a1/pdb1a12.ent.gz'
p615
sS'pdb1lmk'
p616
S'/net/chevy/raid1/pdb_mirror/pdb/lm/pdb1lmk.ent.gz'
p617
sS'pdb2jfd'
p618
S'/net/chevy/raid1/pdb_mirror/pdb/jf/pdb2jfd.ent.gz'
p619
sS'pdb2jfa'
p620
S'/net/chevy/raid1/pdb_mirror/pdb/jf/pdb2jfa.ent.gz'
p621
sS'pdb2jfk'
p622
S'/net/chevy/raid1/pdb_mirror/pdb/jf/pdb2jfk.ent.gz'
p623
sS'pdb4auv'
p624
S'/net/chevy/raid1/pdb_mirror/pdb/au/pdb4auv.ent.gz'
p625
sS'pdb1uw6'
p626
S'/net/chevy/raid1/pdb_mirror/pdb/uw/pdb1uw6.ent.gz'
p627
sS'pdb1uw4'
p628
S'/net/chevy/raid1/pdb_mirror/pdb/uw/pdb1uw4.ent.gz'
p629
sS'pdb1uw5'
p630
S'/net/chevy/raid1/pdb_mirror/pdb/uw/pdb1uw5.ent.gz'
p631
sS'pdb4aun'
p632
S'/net/chevy/raid1/pdb_mirror/pdb/au/pdb4aun.ent.gz'
p633
sS'pdb4aum'
p634
S'/net/chevy/raid1/pdb_mirror/pdb/au/pdb4aum.ent.gz'
p635
sS'pdb4aul'
p636
S'/net/chevy/raid1/pdb_mirror/pdb/au/pdb4aul.ent.gz'
p637
sS'pdb4iss'
p638
S'/net/chevy/raid1/pdb_mirror/pdb/is/pdb4iss.ent.gz'
p639
sS'pdb4ist'
p640
S'/net/chevy/raid1/pdb_mirror/pdb/is/pdb4ist.ent.gz'
p641
sS'pdb4aue'
p642
S'/net/chevy/raid1/pdb_mirror/pdb/au/pdb4aue.ent.gz'
p643
sS'pdb3ejh'
p644
S'/net/chevy/raid1/pdb_mirror/pdb/ej/pdb3ejh.ent.gz'
p645
sS'pdb1a1q'
p646
S'/net/chevy/raid1/pdb_mirror/pdb/a1/pdb1a1q.ent.gz'
p647
sS'pdb2bvh'
p648
S'/net/chevy/raid1/pdb_mirror/pdb/bv/pdb2bvh.ent.gz'
p649
sS'pdb4e08'
p650
S'/net/chevy/raid1/pdb_mirror/pdb/e0/pdb4e08.ent.gz'
p651
sS'pdb2jf9'
p652
S'/net/chevy/raid1/pdb_mirror/pdb/jf/pdb2jf9.ent.gz'
p653
sS'pdb2yc4'
p654
S'/net/chevy/raid1/pdb_mirror/pdb/yc/pdb2yc4.ent.gz'
p655
sS'pdb2yc2'
p656
S'/net/chevy/raid1/pdb_mirror/pdb/yc/pdb2yc2.ent.gz'
p657
sS'pdb2yc1'
p658
S'/net/chevy/raid1/pdb_mirror/pdb/yc/pdb2yc1.ent.gz'
p659
sS'pdb1sid'
p660
S'/net/chevy/raid1/pdb_mirror/pdb/si/pdb1sid.ent.gz'
p661
sS'pdb1sie'
p662
S'/net/chevy/raid1/pdb_mirror/pdb/si/pdb1sie.ent.gz'
p663
sS'pdb2xkb'
p664
S'/net/chevy/raid1/pdb_mirror/pdb/xk/pdb2xkb.ent.gz'
p665
sS'pdb2xka'
p666
S'/net/chevy/raid1/pdb_mirror/pdb/xk/pdb2xka.ent.gz'
p667
sS'pdb1oeb'
p668
S'/net/chevy/raid1/pdb_mirror/pdb/oe/pdb1oeb.ent.gz'
p669
sS'pdb2xko'
p670
S'/net/chevy/raid1/pdb_mirror/pdb/xk/pdb2xko.ent.gz'
p671
sS'pdb4g22'
p672
S'/net/chevy/raid1/pdb_mirror/pdb/g2/pdb4g22.ent.gz'
p673
sS'pdb4f5x'
p674
S'/net/chevy/raid1/pdb_mirror/pdb/f5/pdb4f5x.ent.gz'
p675
sS'pdb1oez'
p676
S'/net/chevy/raid1/pdb_mirror/pdb/oe/pdb1oez.ent.gz'
p677
sS'pdb1oey'
p678
S'/net/chevy/raid1/pdb_mirror/pdb/oe/pdb1oey.ent.gz'
p679
sS'pdb2xkp'
p680
S'/net/chevy/raid1/pdb_mirror/pdb/xk/pdb2xkp.ent.gz'
p681
sS'pdb1yve'
p682
S'/net/chevy/raid1/pdb_mirror/pdb/yv/pdb1yve.ent.gz'
p683
sS'pdb2vrk'
p684
S'/net/chevy/raid1/pdb_mirror/pdb/vr/pdb2vrk.ent.gz'
p685
sS'pdb2xky'
p686
S'/net/chevy/raid1/pdb_mirror/pdb/xk/pdb2xky.ent.gz'
p687
sS'pdb2vdi'
p688
S'/net/chevy/raid1/pdb_mirror/pdb/vd/pdb2vdi.ent.gz'
p689
sS'pdb2vdh'
p690
S'/net/chevy/raid1/pdb_mirror/pdb/vd/pdb2vdh.ent.gz'
p691
sS'pdb4ag3'
p692
S'/net/chevy/raid1/pdb_mirror/pdb/ag/pdb4ag3.ent.gz'
p693
sS'pdb4kq6'
p694
S'/net/chevy/raid1/pdb_mirror/pdb/kq/pdb4kq6.ent.gz'
p695
sS'pdb1jch'
p696
S'/net/chevy/raid1/pdb_mirror/pdb/jc/pdb1jch.ent.gz'
p697
sS'pdb4b3l'
p698
S'/net/chevy/raid1/pdb_mirror/pdb/b3/pdb4b3l.ent.gz'
p699
sS'pdb4b3k'
p700
S'/net/chevy/raid1/pdb_mirror/pdb/b3/pdb4b3k.ent.gz'
p701
sS'pdb1ggi'
p702
S'/net/chevy/raid1/pdb_mirror/pdb/gg/pdb1ggi.ent.gz'
p703
sS'pdb4b3u'
p704
S'/net/chevy/raid1/pdb_mirror/pdb/b3/pdb4b3u.ent.gz'
p705
sS'pdb2xuq'
p706
S'/net/chevy/raid1/pdb_mirror/pdb/xu/pdb2xuq.ent.gz'
p707
sS'pdb2mpr'
p708
S'/net/chevy/raid1/pdb_mirror/pdb/mp/pdb2mpr.ent.gz'
p709
sS'pdb2vdw'
p710
S'/net/chevy/raid1/pdb_mirror/pdb/vd/pdb2vdw.ent.gz'
p711
sS'pdb4b3z'
p712
S'/net/chevy/raid1/pdb_mirror/pdb/b3/pdb4b3z.ent.gz'
p713
sS'pdb2c9i'
p714
S'/net/chevy/raid1/pdb_mirror/pdb/c9/pdb2c9i.ent.gz'
p715
sS'pdb1kpl'
p716
S'/net/chevy/raid1/pdb_mirror/pdb/kp/pdb1kpl.ent.gz'
p717
sS'pdb1baw'
p718
S'/net/chevy/raid1/pdb_mirror/pdb/ba/pdb1baw.ent.gz'
p719
sS'pdb3qr3'
p720
S'/net/chevy/raid1/pdb_mirror/pdb/qr/pdb3qr3.ent.gz'
p721
sS'pdb1oe0'
p722
S'/net/chevy/raid1/pdb_mirror/pdb/oe/pdb1oe0.ent.gz'
p723
sS'pdb2clp'
p724
S'/net/chevy/raid1/pdb_mirror/pdb/cl/pdb2clp.ent.gz'
p725
sS'pdb2clr'
p726
S'/net/chevy/raid1/pdb_mirror/pdb/cl/pdb2clr.ent.gz'
p727
sS'pdb2xyo'
p728
S'/net/chevy/raid1/pdb_mirror/pdb/xy/pdb2xyo.ent.gz'
p729
sS'pdb2vyx'
p730
S'/net/chevy/raid1/pdb_mirror/pdb/vy/pdb2vyx.ent.gz'
p731
sS'pdb4ags'
p732
S'/net/chevy/raid1/pdb_mirror/pdb/ag/pdb4ags.ent.gz'
p733
sS'pdb2clw'
p734
S'/net/chevy/raid1/pdb_mirror/pdb/cl/pdb2clw.ent.gz'
p735
sS'pdb1qgh'
p736
S'/net/chevy/raid1/pdb_mirror/pdb/qg/pdb1qgh.ent.gz'
p737
sS'pdb4agy'
p738
S'/net/chevy/raid1/pdb_mirror/pdb/ag/pdb4agy.ent.gz'
p739
sS'pdb4agx'
p740
S'/net/chevy/raid1/pdb_mirror/pdb/ag/pdb4agx.ent.gz'
p741
sS'pdb4iem'
p742
S'/net/chevy/raid1/pdb_mirror/pdb/ie/pdb4iem.ent.gz'
p743
sS'pdb2clb'
p744
S'/net/chevy/raid1/pdb_mirror/pdb/cl/pdb2clb.ent.gz'
p745
sS'pdb2xuk'
p746
S'/net/chevy/raid1/pdb_mirror/pdb/xu/pdb2xuk.ent.gz'
p747
sS'pdb1qgw'
p748
S'/net/chevy/raid1/pdb_mirror/pdb/qg/pdb1qgw.ent.gz'
p749
sS'pdb1qgt'
p750
S'/net/chevy/raid1/pdb_mirror/pdb/qg/pdb1qgt.ent.gz'
p751
sS'pdb4b31'
p752
S'/net/chevy/raid1/pdb_mirror/pdb/b3/pdb4b31.ent.gz'
p753
sS'pdb2vd6'
p754
S'/net/chevy/raid1/pdb_mirror/pdb/vd/pdb2vd6.ent.gz'
p755
sS'pdb1gu0'
p756
S'/net/chevy/raid1/pdb_mirror/pdb/gu/pdb1gu0.ent.gz'
p757
sS'pdb1gu1'
p758
S'/net/chevy/raid1/pdb_mirror/pdb/gu/pdb1gu1.ent.gz'
p759
sS'pdb1gu6'
p760
S'/net/chevy/raid1/pdb_mirror/pdb/gu/pdb1gu6.ent.gz'
p761
sS'pdb3unb'
p762
S'/net/chevy/raid1/pdb_mirror/pdb/un/pdb3unb.ent.gz'
p763
sS'pdb2xuo'
p764
S'/net/chevy/raid1/pdb_mirror/pdb/xu/pdb2xuo.ent.gz'
p765
sS'pdb3unf'
p766
S'/net/chevy/raid1/pdb_mirror/pdb/un/pdb3unf.ent.gz'
p767
sS'pdb3une'
p768
S'/net/chevy/raid1/pdb_mirror/pdb/un/pdb3une.ent.gz'
p769
sS'pdb2x2h'
p770
S'/net/chevy/raid1/pdb_mirror/pdb/x2/pdb2x2h.ent.gz'
p771
sS'pdb2x2j'
p772
S'/net/chevy/raid1/pdb_mirror/pdb/x2/pdb2x2j.ent.gz'
p773
sS'pdb1ayr'
p774
S'/net/chevy/raid1/pdb_mirror/pdb/ay/pdb1ayr.ent.gz'
p775
sS'pdb2x2n'
p776
S'/net/chevy/raid1/pdb_mirror/pdb/x2/pdb2x2n.ent.gz'
p777
sS'pdb3ux1'
p778
S'/net/chevy/raid1/pdb_mirror/pdb/ux/pdb3ux1.ent.gz'
p779
sS'pdb2cpg'
p780
S'/net/chevy/raid1/pdb_mirror/pdb/cp/pdb2cpg.ent.gz'
p781
sS'pdb4bju'
p782
S'/net/chevy/raid1/pdb_mirror/pdb/bj/pdb4bju.ent.gz'
p783
sS'pdb1e7p'
p784
S'/net/chevy/raid1/pdb_mirror/pdb/e7/pdb1e7p.ent.gz'
p785
sS'pdb2y5m'
p786
S'/net/chevy/raid1/pdb_mirror/pdb/y5/pdb2y5m.ent.gz'
p787
sS'pdb2xud'
p788
S'/net/chevy/raid1/pdb_mirror/pdb/xu/pdb2xud.ent.gz'
p789
sS'pdb2xuf'
p790
S'/net/chevy/raid1/pdb_mirror/pdb/xu/pdb2xuf.ent.gz'
p791
sS'pdb1eav'
p792
S'/net/chevy/raid1/pdb_mirror/pdb/ea/pdb1eav.ent.gz'
p793
sS'pdb1tbg'
p794
S'/net/chevy/raid1/pdb_mirror/pdb/tb/pdb1tbg.ent.gz'
p795
sS'pdb2vf7'
p796
S'/net/chevy/raid1/pdb_mirror/pdb/vf/pdb2vf7.ent.gz'
p797
sS'pdb1cud'
p798
S'/net/chevy/raid1/pdb_mirror/pdb/cu/pdb1cud.ent.gz'
p799
sS'pdb2xug'
p800
S'/net/chevy/raid1/pdb_mirror/pdb/xu/pdb2xug.ent.gz'
p801
sS'pdb2y5z'
p802
S'/net/chevy/raid1/pdb_mirror/pdb/y5/pdb2y5z.ent.gz'
p803
sS'pdb1gus'
p804
S'/net/chevy/raid1/pdb_mirror/pdb/gu/pdb1gus.ent.gz'
p805
sS'pdb2x23'
p806
S'/net/chevy/raid1/pdb_mirror/pdb/x2/pdb2x23.ent.gz'
p807
sS'pdb2tbv'
p808
S'/net/chevy/raid1/pdb_mirror/pdb/tb/pdb2tbv.ent.gz'
p809
sS'pdb1gut'
p810
S'/net/chevy/raid1/pdb_mirror/pdb/gu/pdb1gut.ent.gz'
p811
sS'pdb2vjh'
p812
S'/net/chevy/raid1/pdb_mirror/pdb/vj/pdb2vjh.ent.gz'
p813
sS'pdb2vju'
p814
S'/net/chevy/raid1/pdb_mirror/pdb/vj/pdb2vju.ent.gz'
p815
sS'pdb3un8'
p816
S'/net/chevy/raid1/pdb_mirror/pdb/un/pdb3un8.ent.gz'
p817
sS'pdb1gug'
p818
S'/net/chevy/raid1/pdb_mirror/pdb/gu/pdb1gug.ent.gz'
p819
sS'pdb2qhd'
p820
S'/net/chevy/raid1/pdb_mirror/pdb/qh/pdb2qhd.ent.gz'
p821
sS'pdb1gun'
p822
S'/net/chevy/raid1/pdb_mirror/pdb/gu/pdb1gun.ent.gz'
p823
sS'pdb1guo'
p824
S'/net/chevy/raid1/pdb_mirror/pdb/gu/pdb1guo.ent.gz'
p825
sS'pdb3un4'
p826
S'/net/chevy/raid1/pdb_mirror/pdb/un/pdb3un4.ent.gz'
p827
sS'pdb2vyc'
p828
S'/net/chevy/raid1/pdb_mirror/pdb/vy/pdb2vyc.ent.gz'
p829
sS'pdb1ok6'
p830
S'/net/chevy/raid1/pdb_mirror/pdb/ok/pdb1ok6.ent.gz'
p831
sS'pdb2wd8'
p832
S'/net/chevy/raid1/pdb_mirror/pdb/wd/pdb2wd8.ent.gz'
p833
sS'pdb1ok9'
p834
S'/net/chevy/raid1/pdb_mirror/pdb/ok/pdb1ok9.ent.gz'
p835
sS'pdb1b79'
p836
S'/net/chevy/raid1/pdb_mirror/pdb/b7/pdb1b79.ent.gz'
p837
sS'pdb1f1m'
p838
S'/net/chevy/raid1/pdb_mirror/pdb/f1/pdb1f1m.ent.gz'
p839
sS'pdb3hag'
p840
S'/net/chevy/raid1/pdb_mirror/pdb/ha/pdb3hag.ent.gz'
p841
sS'pdb1b77'
p842
S'/net/chevy/raid1/pdb_mirror/pdb/b7/pdb1b77.ent.gz'
p843
sS'pdb4gdc'
p844
S'/net/chevy/raid1/pdb_mirror/pdb/gd/pdb4gdc.ent.gz'
p845
sS'pdb4hpq'
p846
S'/net/chevy/raid1/pdb_mirror/pdb/hp/pdb4hpq.ent.gz'
p847
sS'pdb2wh0'
p848
S'/net/chevy/raid1/pdb_mirror/pdb/wh/pdb2wh0.ent.gz'
p849
sS'pdb1phs'
p850
S'/net/chevy/raid1/pdb_mirror/pdb/ph/pdb1phs.ent.gz'
p851
sS'pdb1akm'
p852
S'/net/chevy/raid1/pdb_mirror/pdb/ak/pdb1akm.ent.gz'
p853
sS'pdb2c9p'
p854
S'/net/chevy/raid1/pdb_mirror/pdb/c9/pdb2c9p.ent.gz'
p855
sS'pdb2bkz'
p856
S'/net/chevy/raid1/pdb_mirror/pdb/bk/pdb2bkz.ent.gz'
p857
sS'pdb1nmt'
p858
S'/net/chevy/raid1/pdb_mirror/pdb/nm/pdb1nmt.ent.gz'
p859
sS'pdb2c9j'
p860
S'/net/chevy/raid1/pdb_mirror/pdb/c9/pdb2c9j.ent.gz'
p861
sS'pdb2pfk'
p862
S'/net/chevy/raid1/pdb_mirror/pdb/pf/pdb2pfk.ent.gz'
p863
sS'pdb1b7b'
p864
S'/net/chevy/raid1/pdb_mirror/pdb/b7/pdb1b7b.ent.gz'
p865
sS'pdb3zdg'
p866
S'/net/chevy/raid1/pdb_mirror/pdb/zd/pdb3zdg.ent.gz'
p867
sS'pdb1f15'
p868
S'/net/chevy/raid1/pdb_mirror/pdb/f1/pdb1f15.ent.gz'
p869
sS'pdb4lxf'
p870
S'/net/chevy/raid1/pdb_mirror/pdb/lx/pdb4lxf.ent.gz'
p871
sS'pdb3v29'
p872
S'/net/chevy/raid1/pdb_mirror/pdb/v2/pdb3v29.ent.gz'
p873
sS'pdb1p5w'
p874
S'/net/chevy/raid1/pdb_mirror/pdb/p5/pdb1p5w.ent.gz'
p875
sS'pdb3rla'
p876
S'/net/chevy/raid1/pdb_mirror/pdb/rl/pdb3rla.ent.gz'
p877
sS'pdb3zzh'
p878
S'/net/chevy/raid1/pdb_mirror/pdb/zz/pdb3zzh.ent.gz'
p879
sS'pdb3v22'
p880
S'/net/chevy/raid1/pdb_mirror/pdb/v2/pdb3v22.ent.gz'
p881
sS'pdb2uuv'
p882
S'/net/chevy/raid1/pdb_mirror/pdb/uu/pdb2uuv.ent.gz'
p883
sS'pdb1p5y'
p884
S'/net/chevy/raid1/pdb_mirror/pdb/p5/pdb1p5y.ent.gz'
p885
sS'pdb3v25'
p886
S'/net/chevy/raid1/pdb_mirror/pdb/v2/pdb3v25.ent.gz'
p887
sS'pdb2c91'
p888
S'/net/chevy/raid1/pdb_mirror/pdb/c9/pdb2c91.ent.gz'
p889
sS'pdb1h7z'
p890
S'/net/chevy/raid1/pdb_mirror/pdb/h7/pdb1h7z.ent.gz'
p891
sS'pdb1h7x'
p892
S'/net/chevy/raid1/pdb_mirror/pdb/h7/pdb1h7x.ent.gz'
p893
sS'pdb3v23'
p894
S'/net/chevy/raid1/pdb_mirror/pdb/v2/pdb3v23.ent.gz'
p895
sS'pdb3zpy'
p896
S'/net/chevy/raid1/pdb_mirror/pdb/zp/pdb3zpy.ent.gz'
p897
sS'pdb2ji2'
p898
S'/net/chevy/raid1/pdb_mirror/pdb/ji/pdb2ji2.ent.gz'
p899
sS'pdb2ji3'
p900
S'/net/chevy/raid1/pdb_mirror/pdb/ji/pdb2ji3.ent.gz'
p901
sS'pdb2ji1'
p902
S'/net/chevy/raid1/pdb_mirror/pdb/ji/pdb2ji1.ent.gz'
p903
sS'pdb3zpr'
p904
S'/net/chevy/raid1/pdb_mirror/pdb/zp/pdb3zpr.ent.gz'
p905
sS'pdb4atv'
p906
S'/net/chevy/raid1/pdb_mirror/pdb/at/pdb4atv.ent.gz'
p907
sS'pdb3zpq'
p908
S'/net/chevy/raid1/pdb_mirror/pdb/zp/pdb3zpq.ent.gz'
p909
sS'pdb3v26'
p910
S'/net/chevy/raid1/pdb_mirror/pdb/v2/pdb3v26.ent.gz'
p911
sS'pdb3oah'
p912
S'/net/chevy/raid1/pdb_mirror/pdb/oa/pdb3oah.ent.gz'
p913
sS'pdb4atf'
p914
S'/net/chevy/raid1/pdb_mirror/pdb/at/pdb4atf.ent.gz'
p915
sS'pdb1a2p'
p916
S'/net/chevy/raid1/pdb_mirror/pdb/a2/pdb1a2p.ent.gz'
p917
sS'pdb2bwj'
p918
S'/net/chevy/raid1/pdb_mirror/pdb/bw/pdb2bwj.ent.gz'
p919
sS'pdb1a2v'
p920
S'/net/chevy/raid1/pdb_mirror/pdb/a2/pdb1a2v.ent.gz'
p921
sS'pdb2bwe'
p922
S'/net/chevy/raid1/pdb_mirror/pdb/bw/pdb2bwe.ent.gz'
p923
sS'pdb2bwg'
p924
S'/net/chevy/raid1/pdb_mirror/pdb/bw/pdb2bwg.ent.gz'
p925
sS'pdb1hh3'
p926
S'/net/chevy/raid1/pdb_mirror/pdb/hh/pdb1hh3.ent.gz'
p927
sS'pdb2bwb'
p928
S'/net/chevy/raid1/pdb_mirror/pdb/bw/pdb2bwb.ent.gz'
p929
sS'pdb2wgg'
p930
S'/net/chevy/raid1/pdb_mirror/pdb/wg/pdb2wgg.ent.gz'
p931
sS'pdb1a2o'
p932
S'/net/chevy/raid1/pdb_mirror/pdb/a2/pdb1a2o.ent.gz'
p933
sS'pdb1zpd'
p934
S'/net/chevy/raid1/pdb_mirror/pdb/zp/pdb1zpd.ent.gz'
p935
sS'pdb2ypq'
p936
S'/net/chevy/raid1/pdb_mirror/pdb/yp/pdb2ypq.ent.gz'
p937
sS'pdb2wd7'
p938
S'/net/chevy/raid1/pdb_mirror/pdb/wd/pdb2wd7.ent.gz'
p939
sS'pdb1dps'
p940
S'/net/chevy/raid1/pdb_mirror/pdb/dp/pdb1dps.ent.gz'
p941
sS'pdb1dpp'
p942
S'/net/chevy/raid1/pdb_mirror/pdb/dp/pdb1dpp.ent.gz'
p943
sS'pdb1dpt'
p944
S'/net/chevy/raid1/pdb_mirror/pdb/dp/pdb1dpt.ent.gz'
p945
sS'pdb1flc'
p946
S'/net/chevy/raid1/pdb_mirror/pdb/fl/pdb1flc.ent.gz'
p947
sS'pdb2j9o'
p948
S'/net/chevy/raid1/pdb_mirror/pdb/j9/pdb2j9o.ent.gz'
p949
sS'pdb4cro'
p950
S'/net/chevy/raid1/pdb_mirror/pdb/cr/pdb4cro.ent.gz'
p951
sS'pdb4hnk'
p952
S'/net/chevy/raid1/pdb_mirror/pdb/hn/pdb4hnk.ent.gz'
p953
sS'pdb1flt'
p954
S'/net/chevy/raid1/pdb_mirror/pdb/fl/pdb1flt.ent.gz'
p955
sS'pdb1mal'
p956
S'/net/chevy/raid1/pdb_mirror/pdb/ma/pdb1mal.ent.gz'
p957
sS'pdb2jif'
p958
S'/net/chevy/raid1/pdb_mirror/pdb/ji/pdb2jif.ent.gz'
p959
sS'pdb4gh4'
p960
S'/net/chevy/raid1/pdb_mirror/pdb/gh/pdb4gh4.ent.gz'
p961
sS'pdb1a21'
p962
S'/net/chevy/raid1/pdb_mirror/pdb/a2/pdb1a21.ent.gz'
p963
sS'pdb3w5u'
p964
S'/net/chevy/raid1/pdb_mirror/pdb/w5/pdb3w5u.ent.gz'
p965
sS'pdb3w5v'
p966
S'/net/chevy/raid1/pdb_mirror/pdb/w5/pdb3w5v.ent.gz'
p967
sS'pdb1hhz'
p968
S'/net/chevy/raid1/pdb_mirror/pdb/hh/pdb1hhz.ent.gz'
p969
sS'pdb1hht'
p970
S'/net/chevy/raid1/pdb_mirror/pdb/hh/pdb1hht.ent.gz'
p971
sS'pdb1hhu'
p972
S'/net/chevy/raid1/pdb_mirror/pdb/hh/pdb1hhu.ent.gz'
p973
sS'pdb5i1b'
p974
S'/net/chevy/raid1/pdb_mirror/pdb/i1/pdb5i1b.ent.gz'
p975
sS'pdb1b9c'
p976
S'/net/chevy/raid1/pdb_mirror/pdb/b9/pdb1b9c.ent.gz'
p977
sS'pdb3w5a'
p978
S'/net/chevy/raid1/pdb_mirror/pdb/w5/pdb3w5a.ent.gz'
p979
sS'pdb1hhf'
p980
S'/net/chevy/raid1/pdb_mirror/pdb/hh/pdb1hhf.ent.gz'
p981
sS'pdb1b9l'
p982
S'/net/chevy/raid1/pdb_mirror/pdb/b9/pdb1b9l.ent.gz'
p983
sS'pdb4gzl'
p984
S'/net/chevy/raid1/pdb_mirror/pdb/gz/pdb4gzl.ent.gz'
p985
sS'pdb4gzm'
p986
S'/net/chevy/raid1/pdb_mirror/pdb/gz/pdb4gzm.ent.gz'
p987
sS'pdb1hha'
p988
S'/net/chevy/raid1/pdb_mirror/pdb/hh/pdb1hha.ent.gz'
p989
sS'pdb1dla'
p990
S'/net/chevy/raid1/pdb_mirror/pdb/dl/pdb1dla.ent.gz'
p991
sS'pdb1up7'
p992
S'/net/chevy/raid1/pdb_mirror/pdb/up/pdb1up7.ent.gz'
p993
sS'pdb1up6'
p994
S'/net/chevy/raid1/pdb_mirror/pdb/up/pdb1up6.ent.gz'
p995
sS'pdb1up4'
p996
S'/net/chevy/raid1/pdb_mirror/pdb/up/pdb1up4.ent.gz'
p997
sS'pdb1up8'
p998
S'/net/chevy/raid1/pdb_mirror/pdb/up/pdb1up8.ent.gz'
p999
sS'pdb2jg1'
p1000
S'/net/chevy/raid1/pdb_mirror/pdb/jg/pdb2jg1.ent.gz'
p1001
sS'pdb3r9i'
p1002
S'/net/chevy/raid1/pdb_mirror/pdb/r9/pdb3r9i.ent.gz'
p1003
sS'pdb1qhb'
p1004
S'/net/chevy/raid1/pdb_mirror/pdb/qh/pdb1qhb.ent.gz'
p1005
sS'pdb3zff'
p1006
S'/net/chevy/raid1/pdb_mirror/pdb/zf/pdb3zff.ent.gz'
p1007
sS'pdb1urp'
p1008
S'/net/chevy/raid1/pdb_mirror/pdb/ur/pdb1urp.ent.gz'
p1009
sS'pdb1v1j'
p1010
S'/net/chevy/raid1/pdb_mirror/pdb/v1/pdb1v1j.ent.gz'
p1011
sS'pdb1v1i'
p1012
S'/net/chevy/raid1/pdb_mirror/pdb/v1/pdb1v1i.ent.gz'
p1013
sS'pdb1v1h'
p1014
S'/net/chevy/raid1/pdb_mirror/pdb/v1/pdb1v1h.ent.gz'
p1015
sS'pdb3zzg'
p1016
S'/net/chevy/raid1/pdb_mirror/pdb/zz/pdb3zzg.ent.gz'
p1017
sS'pdb4afn'
p1018
S'/net/chevy/raid1/pdb_mirror/pdb/af/pdb4afn.ent.gz'
p1019
sS'pdb3ice'
p1020
S'/net/chevy/raid1/pdb_mirror/pdb/ic/pdb3ice.ent.gz'
p1021
sS'pdb4afl'
p1022
S'/net/chevy/raid1/pdb_mirror/pdb/af/pdb4afl.ent.gz'
p1023
sS'pdb3zfw'
p1024
S'/net/chevy/raid1/pdb_mirror/pdb/zf/pdb3zfw.ent.gz'
p1025
sS'pdb3kk6'
p1026
S'/net/chevy/raid1/pdb_mirror/pdb/kk/pdb3kk6.ent.gz'
p1027
sS'pdb1upb'
p1028
S'/net/chevy/raid1/pdb_mirror/pdb/up/pdb1upb.ent.gz'
p1029
sS'pdb1upa'
p1030
S'/net/chevy/raid1/pdb_mirror/pdb/up/pdb1upa.ent.gz'
p1031
sS'pdb1bwv'
p1032
S'/net/chevy/raid1/pdb_mirror/pdb/bw/pdb1bwv.ent.gz'
p1033
sS'pdb3s4g'
p1034
S'/net/chevy/raid1/pdb_mirror/pdb/s4/pdb3s4g.ent.gz'
p1035
sS'pdb1llc'
p1036
S'/net/chevy/raid1/pdb_mirror/pdb/ll/pdb1llc.ent.gz'
p1037
sS'pdb1sdy'
p1038
S'/net/chevy/raid1/pdb_mirror/pdb/sd/pdb1sdy.ent.gz'
p1039
sS'pdb2bel'
p1040
S'/net/chevy/raid1/pdb_mirror/pdb/be/pdb2bel.ent.gz'
p1041
sS'pdb2mas'
p1042
S'/net/chevy/raid1/pdb_mirror/pdb/ma/pdb2mas.ent.gz'
p1043
sS'pdb1uos'
p1044
S'/net/chevy/raid1/pdb_mirror/pdb/uo/pdb1uos.ent.gz'
p1045
sS'pdb1sda'
p1046
S'/net/chevy/raid1/pdb_mirror/pdb/sd/pdb1sda.ent.gz'
p1047
sS'pdb2bet'
p1048
S'/net/chevy/raid1/pdb_mirror/pdb/be/pdb2bet.ent.gz'
p1049
sS'pdb1llu'
p1050
S'/net/chevy/raid1/pdb_mirror/pdb/ll/pdb1llu.ent.gz'
p1051
sS'pdb2bes'
p1052
S'/net/chevy/raid1/pdb_mirror/pdb/be/pdb2bes.ent.gz'
p1053
sS'pdb1upt'
p1054
S'/net/chevy/raid1/pdb_mirror/pdb/up/pdb1upt.ent.gz'
p1055
sS'pdb1smr'
p1056
S'/net/chevy/raid1/pdb_mirror/pdb/sm/pdb1smr.ent.gz'
p1057
sS'pdb2jgv'
p1058
S'/net/chevy/raid1/pdb_mirror/pdb/jg/pdb2jgv.ent.gz'
p1059
sS'pdb2jgs'
p1060
S'/net/chevy/raid1/pdb_mirror/pdb/jg/pdb2jgs.ent.gz'
p1061
sS'pdb2ybr'
p1062
S'/net/chevy/raid1/pdb_mirror/pdb/yb/pdb2ybr.ent.gz'
p1063
sS'pdb4g83'
p1064
S'/net/chevy/raid1/pdb_mirror/pdb/g8/pdb4g83.ent.gz'
p1065
sS'pdb3q8m'
p1066
S'/net/chevy/raid1/pdb_mirror/pdb/q8/pdb3q8m.ent.gz'
p1067
sS'pdb2xz0'
p1068
S'/net/chevy/raid1/pdb_mirror/pdb/xz/pdb2xz0.ent.gz'
p1069
sS'pdb1tdi'
p1070
S'/net/chevy/raid1/pdb_mirror/pdb/td/pdb1tdi.ent.gz'
p1071
sS'pdb1qh1'
p1072
S'/net/chevy/raid1/pdb_mirror/pdb/qh/pdb1qh1.ent.gz'
p1073
sS'pdb1mhc'
p1074
S'/net/chevy/raid1/pdb_mirror/pdb/mh/pdb1mhc.ent.gz'
p1075
sS'pdb1vb4'
p1076
S'/net/chevy/raid1/pdb_mirror/pdb/vb/pdb1vb4.ent.gz'
p1077
sS'pdb1gzu'
p1078
S'/net/chevy/raid1/pdb_mirror/pdb/gz/pdb1gzu.ent.gz'
p1079
sS'pdb1vcb'
p1080
S'/net/chevy/raid1/pdb_mirror/pdb/vc/pdb1vcb.ent.gz'
p1081
sS'pdb1gzm'
p1082
S'/net/chevy/raid1/pdb_mirror/pdb/gz/pdb1gzm.ent.gz'
p1083
sS'pdb1gd1'
p1084
S'/net/chevy/raid1/pdb_mirror/pdb/gd/pdb1gd1.ent.gz'
p1085
sS'pdb2vkr'
p1086
S'/net/chevy/raid1/pdb_mirror/pdb/vk/pdb2vkr.ent.gz'
p1087
sS'pdb1dwv'
p1088
S'/net/chevy/raid1/pdb_mirror/pdb/dw/pdb1dwv.ent.gz'
p1089
sS'pdb2uyy'
p1090
S'/net/chevy/raid1/pdb_mirror/pdb/uy/pdb2uyy.ent.gz'
p1091
sS'pdb4l6w'
p1092
S'/net/chevy/raid1/pdb_mirror/pdb/l6/pdb4l6w.ent.gz'
p1093
sS'pdb2vkz'
p1094
S'/net/chevy/raid1/pdb_mirror/pdb/vk/pdb2vkz.ent.gz'
p1095
sS'pdb4b42'
p1096
S'/net/chevy/raid1/pdb_mirror/pdb/b4/pdb4b42.ent.gz'
p1097
sS'pdb4b40'
p1098
S'/net/chevy/raid1/pdb_mirror/pdb/b4/pdb4b40.ent.gz'
p1099
sS'pdb2ve7'
p1100
S'/net/chevy/raid1/pdb_mirror/pdb/ve/pdb2ve7.ent.gz'
p1101
sS'pdb2xlc'
p1102
S'/net/chevy/raid1/pdb_mirror/pdb/xl/pdb2xlc.ent.gz'
p1103
sS'pdb2xlb'
p1104
S'/net/chevy/raid1/pdb_mirror/pdb/xl/pdb2xlb.ent.gz'
p1105
sS'pdb1o82'
p1106
S'/net/chevy/raid1/pdb_mirror/pdb/o8/pdb1o82.ent.gz'
p1107
sS'pdb1gz5'
p1108
S'/net/chevy/raid1/pdb_mirror/pdb/gz/pdb1gz5.ent.gz'
p1109
sS'pdb2caz'
p1110
S'/net/chevy/raid1/pdb_mirror/pdb/ca/pdb2caz.ent.gz'
p1111
sS'pdb2cax'
p1112
S'/net/chevy/raid1/pdb_mirror/pdb/ca/pdb2cax.ent.gz'
p1113
sS'pdb3pgd'
p1114
S'/net/chevy/raid1/pdb_mirror/pdb/pg/pdb3pgd.ent.gz'
p1115
sS'pdb2can'
p1116
S'/net/chevy/raid1/pdb_mirror/pdb/ca/pdb2can.ent.gz'
p1117
sS'pdb3pgh'
p1118
S'/net/chevy/raid1/pdb_mirror/pdb/pg/pdb3pgh.ent.gz'
p1119
sS'pdb4b4b'
p1120
S'/net/chevy/raid1/pdb_mirror/pdb/b4/pdb4b4b.ent.gz'
p1121
sS'pdb1w2t'
p1122
S'/net/chevy/raid1/pdb_mirror/pdb/w2/pdb1w2t.ent.gz'
p1123
sS'pdb4b4g'
p1124
S'/net/chevy/raid1/pdb_mirror/pdb/b4/pdb4b4g.ent.gz'
p1125
sS'pdb4g1b'
p1126
S'/net/chevy/raid1/pdb_mirror/pdb/g1/pdb4g1b.ent.gz'
p1127
sS'pdb4gme'
p1128
S'/net/chevy/raid1/pdb_mirror/pdb/gm/pdb4gme.ent.gz'
p1129
sS'pdb4b4m'
p1130
S'/net/chevy/raid1/pdb_mirror/pdb/b4/pdb4b4m.ent.gz'
p1131
sS'pdb1srd'
p1132
S'/net/chevy/raid1/pdb_mirror/pdb/sr/pdb1srd.ent.gz'
p1133
sS'pdb2wku'
p1134
S'/net/chevy/raid1/pdb_mirror/pdb/wk/pdb2wku.ent.gz'
p1135
sS'pdb2wkt'
p1136
S'/net/chevy/raid1/pdb_mirror/pdb/wk/pdb2wkt.ent.gz'
p1137
sS'pdb2isd'
p1138
S'/net/chevy/raid1/pdb_mirror/pdb/is/pdb2isd.ent.gz'
p1139
sS'pdb1ykf'
p1140
S'/net/chevy/raid1/pdb_mirror/pdb/yk/pdb1ykf.ent.gz'
p1141
sS'pdb3o44'
p1142
S'/net/chevy/raid1/pdb_mirror/pdb/o4/pdb3o44.ent.gz'
p1143
sS'pdb3zwp'
p1144
S'/net/chevy/raid1/pdb_mirror/pdb/zw/pdb3zwp.ent.gz'
p1145
sS'pdb2wkn'
p1146
S'/net/chevy/raid1/pdb_mirror/pdb/wk/pdb2wkn.ent.gz'
p1147
sS'pdb2wy3'
p1148
S'/net/chevy/raid1/pdb_mirror/pdb/wy/pdb2wy3.ent.gz'
p1149
sS'pdb1h6k'
p1150
S'/net/chevy/raid1/pdb_mirror/pdb/h6/pdb1h6k.ent.gz'
p1151
sS'pdb2wy6'
p1152
S'/net/chevy/raid1/pdb_mirror/pdb/wy/pdb2wy6.ent.gz'
p1153
sS'pdb1ml1'
p1154
S'/net/chevy/raid1/pdb_mirror/pdb/ml/pdb1ml1.ent.gz'
p1155
sS'pdb2y46'
p1156
S'/net/chevy/raid1/pdb_mirror/pdb/y4/pdb2y46.ent.gz'
p1157
sS'pdb1h6v'
p1158
S'/net/chevy/raid1/pdb_mirror/pdb/h6/pdb1h6v.ent.gz'
p1159
sS'pdb1azd'
p1160
S'/net/chevy/raid1/pdb_mirror/pdb/az/pdb1azd.ent.gz'
p1161
sS'pdb1uw9'
p1162
S'/net/chevy/raid1/pdb_mirror/pdb/uw/pdb1uw9.ent.gz'
p1163
sS'pdb1b65'
p1164
S'/net/chevy/raid1/pdb_mirror/pdb/b6/pdb1b65.ent.gz'
p1165
sS'pdb2x3h'
p1166
S'/net/chevy/raid1/pdb_mirror/pdb/x3/pdb2x3h.ent.gz'
p1167
sS'pdb4hi3'
p1168
S'/net/chevy/raid1/pdb_mirror/pdb/hi/pdb4hi3.ent.gz'
p1169
sS'pdb1ohg'
p1170
S'/net/chevy/raid1/pdb_mirror/pdb/oh/pdb1ohg.ent.gz'
p1171
sS'pdb1ohf'
p1172
S'/net/chevy/raid1/pdb_mirror/pdb/oh/pdb1ohf.ent.gz'
p1173
sS'pdb4bkn'
p1174
S'/net/chevy/raid1/pdb_mirror/pdb/bk/pdb4bkn.ent.gz'
p1175
sS'pdb2y4p'
p1176
S'/net/chevy/raid1/pdb_mirror/pdb/y4/pdb2y4p.ent.gz'
p1177
sS'pdb2wpc'
p1178
S'/net/chevy/raid1/pdb_mirror/pdb/wp/pdb2wpc.ent.gz'
p1179
sS'pdb1h64'
p1180
S'/net/chevy/raid1/pdb_mirror/pdb/h6/pdb1h64.ent.gz'
p1181
sS'pdb1tah'
p1182
S'/net/chevy/raid1/pdb_mirror/pdb/ta/pdb1tah.ent.gz'
p1183
sS'pdb1ohw'
p1184
S'/net/chevy/raid1/pdb_mirror/pdb/oh/pdb1ohw.ent.gz'
p1185
sS'pdb1ohv'
p1186
S'/net/chevy/raid1/pdb_mirror/pdb/oh/pdb1ohv.ent.gz'
p1187
sS'pdb3i85'
p1188
S'/net/chevy/raid1/pdb_mirror/pdb/i8/pdb3i85.ent.gz'
p1189
sS'pdb1tad'
p1190
S'/net/chevy/raid1/pdb_mirror/pdb/ta/pdb1tad.ent.gz'
p1191
sS'pdb2y4y'
p1192
S'/net/chevy/raid1/pdb_mirror/pdb/y4/pdb2y4y.ent.gz'
p1193
sS'pdb1foh'
p1194
S'/net/chevy/raid1/pdb_mirror/pdb/fo/pdb1foh.ent.gz'
p1195
sS'pdb2w65'
p1196
S'/net/chevy/raid1/pdb_mirror/pdb/w6/pdb2w65.ent.gz'
p1197
sS'pdb1zse'
p1198
S'/net/chevy/raid1/pdb_mirror/pdb/zs/pdb1zse.ent.gz'
p1199
sS'pdb1fod'
p1200
S'/net/chevy/raid1/pdb_mirror/pdb/fo/pdb1fod.ent.gz'
p1201
sS'pdb2w69'
p1202
S'/net/chevy/raid1/pdb_mirror/pdb/w6/pdb2w69.ent.gz'
p1203
sS'pdb4hoh'
p1204
S'/net/chevy/raid1/pdb_mirror/pdb/ho/pdb4hoh.ent.gz'
p1205
sS'pdb4nos'
p1206
S'/net/chevy/raid1/pdb_mirror/pdb/no/pdb4nos.ent.gz'
p1207
sS'pdb1za7'
p1208
S'/net/chevy/raid1/pdb_mirror/pdb/za/pdb1za7.ent.gz'
p1209
sS'pdb4bdo'
p1210
S'/net/chevy/raid1/pdb_mirror/pdb/bd/pdb4bdo.ent.gz'
p1211
sS'pdb1e92'
p1212
S'/net/chevy/raid1/pdb_mirror/pdb/e9/pdb1e92.ent.gz'
p1213
sS'pdb1b8d'
p1214
S'/net/chevy/raid1/pdb_mirror/pdb/b8/pdb1b8d.ent.gz'
p1215
sS'pdb4bdm'
p1216
S'/net/chevy/raid1/pdb_mirror/pdb/bd/pdb4bdm.ent.gz'
p1217
sS'pdb1b8h'
p1218
S'/net/chevy/raid1/pdb_mirror/pdb/b8/pdb1b8h.ent.gz'
p1219
sS'pdb1vyw'
p1220
S'/net/chevy/raid1/pdb_mirror/pdb/vy/pdb1vyw.ent.gz'
p1221
sS'pdb1qpq'
p1222
S'/net/chevy/raid1/pdb_mirror/pdb/qp/pdb1qpq.ent.gz'
p1223
sS'pdb1ny7'
p1224
S'/net/chevy/raid1/pdb_mirror/pdb/ny/pdb1ny7.ent.gz'
p1225
sS'pdb1g31'
p1226
S'/net/chevy/raid1/pdb_mirror/pdb/g3/pdb1g31.ent.gz'
p1227
sS'pdb1zag'
p1228
S'/net/chevy/raid1/pdb_mirror/pdb/za/pdb1zag.ent.gz'
p1229
sS'pdb1e9i'
p1230
S'/net/chevy/raid1/pdb_mirror/pdb/e9/pdb1e9i.ent.gz'
p1231
sS'pdb3sqb'
p1232
S'/net/chevy/raid1/pdb_mirror/pdb/sq/pdb3sqb.ent.gz'
p1233
sS'pdb1e9n'
p1234
S'/net/chevy/raid1/pdb_mirror/pdb/e9/pdb1e9n.ent.gz'
p1235
sS'pdb1poi'
p1236
S'/net/chevy/raid1/pdb_mirror/pdb/po/pdb1poi.ent.gz'
p1237
sS'pdb3zw2'
p1238
S'/net/chevy/raid1/pdb_mirror/pdb/zw/pdb3zw2.ent.gz'
p1239
sS'pdb3zw0'
p1240
S'/net/chevy/raid1/pdb_mirror/pdb/zw/pdb3zw0.ent.gz'
p1241
sS'pdb1kga'
p1242
S'/net/chevy/raid1/pdb_mirror/pdb/kg/pdb1kga.ent.gz'
p1243
sS'pdb4gw9'
p1244
S'/net/chevy/raid1/pdb_mirror/pdb/gw/pdb4gw9.ent.gz'
p1245
sS'pdb1vew'
p1246
S'/net/chevy/raid1/pdb_mirror/pdb/ve/pdb1vew.ent.gz'
p1247
sS'pdb2bbv'
p1248
S'/net/chevy/raid1/pdb_mirror/pdb/bb/pdb2bbv.ent.gz'
p1249
sS'pdb1lkt'
p1250
S'/net/chevy/raid1/pdb_mirror/pdb/lk/pdb1lkt.ent.gz'
p1251
sS'pdb1seb'
p1252
S'/net/chevy/raid1/pdb_mirror/pdb/se/pdb1seb.ent.gz'
p1253
sS'pdb2vtb'
p1254
S'/net/chevy/raid1/pdb_mirror/pdb/vt/pdb2vtb.ent.gz'
p1255
sS'pdb1psd'
p1256
S'/net/chevy/raid1/pdb_mirror/pdb/ps/pdb1psd.ent.gz'
p1257
sS'pdb1a38'
p1258
S'/net/chevy/raid1/pdb_mirror/pdb/a3/pdb1a38.ent.gz'
p1259
sS'pdb5r1r'
p1260
S'/net/chevy/raid1/pdb_mirror/pdb/r1/pdb5r1r.ent.gz'
p1261
sS'pdb1a37'
p1262
S'/net/chevy/raid1/pdb_mirror/pdb/a3/pdb1a37.ent.gz'
p1263
sS'pdb1a34'
p1264
S'/net/chevy/raid1/pdb_mirror/pdb/a3/pdb1a34.ent.gz'
p1265
sS'pdb2yaw'
p1266
S'/net/chevy/raid1/pdb_mirror/pdb/ya/pdb2yaw.ent.gz'
p1267
sS'pdb2yav'
p1268
S'/net/chevy/raid1/pdb_mirror/pdb/ya/pdb2yav.ent.gz'
p1269
sS'pdb5msf'
p1270
S'/net/chevy/raid1/pdb_mirror/pdb/ms/pdb5msf.ent.gz'
p1271
sS'pdb2yax'
p1272
S'/net/chevy/raid1/pdb_mirror/pdb/ya/pdb2yax.ent.gz'
p1273
sS'pdb2bt2'
p1274
S'/net/chevy/raid1/pdb_mirror/pdb/bt/pdb2bt2.ent.gz'
p1275
sS'pdb2bt4'
p1276
S'/net/chevy/raid1/pdb_mirror/pdb/bt/pdb2bt4.ent.gz'
p1277
sS'pdb3zwy'
p1278
S'/net/chevy/raid1/pdb_mirror/pdb/zw/pdb3zwy.ent.gz'
p1279
sS'pdb3zwx'
p1280
S'/net/chevy/raid1/pdb_mirror/pdb/zw/pdb3zwx.ent.gz'
p1281
sS'pdb2vxx'
p1282
S'/net/chevy/raid1/pdb_mirror/pdb/vx/pdb2vxx.ent.gz'
p1283
sS'pdb1js9'
p1284
S'/net/chevy/raid1/pdb_mirror/pdb/js/pdb1js9.ent.gz'
p1285
sS'pdb3obv'
p1286
S'/net/chevy/raid1/pdb_mirror/pdb/ob/pdb3obv.ent.gz'
p1287
sS'pdb3zww'
p1288
S'/net/chevy/raid1/pdb_mirror/pdb/zw/pdb3zww.ent.gz'
p1289
sS'pdb3zwv'
p1290
S'/net/chevy/raid1/pdb_mirror/pdb/zw/pdb3zwv.ent.gz'
p1291
sS'pdb3zwo'
p1292
S'/net/chevy/raid1/pdb_mirror/pdb/zw/pdb3zwo.ent.gz'
p1293
sS'pdb3zwm'
p1294
S'/net/chevy/raid1/pdb_mirror/pdb/zw/pdb3zwm.ent.gz'
p1295
sS'pdb4ac8'
p1296
S'/net/chevy/raid1/pdb_mirror/pdb/ac/pdb4ac8.ent.gz'
p1297
sS'pdb1bq7'
p1298
S'/net/chevy/raid1/pdb_mirror/pdb/bq/pdb1bq7.ent.gz'
p1299
sS'pdb2qfj'
p1300
S'/net/chevy/raid1/pdb_mirror/pdb/qf/pdb2qfj.ent.gz'
p1301
sS'pdb3zwe'
p1302
S'/net/chevy/raid1/pdb_mirror/pdb/zw/pdb3zwe.ent.gz'
p1303
sS'pdb1vkl'
p1304
S'/net/chevy/raid1/pdb_mirror/pdb/vk/pdb1vkl.ent.gz'
p1305
sS'pdb4egr'
p1306
S'/net/chevy/raid1/pdb_mirror/pdb/eg/pdb4egr.ent.gz'
p1307
sS'pdb1a3q'
p1308
S'/net/chevy/raid1/pdb_mirror/pdb/a3/pdb1a3q.ent.gz'
p1309
sS'pdb2bty'
p1310
S'/net/chevy/raid1/pdb_mirror/pdb/bt/pdb2bty.ent.gz'
p1311
sS'pdb4aw4'
p1312
S'/net/chevy/raid1/pdb_mirror/pdb/aw/pdb4aw4.ent.gz'
p1313
sS'pdb4aw6'
p1314
S'/net/chevy/raid1/pdb_mirror/pdb/aw/pdb4aw6.ent.gz'
p1315
sS'pdb2fz2'
p1316
S'/net/chevy/raid1/pdb_mirror/pdb/fz/pdb2fz2.ent.gz'
p1317
sS'pdb2fz1'
p1318
S'/net/chevy/raid1/pdb_mirror/pdb/fz/pdb2fz1.ent.gz'
p1319
sS'pdb1a3f'
p1320
S'/net/chevy/raid1/pdb_mirror/pdb/a3/pdb1a3f.ent.gz'
p1321
sS'pdb2btv'
p1322
S'/net/chevy/raid1/pdb_mirror/pdb/bt/pdb2btv.ent.gz'
p1323
sS'pdb2xma'
p1324
S'/net/chevy/raid1/pdb_mirror/pdb/xm/pdb2xma.ent.gz'
p1325
sS'pdb2xme'
p1326
S'/net/chevy/raid1/pdb_mirror/pdb/xm/pdb2xme.ent.gz'
p1327
sS'pdb2xmh'
p1328
S'/net/chevy/raid1/pdb_mirror/pdb/xm/pdb2xmh.ent.gz'
p1329
sS'pdb2vkx'
p1330
S'/net/chevy/raid1/pdb_mirror/pdb/vk/pdb2vkx.ent.gz'
p1331
sS'pdb4f7r'
p1332
S'/net/chevy/raid1/pdb_mirror/pdb/f7/pdb4f7r.ent.gz'
p1333
sS'pdb2xmn'
p1334
S'/net/chevy/raid1/pdb_mirror/pdb/xm/pdb2xmn.ent.gz'
p1335
sS'pdb1hhs'
p1336
S'/net/chevy/raid1/pdb_mirror/pdb/hh/pdb1hhs.ent.gz'
p1337
sS'pdb4f7i'
p1338
S'/net/chevy/raid1/pdb_mirror/pdb/f7/pdb4f7i.ent.gz'
p1339
sS'pdb4bd7'
p1340
S'/net/chevy/raid1/pdb_mirror/pdb/bd/pdb4bd7.ent.gz'
p1341
sS'pdb1hcu'
p1342
S'/net/chevy/raid1/pdb_mirror/pdb/hc/pdb1hcu.ent.gz'
p1343
sS'pdb3qpr'
p1344
S'/net/chevy/raid1/pdb_mirror/pdb/qp/pdb3qpr.ent.gz'
p1345
sS'pdb3ze4'
p1346
S'/net/chevy/raid1/pdb_mirror/pdb/ze/pdb3ze4.ent.gz'
p1347
sS'pdb4b5b'
p1348
S'/net/chevy/raid1/pdb_mirror/pdb/b5/pdb4b5b.ent.gz'
p1349
sS'pdb4b5g'
p1350
S'/net/chevy/raid1/pdb_mirror/pdb/b5/pdb4b5g.ent.gz'
p1351
sS'pdb4g0j'
p1352
S'/net/chevy/raid1/pdb_mirror/pdb/g0/pdb4g0j.ent.gz'
p1353
sS'pdb1v02'
p1354
S'/net/chevy/raid1/pdb_mirror/pdb/v0/pdb1v02.ent.gz'
p1355
sS'pdb4b5k'
p1356
S'/net/chevy/raid1/pdb_mirror/pdb/b5/pdb4b5k.ent.gz'
p1357
sS'pdb1w3z'
p1358
S'/net/chevy/raid1/pdb_mirror/pdb/w3/pdb1w3z.ent.gz'
p1359
sS'pdb4g0r'
p1360
S'/net/chevy/raid1/pdb_mirror/pdb/g0/pdb4g0r.ent.gz'
p1361
sS'pdb2vzb'
p1362
S'/net/chevy/raid1/pdb_mirror/pdb/vz/pdb2vzb.ent.gz'
p1363
sS'pdb2vza'
p1364
S'/net/chevy/raid1/pdb_mirror/pdb/vz/pdb2vza.ent.gz'
p1365
sS'pdb1w3m'
p1366
S'/net/chevy/raid1/pdb_mirror/pdb/w3/pdb1w3m.ent.gz'
p1367
sS'pdb1qi6'
p1368
S'/net/chevy/raid1/pdb_mirror/pdb/qi/pdb1qi6.ent.gz'
p1369
sS'pdb2vzk'
p1370
S'/net/chevy/raid1/pdb_mirror/pdb/vz/pdb2vzk.ent.gz'
p1371
sS'pdb1qi1'
p1372
S'/net/chevy/raid1/pdb_mirror/pdb/qi/pdb1qi1.ent.gz'
p1373
sS'pdb1upc'
p1374
S'/net/chevy/raid1/pdb_mirror/pdb/up/pdb1upc.ent.gz'
p1375
sS'pdb1bch'
p1376
S'/net/chevy/raid1/pdb_mirror/pdb/bc/pdb1bch.ent.gz'
p1377
sS'pdb2c7v'
p1378
S'/net/chevy/raid1/pdb_mirror/pdb/c7/pdb2c7v.ent.gz'
p1379
sS'pdb1bcc'
p1380
S'/net/chevy/raid1/pdb_mirror/pdb/bc/pdb1bcc.ent.gz'
p1381
sS'pdb1bcf'
p1382
S'/net/chevy/raid1/pdb_mirror/pdb/bc/pdb1bcf.ent.gz'
p1383
sS'pdb1qil'
p1384
S'/net/chevy/raid1/pdb_mirror/pdb/qi/pdb1qil.ent.gz'
p1385
sS'pdb1hhc'
p1386
S'/net/chevy/raid1/pdb_mirror/pdb/hh/pdb1hhc.ent.gz'
p1387
sS'pdb2vz0'
p1388
S'/net/chevy/raid1/pdb_mirror/pdb/vz/pdb2vz0.ent.gz'
p1389
sS'pdb4gek'
p1390
S'/net/chevy/raid1/pdb_mirror/pdb/ge/pdb4gek.ent.gz'
p1391
sS'pdb4gej'
p1392
S'/net/chevy/raid1/pdb_mirror/pdb/ge/pdb4gej.ent.gz'
p1393
sS'pdb2cnw'
p1394
S'/net/chevy/raid1/pdb_mirror/pdb/cn/pdb2cnw.ent.gz'
p1395
sS'pdb1ouu'
p1396
S'/net/chevy/raid1/pdb_mirror/pdb/ou/pdb1ouu.ent.gz'
p1397
sS'pdb3zed'
p1398
S'/net/chevy/raid1/pdb_mirror/pdb/ze/pdb3zed.ent.gz'
p1399
sS'pdb4b52'
p1400
S'/net/chevy/raid1/pdb_mirror/pdb/b5/pdb4b52.ent.gz'
p1401
sS'pdb4ger'
p1402
S'/net/chevy/raid1/pdb_mirror/pdb/ge/pdb4ger.ent.gz'
p1403
sS'pdb3pce'
p1404
S'/net/chevy/raid1/pdb_mirror/pdb/pc/pdb3pce.ent.gz'
p1405
sS'pdb4aih'
p1406
S'/net/chevy/raid1/pdb_mirror/pdb/ai/pdb4aih.ent.gz'
p1407
sS'pdb2cnb'
p1408
S'/net/chevy/raid1/pdb_mirror/pdb/cn/pdb2cnb.ent.gz'
p1409
sS'pdb1qip'
p1410
S'/net/chevy/raid1/pdb_mirror/pdb/qi/pdb1qip.ent.gz'
p1411
sS'pdb1v0e'
p1412
S'/net/chevy/raid1/pdb_mirror/pdb/v0/pdb1v0e.ent.gz'
p1413
sS'pdb1v0f'
p1414
S'/net/chevy/raid1/pdb_mirror/pdb/v0/pdb1v0f.ent.gz'
p1415
sS'pdb2vi6'
p1416
S'/net/chevy/raid1/pdb_mirror/pdb/vi/pdb2vi6.ent.gz'
p1417
sS'pdb1ecj'
p1418
S'/net/chevy/raid1/pdb_mirror/pdb/ec/pdb1ecj.ent.gz'
p1419
sS'pdb1oij'
p1420
S'/net/chevy/raid1/pdb_mirror/pdb/oi/pdb1oij.ent.gz'
p1421
sS'pdb1oih'
p1422
S'/net/chevy/raid1/pdb_mirror/pdb/oi/pdb1oih.ent.gz'
p1423
sS'pdb1oii'
p1424
S'/net/chevy/raid1/pdb_mirror/pdb/oi/pdb1oii.ent.gz'
p1425
sS'pdb1ecb'
p1426
S'/net/chevy/raid1/pdb_mirror/pdb/ec/pdb1ecb.ent.gz'
p1427
sS'pdb4blv'
p1428
S'/net/chevy/raid1/pdb_mirror/pdb/bl/pdb4blv.ent.gz'
p1429
sS'pdb4blu'
p1430
S'/net/chevy/raid1/pdb_mirror/pdb/bl/pdb4blu.ent.gz'
p1431
sS'pdb1mms'
p1432
S'/net/chevy/raid1/pdb_mirror/pdb/mm/pdb1mms.ent.gz'
p1433
sS'pdb1oiy'
p1434
S'/net/chevy/raid1/pdb_mirror/pdb/oi/pdb1oiy.ent.gz'
p1435
sS'pdb1oiu'
p1436
S'/net/chevy/raid1/pdb_mirror/pdb/oi/pdb1oiu.ent.gz'
p1437
sS'pdb2vhg'
p1438
S'/net/chevy/raid1/pdb_mirror/pdb/vh/pdb2vhg.ent.gz'
p1439
sS'pdb2vhi'
p1440
S'/net/chevy/raid1/pdb_mirror/pdb/vh/pdb2vhi.ent.gz'
p1441
sS'pdb2vhh'
p1442
S'/net/chevy/raid1/pdb_mirror/pdb/vh/pdb2vhh.ent.gz'
p1443
sS'pdb2x45'
p1444
S'/net/chevy/raid1/pdb_mirror/pdb/x4/pdb2x45.ent.gz'
p1445
sS'pdb4j70'
p1446
S'/net/chevy/raid1/pdb_mirror/pdb/j7/pdb4j70.ent.gz'
p1447
sS'pdb2vhw'
p1448
S'/net/chevy/raid1/pdb_mirror/pdb/vh/pdb2vhw.ent.gz'
p1449
sS'pdb2vhx'
p1450
S'/net/chevy/raid1/pdb_mirror/pdb/vh/pdb2vhx.ent.gz'
p1451
sS'pdb1msa'
p1452
S'/net/chevy/raid1/pdb_mirror/pdb/ms/pdb1msa.ent.gz'
p1453
sS'pdb4bl4'
p1454
S'/net/chevy/raid1/pdb_mirror/pdb/bl/pdb4bl4.ent.gz'
p1455
sS'pdb1oi9'
p1456
S'/net/chevy/raid1/pdb_mirror/pdb/oi/pdb1oi9.ent.gz'
p1457
sS'pdb2wj3'
p1458
S'/net/chevy/raid1/pdb_mirror/pdb/wj/pdb2wj3.ent.gz'
p1459
sS'pdb1f3w'
p1460
S'/net/chevy/raid1/pdb_mirror/pdb/f3/pdb1f3w.ent.gz'
p1461
sS'pdb2wj6'
p1462
S'/net/chevy/raid1/pdb_mirror/pdb/wj/pdb2wj6.ent.gz'
p1463
sS'pdb1ca7'
p1464
S'/net/chevy/raid1/pdb_mirror/pdb/ca/pdb1ca7.ent.gz'
p1465
sS'pdb2wj4'
p1466
S'/net/chevy/raid1/pdb_mirror/pdb/wj/pdb2wj4.ent.gz'
p1467
sS'pdb2wj8'
p1468
S'/net/chevy/raid1/pdb_mirror/pdb/wj/pdb2wj8.ent.gz'
p1469
sS'pdb2w1a'
p1470
S'/net/chevy/raid1/pdb_mirror/pdb/w1/pdb2w1a.ent.gz'
p1471
sS'pdb5cro'
p1472
S'/net/chevy/raid1/pdb_mirror/pdb/cr/pdb5cro.ent.gz'
p1473
sS'pdb4acp'
p1474
S'/net/chevy/raid1/pdb_mirror/pdb/ac/pdb4acp.ent.gz'
p1475
sS'pdb3qhw'
p1476
S'/net/chevy/raid1/pdb_mirror/pdb/qh/pdb3qhw.ent.gz'
p1477
sS'pdb2rdv'
p1478
S'/net/chevy/raid1/pdb_mirror/pdb/rd/pdb2rdv.ent.gz'
p1479
sS'pdb1tnv'
p1480
S'/net/chevy/raid1/pdb_mirror/pdb/tn/pdb1tnv.ent.gz'
p1481
sS'pdb1emc'
p1482
S'/net/chevy/raid1/pdb_mirror/pdb/em/pdb1emc.ent.gz'
p1483
sS'pdb2wjz'
p1484
S'/net/chevy/raid1/pdb_mirror/pdb/wj/pdb2wjz.ent.gz'
p1485
sS'pdb2w19'
p1486
S'/net/chevy/raid1/pdb_mirror/pdb/w1/pdb2w19.ent.gz'
p1487
sS'pdb1tnd'
p1488
S'/net/chevy/raid1/pdb_mirror/pdb/tn/pdb1tnd.ent.gz'
p1489
sS'pdb1tnf'
p1490
S'/net/chevy/raid1/pdb_mirror/pdb/tn/pdb1tnf.ent.gz'
p1491
sS'pdb3u1n'
p1492
S'/net/chevy/raid1/pdb_mirror/pdb/u1/pdb3u1n.ent.gz'
p1493
sS'pdb2v19'
p1494
S'/net/chevy/raid1/pdb_mirror/pdb/v1/pdb2v19.ent.gz'
p1495
sS'pdb1w39'
p1496
S'/net/chevy/raid1/pdb_mirror/pdb/w3/pdb1w39.ent.gz'
p1497
sS'pdb1rn1'
p1498
S'/net/chevy/raid1/pdb_mirror/pdb/rn/pdb1rn1.ent.gz'
p1499
sS'pdb1am4'
p1500
S'/net/chevy/raid1/pdb_mirror/pdb/am/pdb1am4.ent.gz'
p1501
sS'pdb2a5h'
p1502
S'/net/chevy/raid1/pdb_mirror/pdb/a5/pdb2a5h.ent.gz'
p1503
sS'pdb1am7'
p1504
S'/net/chevy/raid1/pdb_mirror/pdb/am/pdb1am7.ent.gz'
p1505
sS'pdb1h5q'
p1506
S'/net/chevy/raid1/pdb_mirror/pdb/h5/pdb1h5q.ent.gz'
p1507
sS'pdb4hl8'
p1508
S'/net/chevy/raid1/pdb_mirror/pdb/hl/pdb4hl8.ent.gz'
p1509
sS'pdb4gvq'
p1510
S'/net/chevy/raid1/pdb_mirror/pdb/gv/pdb4gvq.ent.gz'
p1511
sS'pdb4gvr'
p1512
S'/net/chevy/raid1/pdb_mirror/pdb/gv/pdb4gvr.ent.gz'
p1513
sS'pdb4gvs'
p1514
S'/net/chevy/raid1/pdb_mirror/pdb/gv/pdb4gvs.ent.gz'
p1515
sS'pdb3tue'
p1516
S'/net/chevy/raid1/pdb_mirror/pdb/tu/pdb3tue.ent.gz'
p1517
sS'pdb3zfe'
p1518
S'/net/chevy/raid1/pdb_mirror/pdb/zf/pdb3zfe.ent.gz'
p1519
sS'pdb1hc7'
p1520
S'/net/chevy/raid1/pdb_mirror/pdb/hc/pdb1hc7.ent.gz'
p1521
sS'pdb1e2y'
p1522
S'/net/chevy/raid1/pdb_mirror/pdb/e2/pdb1e2y.ent.gz'
p1523
sS'pdb3zfg'
p1524
S'/net/chevy/raid1/pdb_mirror/pdb/zf/pdb3zfg.ent.gz'
p1525
sS'pdb2v21'
p1526
S'/net/chevy/raid1/pdb_mirror/pdb/v2/pdb2v21.ent.gz'
p1527
sS'pdb1a4z'
p1528
S'/net/chevy/raid1/pdb_mirror/pdb/a4/pdb1a4z.ent.gz'
p1529
sS'pdb1a4s'
p1530
S'/net/chevy/raid1/pdb_mirror/pdb/a4/pdb1a4s.ent.gz'
p1531
sS'pdb1a4o'
p1532
S'/net/chevy/raid1/pdb_mirror/pdb/a4/pdb1a4o.ent.gz'
p1533
sS'pdb1afb'
p1534
S'/net/chevy/raid1/pdb_mirror/pdb/af/pdb1afb.ent.gz'
p1535
sS'pdb2buk'
p1536
S'/net/chevy/raid1/pdb_mirror/pdb/bu/pdb2buk.ent.gz'
p1537
sS'pdb1a4e'
p1538
S'/net/chevy/raid1/pdb_mirror/pdb/a4/pdb1a4e.ent.gz'
p1539
sS'pdb2lgs'
p1540
S'/net/chevy/raid1/pdb_mirror/pdb/lg/pdb2lgs.ent.gz'
p1541
sS'pdb2v2g'
p1542
S'/net/chevy/raid1/pdb_mirror/pdb/v2/pdb2v2g.ent.gz'
p1543
sS'pdb4hls'
p1544
S'/net/chevy/raid1/pdb_mirror/pdb/hl/pdb4hls.ent.gz'
p1545
sS'pdb1rpx'
p1546
S'/net/chevy/raid1/pdb_mirror/pdb/rp/pdb1rpx.ent.gz'
p1547
sS'pdb2bu1'
p1548
S'/net/chevy/raid1/pdb_mirror/pdb/bu/pdb2bu1.ent.gz'
p1549
sS'pdb4etg'
p1550
S'/net/chevy/raid1/pdb_mirror/pdb/et/pdb4etg.ent.gz'
p1551
sS'pdb2xzt'
p1552
S'/net/chevy/raid1/pdb_mirror/pdb/xz/pdb2xzt.ent.gz'
p1553
sS'pdb1djh'
p1554
S'/net/chevy/raid1/pdb_mirror/pdb/dj/pdb1djh.ent.gz'
p1555
sS'pdb1dji'
p1556
S'/net/chevy/raid1/pdb_mirror/pdb/dj/pdb1dji.ent.gz'
p1557
sS'pdb1djg'
p1558
S'/net/chevy/raid1/pdb_mirror/pdb/dj/pdb1djg.ent.gz'
p1559
sS'pdb3kmb'
p1560
S'/net/chevy/raid1/pdb_mirror/pdb/km/pdb3kmb.ent.gz'
p1561
sS'pdb1gq7'
p1562
S'/net/chevy/raid1/pdb_mirror/pdb/gq/pdb1gq7.ent.gz'
p1563
sS'pdb1e2a'
p1564
S'/net/chevy/raid1/pdb_mirror/pdb/e2/pdb1e2a.ent.gz'
p1565
sS'pdb4gdd'
p1566
S'/net/chevy/raid1/pdb_mirror/pdb/gd/pdb4gdd.ent.gz'
p1567
sS'pdb4ahp'
p1568
S'/net/chevy/raid1/pdb_mirror/pdb/ah/pdb4ahp.ent.gz'
p1569
sS'pdb4ahq'
p1570
S'/net/chevy/raid1/pdb_mirror/pdb/ah/pdb4ahq.ent.gz'
p1571
sS'pdb1h3b'
p1572
S'/net/chevy/raid1/pdb_mirror/pdb/h3/pdb1h3b.ent.gz'
p1573
sS'pdb1qjy'
p1574
S'/net/chevy/raid1/pdb_mirror/pdb/qj/pdb1qjy.ent.gz'
p1575
sS'pdb1qjx'
p1576
S'/net/chevy/raid1/pdb_mirror/pdb/qj/pdb1qjx.ent.gz'
p1577
sS'pdb4aho'
p1578
S'/net/chevy/raid1/pdb_mirror/pdb/ah/pdb4aho.ent.gz'
p1579
sS'pdb4av7'
p1580
S'/net/chevy/raid1/pdb_mirror/pdb/av/pdb4av7.ent.gz'
p1581
sS'pdb1qju'
p1582
S'/net/chevy/raid1/pdb_mirror/pdb/qj/pdb1qju.ent.gz'
p1583
sS'pdb4ahc'
p1584
S'/net/chevy/raid1/pdb_mirror/pdb/ah/pdb4ahc.ent.gz'
p1585
sS'pdb1bpo'
p1586
S'/net/chevy/raid1/pdb_mirror/pdb/bp/pdb1bpo.ent.gz'
p1587
sS'pdb3tgq'
p1588
S'/net/chevy/raid1/pdb_mirror/pdb/tg/pdb3tgq.ent.gz'
p1589
sS'pdb2wbh'
p1590
S'/net/chevy/raid1/pdb_mirror/pdb/wb/pdb2wbh.ent.gz'
p1591
sS'pdb3ia0'
p1592
S'/net/chevy/raid1/pdb_mirror/pdb/ia/pdb3ia0.ent.gz'
p1593
sS'pdb2vun'
p1594
S'/net/chevy/raid1/pdb_mirror/pdb/vu/pdb2vun.ent.gz'
p1595
sS'pdb1upm'
p1596
S'/net/chevy/raid1/pdb_mirror/pdb/up/pdb1upm.ent.gz'
p1597
sS'pdb1urz'
p1598
S'/net/chevy/raid1/pdb_mirror/pdb/ur/pdb1urz.ent.gz'
p1599
sS'pdb2vub'
p1600
S'/net/chevy/raid1/pdb_mirror/pdb/vu/pdb2vub.ent.gz'
p1601
sS'pdb1sbb'
p1602
S'/net/chevy/raid1/pdb_mirror/pdb/sb/pdb1sbb.ent.gz'
p1603
sS'pdb1bpw'
p1604
S'/net/chevy/raid1/pdb_mirror/pdb/bp/pdb1bpw.ent.gz'
p1605
sS'pdb3s6p'
p1606
S'/net/chevy/raid1/pdb_mirror/pdb/s6/pdb3s6p.ent.gz'
p1607
sS'pdb3vw4'
p1608
S'/net/chevy/raid1/pdb_mirror/pdb/vw/pdb3vw4.ent.gz'
p1609
sS'pdb2jer'
p1610
S'/net/chevy/raid1/pdb_mirror/pdb/je/pdb2jer.ent.gz'
p1611
sS'pdb1upp'
p1612
S'/net/chevy/raid1/pdb_mirror/pdb/up/pdb1upp.ent.gz'
p1613
sS'pdb2jee'
p1614
S'/net/chevy/raid1/pdb_mirror/pdb/je/pdb2jee.ent.gz'
p1615
sS'pdb2vih'
p1616
S'/net/chevy/raid1/pdb_mirror/pdb/vi/pdb2vih.ent.gz'
p1617
sS'pdb2vig'
p1618
S'/net/chevy/raid1/pdb_mirror/pdb/vi/pdb2vig.ent.gz'
p1619
sS'pdb5bca'
p1620
S'/net/chevy/raid1/pdb_mirror/pdb/bc/pdb5bca.ent.gz'
p1621
sS'pdb2vic'
p1622
S'/net/chevy/raid1/pdb_mirror/pdb/vi/pdb2vic.ent.gz'
p1623
sS'pdb3ve1'
p1624
S'/net/chevy/raid1/pdb_mirror/pdb/ve/pdb3ve1.ent.gz'
p1625
sS'pdb2vix'
p1626
S'/net/chevy/raid1/pdb_mirror/pdb/vi/pdb2vix.ent.gz'
p1627
sS'pdb2tmg'
p1628
S'/net/chevy/raid1/pdb_mirror/pdb/tm/pdb2tmg.ent.gz'
p1629
sS'pdb2xn1'
p1630
S'/net/chevy/raid1/pdb_mirror/pdb/xn/pdb2xn1.ent.gz'
p1631
sS'pdb1wpg'
p1632
S'/net/chevy/raid1/pdb_mirror/pdb/wp/pdb1wpg.ent.gz'
p1633
sS'pdb4ihc'
p1634
S'/net/chevy/raid1/pdb_mirror/pdb/ih/pdb4ihc.ent.gz'
p1635
sS'pdb1gx3'
p1636
S'/net/chevy/raid1/pdb_mirror/pdb/gx/pdb1gx3.ent.gz'
p1637
sS'pdb2tss'
p1638
S'/net/chevy/raid1/pdb_mirror/pdb/ts/pdb2tss.ent.gz'
p1639
sS'pdb1ere'
p1640
S'/net/chevy/raid1/pdb_mirror/pdb/er/pdb1ere.ent.gz'
p1641
sS'pdb2vi7'
p1642
S'/net/chevy/raid1/pdb_mirror/pdb/vi/pdb2vi7.ent.gz'
p1643
sS'pdb2xns'
p1644
S'/net/chevy/raid1/pdb_mirror/pdb/xn/pdb2xns.ent.gz'
p1645
sS'pdb4b6d'
p1646
S'/net/chevy/raid1/pdb_mirror/pdb/b6/pdb4b6d.ent.gz'
p1647
sS'pdb1jdb'
p1648
S'/net/chevy/raid1/pdb_mirror/pdb/jd/pdb1jdb.ent.gz'
p1649
sS'pdb1jdy'
p1650
S'/net/chevy/raid1/pdb_mirror/pdb/jd/pdb1jdy.ent.gz'
p1651
sS'pdb1bbt'
p1652
S'/net/chevy/raid1/pdb_mirror/pdb/bb/pdb1bbt.ent.gz'
p1653
sS'pdb1bbp'
p1654
S'/net/chevy/raid1/pdb_mirror/pdb/bb/pdb1bbp.ent.gz'
p1655
sS'pdb1bbz'
p1656
S'/net/chevy/raid1/pdb_mirror/pdb/bb/pdb1bbz.ent.gz'
p1657
sS'pdb1cnt'
p1658
S'/net/chevy/raid1/pdb_mirror/pdb/cn/pdb1cnt.ent.gz'
p1659
sS'pdb1cno'
p1660
S'/net/chevy/raid1/pdb_mirror/pdb/cn/pdb1cno.ent.gz'
p1661
sS'pdb1gqm'
p1662
S'/net/chevy/raid1/pdb_mirror/pdb/gq/pdb1gqm.ent.gz'
p1663
sS'pdb1d4m'
p1664
S'/net/chevy/raid1/pdb_mirror/pdb/d4/pdb1d4m.ent.gz'
p1665
sS'pdb3djf'
p1666
S'/net/chevy/raid1/pdb_mirror/pdb/dj/pdb3djf.ent.gz'
p1667
sS'pdb1h4o'
p1668
S'/net/chevy/raid1/pdb_mirror/pdb/h4/pdb1h4o.ent.gz'
p1669
sS'pdb3ran'
p1670
S'/net/chevy/raid1/pdb_mirror/pdb/ra/pdb3ran.ent.gz'
p1671
sS'pdb3raa'
p1672
S'/net/chevy/raid1/pdb_mirror/pdb/ra/pdb3raa.ent.gz'
p1673
sS'pdb1h4t'
p1674
S'/net/chevy/raid1/pdb_mirror/pdb/h4/pdb1h4t.ent.gz'
p1675
sS'pdb2we4'
p1676
S'/net/chevy/raid1/pdb_mirror/pdb/we/pdb2we4.ent.gz'
p1677
sS'pdb3ey9'
p1678
S'/net/chevy/raid1/pdb_mirror/pdb/ey/pdb3ey9.ent.gz'
p1679
sS'pdb2x5i'
p1680
S'/net/chevy/raid1/pdb_mirror/pdb/x5/pdb2x5i.ent.gz'
p1681
sS'pdb1b09'
p1682
S'/net/chevy/raid1/pdb_mirror/pdb/b0/pdb1b09.ent.gz'
p1683
sS'pdb2x5k'
p1684
S'/net/chevy/raid1/pdb_mirror/pdb/x5/pdb2x5k.ent.gz'
p1685
sS'pdb4lih'
p1686
S'/net/chevy/raid1/pdb_mirror/pdb/li/pdb4lih.ent.gz'
p1687
sS'pdb3c6q'
p1688
S'/net/chevy/raid1/pdb_mirror/pdb/c6/pdb3c6q.ent.gz'
p1689
sS'pdb2x5j'
p1690
S'/net/chevy/raid1/pdb_mirror/pdb/x5/pdb2x5j.ent.gz'
p1691
sS'pdb3ra9'
p1692
S'/net/chevy/raid1/pdb_mirror/pdb/ra/pdb3ra9.ent.gz'
p1693
sS'pdb3ra8'
p1694
S'/net/chevy/raid1/pdb_mirror/pdb/ra/pdb3ra8.ent.gz'
p1695
sS'pdb1h48'
p1696
S'/net/chevy/raid1/pdb_mirror/pdb/h4/pdb1h48.ent.gz'
p1697
sS'pdb4h4e'
p1698
S'/net/chevy/raid1/pdb_mirror/pdb/h4/pdb4h4e.ent.gz'
p1699
sS'pdb4h4d'
p1700
S'/net/chevy/raid1/pdb_mirror/pdb/h4/pdb4h4d.ent.gz'
p1701
sS'pdb3ra2'
p1702
S'/net/chevy/raid1/pdb_mirror/pdb/ra/pdb3ra2.ent.gz'
p1703
sS'pdb1h47'
p1704
S'/net/chevy/raid1/pdb_mirror/pdb/h4/pdb1h47.ent.gz'
p1705
sS'pdb4bmg'
p1706
S'/net/chevy/raid1/pdb_mirror/pdb/bm/pdb4bmg.ent.gz'
p1707
sS'pdb2w01'
p1708
S'/net/chevy/raid1/pdb_mirror/pdb/w0/pdb2w01.ent.gz'
p1709
sS'pdb1f29'
p1710
S'/net/chevy/raid1/pdb_mirror/pdb/f2/pdb1f29.ent.gz'
p1711
sS'pdb2rsl'
p1712
S'/net/chevy/raid1/pdb_mirror/pdb/rs/pdb2rsl.ent.gz'
p1713
sS'pdb1pcf'
p1714
S'/net/chevy/raid1/pdb_mirror/pdb/pc/pdb1pcf.ent.gz'
p1715
sS'pdb1hmv'
p1716
S'/net/chevy/raid1/pdb_mirror/pdb/hm/pdb1hmv.ent.gz'
p1717
sS'pdb4fi4'
p1718
S'/net/chevy/raid1/pdb_mirror/pdb/fi/pdb4fi4.ent.gz'
p1719
sS'pdb1shs'
p1720
S'/net/chevy/raid1/pdb_mirror/pdb/sh/pdb1shs.ent.gz'
p1721
sS'pdb2v3w'
p1722
S'/net/chevy/raid1/pdb_mirror/pdb/v3/pdb2v3w.ent.gz'
p1723
sS'pdb1pci'
p1724
S'/net/chevy/raid1/pdb_mirror/pdb/pc/pdb1pci.ent.gz'
p1725
sS'pdb1a0c'
p1726
S'/net/chevy/raid1/pdb_mirror/pdb/a0/pdb1a0c.ent.gz'
p1727
sS'pdb1rsc'
p1728
S'/net/chevy/raid1/pdb_mirror/pdb/rs/pdb1rsc.ent.gz'
p1729
sS'pdb2yq5'
p1730
S'/net/chevy/raid1/pdb_mirror/pdb/yq/pdb2yq5.ent.gz'
p1731
sS'pdb3k8z'
p1732
S'/net/chevy/raid1/pdb_mirror/pdb/k8/pdb3k8z.ent.gz'
p1733
sS'pdb4fif'
p1734
S'/net/chevy/raid1/pdb_mirror/pdb/fi/pdb4fif.ent.gz'
p1735
sS'pdb4fig'
p1736
S'/net/chevy/raid1/pdb_mirror/pdb/fi/pdb4fig.ent.gz'
p1737
sS'pdb3hbx'
p1738
S'/net/chevy/raid1/pdb_mirror/pdb/hb/pdb3hbx.ent.gz'
p1739
sS'pdb4fio'
p1740
S'/net/chevy/raid1/pdb_mirror/pdb/fi/pdb4fio.ent.gz'
p1741
sS'pdb2w0c'
p1742
S'/net/chevy/raid1/pdb_mirror/pdb/w0/pdb2w0c.ent.gz'
p1743
sS'pdb2w0d'
p1744
S'/net/chevy/raid1/pdb_mirror/pdb/w0/pdb2w0d.ent.gz'
p1745
sS'pdb1f2n'
p1746
S'/net/chevy/raid1/pdb_mirror/pdb/f2/pdb1f2n.ent.gz'
p1747
sS'pdb2v32'
p1748
S'/net/chevy/raid1/pdb_mirror/pdb/v3/pdb2v32.ent.gz'
p1749
sS'pdb2e2a'
p1750
S'/net/chevy/raid1/pdb_mirror/pdb/e2/pdb2e2a.ent.gz'
p1751
sS'pdb1kev'
p1752
S'/net/chevy/raid1/pdb_mirror/pdb/ke/pdb1kev.ent.gz'
p1753
sS'pdb1usl'
p1754
S'/net/chevy/raid1/pdb_mirror/pdb/us/pdb1usl.ent.gz'
p1755
sS'pdb4jcf'
p1756
S'/net/chevy/raid1/pdb_mirror/pdb/jc/pdb4jcf.ent.gz'
p1757
sS'pdb4iw4'
p1758
S'/net/chevy/raid1/pdb_mirror/pdb/iw/pdb4iw4.ent.gz'
p1759
sS'pdb4jcd'
p1760
S'/net/chevy/raid1/pdb_mirror/pdb/jc/pdb4jcd.ent.gz'
p1761
sS'pdb4jce'
p1762
S'/net/chevy/raid1/pdb_mirror/pdb/jc/pdb4jce.ent.gz'
p1763
sS'pdb1lia'
p1764
S'/net/chevy/raid1/pdb_mirror/pdb/li/pdb1lia.ent.gz'
p1765
sS'pdb4eya'
p1766
S'/net/chevy/raid1/pdb_mirror/pdb/ey/pdb4eya.ent.gz'
p1767
sS'pdb1juj'
p1768
S'/net/chevy/raid1/pdb_mirror/pdb/ju/pdb1juj.ent.gz'
p1769
sS'pdb4jct'
p1770
S'/net/chevy/raid1/pdb_mirror/pdb/jc/pdb4jct.ent.gz'
p1771
sS'pdb1usq'
p1772
S'/net/chevy/raid1/pdb_mirror/pdb/us/pdb1usq.ent.gz'
p1773
sS'pdb4jcr'
p1774
S'/net/chevy/raid1/pdb_mirror/pdb/jc/pdb4jcr.ent.gz'
p1775
sS'pdb1scf'
p1776
S'/net/chevy/raid1/pdb_mirror/pdb/sc/pdb1scf.ent.gz'
p1777
sS'pdb4jcq'
p1778
S'/net/chevy/raid1/pdb_mirror/pdb/jc/pdb4jcq.ent.gz'
p1779
sS'pdb4aym'
p1780
S'/net/chevy/raid1/pdb_mirror/pdb/ay/pdb4aym.ent.gz'
p1781
sS'pdb2br7'
p1782
S'/net/chevy/raid1/pdb_mirror/pdb/br/pdb2br7.ent.gz'
p1783
sS'pdb2jbs'
p1784
S'/net/chevy/raid1/pdb_mirror/pdb/jb/pdb2jbs.ent.gz'
p1785
sS'pdb2jbr'
p1786
S'/net/chevy/raid1/pdb_mirror/pdb/jb/pdb2jbr.ent.gz'
p1787
sS'pdb4aye'
p1788
S'/net/chevy/raid1/pdb_mirror/pdb/ay/pdb4aye.ent.gz'
p1789
sS'pdb2jbp'
p1790
S'/net/chevy/raid1/pdb_mirror/pdb/jb/pdb2jbp.ent.gz'
p1791
sS'pdb2jbw'
p1792
S'/net/chevy/raid1/pdb_mirror/pdb/jb/pdb2jbw.ent.gz'
p1793
sS'pdb4h4c'
p1794
S'/net/chevy/raid1/pdb_mirror/pdb/h4/pdb4h4c.ent.gz'
p1795
sS'pdb2jbt'
p1796
S'/net/chevy/raid1/pdb_mirror/pdb/jb/pdb2jbt.ent.gz'
p1797
sS'pdb3zuv'
p1798
S'/net/chevy/raid1/pdb_mirror/pdb/zu/pdb3zuv.ent.gz'
p1799
sS'pdb3q7h'
p1800
S'/net/chevy/raid1/pdb_mirror/pdb/q7/pdb3q7h.ent.gz'
p1801
sS'pdb1nec'
p1802
S'/net/chevy/raid1/pdb_mirror/pdb/ne/pdb1nec.ent.gz'
p1803
sS'pdb2jbf'
p1804
S'/net/chevy/raid1/pdb_mirror/pdb/jb/pdb2jbf.ent.gz'
p1805
sS'pdb2ygu'
p1806
S'/net/chevy/raid1/pdb_mirror/pdb/yg/pdb2ygu.ent.gz'
p1807
sS'pdb4guq'
p1808
S'/net/chevy/raid1/pdb_mirror/pdb/gu/pdb4guq.ent.gz'
p1809
sS'pdb4guv'
p1810
S'/net/chevy/raid1/pdb_mirror/pdb/gu/pdb4guv.ent.gz'
p1811
sS'pdb1hss'
p1812
S'/net/chevy/raid1/pdb_mirror/pdb/hs/pdb1hss.ent.gz'
p1813
sS'pdb4hmg'
p1814
S'/net/chevy/raid1/pdb_mirror/pdb/hm/pdb4hmg.ent.gz'
p1815
sS'pdb2brq'
p1816
S'/net/chevy/raid1/pdb_mirror/pdb/br/pdb2brq.ent.gz'
p1817
sS'pdb4hmm'
p1818
S'/net/chevy/raid1/pdb_mirror/pdb/hm/pdb4hmm.ent.gz'
p1819
sS'pdb2jb6'
p1820
S'/net/chevy/raid1/pdb_mirror/pdb/jb/pdb2jb6.ent.gz'
p1821
sS'pdb3ra4'
p1822
S'/net/chevy/raid1/pdb_mirror/pdb/ra/pdb3ra4.ent.gz'
p1823
sS'pdb1a5h'
p1824
S'/net/chevy/raid1/pdb_mirror/pdb/a5/pdb1a5h.ent.gz'
p1825
sS'pdb2dbv'
p1826
S'/net/chevy/raid1/pdb_mirror/pdb/db/pdb2dbv.ent.gz'
p1827
sS'pdb4hmr'
p1828
S'/net/chevy/raid1/pdb_mirror/pdb/hm/pdb4hmr.ent.gz'
p1829
sS'pdb1vub'
p1830
S'/net/chevy/raid1/pdb_mirror/pdb/vu/pdb1vub.ent.gz'
p1831
sS'pdb4ay6'
p1832
S'/net/chevy/raid1/pdb_mirror/pdb/ay/pdb4ay6.ent.gz'
p1833
sS'pdb4ay5'
p1834
S'/net/chevy/raid1/pdb_mirror/pdb/ay/pdb4ay5.ent.gz'
p1835
sS'pdb4ay4'
p1836
S'/net/chevy/raid1/pdb_mirror/pdb/ay/pdb4ay4.ent.gz'
p1837
sS'pdb2vnk'
p1838
S'/net/chevy/raid1/pdb_mirror/pdb/vn/pdb2vnk.ent.gz'
p1839
sS'pdb3vdd'
p1840
S'/net/chevy/raid1/pdb_mirror/pdb/vd/pdb3vdd.ent.gz'
p1841
sS'pdb2y4t'
p1842
S'/net/chevy/raid1/pdb_mirror/pdb/y4/pdb2y4t.ent.gz'
p1843
sS'pdb1gkp'
p1844
S'/net/chevy/raid1/pdb_mirror/pdb/gk/pdb1gkp.ent.gz'
p1845
sS'pdb1gkq'
p1846
S'/net/chevy/raid1/pdb_mirror/pdb/gk/pdb1gkq.ent.gz'
p1847
sS'pdb1gkr'
p1848
S'/net/chevy/raid1/pdb_mirror/pdb/gk/pdb1gkr.ent.gz'
p1849
sS'pdb2bng'
p1850
S'/net/chevy/raid1/pdb_mirror/pdb/bn/pdb2bng.ent.gz'
p1851
sS'pdb1qk4'
p1852
S'/net/chevy/raid1/pdb_mirror/pdb/qk/pdb1qk4.ent.gz'
p1853
sS'pdb2vxu'
p1854
S'/net/chevy/raid1/pdb_mirror/pdb/vx/pdb2vxu.ent.gz'
p1855
sS'pdb1qk3'
p1856
S'/net/chevy/raid1/pdb_mirror/pdb/qk/pdb1qk3.ent.gz'
p1857
sS'pdb1lgn'
p1858
S'/net/chevy/raid1/pdb_mirror/pdb/lg/pdb1lgn.ent.gz'
p1859
sS'pdb2bnl'
p1860
S'/net/chevy/raid1/pdb_mirror/pdb/bn/pdb2bnl.ent.gz'
p1861
sS'pdb1lgh'
p1862
S'/net/chevy/raid1/pdb_mirror/pdb/lg/pdb1lgh.ent.gz'
p1863
sS'pdb2bnw'
p1864
S'/net/chevy/raid1/pdb_mirror/pdb/bn/pdb2bnw.ent.gz'
p1865
sS'pdb4b7x'
p1866
S'/net/chevy/raid1/pdb_mirror/pdb/b7/pdb4b7x.ent.gz'
p1867
sS'pdb4b7y'
p1868
S'/net/chevy/raid1/pdb_mirror/pdb/b7/pdb4b7y.ent.gz'
p1869
sS'pdb1lgr'
p1870
S'/net/chevy/raid1/pdb_mirror/pdb/lg/pdb1lgr.ent.gz'
p1871
sS'pdb2vxi'
p1872
S'/net/chevy/raid1/pdb_mirror/pdb/vx/pdb2vxi.ent.gz'
p1873
sS'pdb2bnz'
p1874
S'/net/chevy/raid1/pdb_mirror/pdb/bn/pdb2bnz.ent.gz'
p1875
sS'pdb1lgy'
p1876
S'/net/chevy/raid1/pdb_mirror/pdb/lg/pdb1lgy.ent.gz'
p1877
sS'pdb3gxe'
p1878
S'/net/chevy/raid1/pdb_mirror/pdb/gx/pdb3gxe.ent.gz'
p1879
sS'pdb2cb2'
p1880
S'/net/chevy/raid1/pdb_mirror/pdb/cb/pdb2cb2.ent.gz'
p1881
sS'pdb1fui'
p1882
S'/net/chevy/raid1/pdb_mirror/pdb/fu/pdb1fui.ent.gz'
p1883
sS'pdb2cxe'
p1884
S'/net/chevy/raid1/pdb_mirror/pdb/cx/pdb2cxe.ent.gz'
p1885
sS'pdb1dio'
p1886
S'/net/chevy/raid1/pdb_mirror/pdb/di/pdb1dio.ent.gz'
p1887
sS'pdb1gk2'
p1888
S'/net/chevy/raid1/pdb_mirror/pdb/gk/pdb1gk2.ent.gz'
p1889
sS'pdb2vx3'
p1890
S'/net/chevy/raid1/pdb_mirror/pdb/vx/pdb2vx3.ent.gz'
p1891
sS'pdb3zko'
p1892
S'/net/chevy/raid1/pdb_mirror/pdb/zk/pdb3zko.ent.gz'
p1893
sS'pdb2bn2'
p1894
S'/net/chevy/raid1/pdb_mirror/pdb/bn/pdb2bn2.ent.gz'
p1895
sS'pdb3zke'
p1896
S'/net/chevy/raid1/pdb_mirror/pdb/zk/pdb3zke.ent.gz'
p1897
sS'pdb1qki'
p1898
S'/net/chevy/raid1/pdb_mirror/pdb/qk/pdb1qki.ent.gz'
p1899
sS'pdb2uzp'
p1900
S'/net/chevy/raid1/pdb_mirror/pdb/uz/pdb2uzp.ent.gz'
p1901
sS'pdb2uzq'
p1902
S'/net/chevy/raid1/pdb_mirror/pdb/uz/pdb2uzq.ent.gz'
p1903
sS'pdb4jsu'
p1904
S'/net/chevy/raid1/pdb_mirror/pdb/js/pdb4jsu.ent.gz'
p1905
sS'pdb1cqd'
p1906
S'/net/chevy/raid1/pdb_mirror/pdb/cq/pdb1cqd.ent.gz'
p1907
sS'pdb2uzx'
p1908
S'/net/chevy/raid1/pdb_mirror/pdb/uz/pdb2uzx.ent.gz'
p1909
sS'pdb2uzy'
p1910
S'/net/chevy/raid1/pdb_mirror/pdb/uz/pdb2uzy.ent.gz'
p1911
sS'pdb2uzz'
p1912
S'/net/chevy/raid1/pdb_mirror/pdb/uz/pdb2uzz.ent.gz'
p1913
sS'pdb3ubt'
p1914
S'/net/chevy/raid1/pdb_mirror/pdb/ub/pdb3ubt.ent.gz'
p1915
sS'pdb2wzr'
p1916
S'/net/chevy/raid1/pdb_mirror/pdb/wz/pdb2wzr.ent.gz'
p1917
sS'pdb2uzc'
p1918
S'/net/chevy/raid1/pdb_mirror/pdb/uz/pdb2uzc.ent.gz'
p1919
sS'pdb2otc'
p1920
S'/net/chevy/raid1/pdb_mirror/pdb/ot/pdb2otc.ent.gz'
p1921
sS'pdb2uzh'
p1922
S'/net/chevy/raid1/pdb_mirror/pdb/uz/pdb2uzh.ent.gz'
p1923
sS'pdb4b98'
p1924
S'/net/chevy/raid1/pdb_mirror/pdb/b9/pdb4b98.ent.gz'
p1925
sS'pdb2bpm'
p1926
S'/net/chevy/raid1/pdb_mirror/pdb/bp/pdb2bpm.ent.gz'
p1927
sS'pdb2xaa'
p1928
S'/net/chevy/raid1/pdb_mirror/pdb/xa/pdb2xaa.ent.gz'
p1929
sS'pdb1uf2'
p1930
S'/net/chevy/raid1/pdb_mirror/pdb/uf/pdb1uf2.ent.gz'
p1931
sS'pdb2y9a'
p1932
S'/net/chevy/raid1/pdb_mirror/pdb/y9/pdb2y9a.ent.gz'
p1933
sS'pdb2y9c'
p1934
S'/net/chevy/raid1/pdb_mirror/pdb/y9/pdb2y9c.ent.gz'
p1935
sS'pdb2y9b'
p1936
S'/net/chevy/raid1/pdb_mirror/pdb/y9/pdb2y9b.ent.gz'
p1937
sS'pdb1gyk'
p1938
S'/net/chevy/raid1/pdb_mirror/pdb/gy/pdb1gyk.ent.gz'
p1939
sS'pdb2y9x'
p1940
S'/net/chevy/raid1/pdb_mirror/pdb/y9/pdb2y9x.ent.gz'
p1941
sS'pdb1gyr'
p1942
S'/net/chevy/raid1/pdb_mirror/pdb/gy/pdb1gyr.ent.gz'
p1943
sS'pdb1gyp'
p1944
S'/net/chevy/raid1/pdb_mirror/pdb/gy/pdb1gyp.ent.gz'
p1945
sS'pdb1gyq'
p1946
S'/net/chevy/raid1/pdb_mirror/pdb/gy/pdb1gyq.ent.gz'
p1947
sS'pdb2y9w'
p1948
S'/net/chevy/raid1/pdb_mirror/pdb/y9/pdb2y9w.ent.gz'
p1949
sS'pdb4a0t'
p1950
S'/net/chevy/raid1/pdb_mirror/pdb/a0/pdb4a0t.ent.gz'
p1951
sS'pdb4a0u'
p1952
S'/net/chevy/raid1/pdb_mirror/pdb/a0/pdb4a0u.ent.gz'
p1953
sS'pdb4b9b'
p1954
S'/net/chevy/raid1/pdb_mirror/pdb/b9/pdb4b9b.ent.gz'
p1955
sS'pdb4b9w'
p1956
S'/net/chevy/raid1/pdb_mirror/pdb/b9/pdb4b9w.ent.gz'
p1957
sS'pdb4b9q'
p1958
S'/net/chevy/raid1/pdb_mirror/pdb/b9/pdb4b9q.ent.gz'
p1959
sS'pdb2g34'
p1960
S'/net/chevy/raid1/pdb_mirror/pdb/g3/pdb2g34.ent.gz'
p1961
sS'pdb2xll'
p1962
S'/net/chevy/raid1/pdb_mirror/pdb/xl/pdb2xll.ent.gz'
p1963
sS'pdb2g33'
p1964
S'/net/chevy/raid1/pdb_mirror/pdb/g3/pdb2g33.ent.gz'
p1965
sS'pdb2vnt'
p1966
S'/net/chevy/raid1/pdb_mirror/pdb/vn/pdb2vnt.ent.gz'
p1967
sS'pdb1hb8'
p1968
S'/net/chevy/raid1/pdb_mirror/pdb/hb/pdb1hb8.ent.gz'
p1969
sS'pdb1e4k'
p1970
S'/net/chevy/raid1/pdb_mirror/pdb/e4/pdb1e4k.ent.gz'
p1971
sS'pdb2w3x'
p1972
S'/net/chevy/raid1/pdb_mirror/pdb/w3/pdb2w3x.ent.gz'
p1973
sS'pdb2cdy'
p1974
S'/net/chevy/raid1/pdb_mirror/pdb/cd/pdb2cdy.ent.gz'
p1975
sS'pdb1e4d'
p1976
S'/net/chevy/raid1/pdb_mirror/pdb/e4/pdb1e4d.ent.gz'
p1977
sS'pdb2wd0'
p1978
S'/net/chevy/raid1/pdb_mirror/pdb/wd/pdb2wd0.ent.gz'
p1979
sS'pdb2w3s'
p1980
S'/net/chevy/raid1/pdb_mirror/pdb/w3/pdb2w3s.ent.gz'
p1981
sS'pdb2w3r'
p1982
S'/net/chevy/raid1/pdb_mirror/pdb/w3/pdb2w3r.ent.gz'
p1983
sS'pdb1c8n'
p1984
S'/net/chevy/raid1/pdb_mirror/pdb/c8/pdb1c8n.ent.gz'
p1985
sS'pdb1vzm'
p1986
S'/net/chevy/raid1/pdb_mirror/pdb/vz/pdb1vzm.ent.gz'
p1987
sS'pdb1aon'
p1988
S'/net/chevy/raid1/pdb_mirror/pdb/ao/pdb1aon.ent.gz'
p1989
sS'pdb4dbv'
p1990
S'/net/chevy/raid1/pdb_mirror/pdb/db/pdb4dbv.ent.gz'
p1991
sS'pdb1zbe'
p1992
S'/net/chevy/raid1/pdb_mirror/pdb/zb/pdb1zbe.ent.gz'
p1993
sS'pdb1zba'
p1994
S'/net/chevy/raid1/pdb_mirror/pdb/zb/pdb1zba.ent.gz'
p1995
sS'pdb1vz8'
p1996
S'/net/chevy/raid1/pdb_mirror/pdb/vz/pdb1vz8.ent.gz'
p1997
sS'pdb2ipj'
p1998
S'/net/chevy/raid1/pdb_mirror/pdb/ip/pdb2ipj.ent.gz'
p1999
sS'pdb2wdz'
p2000
S'/net/chevy/raid1/pdb_mirror/pdb/wd/pdb2wdz.ent.gz'
p2001
sS'pdb2ipf'
p2002
S'/net/chevy/raid1/pdb_mirror/pdb/ip/pdb2ipf.ent.gz'
p2003
sS'pdb2ipg'
p2004
S'/net/chevy/raid1/pdb_mirror/pdb/ip/pdb2ipg.ent.gz'
p2005
sS'pdb2wdv'
p2006
S'/net/chevy/raid1/pdb_mirror/pdb/wd/pdb2wdv.ent.gz'
p2007
sS'pdb406d'
p2008
S'/net/chevy/raid1/pdb_mirror/pdb/06/pdb406d.ent.gz'
p2009
sS'pdb1vz7'
p2010
S'/net/chevy/raid1/pdb_mirror/pdb/vz/pdb1vz7.ent.gz'
p2011
sS'pdb2wdr'
p2012
S'/net/chevy/raid1/pdb_mirror/pdb/wd/pdb2wdr.ent.gz'
p2013
sS'pdb1d3b'
p2014
S'/net/chevy/raid1/pdb_mirror/pdb/d3/pdb1d3b.ent.gz'
p2015
sS'pdb2w2u'
p2016
S'/net/chevy/raid1/pdb_mirror/pdb/w2/pdb2w2u.ent.gz'
p2017
sS'pdb1h3a'
p2018
S'/net/chevy/raid1/pdb_mirror/pdb/h3/pdb1h3a.ent.gz'
p2019
sS'pdb2woe'
p2020
S'/net/chevy/raid1/pdb_mirror/pdb/wo/pdb2woe.ent.gz'
p2021
sS'pdb1ao0'
p2022
S'/net/chevy/raid1/pdb_mirror/pdb/ao/pdb1ao0.ent.gz'
p2023
sS'pdb1ao5'
p2024
S'/net/chevy/raid1/pdb_mirror/pdb/ao/pdb1ao5.ent.gz'
p2025
sS'pdb2i99'
p2026
S'/net/chevy/raid1/pdb_mirror/pdb/i9/pdb2i99.ent.gz'
p2027
sS'pdb3uul'
p2028
S'/net/chevy/raid1/pdb_mirror/pdb/uu/pdb3uul.ent.gz'
p2029
sS'pdb2j6l'
p2030
S'/net/chevy/raid1/pdb_mirror/pdb/j6/pdb2j6l.ent.gz'
p2031
sS'pdb2j6i'
p2032
S'/net/chevy/raid1/pdb_mirror/pdb/j6/pdb2j6i.ent.gz'
p2033
sS'pdb4gtl'
p2034
S'/net/chevy/raid1/pdb_mirror/pdb/gt/pdb4gtl.ent.gz'
p2035
sS'pdb1agq'
p2036
S'/net/chevy/raid1/pdb_mirror/pdb/ag/pdb1agq.ent.gz'
p2037
sS'pdb1aa1'
p2038
S'/net/chevy/raid1/pdb_mirror/pdb/aa/pdb1aa1.ent.gz'
p2039
sS'pdb1hl4'
p2040
S'/net/chevy/raid1/pdb_mirror/pdb/hl/pdb1hl4.ent.gz'
p2041
sS'pdb1hl5'
p2042
S'/net/chevy/raid1/pdb_mirror/pdb/hl/pdb1hl5.ent.gz'
p2043
sS'pdb1hrd'
p2044
S'/net/chevy/raid1/pdb_mirror/pdb/hr/pdb1hrd.ent.gz'
p2045
sS'pdb4ivc'
p2046
S'/net/chevy/raid1/pdb_mirror/pdb/iv/pdb4ivc.ent.gz'
p2047
sS'pdb2vee'
p2048
S'/net/chevy/raid1/pdb_mirror/pdb/ve/pdb2vee.ent.gz'
p2049
sS'pdb2j6y'
p2050
S'/net/chevy/raid1/pdb_mirror/pdb/j6/pdb2j6y.ent.gz'
p2051
sS'pdb4fie'
p2052
S'/net/chevy/raid1/pdb_mirror/pdb/fi/pdb4fie.ent.gz'
p2053
sS'pdb4jrq'
p2054
S'/net/chevy/raid1/pdb_mirror/pdb/jr/pdb4jrq.ent.gz'
p2055
sS'pdb4b2b'
p2056
S'/net/chevy/raid1/pdb_mirror/pdb/b2/pdb4b2b.ent.gz'
p2057
sS'pdb1qom'
p2058
S'/net/chevy/raid1/pdb_mirror/pdb/qo/pdb1qom.ent.gz'
p2059
sS'pdb4ev0'
p2060
S'/net/chevy/raid1/pdb_mirror/pdb/ev/pdb4ev0.ent.gz'
p2061
sS'pdb3p0s'
p2062
S'/net/chevy/raid1/pdb_mirror/pdb/p0/pdb3p0s.ent.gz'
p2063
sS'pdb3vbu'
p2064
S'/net/chevy/raid1/pdb_mirror/pdb/vb/pdb3vbu.ent.gz'
p2065
sS'pdb4jre'
p2066
S'/net/chevy/raid1/pdb_mirror/pdb/jr/pdb4jre.ent.gz'
p2067
sS'pdb4g3e'
p2068
S'/net/chevy/raid1/pdb_mirror/pdb/g3/pdb4g3e.ent.gz'
p2069
sS'pdb2v0o'
p2070
S'/net/chevy/raid1/pdb_mirror/pdb/v0/pdb2v0o.ent.gz'
p2071
sS'pdb2v0n'
p2072
S'/net/chevy/raid1/pdb_mirror/pdb/v0/pdb2v0n.ent.gz'
p2073
sS'pdb4iv3'
p2074
S'/net/chevy/raid1/pdb_mirror/pdb/iv/pdb4iv3.ent.gz'
p2075
sS'pdb2ypt'
p2076
S'/net/chevy/raid1/pdb_mirror/pdb/yp/pdb2ypt.ent.gz'
p2077
sS'pdb4iv1'
p2078
S'/net/chevy/raid1/pdb_mirror/pdb/iv/pdb4iv1.ent.gz'
p2079
sS'pdb2yps'
p2080
S'/net/chevy/raid1/pdb_mirror/pdb/yp/pdb2yps.ent.gz'
p2081
sS'pdb1hr3'
p2082
S'/net/chevy/raid1/pdb_mirror/pdb/hr/pdb1hr3.ent.gz'
p2083
sS'pdb1pbi'
p2084
S'/net/chevy/raid1/pdb_mirror/pdb/pb/pdb1pbi.ent.gz'
p2085
sS'pdb2j69'
p2086
S'/net/chevy/raid1/pdb_mirror/pdb/j6/pdb2j69.ent.gz'
p2087
sS'pdb2v0v'
p2088
S'/net/chevy/raid1/pdb_mirror/pdb/v0/pdb2v0v.ent.gz'
p2089
sS'pdb2bs1'
p2090
S'/net/chevy/raid1/pdb_mirror/pdb/bs/pdb2bs1.ent.gz'
p2091
sS'pdb2cfy'
p2092
S'/net/chevy/raid1/pdb_mirror/pdb/cf/pdb2cfy.ent.gz'
p2093
sS'pdb2bs9'
p2094
S'/net/chevy/raid1/pdb_mirror/pdb/bs/pdb2bs9.ent.gz'
p2095
sS'pdb4evg'
p2096
S'/net/chevy/raid1/pdb_mirror/pdb/ev/pdb4evg.ent.gz'
p2097
sS'pdb2j8y'
p2098
S'/net/chevy/raid1/pdb_mirror/pdb/j8/pdb2j8y.ent.gz'
p2099
sS'pdb2j8x'
p2100
S'/net/chevy/raid1/pdb_mirror/pdb/j8/pdb2j8x.ent.gz'
p2101
sS'pdb1w7q'
p2102
S'/net/chevy/raid1/pdb_mirror/pdb/w7/pdb1w7q.ent.gz'
p2103
sS'pdb1w7r'
p2104
S'/net/chevy/raid1/pdb_mirror/pdb/w7/pdb1w7r.ent.gz'
p2105
sS'pdb1br4'
p2106
S'/net/chevy/raid1/pdb_mirror/pdb/br/pdb1br4.ent.gz'
p2107
sS'pdb4aje'
p2108
S'/net/chevy/raid1/pdb_mirror/pdb/aj/pdb4aje.ent.gz'
p2109
sS'pdb1br2'
p2110
S'/net/chevy/raid1/pdb_mirror/pdb/br/pdb1br2.ent.gz'
p2111
sS'pdb1fta'
p2112
S'/net/chevy/raid1/pdb_mirror/pdb/ft/pdb1fta.ent.gz'
p2113
sS'pdb1br1'
p2114
S'/net/chevy/raid1/pdb_mirror/pdb/br/pdb1br1.ent.gz'
p2115
sS'pdb4ajn'
p2116
S'/net/chevy/raid1/pdb_mirror/pdb/aj/pdb4ajn.ent.gz'
p2117
sS'pdb4ajo'
p2118
S'/net/chevy/raid1/pdb_mirror/pdb/aj/pdb4ajo.ent.gz'
p2119
sS'pdb4ajl'
p2120
S'/net/chevy/raid1/pdb_mirror/pdb/aj/pdb4ajl.ent.gz'
p2121
sS'pdb4ajj'
p2122
S'/net/chevy/raid1/pdb_mirror/pdb/aj/pdb4ajj.ent.gz'
p2123
sS'pdb4ajk'
p2124
S'/net/chevy/raid1/pdb_mirror/pdb/aj/pdb4ajk.ent.gz'
p2125
sS'pdb4ajh'
p2126
S'/net/chevy/raid1/pdb_mirror/pdb/aj/pdb4ajh.ent.gz'
p2127
sS'pdb4aji'
p2128
S'/net/chevy/raid1/pdb_mirror/pdb/aj/pdb4aji.ent.gz'
p2129
sS'pdb2wkv'
p2130
S'/net/chevy/raid1/pdb_mirror/pdb/wk/pdb2wkv.ent.gz'
p2131
sS'pdb4ajp'
p2132
S'/net/chevy/raid1/pdb_mirror/pdb/aj/pdb4ajp.ent.gz'
p2133
sS'pdb1uv6'
p2134
S'/net/chevy/raid1/pdb_mirror/pdb/uv/pdb1uv6.ent.gz'
p2135
sS'pdb1b3s'
p2136
S'/net/chevy/raid1/pdb_mirror/pdb/b3/pdb1b3s.ent.gz'
p2137
sS'pdb1qlr'
p2138
S'/net/chevy/raid1/pdb_mirror/pdb/ql/pdb1qlr.ent.gz'
p2139
sS'pdb1b3r'
p2140
S'/net/chevy/raid1/pdb_mirror/pdb/b3/pdb1b3r.ent.gz'
p2141
sS'pdb3zjx'
p2142
S'/net/chevy/raid1/pdb_mirror/pdb/zj/pdb3zjx.ent.gz'
p2143
sS'pdb1x9t'
p2144
S'/net/chevy/raid1/pdb_mirror/pdb/x9/pdb1x9t.ent.gz'
p2145
sS'pdb2jc3'
p2146
S'/net/chevy/raid1/pdb_mirror/pdb/jc/pdb2jc3.ent.gz'
p2147
sS'pdb3tat'
p2148
S'/net/chevy/raid1/pdb_mirror/pdb/ta/pdb3tat.ent.gz'
p2149
sS'pdb2yf2'
p2150
S'/net/chevy/raid1/pdb_mirror/pdb/yf/pdb2yf2.ent.gz'
p2151
sS'pdb4gbt'
p2152
S'/net/chevy/raid1/pdb_mirror/pdb/gb/pdb4gbt.ent.gz'
p2153
sS'pdb3vun'
p2154
S'/net/chevy/raid1/pdb_mirror/pdb/vu/pdb3vun.ent.gz'
p2155
sS'pdb1kbp'
p2156
S'/net/chevy/raid1/pdb_mirror/pdb/kb/pdb1kbp.ent.gz'
p2157
sS'pdb1brr'
p2158
S'/net/chevy/raid1/pdb_mirror/pdb/br/pdb1brr.ent.gz'
p2159
sS'pdb4aj4'
p2160
S'/net/chevy/raid1/pdb_mirror/pdb/aj/pdb4aj4.ent.gz'
p2161
sS'pdb4aj5'
p2162
S'/net/chevy/raid1/pdb_mirror/pdb/aj/pdb4aj5.ent.gz'
p2163
sS'pdb4aj2'
p2164
S'/net/chevy/raid1/pdb_mirror/pdb/aj/pdb4aj2.ent.gz'
p2165
sS'pdb4aj1'
p2166
S'/net/chevy/raid1/pdb_mirror/pdb/aj/pdb4aj1.ent.gz'
p2167
sS'pdb1brm'
p2168
S'/net/chevy/raid1/pdb_mirror/pdb/br/pdb1brm.ent.gz'
p2169
sS'pdb2yfk'
p2170
S'/net/chevy/raid1/pdb_mirror/pdb/yf/pdb2yfk.ent.gz'
p2171
sS'pdb3ztj'
p2172
S'/net/chevy/raid1/pdb_mirror/pdb/zt/pdb3ztj.ent.gz'
p2173
sS'pdb1fzc'
p2174
S'/net/chevy/raid1/pdb_mirror/pdb/fz/pdb1fzc.ent.gz'
p2175
sS'pdb4ix9'
p2176
S'/net/chevy/raid1/pdb_mirror/pdb/ix/pdb4ix9.ent.gz'
p2177
sS'pdb1fzd'
p2178
S'/net/chevy/raid1/pdb_mirror/pdb/fz/pdb1fzd.ent.gz'
p2179
sS'pdb1fze'
p2180
S'/net/chevy/raid1/pdb_mirror/pdb/fz/pdb1fze.ent.gz'
p2181
sS'pdb1ndl'
p2182
S'/net/chevy/raid1/pdb_mirror/pdb/nd/pdb1ndl.ent.gz'
p2183
sS'pdb1ndo'
p2184
S'/net/chevy/raid1/pdb_mirror/pdb/nd/pdb1ndo.ent.gz'
p2185
sS'pdb1dzl'
p2186
S'/net/chevy/raid1/pdb_mirror/pdb/dz/pdb1dzl.ent.gz'
p2187
sS'pdb2jca'
p2188
S'/net/chevy/raid1/pdb_mirror/pdb/jc/pdb2jca.ent.gz'
p2189
sS'pdb4gb3'
p2190
S'/net/chevy/raid1/pdb_mirror/pdb/gb/pdb4gb3.ent.gz'
p2191
sS'pdb1ppr'
p2192
S'/net/chevy/raid1/pdb_mirror/pdb/pp/pdb1ppr.ent.gz'
p2193
sS'pdb2yfw'
p2194
S'/net/chevy/raid1/pdb_mirror/pdb/yf/pdb2yfw.ent.gz'
p2195
sS'pdb2vom'
p2196
S'/net/chevy/raid1/pdb_mirror/pdb/vo/pdb2vom.ent.gz'
p2197
sS'pdb2wuk'
p2198
S'/net/chevy/raid1/pdb_mirror/pdb/wu/pdb2wuk.ent.gz'
p2199
sS'pdb2xq1'
p2200
S'/net/chevy/raid1/pdb_mirror/pdb/xq/pdb2xq1.ent.gz'
p2201
sS'pdb3sod'
p2202
S'/net/chevy/raid1/pdb_mirror/pdb/so/pdb3sod.ent.gz'
p2203
sS'pdb1w62'
p2204
S'/net/chevy/raid1/pdb_mirror/pdb/w6/pdb1w62.ent.gz'
p2205
sS'pdb2vy3'
p2206
S'/net/chevy/raid1/pdb_mirror/pdb/vy/pdb2vy3.ent.gz'
p2207
sS'pdb3kae'
p2208
S'/net/chevy/raid1/pdb_mirror/pdb/ka/pdb3kae.ent.gz'
p2209
sS'pdb2bo2'
p2210
S'/net/chevy/raid1/pdb_mirror/pdb/bo/pdb2bo2.ent.gz'
p2211
sS'pdb3vcn'
p2212
S'/net/chevy/raid1/pdb_mirror/pdb/vc/pdb3vcn.ent.gz'
p2213
sS'pdb4a36'
p2214
S'/net/chevy/raid1/pdb_mirror/pdb/a3/pdb4a36.ent.gz'
p2215
sS'pdb3pkq'
p2216
S'/net/chevy/raid1/pdb_mirror/pdb/pk/pdb3pkq.ent.gz'
p2217
sS'pdb3pkp'
p2218
S'/net/chevy/raid1/pdb_mirror/pdb/pk/pdb3pkp.ent.gz'
p2219
sS'pdb3vcf'
p2220
S'/net/chevy/raid1/pdb_mirror/pdb/vc/pdb3vcf.ent.gz'
p2221
sS'pdb2vo9'
p2222
S'/net/chevy/raid1/pdb_mirror/pdb/vo/pdb2vo9.ent.gz'
p2223
sS'pdb2xpj'
p2224
S'/net/chevy/raid1/pdb_mirror/pdb/xp/pdb2xpj.ent.gz'
p2225
sS'pdb1lfd'
p2226
S'/net/chevy/raid1/pdb_mirror/pdb/lf/pdb1lfd.ent.gz'
p2227
sS'pdb1bda'
p2228
S'/net/chevy/raid1/pdb_mirror/pdb/bd/pdb1bda.ent.gz'
p2229
sS'pdb1kpk'
p2230
S'/net/chevy/raid1/pdb_mirror/pdb/kp/pdb1kpk.ent.gz'
p2231
sS'pdb2vyv'
p2232
S'/net/chevy/raid1/pdb_mirror/pdb/vy/pdb2vyv.ent.gz'
p2233
sS'pdb1w6u'
p2234
S'/net/chevy/raid1/pdb_mirror/pdb/w6/pdb1w6u.ent.gz'
p2235
sS'pdb2vyn'
p2236
S'/net/chevy/raid1/pdb_mirror/pdb/vy/pdb2vyn.ent.gz'
p2237
sS'pdb1thj'
p2238
S'/net/chevy/raid1/pdb_mirror/pdb/th/pdb1thj.ent.gz'
p2239
sS'pdb1bdt'
p2240
S'/net/chevy/raid1/pdb_mirror/pdb/bd/pdb1bdt.ent.gz'
p2241
sS'pdb1bdv'
p2242
S'/net/chevy/raid1/pdb_mirror/pdb/bd/pdb1bdv.ent.gz'
p2243
sS'pdb2bos'
p2244
S'/net/chevy/raid1/pdb_mirror/pdb/bo/pdb2bos.ent.gz'
p2245
sS'pdb1bdx'
p2246
S'/net/chevy/raid1/pdb_mirror/pdb/bd/pdb1bdx.ent.gz'
p2247
sS'pdb2boy'
p2248
S'/net/chevy/raid1/pdb_mirror/pdb/bo/pdb2boy.ent.gz'
p2249
sS'pdb2iwe'
p2250
S'/net/chevy/raid1/pdb_mirror/pdb/iw/pdb2iwe.ent.gz'
p2251
sS'pdb4bqs'
p2252
S'/net/chevy/raid1/pdb_mirror/pdb/bq/pdb4bqs.ent.gz'
p2253
sS'pdb8i1b'
p2254
S'/net/chevy/raid1/pdb_mirror/pdb/i1/pdb8i1b.ent.gz'
p2255
sS'pdb1ehy'
p2256
S'/net/chevy/raid1/pdb_mirror/pdb/eh/pdb1ehy.ent.gz'
p2257
sS'pdb2wu5'
p2258
S'/net/chevy/raid1/pdb_mirror/pdb/wu/pdb2wu5.ent.gz'
p2259
sS'pdb2wu2'
p2260
S'/net/chevy/raid1/pdb_mirror/pdb/wu/pdb2wu2.ent.gz'
p2261
sS'pdb4bqb'
p2262
S'/net/chevy/raid1/pdb_mirror/pdb/bq/pdb4bqb.ent.gz'
p2263
sS'pdb2wgf'
p2264
S'/net/chevy/raid1/pdb_mirror/pdb/wg/pdb2wgf.ent.gz'
p2265
sS'pdb2y84'
p2266
S'/net/chevy/raid1/pdb_mirror/pdb/y8/pdb2y84.ent.gz'
p2267
sS'pdb2y85'
p2268
S'/net/chevy/raid1/pdb_mirror/pdb/y8/pdb2y85.ent.gz'
p2269
sS'pdb2qqp'
p2270
S'/net/chevy/raid1/pdb_mirror/pdb/qq/pdb2qqp.ent.gz'
p2271
sS'pdb2x7o'
p2272
S'/net/chevy/raid1/pdb_mirror/pdb/x7/pdb2x7o.ent.gz'
p2273
sS'pdb2xb2'
p2274
S'/net/chevy/raid1/pdb_mirror/pdb/xb/pdb2xb2.ent.gz'
p2275
sS'pdb2xb9'
p2276
S'/net/chevy/raid1/pdb_mirror/pdb/xb/pdb2xb9.ent.gz'
p2277
sS'pdb4lop'
p2278
S'/net/chevy/raid1/pdb_mirror/pdb/lo/pdb4lop.ent.gz'
p2279
sS'pdb4loq'
p2280
S'/net/chevy/raid1/pdb_mirror/pdb/lo/pdb4loq.ent.gz'
p2281
sS'pdb2wul'
p2282
S'/net/chevy/raid1/pdb_mirror/pdb/wu/pdb2wul.ent.gz'
p2283
sS'pdb4bof'
p2284
S'/net/chevy/raid1/pdb_mirror/pdb/bo/pdb4bof.ent.gz'
p2285
sS'pdb4bq6'
p2286
S'/net/chevy/raid1/pdb_mirror/pdb/bq/pdb4bq6.ent.gz'
p2287
sS'pdb4bq7'
p2288
S'/net/chevy/raid1/pdb_mirror/pdb/bq/pdb4bq7.ent.gz'
p2289
sS'pdb4bq0'
p2290
S'/net/chevy/raid1/pdb_mirror/pdb/bq/pdb4bq0.ent.gz'
p2291
sS'pdb2uyp'
p2292
S'/net/chevy/raid1/pdb_mirror/pdb/uy/pdb2uyp.ent.gz'
p2293
sS'pdb2uyl'
p2294
S'/net/chevy/raid1/pdb_mirror/pdb/uy/pdb2uyl.ent.gz'
p2295
sS'pdb2uyn'
p2296
S'/net/chevy/raid1/pdb_mirror/pdb/uy/pdb2uyn.ent.gz'
p2297
sS'pdb2agv'
p2298
S'/net/chevy/raid1/pdb_mirror/pdb/ag/pdb2agv.ent.gz'
p2299
sS'pdb2uyk'
p2300
S'/net/chevy/raid1/pdb_mirror/pdb/uy/pdb2uyk.ent.gz'
p2301
sS'pdb2uyj'
p2302
S'/net/chevy/raid1/pdb_mirror/pdb/uy/pdb2uyj.ent.gz'
p2303
sS'pdb1ut1'
p2304
S'/net/chevy/raid1/pdb_mirror/pdb/ut/pdb1ut1.ent.gz'
p2305
sS'pdb1wyk'
p2306
S'/net/chevy/raid1/pdb_mirror/pdb/wy/pdb1wyk.ent.gz'
p2307
sS'pdb2tod'
p2308
S'/net/chevy/raid1/pdb_mirror/pdb/to/pdb2tod.ent.gz'
p2309
sS'pdb2xbb'
p2310
S'/net/chevy/raid1/pdb_mirror/pdb/xb/pdb2xbb.ent.gz'
p2311
sS'pdb1olp'
p2312
S'/net/chevy/raid1/pdb_mirror/pdb/ol/pdb1olp.ent.gz'
p2313
sS'pdb1qpo'
p2314
S'/net/chevy/raid1/pdb_mirror/pdb/qp/pdb1qpo.ent.gz'
p2315
sS'pdb1qpn'
p2316
S'/net/chevy/raid1/pdb_mirror/pdb/qp/pdb1qpn.ent.gz'
p2317
sS'pdb2xbo'
p2318
S'/net/chevy/raid1/pdb_mirror/pdb/xb/pdb2xbo.ent.gz'
p2319
sS'pdb1qpr'
p2320
S'/net/chevy/raid1/pdb_mirror/pdb/qp/pdb1qpr.ent.gz'
p2321
sS'pdb1h28'
p2322
S'/net/chevy/raid1/pdb_mirror/pdb/h2/pdb1h28.ent.gz'
p2323
sS'pdb1n2c'
p2324
S'/net/chevy/raid1/pdb_mirror/pdb/n2/pdb1n2c.ent.gz'
p2325
sS'pdb2ewy'
p2326
S'/net/chevy/raid1/pdb_mirror/pdb/ew/pdb2ewy.ent.gz'
p2327
sS'pdb3sqc'
p2328
S'/net/chevy/raid1/pdb_mirror/pdb/sq/pdb3sqc.ent.gz'
p2329
sS'pdb2v1t'
p2330
S'/net/chevy/raid1/pdb_mirror/pdb/v1/pdb2v1t.ent.gz'
p2331
sS'pdb1par'
p2332
S'/net/chevy/raid1/pdb_mirror/pdb/pa/pdb1par.ent.gz'
p2333
sS'pdb2v1s'
p2334
S'/net/chevy/raid1/pdb_mirror/pdb/v1/pdb2v1s.ent.gz'
p2335
sS'pdb2siv'
p2336
S'/net/chevy/raid1/pdb_mirror/pdb/si/pdb2siv.ent.gz'
p2337
sS'pdb2pmt'
p2338
S'/net/chevy/raid1/pdb_mirror/pdb/pm/pdb2pmt.ent.gz'
p2339
sS'pdb2y3t'
p2340
S'/net/chevy/raid1/pdb_mirror/pdb/y3/pdb2y3t.ent.gz'
p2341
sS'pdb1hcy'
p2342
S'/net/chevy/raid1/pdb_mirror/pdb/hc/pdb1hcy.ent.gz'
p2343
sS'pdb1h86'
p2344
S'/net/chevy/raid1/pdb_mirror/pdb/h8/pdb1h86.ent.gz'
p2345
sS'pdb1h84'
p2346
S'/net/chevy/raid1/pdb_mirror/pdb/h8/pdb1h84.ent.gz'
p2347
sS'pdb1h82'
p2348
S'/net/chevy/raid1/pdb_mirror/pdb/h8/pdb1h82.ent.gz'
p2349
sS'pdb1h83'
p2350
S'/net/chevy/raid1/pdb_mirror/pdb/h8/pdb1h83.ent.gz'
p2351
sS'pdb1h81'
p2352
S'/net/chevy/raid1/pdb_mirror/pdb/h8/pdb1h81.ent.gz'
p2353
sS'pdb1ap2'
p2354
S'/net/chevy/raid1/pdb_mirror/pdb/ap/pdb1ap2.ent.gz'
p2355
sS'pdb2j9l'
p2356
S'/net/chevy/raid1/pdb_mirror/pdb/j9/pdb2j9l.ent.gz'
p2357
sS'pdb1uvk'
p2358
S'/net/chevy/raid1/pdb_mirror/pdb/uv/pdb1uvk.ent.gz'
p2359
sS'pdb2j9u'
p2360
S'/net/chevy/raid1/pdb_mirror/pdb/j9/pdb2j9u.ent.gz'
p2361
sS'pdb3rul'
p2362
S'/net/chevy/raid1/pdb_mirror/pdb/ru/pdb3rul.ent.gz'
p2363
sS'pdb1qf3'
p2364
S'/net/chevy/raid1/pdb_mirror/pdb/qf/pdb1qf3.ent.gz'
p2365
sS'pdb2a8v'
p2366
S'/net/chevy/raid1/pdb_mirror/pdb/a8/pdb2a8v.ent.gz'
p2367
sS'pdb2v18'
p2368
S'/net/chevy/raid1/pdb_mirror/pdb/v1/pdb2v18.ent.gz'
p2369
sS'pdb5hoh'
p2370
S'/net/chevy/raid1/pdb_mirror/pdb/ho/pdb5hoh.ent.gz'
p2371
sS'pdb1h8v'
p2372
S'/net/chevy/raid1/pdb_mirror/pdb/h8/pdb1h8v.ent.gz'
p2373
sS'pdb2w2c'
p2374
S'/net/chevy/raid1/pdb_mirror/pdb/w2/pdb2w2c.ent.gz'
p2375
sS'pdb1h8t'
p2376
S'/net/chevy/raid1/pdb_mirror/pdb/h8/pdb1h8t.ent.gz'
p2377
sS'pdb1e5p'
p2378
S'/net/chevy/raid1/pdb_mirror/pdb/e5/pdb1e5p.ent.gz'
p2379
sS'pdb1e5q'
p2380
S'/net/chevy/raid1/pdb_mirror/pdb/e5/pdb1e5q.ent.gz'
p2381
sS'pdb2y3r'
p2382
S'/net/chevy/raid1/pdb_mirror/pdb/y3/pdb2y3r.ent.gz'
p2383
sS'pdb1rco'
p2384
S'/net/chevy/raid1/pdb_mirror/pdb/rc/pdb1rco.ent.gz'
p2385
sS'pdb2e0z'
p2386
S'/net/chevy/raid1/pdb_mirror/pdb/e0/pdb2e0z.ent.gz'
p2387
sS'pdb2oag'
p2388
S'/net/chevy/raid1/pdb_mirror/pdb/oa/pdb2oag.ent.gz'
p2389
sS'pdb1apx'
p2390
S'/net/chevy/raid1/pdb_mirror/pdb/ap/pdb1apx.ent.gz'
p2391
sS'pdb1rcx'
p2392
S'/net/chevy/raid1/pdb_mirror/pdb/rc/pdb1rcx.ent.gz'
p2393
sS'pdb2uwa'
p2394
S'/net/chevy/raid1/pdb_mirror/pdb/uw/pdb2uwa.ent.gz'
p2395
sS'pdb3zuo'
p2396
S'/net/chevy/raid1/pdb_mirror/pdb/zu/pdb3zuo.ent.gz'
p2397
sS'pdb2oat'
p2398
S'/net/chevy/raid1/pdb_mirror/pdb/oa/pdb2oat.ent.gz'
p2399
sS'pdb1vak'
p2400
S'/net/chevy/raid1/pdb_mirror/pdb/va/pdb1vak.ent.gz'
p2401
sS'pdb2br8'
p2402
S'/net/chevy/raid1/pdb_mirror/pdb/br/pdb2br8.ent.gz'
p2403
sS'pdb1ump'
p2404
S'/net/chevy/raid1/pdb_mirror/pdb/um/pdb1ump.ent.gz'
p2405
sS'pdb1umy'
p2406
S'/net/chevy/raid1/pdb_mirror/pdb/um/pdb1umy.ent.gz'
p2407
sS'pdb1umn'
p2408
S'/net/chevy/raid1/pdb_mirror/pdb/um/pdb1umn.ent.gz'
p2409
sS'pdb1a79'
p2410
S'/net/chevy/raid1/pdb_mirror/pdb/a7/pdb1a79.ent.gz'
p2411
sS'pdb2yev'
p2412
S'/net/chevy/raid1/pdb_mirror/pdb/ye/pdb2yev.ent.gz'
p2413
sS'pdb2yeq'
p2414
S'/net/chevy/raid1/pdb_mirror/pdb/ye/pdb2yeq.ent.gz'
p2415
sS'pdb2yep'
p2416
S'/net/chevy/raid1/pdb_mirror/pdb/ye/pdb2yep.ent.gz'
p2417
sS'pdb4js4'
p2418
S'/net/chevy/raid1/pdb_mirror/pdb/js/pdb4js4.ent.gz'
p2419
sS'pdb4js5'
p2420
S'/net/chevy/raid1/pdb_mirror/pdb/js/pdb4js5.ent.gz'
p2421
sS'pdb2bp1'
p2422
S'/net/chevy/raid1/pdb_mirror/pdb/bp/pdb2bp1.ent.gz'
p2423
sS'pdb4hk2'
p2424
S'/net/chevy/raid1/pdb_mirror/pdb/hk/pdb4hk2.ent.gz'
p2425
sS'pdb2y6q'
p2426
S'/net/chevy/raid1/pdb_mirror/pdb/y6/pdb2y6q.ent.gz'
p2427
sS'pdb1bu1'
p2428
S'/net/chevy/raid1/pdb_mirror/pdb/bu/pdb1bu1.ent.gz'
p2429
sS'pdb4eci'
p2430
S'/net/chevy/raid1/pdb_mirror/pdb/ec/pdb4eci.ent.gz'
p2431
sS'pdb4ecj'
p2432
S'/net/chevy/raid1/pdb_mirror/pdb/ec/pdb4ecj.ent.gz'
p2433
sS'pdb4ece'
p2434
S'/net/chevy/raid1/pdb_mirror/pdb/ec/pdb4ece.ent.gz'
p2435
sS'pdb4eca'
p2436
S'/net/chevy/raid1/pdb_mirror/pdb/ec/pdb4eca.ent.gz'
p2437
sS'pdb1a7l'
p2438
S'/net/chevy/raid1/pdb_mirror/pdb/a7/pdb1a7l.ent.gz'
p2439
sS'pdb2j7v'
p2440
S'/net/chevy/raid1/pdb_mirror/pdb/j7/pdb2j7v.ent.gz'
p2441
sS'pdb2j7p'
p2442
S'/net/chevy/raid1/pdb_mirror/pdb/j7/pdb2j7p.ent.gz'
p2443
sS'pdb2j7q'
p2444
S'/net/chevy/raid1/pdb_mirror/pdb/j7/pdb2j7q.ent.gz'
p2445
sS'pdb1ng0'
p2446
S'/net/chevy/raid1/pdb_mirror/pdb/ng/pdb1ng0.ent.gz'
p2447
sS'pdb4hkj'
p2448
S'/net/chevy/raid1/pdb_mirror/pdb/hk/pdb4hkj.ent.gz'
p2449
sS'pdb12e8'
p2450
S'/net/chevy/raid1/pdb_mirror/pdb/2e/pdb12e8.ent.gz'
p2451
sS'pdb4jsq'
p2452
S'/net/chevy/raid1/pdb_mirror/pdb/js/pdb4jsq.ent.gz'
p2453
sS'pdb4fet'
p2454
S'/net/chevy/raid1/pdb_mirror/pdb/fe/pdb4fet.ent.gz'
p2455
sS'pdb3ufj'
p2456
S'/net/chevy/raid1/pdb_mirror/pdb/uf/pdb3ufj.ent.gz'
p2457
sS'pdb3vbh'
p2458
S'/net/chevy/raid1/pdb_mirror/pdb/vb/pdb3vbh.ent.gz'
p2459
sS'pdb2gh8'
p2460
S'/net/chevy/raid1/pdb_mirror/pdb/gh/pdb2gh8.ent.gz'
p2461
sS'pdb2xqq'
p2462
S'/net/chevy/raid1/pdb_mirror/pdb/xq/pdb2xqq.ent.gz'
p2463
sS'pdb3vbo'
p2464
S'/net/chevy/raid1/pdb_mirror/pdb/vb/pdb3vbo.ent.gz'
p2465
sS'pdb2cdp'
p2466
S'/net/chevy/raid1/pdb_mirror/pdb/cd/pdb2cdp.ent.gz'
p2467
sS'pdb2xqy'
p2468
S'/net/chevy/raid1/pdb_mirror/pdb/xq/pdb2xqy.ent.gz'
p2469
sS'pdb3vbf'
p2470
S'/net/chevy/raid1/pdb_mirror/pdb/vb/pdb3vbf.ent.gz'
p2471
sS'pdb1gif'
p2472
S'/net/chevy/raid1/pdb_mirror/pdb/gi/pdb1gif.ent.gz'
p2473
sS'pdb2cdo'
p2474
S'/net/chevy/raid1/pdb_mirror/pdb/cd/pdb2cdo.ent.gz'
p2475
sS'pdb4imr'
p2476
S'/net/chevy/raid1/pdb_mirror/pdb/im/pdb4imr.ent.gz'
p2477
sS'pdb3vbr'
p2478
S'/net/chevy/raid1/pdb_mirror/pdb/vb/pdb3vbr.ent.gz'
p2479
sS'pdb4am8'
p2480
S'/net/chevy/raid1/pdb_mirror/pdb/am/pdb4am8.ent.gz'
p2481
sS'pdb2cde'
p2482
S'/net/chevy/raid1/pdb_mirror/pdb/cd/pdb2cde.ent.gz'
p2483
sS'pdb1w7z'
p2484
S'/net/chevy/raid1/pdb_mirror/pdb/w7/pdb1w7z.ent.gz'
p2485
sS'pdb1leh'
p2486
S'/net/chevy/raid1/pdb_mirror/pdb/le/pdb1leh.ent.gz'
p2487
sS'pdb1bgg'
p2488
S'/net/chevy/raid1/pdb_mirror/pdb/bg/pdb1bgg.ent.gz'
p2489
sS'pdb1bga'
p2490
S'/net/chevy/raid1/pdb_mirror/pdb/bg/pdb1bga.ent.gz'
p2491
sS'pdb2wju'
p2492
S'/net/chevy/raid1/pdb_mirror/pdb/wj/pdb2wju.ent.gz'
p2493
sS'pdb2qil'
p2494
S'/net/chevy/raid1/pdb_mirror/pdb/qi/pdb2qil.ent.gz'
p2495
sS'pdb2gtl'
p2496
S'/net/chevy/raid1/pdb_mirror/pdb/gt/pdb2gtl.ent.gz'
p2497
sS'pdb1lep'
p2498
S'/net/chevy/raid1/pdb_mirror/pdb/le/pdb1lep.ent.gz'
p2499
sS'pdb1ixx'
p2500
S'/net/chevy/raid1/pdb_mirror/pdb/ix/pdb1ixx.ent.gz'
p2501
sS'pdb4ama'
p2502
S'/net/chevy/raid1/pdb_mirror/pdb/am/pdb4ama.ent.gz'
p2503
sS'pdb1mli'
p2504
S'/net/chevy/raid1/pdb_mirror/pdb/ml/pdb1mli.ent.gz'
p2505
sS'pdb4amj'
p2506
S'/net/chevy/raid1/pdb_mirror/pdb/am/pdb4amj.ent.gz'
p2507
sS'pdb4ami'
p2508
S'/net/chevy/raid1/pdb_mirror/pdb/am/pdb4ami.ent.gz'
p2509
sS'pdb1ohy'
p2510
S'/net/chevy/raid1/pdb_mirror/pdb/oh/pdb1ohy.ent.gz'
p2511
sS'pdb4amw'
p2512
S'/net/chevy/raid1/pdb_mirror/pdb/am/pdb4amw.ent.gz'
p2513
sS'pdb4amx'
p2514
S'/net/chevy/raid1/pdb_mirror/pdb/am/pdb4amx.ent.gz'
p2515
sS'pdb1qmp'
p2516
S'/net/chevy/raid1/pdb_mirror/pdb/qm/pdb1qmp.ent.gz'
p2517
sS'pdb1sac'
p2518
S'/net/chevy/raid1/pdb_mirror/pdb/sa/pdb1sac.ent.gz'
p2519
sS'pdb1qmv'
p2520
S'/net/chevy/raid1/pdb_mirror/pdb/qm/pdb1qmv.ent.gz'
p2521
sS'pdb1w73'
p2522
S'/net/chevy/raid1/pdb_mirror/pdb/w7/pdb1w73.ent.gz'
p2523
sS'pdb1qma'
p2524
S'/net/chevy/raid1/pdb_mirror/pdb/qm/pdb1qma.ent.gz'
p2525
sS'pdb1bg8'
p2526
S'/net/chevy/raid1/pdb_mirror/pdb/bg/pdb1bg8.ent.gz'
p2527
sS'pdb1qmg'
p2528
S'/net/chevy/raid1/pdb_mirror/pdb/qm/pdb1qmg.ent.gz'
p2529
sS'pdb1qmi'
p2530
S'/net/chevy/raid1/pdb_mirror/pdb/qm/pdb1qmi.ent.gz'
p2531
sS'pdb3mdj'
p2532
S'/net/chevy/raid1/pdb_mirror/pdb/md/pdb3mdj.ent.gz'
p2533
sS'pdb1qmo'
p2534
S'/net/chevy/raid1/pdb_mirror/pdb/qm/pdb1qmo.ent.gz'
p2535
sS'pdb2wtl'
p2536
S'/net/chevy/raid1/pdb_mirror/pdb/wt/pdb2wtl.ent.gz'
p2537
sS'pdb2vl6'
p2538
S'/net/chevy/raid1/pdb_mirror/pdb/vl/pdb2vl6.ent.gz'
p2539
sS'pdb2vl1'
p2540
S'/net/chevy/raid1/pdb_mirror/pdb/vl/pdb2vl1.ent.gz'
p2541
sS'pdb2vl0'
p2542
S'/net/chevy/raid1/pdb_mirror/pdb/vl/pdb2vl0.ent.gz'
p2543
sS'pdb1mif'
p2544
S'/net/chevy/raid1/pdb_mirror/pdb/mi/pdb1mif.ent.gz'
p2545
sS'pdb4a25'
p2546
S'/net/chevy/raid1/pdb_mirror/pdb/a2/pdb4a25.ent.gz'
p2547
sS'pdb2afn'
p2548
S'/net/chevy/raid1/pdb_mirror/pdb/af/pdb2afn.ent.gz'
p2549
sS'pdb1bi9'
p2550
S'/net/chevy/raid1/pdb_mirror/pdb/bi/pdb1bi9.ent.gz'
p2551
sS'pdb2xcm'
p2552
S'/net/chevy/raid1/pdb_mirror/pdb/xc/pdb2xcm.ent.gz'
p2553
sS'pdb1qqp'
p2554
S'/net/chevy/raid1/pdb_mirror/pdb/qq/pdb1qqp.ent.gz'
p2555
sS'pdb2hpd'
p2556
S'/net/chevy/raid1/pdb_mirror/pdb/hp/pdb2hpd.ent.gz'
p2557
sS'pdb4a2x'
p2558
S'/net/chevy/raid1/pdb_mirror/pdb/a2/pdb4a2x.ent.gz'
p2559
sS'pdb2ux2'
p2560
S'/net/chevy/raid1/pdb_mirror/pdb/ux/pdb2ux2.ent.gz'
p2561
sS'pdb2ux0'
p2562
S'/net/chevy/raid1/pdb_mirror/pdb/ux/pdb2ux0.ent.gz'
p2563
sS'pdb1bij'
p2564
S'/net/chevy/raid1/pdb_mirror/pdb/bi/pdb1bij.ent.gz'
p2565
sS'pdb4a2q'
p2566
S'/net/chevy/raid1/pdb_mirror/pdb/a2/pdb4a2q.ent.gz'
p2567
sS'pdb2vle'
p2568
S'/net/chevy/raid1/pdb_mirror/pdb/vl/pdb2vle.ent.gz'
p2569
sS'pdb4a2l'
p2570
S'/net/chevy/raid1/pdb_mirror/pdb/a2/pdb4a2l.ent.gz'
p2571
sS'pdb3kbp'
p2572
S'/net/chevy/raid1/pdb_mirror/pdb/kb/pdb3kbp.ent.gz'
p2573
sS'pdb2v8v'
p2574
S'/net/chevy/raid1/pdb_mirror/pdb/v8/pdb2v8v.ent.gz'
p2575
sS'pdb3gtu'
p2576
S'/net/chevy/raid1/pdb_mirror/pdb/gt/pdb3gtu.ent.gz'
p2577
sS'pdb3i3j'
p2578
S'/net/chevy/raid1/pdb_mirror/pdb/i3/pdb3i3j.ent.gz'
p2579
sS'pdb4fts'
p2580
S'/net/chevy/raid1/pdb_mirror/pdb/ft/pdb4fts.ent.gz'
p2581
sS'pdb1gt7'
p2582
S'/net/chevy/raid1/pdb_mirror/pdb/gt/pdb1gt7.ent.gz'
p2583
sS'pdb4fte'
p2584
S'/net/chevy/raid1/pdb_mirror/pdb/ft/pdb4fte.ent.gz'
p2585
sS'pdb2ux9'
p2586
S'/net/chevy/raid1/pdb_mirror/pdb/ux/pdb2ux9.ent.gz'
p2587
sS'pdb4ftb'
p2588
S'/net/chevy/raid1/pdb_mirror/pdb/ft/pdb4ftb.ent.gz'
p2589
sS'pdb3dqz'
p2590
S'/net/chevy/raid1/pdb_mirror/pdb/dq/pdb3dqz.ent.gz'
p2591
sS'pdb4hzl'
p2592
S'/net/chevy/raid1/pdb_mirror/pdb/hz/pdb4hzl.ent.gz'
p2593
sS'pdb2wff'
p2594
S'/net/chevy/raid1/pdb_mirror/pdb/wf/pdb2wff.ent.gz'
p2595
sS'pdb1aqw'
p2596
S'/net/chevy/raid1/pdb_mirror/pdb/aq/pdb1aqw.ent.gz'
p2597
sS'pdb2wfc'
p2598
S'/net/chevy/raid1/pdb_mirror/pdb/wf/pdb2wfc.ent.gz'
p2599
sS'pdb1aqx'
p2600
S'/net/chevy/raid1/pdb_mirror/pdb/aq/pdb1aqx.ent.gz'
p2601
sS'pdb1cmi'
p2602
S'/net/chevy/raid1/pdb_mirror/pdb/cm/pdb1cmi.ent.gz'
p2603
sS'pdb1aqd'
p2604
S'/net/chevy/raid1/pdb_mirror/pdb/aq/pdb1aqd.ent.gz'
p2605
sS'pdb1rbo'
p2606
S'/net/chevy/raid1/pdb_mirror/pdb/rb/pdb1rbo.ent.gz'
p2607
sS'pdb1rbl'
p2608
S'/net/chevy/raid1/pdb_mirror/pdb/rb/pdb1rbl.ent.gz'
p2609
sS'pdb1cmx'
p2610
S'/net/chevy/raid1/pdb_mirror/pdb/cm/pdb1cmx.ent.gz'
p2611
sS'pdb4hz2'
p2612
S'/net/chevy/raid1/pdb_mirror/pdb/hz/pdb4hz2.ent.gz'
p2613
sS'pdb4brp'
p2614
S'/net/chevy/raid1/pdb_mirror/pdb/br/pdb4brp.ent.gz'
p2615
sS'pdb2ivb'
p2616
S'/net/chevy/raid1/pdb_mirror/pdb/iv/pdb2ivb.ent.gz'
p2617
sS'pdb2ivg'
p2618
S'/net/chevy/raid1/pdb_mirror/pdb/iv/pdb2ivg.ent.gz'
p2619
sS'pdb1e69'
p2620
S'/net/chevy/raid1/pdb_mirror/pdb/e6/pdb1e69.ent.gz'
p2621
sS'pdb1qzw'
p2622
S'/net/chevy/raid1/pdb_mirror/pdb/qz/pdb1qzw.ent.gz'
p2623
sS'pdb2ivq'
p2624
S'/net/chevy/raid1/pdb_mirror/pdb/iv/pdb2ivq.ent.gz'
p2625
sS'pdb1o6r'
p2626
S'/net/chevy/raid1/pdb_mirror/pdb/o6/pdb1o6r.ent.gz'
p2627
sS'pdb1o6q'
p2628
S'/net/chevy/raid1/pdb_mirror/pdb/o6/pdb1o6q.ent.gz'
p2629
sS'pdb2uv0'
p2630
S'/net/chevy/raid1/pdb_mirror/pdb/uv/pdb2uv0.ent.gz'
p2631
sS'pdb2x8j'
p2632
S'/net/chevy/raid1/pdb_mirror/pdb/x8/pdb2x8j.ent.gz'
p2633
sS'pdb4eqv'
p2634
S'/net/chevy/raid1/pdb_mirror/pdb/eq/pdb4eqv.ent.gz'
p2635
sS'pdb1aq8'
p2636
S'/net/chevy/raid1/pdb_mirror/pdb/aq/pdb1aq8.ent.gz'
p2637
sS'pdb1biu'
p2638
S'/net/chevy/raid1/pdb_mirror/pdb/bi/pdb1biu.ent.gz'
p2639
sS'pdb1o6h'
p2640
S'/net/chevy/raid1/pdb_mirror/pdb/o6/pdb1o6h.ent.gz'
p2641
sS'pdb1a8m'
p2642
S'/net/chevy/raid1/pdb_mirror/pdb/a8/pdb1a8m.ent.gz'
p2643
sS'pdb250d'
p2644
S'/net/chevy/raid1/pdb_mirror/pdb/50/pdb250d.ent.gz'
p2645
sS'pdb2v64'
p2646
S'/net/chevy/raid1/pdb_mirror/pdb/v6/pdb2v64.ent.gz'
p2647
sS'pdb2j4k'
p2648
S'/net/chevy/raid1/pdb_mirror/pdb/j4/pdb2j4k.ent.gz'
p2649
sS'pdb2j4j'
p2650
S'/net/chevy/raid1/pdb_mirror/pdb/j4/pdb2j4j.ent.gz'
p2651
sS'pdb2j4l'
p2652
S'/net/chevy/raid1/pdb_mirror/pdb/j4/pdb2j4l.ent.gz'
p2653
sS'pdb2j4u'
p2654
S'/net/chevy/raid1/pdb_mirror/pdb/j4/pdb2j4u.ent.gz'
p2655
sS'pdb4otc'
p2656
S'/net/chevy/raid1/pdb_mirror/pdb/ot/pdb4otc.ent.gz'
p2657
sS'pdb4ota'
p2658
S'/net/chevy/raid1/pdb_mirror/pdb/ot/pdb4ota.ent.gz'
p2659
sS'pdb4gra'
p2660
S'/net/chevy/raid1/pdb_mirror/pdb/gr/pdb4gra.ent.gz'
p2661
sS'pdb1a8r'
p2662
S'/net/chevy/raid1/pdb_mirror/pdb/a8/pdb1a8r.ent.gz'
p2663
sS'pdb1c4q'
p2664
S'/net/chevy/raid1/pdb_mirror/pdb/c4/pdb1c4q.ent.gz'
p2665
sS'pdb1c4r'
p2666
S'/net/chevy/raid1/pdb_mirror/pdb/c4/pdb1c4r.ent.gz'
p2667
sS'pdb1c4t'
p2668
S'/net/chevy/raid1/pdb_mirror/pdb/c4/pdb1c4t.ent.gz'
p2669
sS'pdb3hip'
p2670
S'/net/chevy/raid1/pdb_mirror/pdb/hi/pdb3hip.ent.gz'
p2671
sS'pdb1lxt'
p2672
S'/net/chevy/raid1/pdb_mirror/pdb/lx/pdb1lxt.ent.gz'
p2673
sS'pdb2c1w'
p2674
S'/net/chevy/raid1/pdb_mirror/pdb/c1/pdb2c1w.ent.gz'
p2675
sS'pdb1ugi'
p2676
S'/net/chevy/raid1/pdb_mirror/pdb/ug/pdb1ugi.ent.gz'
p2677
sS'pdb1p32'
p2678
S'/net/chevy/raid1/pdb_mirror/pdb/p3/pdb1p32.ent.gz'
p2679
sS'pdb7mdh'
p2680
S'/net/chevy/raid1/pdb_mirror/pdb/md/pdb7mdh.ent.gz'
p2681
sS'pdb1rtd'
p2682
S'/net/chevy/raid1/pdb_mirror/pdb/rt/pdb1rtd.ent.gz'
p2683
sS'pdb1wbl'
p2684
S'/net/chevy/raid1/pdb_mirror/pdb/wb/pdb1wbl.ent.gz'
p2685
sS'pdb1rtm'
p2686
S'/net/chevy/raid1/pdb_mirror/pdb/rt/pdb1rtm.ent.gz'
p2687
sS'pdb1wbi'
p2688
S'/net/chevy/raid1/pdb_mirror/pdb/wb/pdb1wbi.ent.gz'
p2689
sS'pdb1wbh'
p2690
S'/net/chevy/raid1/pdb_mirror/pdb/wb/pdb1wbh.ent.gz'
p2691
sS'pdb2v6a'
p2692
S'/net/chevy/raid1/pdb_mirror/pdb/v6/pdb2v6a.ent.gz'
p2693
sS'pdb1a88'
p2694
S'/net/chevy/raid1/pdb_mirror/pdb/a8/pdb1a88.ent.gz'
p2695
sS'pdb4eb3'
p2696
S'/net/chevy/raid1/pdb_mirror/pdb/eb/pdb4eb3.ent.gz'
p2697
sS'pdb1c41'
p2698
S'/net/chevy/raid1/pdb_mirror/pdb/c4/pdb1c41.ent.gz'
p2699
sS'pdb1w33'
p2700
S'/net/chevy/raid1/pdb_mirror/pdb/w3/pdb1w33.ent.gz'
p2701
sS'pdb1c48'
p2702
S'/net/chevy/raid1/pdb_mirror/pdb/c4/pdb1c48.ent.gz'
p2703
sS'pdb4jt0'
p2704
S'/net/chevy/raid1/pdb_mirror/pdb/jt/pdb4jt0.ent.gz'
p2705
sS'pdb2bq5'
p2706
S'/net/chevy/raid1/pdb_mirror/pdb/bq/pdb2bq5.ent.gz'
p2707
sS'pdb2c11'
p2708
S'/net/chevy/raid1/pdb_mirror/pdb/c1/pdb2c11.ent.gz'
p2709
sS'pdb2c10'
p2710
S'/net/chevy/raid1/pdb_mirror/pdb/c1/pdb2c10.ent.gz'
p2711
sS'pdb4alb'
p2712
S'/net/chevy/raid1/pdb_mirror/pdb/al/pdb4alb.ent.gz'
p2713
sS'pdb3zhe'
p2714
S'/net/chevy/raid1/pdb_mirror/pdb/zh/pdb3zhe.ent.gz'
p2715
sS'pdb1bt6'
p2716
S'/net/chevy/raid1/pdb_mirror/pdb/bt/pdb1bt6.ent.gz'
p2717
sS'pdb1fvf'
p2718
S'/net/chevy/raid1/pdb_mirror/pdb/fv/pdb1fvf.ent.gz'
p2719
sS'pdb2ja3'
p2720
S'/net/chevy/raid1/pdb_mirror/pdb/ja/pdb2ja3.ent.gz'
p2721
sS'pdb1dfi'
p2722
S'/net/chevy/raid1/pdb_mirror/pdb/df/pdb1dfi.ent.gz'
p2723
sS'pdb3zhp'
p2724
S'/net/chevy/raid1/pdb_mirror/pdb/zh/pdb3zhp.ent.gz'
p2725
sS'pdb4alx'
p2726
S'/net/chevy/raid1/pdb_mirror/pdb/al/pdb4alx.ent.gz'
p2727
sS'pdb1dx9'
p2728
S'/net/chevy/raid1/pdb_mirror/pdb/dx/pdb1dx9.ent.gz'
p2729
sS'pdb1qnu'
p2730
S'/net/chevy/raid1/pdb_mirror/pdb/qn/pdb1qnu.ent.gz'
p2731
sS'pdb4elm'
p2732
S'/net/chevy/raid1/pdb_mirror/pdb/el/pdb4elm.ent.gz'
p2733
sS'pdb3lmu'
p2734
S'/net/chevy/raid1/pdb_mirror/pdb/lm/pdb3lmu.ent.gz'
p2735
sS'pdb3lmt'
p2736
S'/net/chevy/raid1/pdb_mirror/pdb/lm/pdb3lmt.ent.gz'
p2737
sS'pdb1qnn'
p2738
S'/net/chevy/raid1/pdb_mirror/pdb/qn/pdb1qnn.ent.gz'
p2739
sS'pdb1qni'
p2740
S'/net/chevy/raid1/pdb_mirror/pdb/qn/pdb1qni.ent.gz'
p2741
sS'pdb4ak9'
p2742
S'/net/chevy/raid1/pdb_mirror/pdb/ak/pdb4ak9.ent.gz'
p2743
sS'pdb1nfd'
p2744
S'/net/chevy/raid1/pdb_mirror/pdb/nf/pdb1nfd.ent.gz'
p2745
sS'pdb2pi8'
p2746
S'/net/chevy/raid1/pdb_mirror/pdb/pi/pdb2pi8.ent.gz'
p2747
sS'pdb1dxl'
p2748
S'/net/chevy/raid1/pdb_mirror/pdb/dx/pdb1dxl.ent.gz'
p2749
sS'pdb4al4'
p2750
S'/net/chevy/raid1/pdb_mirror/pdb/al/pdb4al4.ent.gz'
p2751
sS'pdb2hmg'
p2752
S'/net/chevy/raid1/pdb_mirror/pdb/hm/pdb2hmg.ent.gz'
p2753
sS'pdb4al9'
p2754
S'/net/chevy/raid1/pdb_mirror/pdb/al/pdb4al9.ent.gz'
p2755
sS'pdb1dxx'
p2756
S'/net/chevy/raid1/pdb_mirror/pdb/dx/pdb1dxx.ent.gz'
p2757
sS'pdb4hfx'
p2758
S'/net/chevy/raid1/pdb_mirror/pdb/hf/pdb4hfx.ent.gz'
p2759
sS'pdb1fdu'
p2760
S'/net/chevy/raid1/pdb_mirror/pdb/fd/pdb1fdu.ent.gz'
p2761
sS'pdb1fdv'
p2762
S'/net/chevy/raid1/pdb_mirror/pdb/fd/pdb1fdv.ent.gz'
p2763
sS'pdb1fdp'
p2764
S'/net/chevy/raid1/pdb_mirror/pdb/fd/pdb1fdp.ent.gz'
p2765
sS'pdb3es5'
p2766
S'/net/chevy/raid1/pdb_mirror/pdb/es/pdb3es5.ent.gz'
p2767
sS'pdb3zzf'
p2768
S'/net/chevy/raid1/pdb_mirror/pdb/zz/pdb3zzf.ent.gz'
p2769
sS'pdb4iz5'
p2770
S'/net/chevy/raid1/pdb_mirror/pdb/iz/pdb4iz5.ent.gz'
p2771
sS'pdb4azx'
p2772
S'/net/chevy/raid1/pdb_mirror/pdb/az/pdb4azx.ent.gz'
p2773
sS'pdb3gie'
p2774
S'/net/chevy/raid1/pdb_mirror/pdb/gi/pdb3gie.ent.gz'
p2775
sS'pdb4b7c'
p2776
S'/net/chevy/raid1/pdb_mirror/pdb/b7/pdb4b7c.ent.gz'
p2777
sS'pdb3zzv'
p2778
S'/net/chevy/raid1/pdb_mirror/pdb/zz/pdb3zzv.ent.gz'
p2779
sS'pdb2v4h'
p2780
S'/net/chevy/raid1/pdb_mirror/pdb/v4/pdb2v4h.ent.gz'
p2781
sS'pdb4a5z'
p2782
S'/net/chevy/raid1/pdb_mirror/pdb/a5/pdb4a5z.ent.gz'
p2783
sS'pdb2ckb'
p2784
S'/net/chevy/raid1/pdb_mirror/pdb/ck/pdb2ckb.ent.gz'
p2785
sS'pdb1gn6'
p2786
S'/net/chevy/raid1/pdb_mirror/pdb/gn/pdb1gn6.ent.gz'
p2787
sS'pdb1bhc'
p2788
S'/net/chevy/raid1/pdb_mirror/pdb/bh/pdb1bhc.ent.gz'
p2789
sS'pdb4a5p'
p2790
S'/net/chevy/raid1/pdb_mirror/pdb/a5/pdb4a5p.ent.gz'
p2791
sS'pdb4ts1'
p2792
S'/net/chevy/raid1/pdb_mirror/pdb/ts/pdb4ts1.ent.gz'
p2793
sS'pdb1bht'
p2794
S'/net/chevy/raid1/pdb_mirror/pdb/bh/pdb1bht.ent.gz'
p2795
sS'pdb1w44'
p2796
S'/net/chevy/raid1/pdb_mirror/pdb/w4/pdb1w44.ent.gz'
p2797
sS'pdb1w47'
p2798
S'/net/chevy/raid1/pdb_mirror/pdb/w4/pdb1w47.ent.gz'
p2799
sS'pdb1w46'
p2800
S'/net/chevy/raid1/pdb_mirror/pdb/w4/pdb1w46.ent.gz'
p2801
sS'pdb4a5n'
p2802
S'/net/chevy/raid1/pdb_mirror/pdb/a5/pdb4a5n.ent.gz'
p2803
sS'pdb4a5m'
p2804
S'/net/chevy/raid1/pdb_mirror/pdb/a5/pdb4a5m.ent.gz'
p2805
sS'pdb1iph'
p2806
S'/net/chevy/raid1/pdb_mirror/pdb/ip/pdb1iph.ent.gz'
p2807
sS'pdb4a5a'
p2808
S'/net/chevy/raid1/pdb_mirror/pdb/a5/pdb4a5a.ent.gz'
p2809
sS'pdb1bz1'
p2810
S'/net/chevy/raid1/pdb_mirror/pdb/bz/pdb1bz1.ent.gz'
p2811
sS'pdb1w49'
p2812
S'/net/chevy/raid1/pdb_mirror/pdb/w4/pdb1w49.ent.gz'
p2813
sS'pdb1w48'
p2814
S'/net/chevy/raid1/pdb_mirror/pdb/w4/pdb1w48.ent.gz'
p2815
sS'pdb2vml'
p2816
S'/net/chevy/raid1/pdb_mirror/pdb/vm/pdb2vml.ent.gz'
p2817
sS'pdb2vxa'
p2818
S'/net/chevy/raid1/pdb_mirror/pdb/vx/pdb2vxa.ent.gz'
p2819
sS'pdb3pmg'
p2820
S'/net/chevy/raid1/pdb_mirror/pdb/pm/pdb3pmg.ent.gz'
p2821
sS'pdb1ux2'
p2822
S'/net/chevy/raid1/pdb_mirror/pdb/ux/pdb1ux2.ent.gz'
p2823
sS'pdb1ux1'
p2824
S'/net/chevy/raid1/pdb_mirror/pdb/ux/pdb1ux1.ent.gz'
p2825
sS'pdb2bm2'
p2826
S'/net/chevy/raid1/pdb_mirror/pdb/bm/pdb2bm2.ent.gz'
p2827
sS'pdb1bev'
p2828
S'/net/chevy/raid1/pdb_mirror/pdb/be/pdb1bev.ent.gz'
p2829
sS'pdb4a59'
p2830
S'/net/chevy/raid1/pdb_mirror/pdb/a5/pdb4a59.ent.gz'
p2831
sS'pdb2uvd'
p2832
S'/net/chevy/raid1/pdb_mirror/pdb/uv/pdb2uvd.ent.gz'
p2833
sS'pdb1w4a'
p2834
S'/net/chevy/raid1/pdb_mirror/pdb/w4/pdb1w4a.ent.gz'
p2835
sS'pdb1a2z'
p2836
S'/net/chevy/raid1/pdb_mirror/pdb/a2/pdb1a2z.ent.gz'
p2837
sS'pdb1w4c'
p2838
S'/net/chevy/raid1/pdb_mirror/pdb/w4/pdb1w4c.ent.gz'
p2839
sS'pdb1w4b'
p2840
S'/net/chevy/raid1/pdb_mirror/pdb/w4/pdb1w4b.ent.gz'
p2841
sS'pdb2min'
p2842
S'/net/chevy/raid1/pdb_mirror/pdb/mi/pdb2min.ent.gz'
p2843
sS'pdb3tmk'
p2844
S'/net/chevy/raid1/pdb_mirror/pdb/tm/pdb3tmk.ent.gz'
p2845
sS'pdb1bh5'
p2846
S'/net/chevy/raid1/pdb_mirror/pdb/bh/pdb1bh5.ent.gz'
p2847
sS'pdb2xrc'
p2848
S'/net/chevy/raid1/pdb_mirror/pdb/xr/pdb2xrc.ent.gz'
p2849
sS'pdb1w4v'
p2850
S'/net/chevy/raid1/pdb_mirror/pdb/w4/pdb1w4v.ent.gz'
p2851
sS'pdb1w4r'
p2852
S'/net/chevy/raid1/pdb_mirror/pdb/w4/pdb1w4r.ent.gz'
p2853
sS'pdb2bmk'
p2854
S'/net/chevy/raid1/pdb_mirror/pdb/bm/pdb2bmk.ent.gz'
p2855
sS'pdb1uxm'
p2856
S'/net/chevy/raid1/pdb_mirror/pdb/ux/pdb1uxm.ent.gz'
p2857
sS'pdb1uxl'
p2858
S'/net/chevy/raid1/pdb_mirror/pdb/ux/pdb1uxl.ent.gz'
p2859
sS'pdb1uxb'
p2860
S'/net/chevy/raid1/pdb_mirror/pdb/ux/pdb1uxb.ent.gz'
p2861
sS'pdb1uxa'
p2862
S'/net/chevy/raid1/pdb_mirror/pdb/ux/pdb1uxa.ent.gz'
p2863
sS'pdb1lde'
p2864
S'/net/chevy/raid1/pdb_mirror/pdb/ld/pdb1lde.ent.gz'
p2865
sS'pdb1ldb'
p2866
S'/net/chevy/raid1/pdb_mirror/pdb/ld/pdb1ldb.ent.gz'
p2867
sS'pdb2bmc'
p2868
S'/net/chevy/raid1/pdb_mirror/pdb/bm/pdb2bmc.ent.gz'
p2869
sS'pdb1uxe'
p2870
S'/net/chevy/raid1/pdb_mirror/pdb/ux/pdb1uxe.ent.gz'
p2871
sS'pdb2bny'
p2872
S'/net/chevy/raid1/pdb_mirror/pdb/bn/pdb2bny.ent.gz'
p2873
sS'pdb1ldy'
p2874
S'/net/chevy/raid1/pdb_mirror/pdb/ld/pdb1ldy.ent.gz'
p2875
sS'pdb1kno'
p2876
S'/net/chevy/raid1/pdb_mirror/pdb/kn/pdb1kno.ent.gz'
p2877
sS'pdb2cg8'
p2878
S'/net/chevy/raid1/pdb_mirror/pdb/cg/pdb2cg8.ent.gz'
p2879
sS'pdb1grc'
p2880
S'/net/chevy/raid1/pdb_mirror/pdb/gr/pdb1grc.ent.gz'
p2881
sS'pdb1grl'
p2882
S'/net/chevy/raid1/pdb_mirror/pdb/gr/pdb1grl.ent.gz'
p2883
sS'pdb1grw'
p2884
S'/net/chevy/raid1/pdb_mirror/pdb/gr/pdb1grw.ent.gz'
p2885
sS'pdb4h04'
p2886
S'/net/chevy/raid1/pdb_mirror/pdb/h0/pdb4h04.ent.gz'
p2887
sS'pdb2iua'
p2888
S'/net/chevy/raid1/pdb_mirror/pdb/iu/pdb2iua.ent.gz'
p2889
sS'pdb2iv1'
p2890
S'/net/chevy/raid1/pdb_mirror/pdb/iv/pdb2iv1.ent.gz'
p2891
sS'pdb2iuo'
p2892
S'/net/chevy/raid1/pdb_mirror/pdb/iu/pdb2iuo.ent.gz'
p2893
sS'pdb2x9m'
p2894
S'/net/chevy/raid1/pdb_mirror/pdb/x9/pdb2x9m.ent.gz'
p2895
sS'pdb1o7t'
p2896
S'/net/chevy/raid1/pdb_mirror/pdb/o7/pdb1o7t.ent.gz'
p2897
sS'pdb2x9i'
p2898
S'/net/chevy/raid1/pdb_mirror/pdb/x9/pdb2x9i.ent.gz'
p2899
sS'pdb3e8k'
p2900
S'/net/chevy/raid1/pdb_mirror/pdb/e8/pdb3e8k.ent.gz'
p2901
sS'pdb1cbu'
p2902
S'/net/chevy/raid1/pdb_mirror/pdb/cb/pdb1cbu.ent.gz'
p2903
sS'pdb2qa0'
p2904
S'/net/chevy/raid1/pdb_mirror/pdb/qa/pdb2qa0.ent.gz'
p2905
sS'pdb1o7j'
p2906
S'/net/chevy/raid1/pdb_mirror/pdb/o7/pdb1o7j.ent.gz'
p2907
sS'pdb1ei7'
p2908
S'/net/chevy/raid1/pdb_mirror/pdb/ei/pdb1ei7.ent.gz'
p2909
sS'pdb1o7l'
p2910
S'/net/chevy/raid1/pdb_mirror/pdb/o7/pdb1o7l.ent.gz'
p2911
sS'pdb2wwi'
p2912
S'/net/chevy/raid1/pdb_mirror/pdb/ww/pdb2wwi.ent.gz'
p2913
sS'pdb2wwh'
p2914
S'/net/chevy/raid1/pdb_mirror/pdb/ww/pdb2wwh.ent.gz'
p2915
sS'pdb2iu7'
p2916
S'/net/chevy/raid1/pdb_mirror/pdb/iu/pdb2iu7.ent.gz'
p2917
sS'pdb1ej6'
p2918
S'/net/chevy/raid1/pdb_mirror/pdb/ej/pdb1ej6.ent.gz'
p2919
sS'pdb6ald'
p2920
S'/net/chevy/raid1/pdb_mirror/pdb/al/pdb6ald.ent.gz'
p2921
sS'pdb2iu9'
p2922
S'/net/chevy/raid1/pdb_mirror/pdb/iu/pdb2iu9.ent.gz'
p2923
sS'pdb2iu8'
p2924
S'/net/chevy/raid1/pdb_mirror/pdb/iu/pdb2iu8.ent.gz'
p2925
sS'pdb4bab'
p2926
S'/net/chevy/raid1/pdb_mirror/pdb/ba/pdb4bab.ent.gz'
p2927
sS'pdb2wwf'
p2928
S'/net/chevy/raid1/pdb_mirror/pdb/ww/pdb2wwf.ent.gz'
p2929
sS'pdb1gr7'
p2930
S'/net/chevy/raid1/pdb_mirror/pdb/gr/pdb1gr7.ent.gz'
p2931
sS'pdb2wfe'
p2932
S'/net/chevy/raid1/pdb_mirror/pdb/wf/pdb2wfe.ent.gz'
p2933
sS'pdb2wws'
p2934
S'/net/chevy/raid1/pdb_mirror/pdb/ww/pdb2wws.ent.gz'
p2935
sS'pdb2wwr'
p2936
S'/net/chevy/raid1/pdb_mirror/pdb/ww/pdb2wwr.ent.gz'
p2937
sS'pdb2wwt'
p2938
S'/net/chevy/raid1/pdb_mirror/pdb/ww/pdb2wwt.ent.gz'
p2939
sS'pdb1obw'
p2940
S'/net/chevy/raid1/pdb_mirror/pdb/ob/pdb1obw.ent.gz'
p2941
sS'pdb1o79'
p2942
S'/net/chevy/raid1/pdb_mirror/pdb/o7/pdb1o79.ent.gz'
p2943
sS'pdb3v24'
p2944
S'/net/chevy/raid1/pdb_mirror/pdb/v2/pdb3v24.ent.gz'
p2945
sS'pdb1wcd'
p2946
S'/net/chevy/raid1/pdb_mirror/pdb/wc/pdb1wcd.ent.gz'
p2947
sS'pdb1adj'
p2948
S'/net/chevy/raid1/pdb_mirror/pdb/ad/pdb1adj.ent.gz'
p2949
sS'pdb1wcb'
p2950
S'/net/chevy/raid1/pdb_mirror/pdb/wc/pdb1wcb.ent.gz'
p2951
sS'pdb1pgr'
p2952
S'/net/chevy/raid1/pdb_mirror/pdb/pg/pdb1pgr.ent.gz'
p2953
sS'pdb1pgw'
p2954
S'/net/chevy/raid1/pdb_mirror/pdb/pg/pdb1pgw.ent.gz'
p2955
sS'pdb1ady'
p2956
S'/net/chevy/raid1/pdb_mirror/pdb/ad/pdb1ady.ent.gz'
p2957
sS'pdb2v7d'
p2958
S'/net/chevy/raid1/pdb_mirror/pdb/v7/pdb2v7d.ent.gz'
p2959
sS'pdb1pgl'
p2960
S'/net/chevy/raid1/pdb_mirror/pdb/pg/pdb1pgl.ent.gz'
p2961
sS'pdb1cmv'
p2962
S'/net/chevy/raid1/pdb_mirror/pdb/cm/pdb1cmv.ent.gz'
p2963
sS'pdb1v9u'
p2964
S'/net/chevy/raid1/pdb_mirror/pdb/v9/pdb1v9u.ent.gz'
p2965
sS'pdb2uu7'
p2966
S'/net/chevy/raid1/pdb_mirror/pdb/uu/pdb2uu7.ent.gz'
p2967
sS'pdb1cj1'
p2968
S'/net/chevy/raid1/pdb_mirror/pdb/cj/pdb1cj1.ent.gz'
p2969
sS'pdb3bto'
p2970
S'/net/chevy/raid1/pdb_mirror/pdb/bt/pdb3bto.ent.gz'
p2971
sS'pdb4bs1'
p2972
S'/net/chevy/raid1/pdb_mirror/pdb/bs/pdb4bs1.ent.gz'
p2973
sS'pdb3zc1'
p2974
S'/net/chevy/raid1/pdb_mirror/pdb/zc/pdb3zc1.ent.gz'
p2975
sS'pdb2v70'
p2976
S'/net/chevy/raid1/pdb_mirror/pdb/v7/pdb2v70.ent.gz'
p2977
sS'pdb3rku'
p2978
S'/net/chevy/raid1/pdb_mirror/pdb/rk/pdb3rku.ent.gz'
p2979
sS'pdb5hmg'
p2980
S'/net/chevy/raid1/pdb_mirror/pdb/hm/pdb5hmg.ent.gz'
p2981
sS'pdb2v78'
p2982
S'/net/chevy/raid1/pdb_mirror/pdb/v7/pdb2v78.ent.gz'
p2983
sS'pdb1y1a'
p2984
S'/net/chevy/raid1/pdb_mirror/pdb/y1/pdb1y1a.ent.gz'
p2985
sS'pdb3dpr'
p2986
S'/net/chevy/raid1/pdb_mirror/pdb/dp/pdb3dpr.ent.gz'
p2987
sS'pdb1wc7'
p2988
S'/net/chevy/raid1/pdb_mirror/pdb/wc/pdb1wc7.ent.gz'
p2989
sS'pdb3rko'
p2990
S'/net/chevy/raid1/pdb_mirror/pdb/rk/pdb3rko.ent.gz'
p2991
sS'pdb1m1c'
p2992
S'/net/chevy/raid1/pdb_mirror/pdb/m1/pdb1m1c.ent.gz'
p2993
sS'pdb1ha5'
p2994
S'/net/chevy/raid1/pdb_mirror/pdb/ha/pdb1ha5.ent.gz'
p2995
sS'pdb1cjb'
p2996
S'/net/chevy/raid1/pdb_mirror/pdb/cj/pdb1cjb.ent.gz'
p2997
sS'pdb2uuu'
p2998
S'/net/chevy/raid1/pdb_mirror/pdb/uu/pdb2uuu.ent.gz'
p2999
sS'pdb3m8l'
p3000
S'/net/chevy/raid1/pdb_mirror/pdb/m8/pdb3m8l.ent.gz'
p3001
sS'pdb1cje'
p3002
S'/net/chevy/raid1/pdb_mirror/pdb/cj/pdb1cje.ent.gz'
p3003
sS'pdb1cjd'
p3004
S'/net/chevy/raid1/pdb_mirror/pdb/cj/pdb1cjd.ent.gz'
p3005
sS'pdb1arz'
p3006
S'/net/chevy/raid1/pdb_mirror/pdb/ar/pdb1arz.ent.gz'
p3007
sS'pdb2wam'
p3008
S'/net/chevy/raid1/pdb_mirror/pdb/wa/pdb2wam.ent.gz'
p3009
sS'pdb2uud'
p3010
S'/net/chevy/raid1/pdb_mirror/pdb/uu/pdb2uud.ent.gz'
p3011
sS'pdb2uug'
p3012
S'/net/chevy/raid1/pdb_mirror/pdb/uu/pdb2uug.ent.gz'
p3013
sS'pdb1cjx'
p3014
S'/net/chevy/raid1/pdb_mirror/pdb/cj/pdb1cjx.ent.gz'
p3015
sS'pdb1mdy'
p3016
S'/net/chevy/raid1/pdb_mirror/pdb/md/pdb1mdy.ent.gz'
p3017
sS'pdb1dwn'
p3018
S'/net/chevy/raid1/pdb_mirror/pdb/dw/pdb1dwn.ent.gz'
p3019
sS'pdb1dwk'
p3020
S'/net/chevy/raid1/pdb_mirror/pdb/dw/pdb1dwk.ent.gz'
p3021
sS'pdb1vcp'
p3022
S'/net/chevy/raid1/pdb_mirror/pdb/vc/pdb1vcp.ent.gz'
p3023
sS'pdb1vcr'
p3024
S'/net/chevy/raid1/pdb_mirror/pdb/vc/pdb1vcr.ent.gz'
p3025
sS'pdb4jgz'
p3026
S'/net/chevy/raid1/pdb_mirror/pdb/jg/pdb4jgz.ent.gz'
p3027
sS'pdb4jgy'
p3028
S'/net/chevy/raid1/pdb_mirror/pdb/jg/pdb4jgy.ent.gz'
p3029
sS'pdb1kaw'
p3030
S'/net/chevy/raid1/pdb_mirror/pdb/ka/pdb1kaw.ent.gz'
p3031
sS'pdb1nal'
p3032
S'/net/chevy/raid1/pdb_mirror/pdb/na/pdb1nal.ent.gz'
p3033
sS'pdb1a99'
p3034
S'/net/chevy/raid1/pdb_mirror/pdb/a9/pdb1a99.ent.gz'
p3035
sS'pdb1dwx'
p3036
S'/net/chevy/raid1/pdb_mirror/pdb/dw/pdb1dwx.ent.gz'
p3037
sS'pdb1dww'
p3038
S'/net/chevy/raid1/pdb_mirror/pdb/dw/pdb1dww.ent.gz'
p3039
sS'pdb1axk'
p3040
S'/net/chevy/raid1/pdb_mirror/pdb/ax/pdb1axk.ent.gz'
p3041
sS'pdb1bwf'
p3042
S'/net/chevy/raid1/pdb_mirror/pdb/bw/pdb1bwf.ent.gz'
p3043
sS'pdb1lul'
p3044
S'/net/chevy/raid1/pdb_mirror/pdb/lu/pdb1lul.ent.gz'
p3045
sS'pdb1sos'
p3046
S'/net/chevy/raid1/pdb_mirror/pdb/so/pdb1sos.ent.gz'
p3047
sS'pdb7msf'
p3048
S'/net/chevy/raid1/pdb_mirror/pdb/ms/pdb7msf.ent.gz'
p3049
sS'pdb2ykv'
p3050
S'/net/chevy/raid1/pdb_mirror/pdb/yk/pdb2ykv.ent.gz'
p3051
sS'pdb2yks'
p3052
S'/net/chevy/raid1/pdb_mirror/pdb/yk/pdb2yks.ent.gz'
p3053
sS'pdb5rla'
p3054
S'/net/chevy/raid1/pdb_mirror/pdb/rl/pdb5rla.ent.gz'
p3055
sS'pdb1hwz'
p3056
S'/net/chevy/raid1/pdb_mirror/pdb/hw/pdb1hwz.ent.gz'
p3057
sS'pdb1hwy'
p3058
S'/net/chevy/raid1/pdb_mirror/pdb/hw/pdb1hwy.ent.gz'
p3059
sS'pdb2y9d'
p3060
S'/net/chevy/raid1/pdb_mirror/pdb/y9/pdb2y9d.ent.gz'
p3061
sS'pdb1a9n'
p3062
S'/net/chevy/raid1/pdb_mirror/pdb/a9/pdb1a9n.ent.gz'
p3063
sS'pdb1a9c'
p3064
S'/net/chevy/raid1/pdb_mirror/pdb/a9/pdb1a9c.ent.gz'
p3065
sS'pdb4hg4'
p3066
S'/net/chevy/raid1/pdb_mirror/pdb/hg/pdb4hg4.ent.gz'
p3067
sS'pdb3v9h'
p3068
S'/net/chevy/raid1/pdb_mirror/pdb/v9/pdb3v9h.ent.gz'
p3069
sS'pdb1dw9'
p3070
S'/net/chevy/raid1/pdb_mirror/pdb/dw/pdb1dw9.ent.gz'
p3071
sS'pdb1qgn'
p3072
S'/net/chevy/raid1/pdb_mirror/pdb/qg/pdb1qgn.ent.gz'
p3073
sS'pdb2j5t'
p3074
S'/net/chevy/raid1/pdb_mirror/pdb/j5/pdb2j5t.ent.gz'
p3075
sS'pdb1a9w'
p3076
S'/net/chevy/raid1/pdb_mirror/pdb/a9/pdb1a9w.ent.gz'
p3077
sS'pdb2bw1'
p3078
S'/net/chevy/raid1/pdb_mirror/pdb/bw/pdb2bw1.ent.gz'
p3079
sS'pdb3ntt'
p3080
S'/net/chevy/raid1/pdb_mirror/pdb/nt/pdb3ntt.ent.gz'
p3081
sS'pdb3hhn'
p3082
S'/net/chevy/raid1/pdb_mirror/pdb/hh/pdb3hhn.ent.gz'
p3083
sS'pdb1c5e'
p3084
S'/net/chevy/raid1/pdb_mirror/pdb/c5/pdb1c5e.ent.gz'
p3085
sS'pdb2xsz'
p3086
S'/net/chevy/raid1/pdb_mirror/pdb/xs/pdb2xsz.ent.gz'
p3087
sS'pdb1iok'
p3088
S'/net/chevy/raid1/pdb_mirror/pdb/io/pdb1iok.ent.gz'
p3089
sS'pdb3zo7'
p3090
S'/net/chevy/raid1/pdb_mirror/pdb/zo/pdb3zo7.ent.gz'
p3091
sS'pdb4ao4'
p3092
S'/net/chevy/raid1/pdb_mirror/pdb/ao/pdb4ao4.ent.gz'
p3093
sS'pdb2xsc'
p3094
S'/net/chevy/raid1/pdb_mirror/pdb/xs/pdb2xsc.ent.gz'
p3095
sS'pdb3ky9'
p3096
S'/net/chevy/raid1/pdb_mirror/pdb/ky/pdb3ky9.ent.gz'
p3097
sS'pdb1uyj'
p3098
S'/net/chevy/raid1/pdb_mirror/pdb/uy/pdb1uyj.ent.gz'
p3099
sS'pdb2bjh'
p3100
S'/net/chevy/raid1/pdb_mirror/pdb/bj/pdb2bjh.ent.gz'
p3101
sS'pdb1qo5'
p3102
S'/net/chevy/raid1/pdb_mirror/pdb/qo/pdb1qo5.ent.gz'
p3103
sS'pdb2bjy'
p3104
S'/net/chevy/raid1/pdb_mirror/pdb/bj/pdb2bjy.ent.gz'
p3105
sS'pdb1uyp'
p3106
S'/net/chevy/raid1/pdb_mirror/pdb/uy/pdb1uyp.ent.gz'
p3107
sS'pdb2gd1'
p3108
S'/net/chevy/raid1/pdb_mirror/pdb/gd/pdb2gd1.ent.gz'
p3109
sS'pdb1uyw'
p3110
S'/net/chevy/raid1/pdb_mirror/pdb/uy/pdb1uyw.ent.gz'
p3111
sS'pdb1go6'
p3112
S'/net/chevy/raid1/pdb_mirror/pdb/go/pdb1go6.ent.gz'
p3113
sS'pdb4aoe'
p3114
S'/net/chevy/raid1/pdb_mirror/pdb/ao/pdb4aoe.ent.gz'
p3115
sS'pdb4aod'
p3116
S'/net/chevy/raid1/pdb_mirror/pdb/ao/pdb4aod.ent.gz'
p3117
sS'pdb1ojd'
p3118
S'/net/chevy/raid1/pdb_mirror/pdb/oj/pdb1ojd.ent.gz'
p3119
sS'pdb2y0p'
p3120
S'/net/chevy/raid1/pdb_mirror/pdb/y0/pdb2y0p.ent.gz'
p3121
sS'pdb4aow'
p3122
S'/net/chevy/raid1/pdb_mirror/pdb/ao/pdb4aow.ent.gz'
p3123
sS'pdb1qox'
p3124
S'/net/chevy/raid1/pdb_mirror/pdb/qo/pdb1qox.ent.gz'
p3125
sS'pdb3ct4'
p3126
S'/net/chevy/raid1/pdb_mirror/pdb/ct/pdb3ct4.ent.gz'
p3127
sS'pdb2w8s'
p3128
S'/net/chevy/raid1/pdb_mirror/pdb/w8/pdb2w8s.ent.gz'
p3129
sS'pdb1qoh'
p3130
S'/net/chevy/raid1/pdb_mirror/pdb/qo/pdb1qoh.ent.gz'
p3131
sS'pdb1o6z'
p3132
S'/net/chevy/raid1/pdb_mirror/pdb/o6/pdb1o6z.ent.gz'
p3133
sS'pdb4eoy'
p3134
S'/net/chevy/raid1/pdb_mirror/pdb/eo/pdb4eoy.ent.gz'
p3135
sS'pdb2bj0'
p3136
S'/net/chevy/raid1/pdb_mirror/pdb/bj/pdb2bj0.ent.gz'
p3137
sS'pdb2bj4'
p3138
S'/net/chevy/raid1/pdb_mirror/pdb/bj/pdb2bj4.ent.gz'
p3139
sS'pdb4bby'
p3140
S'/net/chevy/raid1/pdb_mirror/pdb/bb/pdb4bby.ent.gz'
p3141
sS'pdb2wvg'
p3142
S'/net/chevy/raid1/pdb_mirror/pdb/wv/pdb2wvg.ent.gz'
p3143
sS'pdb2wva'
p3144
S'/net/chevy/raid1/pdb_mirror/pdb/wv/pdb2wva.ent.gz'
p3145
sS'pdb4h1z'
p3146
S'/net/chevy/raid1/pdb_mirror/pdb/h1/pdb4h1z.ent.gz'
p3147
sS'pdb1www'
p3148
S'/net/chevy/raid1/pdb_mirror/pdb/ww/pdb1www.ent.gz'
p3149
sS'pdb3v5e'
p3150
S'/net/chevy/raid1/pdb_mirror/pdb/v5/pdb3v5e.ent.gz'
p3151
sS'pdb2wvh'
p3152
S'/net/chevy/raid1/pdb_mirror/pdb/wv/pdb2wvh.ent.gz'
p3153
sS'pdb3cf2'
p3154
S'/net/chevy/raid1/pdb_mirror/pdb/cf/pdb3cf2.ent.gz'
p3155
sS'pdb2y0e'
p3156
S'/net/chevy/raid1/pdb_mirror/pdb/y0/pdb2y0e.ent.gz'
p3157
sS'pdb4aa7'
p3158
S'/net/chevy/raid1/pdb_mirror/pdb/aa/pdb4aa7.ent.gz'
p3159
sS'pdb2cf7'
p3160
S'/net/chevy/raid1/pdb_mirror/pdb/cf/pdb2cf7.ent.gz'
p3161
sS'pdb4jsn'
p3162
S'/net/chevy/raid1/pdb_mirror/pdb/js/pdb4jsn.ent.gz'
p3163
sS'pdb1bvp'
p3164
S'/net/chevy/raid1/pdb_mirror/pdb/bv/pdb1bvp.ent.gz'
p3165
sS'pdb2xev'
p3166
S'/net/chevy/raid1/pdb_mirror/pdb/xe/pdb2xev.ent.gz'
p3167
sS'pdb2wv7'
p3168
S'/net/chevy/raid1/pdb_mirror/pdb/wv/pdb2wv7.ent.gz'
p3169
sS'pdb2wv5'
p3170
S'/net/chevy/raid1/pdb_mirror/pdb/wv/pdb2wv5.ent.gz'
p3171
sS'pdb1bko'
p3172
S'/net/chevy/raid1/pdb_mirror/pdb/bk/pdb1bko.ent.gz'
p3173
sS'pdb2hrp'
p3174
S'/net/chevy/raid1/pdb_mirror/pdb/hr/pdb2hrp.ent.gz'
p3175
sS'pdb4a4k'
p3176
S'/net/chevy/raid1/pdb_mirror/pdb/a4/pdb4a4k.ent.gz'
p3177
sS'pdb2vbg'
p3178
S'/net/chevy/raid1/pdb_mirror/pdb/vb/pdb2vbg.ent.gz'
p3179
sS'pdb2vbf'
p3180
S'/net/chevy/raid1/pdb_mirror/pdb/vb/pdb2vbf.ent.gz'
p3181
sS'pdb4bb5'
p3182
S'/net/chevy/raid1/pdb_mirror/pdb/bb/pdb4bb5.ent.gz'
p3183
sS'pdb1oc3'
p3184
S'/net/chevy/raid1/pdb_mirror/pdb/oc/pdb1oc3.ent.gz'
p3185
sS'pdb1vba'
p3186
S'/net/chevy/raid1/pdb_mirror/pdb/vb/pdb1vba.ent.gz'
p3187
sS'pdb4bik'
p3188
S'/net/chevy/raid1/pdb_mirror/pdb/bi/pdb4bik.ent.gz'
p3189
sS'pdb2y32'
p3190
S'/net/chevy/raid1/pdb_mirror/pdb/y3/pdb2y32.ent.gz'
p3191
sS'pdb4dfd'
p3192
S'/net/chevy/raid1/pdb_mirror/pdb/df/pdb4dfd.ent.gz'
p3193
sS'pdb3fct'
p3194
S'/net/chevy/raid1/pdb_mirror/pdb/fc/pdb3fct.ent.gz'
p3195
sS'pdb1e0o'
p3196
S'/net/chevy/raid1/pdb_mirror/pdb/e0/pdb1e0o.ent.gz'
p3197
sS'pdb4btg'
p3198
S'/net/chevy/raid1/pdb_mirror/pdb/bt/pdb4btg.ent.gz'
p3199
sS'pdb1mel'
p3200
S'/net/chevy/raid1/pdb_mirror/pdb/me/pdb1mel.ent.gz'
p3201
sS'pdb1cks'
p3202
S'/net/chevy/raid1/pdb_mirror/pdb/ck/pdb1cks.ent.gz'
p3203
sS'pdb2v69'
p3204
S'/net/chevy/raid1/pdb_mirror/pdb/v6/pdb2v69.ent.gz'
p3205
sS'pdb1gsd'
p3206
S'/net/chevy/raid1/pdb_mirror/pdb/gs/pdb1gsd.ent.gz'
p3207
sS'pdb2y3v'
p3208
S'/net/chevy/raid1/pdb_mirror/pdb/y3/pdb2y3v.ent.gz'
p3209
sS'pdb1gsf'
p3210
S'/net/chevy/raid1/pdb_mirror/pdb/gs/pdb1gsf.ent.gz'
p3211
sS'pdb2v68'
p3212
S'/net/chevy/raid1/pdb_mirror/pdb/v6/pdb2v68.ent.gz'
p3213
sS'pdb2va0'
p3214
S'/net/chevy/raid1/pdb_mirror/pdb/va/pdb2va0.ent.gz'
p3215
sS'pdb1gsz'
p3216
S'/net/chevy/raid1/pdb_mirror/pdb/gs/pdb1gsz.ent.gz'
p3217
sS'pdb1ekm'
p3218
S'/net/chevy/raid1/pdb_mirror/pdb/ek/pdb1ekm.ent.gz'
p3219
sS'pdb3dar'
p3220
S'/net/chevy/raid1/pdb_mirror/pdb/da/pdb3dar.ent.gz'
p3221
sS'pdb6pfk'
p3222
S'/net/chevy/raid1/pdb_mirror/pdb/pf/pdb6pfk.ent.gz'
p3223
sS'pdb3dap'
p3224
S'/net/chevy/raid1/pdb_mirror/pdb/da/pdb3dap.ent.gz'
p3225
sS'pdb4dpm'
p3226
S'/net/chevy/raid1/pdb_mirror/pdb/dp/pdb4dpm.ent.gz'
p3227
sS'pdb4dpl'
p3228
S'/net/chevy/raid1/pdb_mirror/pdb/dp/pdb4dpl.ent.gz'
p3229
sS'pdb1as8'
p3230
S'/net/chevy/raid1/pdb_mirror/pdb/as/pdb1as8.ent.gz'
p3231
sS'pdb1o4z'
p3232
S'/net/chevy/raid1/pdb_mirror/pdb/o4/pdb1o4z.ent.gz'
p3233
sS'pdb1as6'
p3234
S'/net/chevy/raid1/pdb_mirror/pdb/as/pdb1as6.ent.gz'
p3235
sS'pdb1as7'
p3236
S'/net/chevy/raid1/pdb_mirror/pdb/as/pdb1as7.ent.gz'
p3237
sS'pdb1r1r'
p3238
S'/net/chevy/raid1/pdb_mirror/pdb/r1/pdb1r1r.ent.gz'
p3239
sS'pdb4bt1'
p3240
S'/net/chevy/raid1/pdb_mirror/pdb/bt/pdb4bt1.ent.gz'
p3241
sS'pdb4bt0'
p3242
S'/net/chevy/raid1/pdb_mirror/pdb/bt/pdb4bt0.ent.gz'
p3243
sS'pdb4otb'
p3244
S'/net/chevy/raid1/pdb_mirror/pdb/ot/pdb4otb.ent.gz'
p3245
sS'pdb3chx'
p3246
S'/net/chevy/raid1/pdb_mirror/pdb/ch/pdb3chx.ent.gz'
p3247
sS'pdb2j2j'
p3248
S'/net/chevy/raid1/pdb_mirror/pdb/j2/pdb2j2j.ent.gz'
p3249
sS'pdb2v41'
p3250
S'/net/chevy/raid1/pdb_mirror/pdb/v4/pdb2v41.ent.gz'
p3251
sS'pdb2j2f'
p3252
S'/net/chevy/raid1/pdb_mirror/pdb/j2/pdb2j2f.ent.gz'
p3253
sS'pdb2v43'
p3254
S'/net/chevy/raid1/pdb_mirror/pdb/v4/pdb2v43.ent.gz'
p3255
sS'pdb4jvu'
p3256
S'/net/chevy/raid1/pdb_mirror/pdb/jv/pdb4jvu.ent.gz'
p3257
sS'pdb4jvw'
p3258
S'/net/chevy/raid1/pdb_mirror/pdb/jv/pdb4jvw.ent.gz'
p3259
sS'pdb1ae1'
p3260
S'/net/chevy/raid1/pdb_mirror/pdb/ae/pdb1ae1.ent.gz'
p3261
sS'pdb1c2y'
p3262
S'/net/chevy/raid1/pdb_mirror/pdb/c2/pdb1c2y.ent.gz'
p3263
sS'pdb2c3n'
p3264
S'/net/chevy/raid1/pdb_mirror/pdb/c3/pdb2c3n.ent.gz'
p3265
sS'pdb2c3q'
p3266
S'/net/chevy/raid1/pdb_mirror/pdb/c3/pdb2c3q.ent.gz'
p3267
sS'pdb2wsu'
p3268
S'/net/chevy/raid1/pdb_mirror/pdb/ws/pdb2wsu.ent.gz'
p3269
sS'pdb2c3t'
p3270
S'/net/chevy/raid1/pdb_mirror/pdb/c3/pdb2c3t.ent.gz'
p3271
sS'pdb2wst'
p3272
S'/net/chevy/raid1/pdb_mirror/pdb/ws/pdb2wst.ent.gz'
p3273
sS'pdb1vpf'
p3274
S'/net/chevy/raid1/pdb_mirror/pdb/vp/pdb1vpf.ent.gz'
p3275
sS'pdb1pfz'
p3276
S'/net/chevy/raid1/pdb_mirror/pdb/pf/pdb1pfz.ent.gz'
p3277
sS'pdb3vbs'
p3278
S'/net/chevy/raid1/pdb_mirror/pdb/vb/pdb3vbs.ent.gz'
p3279
sS'pdb2ya7'
p3280
S'/net/chevy/raid1/pdb_mirror/pdb/ya/pdb2ya7.ent.gz'
p3281
sS'pdb2iy4'
p3282
S'/net/chevy/raid1/pdb_mirror/pdb/iy/pdb2iy4.ent.gz'
p3283
sS'pdb2rla'
p3284
S'/net/chevy/raid1/pdb_mirror/pdb/rl/pdb2rla.ent.gz'
p3285
sS'pdb2v4i'
p3286
S'/net/chevy/raid1/pdb_mirror/pdb/v4/pdb2v4i.ent.gz'
p3287
sS'pdb1b1z'
p3288
S'/net/chevy/raid1/pdb_mirror/pdb/b1/pdb1b1z.ent.gz'
p3289
sS'pdb2v4j'
p3290
S'/net/chevy/raid1/pdb_mirror/pdb/v4/pdb2v4j.ent.gz'
p3291
sS'pdb4a0g'
p3292
S'/net/chevy/raid1/pdb_mirror/pdb/a0/pdb4a0g.ent.gz'
p3293
sS'pdb3zjk'
p3294
S'/net/chevy/raid1/pdb_mirror/pdb/zj/pdb3zjk.ent.gz'
p3295
sS'pdb1a3a'
p3296
S'/net/chevy/raid1/pdb_mirror/pdb/a3/pdb1a3a.ent.gz'
p3297
sS'pdb1vb2'
p3298
S'/net/chevy/raid1/pdb_mirror/pdb/vb/pdb1vb2.ent.gz'
p3299
sS'pdb1fpn'
p3300
S'/net/chevy/raid1/pdb_mirror/pdb/fp/pdb1fpn.ent.gz'
p3301
sS'pdb4ang'
p3302
S'/net/chevy/raid1/pdb_mirror/pdb/an/pdb4ang.ent.gz'
p3303
sS'pdb1bv4'
p3304
S'/net/chevy/raid1/pdb_mirror/pdb/bv/pdb1bv4.ent.gz'
p3305
sS'pdb3znu'
p3306
S'/net/chevy/raid1/pdb_mirror/pdb/zn/pdb3znu.ent.gz'
p3307
sS'pdb4grm'
p3308
S'/net/chevy/raid1/pdb_mirror/pdb/gr/pdb4grm.ent.gz'
p3309
sS'pdb2zzq'
p3310
S'/net/chevy/raid1/pdb_mirror/pdb/zz/pdb2zzq.ent.gz'
p3311
sS'pdb3zx2'
p3312
S'/net/chevy/raid1/pdb_mirror/pdb/zx/pdb3zx2.ent.gz'
p3313
sS'pdb3zx0'
p3314
S'/net/chevy/raid1/pdb_mirror/pdb/zx/pdb3zx0.ent.gz'
p3315
sS'pdb3r1r'
p3316
S'/net/chevy/raid1/pdb_mirror/pdb/r1/pdb3r1r.ent.gz'
p3317
sS'pdb2yj0'
p3318
S'/net/chevy/raid1/pdb_mirror/pdb/yj/pdb2yj0.ent.gz'
p3319
sS'pdb3lob'
p3320
S'/net/chevy/raid1/pdb_mirror/pdb/lo/pdb3lob.ent.gz'
p3321
sS'pdb2vcv'
p3322
S'/net/chevy/raid1/pdb_mirror/pdb/vc/pdb2vcv.ent.gz'
p3323
sS'pdb2y7k'
p3324
S'/net/chevy/raid1/pdb_mirror/pdb/y7/pdb2y7k.ent.gz'
p3325
sS'pdb7ahl'
p3326
S'/net/chevy/raid1/pdb_mirror/pdb/ah/pdb7ahl.ent.gz'
p3327
sS'pdb1ltt'
p3328
S'/net/chevy/raid1/pdb_mirror/pdb/lt/pdb1ltt.ent.gz'
p3329
sS'pdb1ltr'
p3330
S'/net/chevy/raid1/pdb_mirror/pdb/lt/pdb1ltr.ent.gz'
p3331
sS'pdb1lts'
p3332
S'/net/chevy/raid1/pdb_mirror/pdb/lt/pdb1lts.ent.gz'
p3333
sS'pdb1vbb'
p3334
S'/net/chevy/raid1/pdb_mirror/pdb/vb/pdb1vbb.ent.gz'
p3335
sS'pdb1vbc'
p3336
S'/net/chevy/raid1/pdb_mirror/pdb/vb/pdb1vbc.ent.gz'
p3337
sS'pdb2hoh'
p3338
S'/net/chevy/raid1/pdb_mirror/pdb/ho/pdb2hoh.ent.gz'
p3339
sS'pdb1bvi'
p3340
S'/net/chevy/raid1/pdb_mirror/pdb/bv/pdb1bvi.ent.gz'
p3341
sS'pdb1vbe'
p3342
S'/net/chevy/raid1/pdb_mirror/pdb/vb/pdb1vbe.ent.gz'
p3343
sS'pdb4an4'
p3344
S'/net/chevy/raid1/pdb_mirror/pdb/an/pdb4an4.ent.gz'
p3345
sS'pdb4an5'
p3346
S'/net/chevy/raid1/pdb_mirror/pdb/an/pdb4an5.ent.gz'
p3347
sS'pdb3zxv'
p3348
S'/net/chevy/raid1/pdb_mirror/pdb/zx/pdb3zxv.ent.gz'
p3349
sS'pdb3zxw'
p3350
S'/net/chevy/raid1/pdb_mirror/pdb/zx/pdb3zxw.ent.gz'
p3351
sS'pdb3zxt'
p3352
S'/net/chevy/raid1/pdb_mirror/pdb/zx/pdb3zxt.ent.gz'
p3353
sS'pdb3zxu'
p3354
S'/net/chevy/raid1/pdb_mirror/pdb/zx/pdb3zxu.ent.gz'
p3355
sS'pdb3zxr'
p3356
S'/net/chevy/raid1/pdb_mirror/pdb/zx/pdb3zxr.ent.gz'
p3357
sS'pdb3zxs'
p3358
S'/net/chevy/raid1/pdb_mirror/pdb/zx/pdb3zxs.ent.gz'
p3359
sS'pdb4gpd'
p3360
S'/net/chevy/raid1/pdb_mirror/pdb/gp/pdb4gpd.ent.gz'
p3361
sS'pdb1rxo'
p3362
S'/net/chevy/raid1/pdb_mirror/pdb/rx/pdb1rxo.ent.gz'
p3363
sS'pdb2yjl'
p3364
S'/net/chevy/raid1/pdb_mirror/pdb/yj/pdb2yjl.ent.gz'
p3365
sS'pdb3zxd'
p3366
S'/net/chevy/raid1/pdb_mirror/pdb/zx/pdb3zxd.ent.gz'
p3367
sS'pdb1hvu'
p3368
S'/net/chevy/raid1/pdb_mirror/pdb/hv/pdb1hvu.ent.gz'
p3369
sS'pdb2pro'
p3370
S'/net/chevy/raid1/pdb_mirror/pdb/pr/pdb2pro.ent.gz'
p3371
sS'pdb3zxa'
p3372
S'/net/chevy/raid1/pdb_mirror/pdb/zx/pdb3zxa.ent.gz'
p3373
sS'pdb4ayd'
p3374
S'/net/chevy/raid1/pdb_mirror/pdb/ay/pdb4ayd.ent.gz'
p3375
sS'pdb4g7w'
p3376
S'/net/chevy/raid1/pdb_mirror/pdb/g7/pdb4g7w.ent.gz'
p3377
sS'pdb2vcy'
p3378
S'/net/chevy/raid1/pdb_mirror/pdb/vc/pdb2vcy.ent.gz'
p3379
sS'pdb2vct'
p3380
S'/net/chevy/raid1/pdb_mirror/pdb/vc/pdb2vct.ent.gz'
p3381
sS'pdb2hsd'
p3382
S'/net/chevy/raid1/pdb_mirror/pdb/hs/pdb2hsd.ent.gz'
p3383
sS'pdb2vcp'
p3384
S'/net/chevy/raid1/pdb_mirror/pdb/vc/pdb2vcp.ent.gz'
p3385
sS'pdb4rub'
p3386
S'/net/chevy/raid1/pdb_mirror/pdb/ru/pdb4rub.ent.gz'
p3387
sS'pdb2vck'
p3388
S'/net/chevy/raid1/pdb_mirror/pdb/vc/pdb2vck.ent.gz'
p3389
sS'pdb1kzu'
p3390
S'/net/chevy/raid1/pdb_mirror/pdb/kz/pdb1kzu.ent.gz'
p3391
sS'pdb1bjq'
p3392
S'/net/chevy/raid1/pdb_mirror/pdb/bj/pdb1bjq.ent.gz'
p3393
sS'pdb1uz6'
p3394
S'/net/chevy/raid1/pdb_mirror/pdb/uz/pdb1uz6.ent.gz'
p3395
sS'pdb3ker'
p3396
S'/net/chevy/raid1/pdb_mirror/pdb/ke/pdb3ker.ent.gz'
p3397
sS'pdb4g93'
p3398
S'/net/chevy/raid1/pdb_mirror/pdb/g9/pdb4g93.ent.gz'
p3399
sS'pdb2bk6'
p3400
S'/net/chevy/raid1/pdb_mirror/pdb/bk/pdb2bk6.ent.gz'
p3401
sS'pdb4inr'
p3402
S'/net/chevy/raid1/pdb_mirror/pdb/in/pdb4inr.ent.gz'
p3403
sS'pdb4int'
p3404
S'/net/chevy/raid1/pdb_mirror/pdb/in/pdb4int.ent.gz'
p3405
sS'pdb4inu'
p3406
S'/net/chevy/raid1/pdb_mirror/pdb/in/pdb4inu.ent.gz'
p3407
sS'pdb3toi'
p3408
S'/net/chevy/raid1/pdb_mirror/pdb/to/pdb3toi.ent.gz'
p3409
sS'pdb4i59'
p3410
S'/net/chevy/raid1/pdb_mirror/pdb/i5/pdb4i59.ent.gz'
p3411
sS'pdb4i58'
p3412
S'/net/chevy/raid1/pdb_mirror/pdb/i5/pdb4i58.ent.gz'
p3413
sS'pdb1gll'
p3414
S'/net/chevy/raid1/pdb_mirror/pdb/gl/pdb1gll.ent.gz'
p3415
sS'pdb1glj'
p3416
S'/net/chevy/raid1/pdb_mirror/pdb/gl/pdb1glj.ent.gz'
p3417
sS'pdb2xta'
p3418
S'/net/chevy/raid1/pdb_mirror/pdb/xt/pdb2xta.ent.gz'
p3419
sS'pdb1qbj'
p3420
S'/net/chevy/raid1/pdb_mirror/pdb/qb/pdb1qbj.ent.gz'
p3421
sS'pdb4inn'
p3422
S'/net/chevy/raid1/pdb_mirror/pdb/in/pdb4inn.ent.gz'
p3423
sS'pdb2nsi'
p3424
S'/net/chevy/raid1/pdb_mirror/pdb/ns/pdb2nsi.ent.gz'
p3425
sS'pdb1bj1'
p3426
S'/net/chevy/raid1/pdb_mirror/pdb/bj/pdb1bj1.ent.gz'
p3427
sS'pdb1bxs'
p3428
S'/net/chevy/raid1/pdb_mirror/pdb/bx/pdb1bxs.ent.gz'
p3429
sS'pdb1ddo'
p3430
S'/net/chevy/raid1/pdb_mirror/pdb/dd/pdb1ddo.ent.gz'
p3431
sS'pdb1ddl'
p3432
S'/net/chevy/raid1/pdb_mirror/pdb/dd/pdb1ddl.ent.gz'
p3433
sS'pdb2bkc'
p3434
S'/net/chevy/raid1/pdb_mirror/pdb/bk/pdb2bkc.ent.gz'
p3435
sS'pdb1ddk'
p3436
S'/net/chevy/raid1/pdb_mirror/pdb/dd/pdb1ddk.ent.gz'
p3437
sS'pdb1bxz'
p3438
S'/net/chevy/raid1/pdb_mirror/pdb/bx/pdb1bxz.ent.gz'
p3439
sS'pdb1uzd'
p3440
S'/net/chevy/raid1/pdb_mirror/pdb/uz/pdb1uzd.ent.gz'
p3441
sS'pdb4kn2'
p3442
S'/net/chevy/raid1/pdb_mirror/pdb/kn/pdb4kn2.ent.gz'
p3443
sS'pdb1gy8'
p3444
S'/net/chevy/raid1/pdb_mirror/pdb/gy/pdb1gy8.ent.gz'
p3445
sS'pdb1bxb'
p3446
S'/net/chevy/raid1/pdb_mirror/pdb/bx/pdb1bxb.ent.gz'
p3447
sS'pdb1bxc'
p3448
S'/net/chevy/raid1/pdb_mirror/pdb/bx/pdb1bxc.ent.gz'
p3449
sS'pdb2bkq'
p3450
S'/net/chevy/raid1/pdb_mirror/pdb/bk/pdb2bkq.ent.gz'
p3451
sS'pdb1bxn'
p3452
S'/net/chevy/raid1/pdb_mirror/pdb/bx/pdb1bxn.ent.gz'
p3453
sS'pdb1lbs'
p3454
S'/net/chevy/raid1/pdb_mirror/pdb/lb/pdb1lbs.ent.gz'
p3455
sS'pdb1bxh'
p3456
S'/net/chevy/raid1/pdb_mirror/pdb/bx/pdb1bxh.ent.gz'
p3457
sS'pdb1uzh'
p3458
S'/net/chevy/raid1/pdb_mirror/pdb/uz/pdb1uzh.ent.gz'
p3459
sS'pdb1gpd'
p3460
S'/net/chevy/raid1/pdb_mirror/pdb/gp/pdb1gpd.ent.gz'
p3461
sS'pdb1gph'
p3462
S'/net/chevy/raid1/pdb_mirror/pdb/gp/pdb1gph.ent.gz'
p3463
sS'pdb4bc9'
p3464
S'/net/chevy/raid1/pdb_mirror/pdb/bc/pdb4bc9.ent.gz'
p3465
sS'pdb2tep'
p3466
S'/net/chevy/raid1/pdb_mirror/pdb/te/pdb2tep.ent.gz'
p3467
sS'pdb8gss'
p3468
S'/net/chevy/raid1/pdb_mirror/pdb/gs/pdb8gss.ent.gz'
p3469
sS'pdb4dqy'
p3470
S'/net/chevy/raid1/pdb_mirror/pdb/dq/pdb4dqy.ent.gz'
p3471
sS'pdb2woi'
p3472
S'/net/chevy/raid1/pdb_mirror/pdb/wo/pdb2woi.ent.gz'
p3473
sS'pdb4a72'
p3474
S'/net/chevy/raid1/pdb_mirror/pdb/a7/pdb4a72.ent.gz'
p3475
sS'pdb3n97'
p3476
S'/net/chevy/raid1/pdb_mirror/pdb/n9/pdb3n97.ent.gz'
p3477
sS'pdb4bcu'
p3478
S'/net/chevy/raid1/pdb_mirror/pdb/bc/pdb4bcu.ent.gz'
p3479
sS'pdb2wqu'
p3480
S'/net/chevy/raid1/pdb_mirror/pdb/wq/pdb2wqu.ent.gz'
p3481
sS'pdb2c6s'
p3482
S'/net/chevy/raid1/pdb_mirror/pdb/c6/pdb2c6s.ent.gz'
p3483
sS'pdb1b2z'
p3484
S'/net/chevy/raid1/pdb_mirror/pdb/b2/pdb1b2z.ent.gz'
p3485
sS'pdb4pgm'
p3486
S'/net/chevy/raid1/pdb_mirror/pdb/pg/pdb4pgm.ent.gz'
p3487
sS'pdb4bce'
p3488
S'/net/chevy/raid1/pdb_mirror/pdb/bc/pdb4bce.ent.gz'
p3489
sS'pdb1gp7'
p3490
S'/net/chevy/raid1/pdb_mirror/pdb/gp/pdb1gp7.ent.gz'
p3491
sS'pdb1u1y'
p3492
S'/net/chevy/raid1/pdb_mirror/pdb/u1/pdb1u1y.ent.gz'
p3493
sS'pdb2zah'
p3494
S'/net/chevy/raid1/pdb_mirror/pdb/za/pdb2zah.ent.gz'
p3495
sS'pdb2wql'
p3496
S'/net/chevy/raid1/pdb_mirror/pdb/wq/pdb2wql.ent.gz'
p3497
sS'pdb3me1'
p3498
S'/net/chevy/raid1/pdb_mirror/pdb/me/pdb3me1.ent.gz'
p3499
sS'pdb1gbn'
p3500
S'/net/chevy/raid1/pdb_mirror/pdb/gb/pdb1gbn.ent.gz'
p3501
sS'pdb1afv'
p3502
S'/net/chevy/raid1/pdb_mirror/pdb/af/pdb1afv.ent.gz'
p3503
sS'pdb2wmc'
p3504
S'/net/chevy/raid1/pdb_mirror/pdb/wm/pdb2wmc.ent.gz'
p3505
sS'pdb1afr'
p3506
S'/net/chevy/raid1/pdb_mirror/pdb/af/pdb1afr.ent.gz'
p3507
sS'pdb1cfm'
p3508
S'/net/chevy/raid1/pdb_mirror/pdb/cf/pdb1cfm.ent.gz'
p3509
sS'pdb2wov'
p3510
S'/net/chevy/raid1/pdb_mirror/pdb/wo/pdb2wov.ent.gz'
p3511
sS'pdb1wac'
p3512
S'/net/chevy/raid1/pdb_mirror/pdb/wa/pdb1wac.ent.gz'
p3513
sS'pdb1b0c'
p3514
S'/net/chevy/raid1/pdb_mirror/pdb/b0/pdb1b0c.ent.gz'
p3515
sS'pdb1afd'
p3516
S'/net/chevy/raid1/pdb_mirror/pdb/af/pdb1afd.ent.gz'
p3517
sS'pdb2v5h'
p3518
S'/net/chevy/raid1/pdb_mirror/pdb/v5/pdb2v5h.ent.gz'
p3519
sS'pdb1afa'
p3520
S'/net/chevy/raid1/pdb_mirror/pdb/af/pdb1afa.ent.gz'
p3521
sS'pdb1hgf'
p3522
S'/net/chevy/raid1/pdb_mirror/pdb/hg/pdb1hgf.ent.gz'
p3523
sS'pdb1hge'
p3524
S'/net/chevy/raid1/pdb_mirror/pdb/hg/pdb1hge.ent.gz'
p3525
sS'pdb1hgd'
p3526
S'/net/chevy/raid1/pdb_mirror/pdb/hg/pdb1hgd.ent.gz'
p3527
sS'pdb1wav'
p3528
S'/net/chevy/raid1/pdb_mirror/pdb/wa/pdb1wav.ent.gz'
p3529
sS'pdb1hgj'
p3530
S'/net/chevy/raid1/pdb_mirror/pdb/hg/pdb1hgj.ent.gz'
p3531
sS'pdb1hgi'
p3532
S'/net/chevy/raid1/pdb_mirror/pdb/hg/pdb1hgi.ent.gz'
p3533
sS'pdb1hgh'
p3534
S'/net/chevy/raid1/pdb_mirror/pdb/hg/pdb1hgh.ent.gz'
p3535
sS'pdb1cfz'
p3536
S'/net/chevy/raid1/pdb_mirror/pdb/cf/pdb1cfz.ent.gz'
p3537
sS'pdb1tup'
p3538
S'/net/chevy/raid1/pdb_mirror/pdb/tu/pdb1tup.ent.gz'
p3539
sS'pdb2xts'
p3540
S'/net/chevy/raid1/pdb_mirror/pdb/xt/pdb2xts.ent.gz'
p3541
sS'pdb1mf2'
p3542
S'/net/chevy/raid1/pdb_mirror/pdb/mf/pdb1mf2.ent.gz'
p3543
sS'pdb1f8v'
p3544
S'/net/chevy/raid1/pdb_mirror/pdb/f8/pdb1f8v.ent.gz'
p3545
sS'pdb1ch0'
p3546
S'/net/chevy/raid1/pdb_mirror/pdb/ch/pdb1ch0.ent.gz'
p3547
sS'pdb3f79'
p3548
S'/net/chevy/raid1/pdb_mirror/pdb/f7/pdb3f79.ent.gz'
p3549
sS'pdb1hg3'
p3550
S'/net/chevy/raid1/pdb_mirror/pdb/hg/pdb1hg3.ent.gz'
p3551
sS'pdb1af6'
p3552
S'/net/chevy/raid1/pdb_mirror/pdb/af/pdb1af6.ent.gz'
p3553
sS'pdb2v50'
p3554
S'/net/chevy/raid1/pdb_mirror/pdb/v5/pdb2v50.ent.gz'
p3555
sS'pdb3v9i'
p3556
S'/net/chevy/raid1/pdb_mirror/pdb/v9/pdb3v9i.ent.gz'
p3557
sS'pdb1cf2'
p3558
S'/net/chevy/raid1/pdb_mirror/pdb/cf/pdb1cf2.ent.gz'
p3559
sS'pdb3fbn'
p3560
S'/net/chevy/raid1/pdb_mirror/pdb/fb/pdb3fbn.ent.gz'
p3561
sS'pdb1e1h'
p3562
S'/net/chevy/raid1/pdb_mirror/pdb/e1/pdb1e1h.ent.gz'
p3563
sS'pdb3v9g'
p3564
S'/net/chevy/raid1/pdb_mirror/pdb/v9/pdb3v9g.ent.gz'
p3565
sS'pdb3ndm'
p3566
S'/net/chevy/raid1/pdb_mirror/pdb/nd/pdb3ndm.ent.gz'
p3567
sS'pdb1cf9'
p3568
S'/net/chevy/raid1/pdb_mirror/pdb/cf/pdb1cf9.ent.gz'
p3569
sS'pdb1k5g'
p3570
S'/net/chevy/raid1/pdb_mirror/pdb/k5/pdb1k5g.ent.gz'
p3571
sS'pdb1k5d'
p3572
S'/net/chevy/raid1/pdb_mirror/pdb/k5/pdb1k5d.ent.gz'
p3573
sS'pdb1mff'
p3574
S'/net/chevy/raid1/pdb_mirror/pdb/mf/pdb1mff.ent.gz'
p3575
sS'pdb1mfi'
p3576
S'/net/chevy/raid1/pdb_mirror/pdb/mf/pdb1mfi.ent.gz'
p3577
sS'pdb2wcd'
p3578
S'/net/chevy/raid1/pdb_mirror/pdb/wc/pdb2wcd.ent.gz'
p3579
sS'pdb1k5m'
p3580
S'/net/chevy/raid1/pdb_mirror/pdb/k5/pdb1k5m.ent.gz'
p3581
sS'pdb2g8g'
p3582
S'/net/chevy/raid1/pdb_mirror/pdb/g8/pdb2g8g.ent.gz'
p3583
sS'pdb1atj'
p3584
S'/net/chevy/raid1/pdb_mirror/pdb/at/pdb1atj.ent.gz'
p3585
sS'pdb1bcj'
p3586
S'/net/chevy/raid1/pdb_mirror/pdb/bc/pdb1bcj.ent.gz'
p3587
sS'pdb1tgx'
p3588
S'/net/chevy/raid1/pdb_mirror/pdb/tg/pdb1tgx.ent.gz'
p3589
sS'pdb2wcw'
p3590
S'/net/chevy/raid1/pdb_mirror/pdb/wc/pdb2wcw.ent.gz'
p3591
sS'pdb2jlm'
p3592
S'/net/chevy/raid1/pdb_mirror/pdb/jl/pdb2jlm.ent.gz'
p3593
sS'pdb2jla'
p3594
S'/net/chevy/raid1/pdb_mirror/pdb/jl/pdb2jla.ent.gz'
p3595
sS'pdb1ncf'
p3596
S'/net/chevy/raid1/pdb_mirror/pdb/nc/pdb1ncf.ent.gz'
p3597
sS'pdb1xim'
p3598
S'/net/chevy/raid1/pdb_mirror/pdb/xi/pdb1xim.ent.gz'
p3599
sS'pdb2w88'
p3600
S'/net/chevy/raid1/pdb_mirror/pdb/w8/pdb2w88.ent.gz'
p3601
sS'pdb2yiz'
p3602
S'/net/chevy/raid1/pdb_mirror/pdb/yi/pdb2yiz.ent.gz'
p3603
sS'pdb1gzh'
p3604
S'/net/chevy/raid1/pdb_mirror/pdb/gz/pdb1gzh.ent.gz'
p3605
sS'pdb2frv'
p3606
S'/net/chevy/raid1/pdb_mirror/pdb/fr/pdb2frv.ent.gz'
p3607
sS'pdb2yii'
p3608
S'/net/chevy/raid1/pdb_mirror/pdb/yi/pdb2yii.ent.gz'
p3609
sS'pdb2yil'
p3610
S'/net/chevy/raid1/pdb_mirror/pdb/yi/pdb2yil.ent.gz'
p3611
sS'pdb1huu'
p3612
S'/net/chevy/raid1/pdb_mirror/pdb/hu/pdb1huu.ent.gz'
p3613
sS'pdb2yic'
p3614
S'/net/chevy/raid1/pdb_mirror/pdb/yi/pdb2yic.ent.gz'
p3615
sS'pdb1fag'
p3616
S'/net/chevy/raid1/pdb_mirror/pdb/fa/pdb1fag.ent.gz'
p3617
sS'pdb2yid'
p3618
S'/net/chevy/raid1/pdb_mirror/pdb/yi/pdb2yid.ent.gz'
p3619
sS'pdb2c21'
p3620
S'/net/chevy/raid1/pdb_mirror/pdb/c2/pdb2c21.ent.gz'
p3621
sS'pdb2j3z'
p3622
S'/net/chevy/raid1/pdb_mirror/pdb/j3/pdb2j3z.ent.gz'
p3623
sS'pdb1vsz'
p3624
S'/net/chevy/raid1/pdb_mirror/pdb/vs/pdb1vsz.ent.gz'
p3625
sS'pdb1ped'
p3626
S'/net/chevy/raid1/pdb_mirror/pdb/pe/pdb1ped.ent.gz'
p3627
sS'pdb2c2l'
p3628
S'/net/chevy/raid1/pdb_mirror/pdb/c2/pdb2c2l.ent.gz'
p3629
sS'pdb4fao'
p3630
S'/net/chevy/raid1/pdb_mirror/pdb/fa/pdb4fao.ent.gz'
p3631
sS'pdb1uzr'
p3632
S'/net/chevy/raid1/pdb_mirror/pdb/uz/pdb1uzr.ent.gz'
p3633
sS'pdb2c2b'
p3634
S'/net/chevy/raid1/pdb_mirror/pdb/c2/pdb2c2b.ent.gz'
p3635
sS'pdb3xim'
p3636
S'/net/chevy/raid1/pdb_mirror/pdb/xi/pdb3xim.ent.gz'
p3637
sS'pdb4hwk'
p3638
S'/net/chevy/raid1/pdb_mirror/pdb/hw/pdb4hwk.ent.gz'
p3639
sS'pdb1b26'
p3640
S'/net/chevy/raid1/pdb_mirror/pdb/b2/pdb1b26.ent.gz'
p3641
sS'pdb4aq3'
p3642
S'/net/chevy/raid1/pdb_mirror/pdb/aq/pdb4aq3.ent.gz'
p3643
sS'pdb2xup'
p3644
S'/net/chevy/raid1/pdb_mirror/pdb/xu/pdb2xup.ent.gz'
p3645
sS'pdb2vrf'
p3646
S'/net/chevy/raid1/pdb_mirror/pdb/vr/pdb2vrf.ent.gz'
p3647
sS'pdb2xut'
p3648
S'/net/chevy/raid1/pdb_mirror/pdb/xu/pdb2xut.ent.gz'
p3649
sS'pdb1gmw'
p3650
S'/net/chevy/raid1/pdb_mirror/pdb/gm/pdb1gmw.ent.gz'
p3651
sS'pdb2vra'
p3652
S'/net/chevy/raid1/pdb_mirror/pdb/vr/pdb2vra.ent.gz'
p3653
sS'pdb1gmu'
p3654
S'/net/chevy/raid1/pdb_mirror/pdb/gm/pdb1gmu.ent.gz'
p3655
sS'pdb2xuh'
p3656
S'/net/chevy/raid1/pdb_mirror/pdb/xu/pdb2xuh.ent.gz'
p3657
sS'pdb2xui'
p3658
S'/net/chevy/raid1/pdb_mirror/pdb/xu/pdb2xui.ent.gz'
p3659
sS'pdb2xuj'
p3660
S'/net/chevy/raid1/pdb_mirror/pdb/xu/pdb2xuj.ent.gz'
p3661
sS'pdb1rk2'
p3662
S'/net/chevy/raid1/pdb_mirror/pdb/rk/pdb1rk2.ent.gz'
p3663
sS'pdb3od8'
p3664
S'/net/chevy/raid1/pdb_mirror/pdb/od/pdb3od8.ent.gz'
p3665
sS'pdb6msf'
p3666
S'/net/chevy/raid1/pdb_mirror/pdb/ms/pdb6msf.ent.gz'
p3667
sS'pdb4aip'
p3668
S'/net/chevy/raid1/pdb_mirror/pdb/ai/pdb4aip.ent.gz'
p3669
sS'pdb2vrs'
p3670
S'/net/chevy/raid1/pdb_mirror/pdb/vr/pdb2vrs.ent.gz'
p3671
sS'pdb2vrq'
p3672
S'/net/chevy/raid1/pdb_mirror/pdb/vr/pdb2vrq.ent.gz'
p3673
sS'pdb1gme'
p3674
S'/net/chevy/raid1/pdb_mirror/pdb/gm/pdb1gme.ent.gz'
p3675
sS'pdb4e4l'
p3676
S'/net/chevy/raid1/pdb_mirror/pdb/e4/pdb4e4l.ent.gz'
p3677
sS'pdb2bht'
p3678
S'/net/chevy/raid1/pdb_mirror/pdb/bh/pdb2bht.ent.gz'
p3679
sS'pdb2bhw'
p3680
S'/net/chevy/raid1/pdb_mirror/pdb/bh/pdb2bhw.ent.gz'
p3681
sS'pdb2bhs'
p3682
S'/net/chevy/raid1/pdb_mirror/pdb/bh/pdb2bhs.ent.gz'
p3683
sS'pdb1dci'
p3684
S'/net/chevy/raid1/pdb_mirror/pdb/dc/pdb1dci.ent.gz'
p3685
sS'pdb1b21'
p3686
S'/net/chevy/raid1/pdb_mirror/pdb/b2/pdb1b21.ent.gz'
p3687
sS'pdb1dcn'
p3688
S'/net/chevy/raid1/pdb_mirror/pdb/dc/pdb1dcn.ent.gz'
p3689
sS'pdb1kmn'
p3690
S'/net/chevy/raid1/pdb_mirror/pdb/km/pdb1kmn.ent.gz'
p3691
sS'pdb1kmm'
p3692
S'/net/chevy/raid1/pdb_mirror/pdb/km/pdb1kmm.ent.gz'
p3693
sS'pdb2bhn'
p3694
S'/net/chevy/raid1/pdb_mirror/pdb/bh/pdb2bhn.ent.gz'
p3695
sS'pdb1kmb'
p3696
S'/net/chevy/raid1/pdb_mirror/pdb/km/pdb1kmb.ent.gz'
p3697
sS'pdb1laj'
p3698
S'/net/chevy/raid1/pdb_mirror/pdb/la/pdb1laj.ent.gz'
p3699
sS'pdb4aqq'
p3700
S'/net/chevy/raid1/pdb_mirror/pdb/aq/pdb4aqq.ent.gz'
p3701
sS'pdb4aqp'
p3702
S'/net/chevy/raid1/pdb_mirror/pdb/aq/pdb4aqp.ent.gz'
p3703
sS'pdb3ukh'
p3704
S'/net/chevy/raid1/pdb_mirror/pdb/uk/pdb3ukh.ent.gz'
p3705
sS'pdb3ode'
p3706
S'/net/chevy/raid1/pdb_mirror/pdb/od/pdb3ode.ent.gz'
p3707
sS'pdb3oda'
p3708
S'/net/chevy/raid1/pdb_mirror/pdb/od/pdb3oda.ent.gz'
p3709
sS'pdb2wdq'
p3710
S'/net/chevy/raid1/pdb_mirror/pdb/wd/pdb2wdq.ent.gz'
p3711
sS'pdb4aqf'
p3712
S'/net/chevy/raid1/pdb_mirror/pdb/aq/pdb4aqf.ent.gz'
p3713
sS'pdb3r0r'
p3714
S'/net/chevy/raid1/pdb_mirror/pdb/r0/pdb3r0r.ent.gz'
p3715
sS'pdb3lns'
p3716
S'/net/chevy/raid1/pdb_mirror/pdb/ln/pdb3lns.ent.gz'
p3717
sS'pdb2vr9'
p3718
S'/net/chevy/raid1/pdb_mirror/pdb/vr/pdb2vr9.ent.gz'
p3719
sS'pdb3tn9'
p3720
S'/net/chevy/raid1/pdb_mirror/pdb/tn/pdb3tn9.ent.gz'
p3721
sS'pdb3ukk'
p3722
S'/net/chevy/raid1/pdb_mirror/pdb/uk/pdb3ukk.ent.gz'
p3723
sS'pdb7r1r'
p3724
S'/net/chevy/raid1/pdb_mirror/pdb/r1/pdb7r1r.ent.gz'
p3725
sS'pdb2x2s'
p3726
S'/net/chevy/raid1/pdb_mirror/pdb/x2/pdb2x2s.ent.gz'
p3727
sS'pdb1ts3'
p3728
S'/net/chevy/raid1/pdb_mirror/pdb/ts/pdb1ts3.ent.gz'
p3729
sS'pdb2bh1'
p3730
S'/net/chevy/raid1/pdb_mirror/pdb/bh/pdb2bh1.ent.gz'
p3731
sS'pdb4gmp'
p3732
S'/net/chevy/raid1/pdb_mirror/pdb/gm/pdb4gmp.ent.gz'
p3733
sS'pdb2gfb'
p3734
S'/net/chevy/raid1/pdb_mirror/pdb/gf/pdb2gfb.ent.gz'
p3735
sS'pdb4eiw'
p3736
S'/net/chevy/raid1/pdb_mirror/pdb/ei/pdb4eiw.ent.gz'
p3737
sS'pdb3uv3'
p3738
S'/net/chevy/raid1/pdb_mirror/pdb/uv/pdb3uv3.ent.gz'
p3739
sS'pdb3uv7'
p3740
S'/net/chevy/raid1/pdb_mirror/pdb/uv/pdb3uv7.ent.gz'
p3741
sS'pdb3uv6'
p3742
S'/net/chevy/raid1/pdb_mirror/pdb/uv/pdb3uv6.ent.gz'
p3743
sS'pdb2wpw'
p3744
S'/net/chevy/raid1/pdb_mirror/pdb/wp/pdb2wpw.ent.gz'
p3745
sS'pdb1oat'
p3746
S'/net/chevy/raid1/pdb_mirror/pdb/oa/pdb1oat.ent.gz'
p3747
sS'pdb1oau'
p3748
S'/net/chevy/raid1/pdb_mirror/pdb/oa/pdb1oau.ent.gz'
p3749
sS'pdb1oar'
p3750
S'/net/chevy/raid1/pdb_mirror/pdb/oa/pdb1oar.ent.gz'
p3751
sS'pdb2wpe'
p3752
S'/net/chevy/raid1/pdb_mirror/pdb/wp/pdb2wpe.ent.gz'
p3753
sS'pdb2wpf'
p3754
S'/net/chevy/raid1/pdb_mirror/pdb/wp/pdb2wpf.ent.gz'
p3755
sS'pdb1oaz'
p3756
S'/net/chevy/raid1/pdb_mirror/pdb/oa/pdb1oaz.ent.gz'
p3757
sS'pdb4bdn'
p3758
S'/net/chevy/raid1/pdb_mirror/pdb/bd/pdb4bdn.ent.gz'
p3759
sS'pdb1oax'
p3760
S'/net/chevy/raid1/pdb_mirror/pdb/oa/pdb1oax.ent.gz'
p3761
sS'pdb1oay'
p3762
S'/net/chevy/raid1/pdb_mirror/pdb/oa/pdb1oay.ent.gz'
p3763
sS'pdb4a6g'
p3764
S'/net/chevy/raid1/pdb_mirror/pdb/a6/pdb4a6g.ent.gz'
p3765
sS'pdb2at2'
p3766
S'/net/chevy/raid1/pdb_mirror/pdb/at/pdb2at2.ent.gz'
p3767
sS'pdb4a6n'
p3768
S'/net/chevy/raid1/pdb_mirror/pdb/a6/pdb4a6n.ent.gz'
p3769
sS'pdb4a6l'
p3770
S'/net/chevy/raid1/pdb_mirror/pdb/a6/pdb4a6l.ent.gz'
p3771
sS'pdb4a6s'
p3772
S'/net/chevy/raid1/pdb_mirror/pdb/a6/pdb4a6s.ent.gz'
p3773
sS'pdb2xgf'
p3774
S'/net/chevy/raid1/pdb_mirror/pdb/xg/pdb2xgf.ent.gz'
p3775
sS'pdb4a6t'
p3776
S'/net/chevy/raid1/pdb_mirror/pdb/a6/pdb4a6t.ent.gz'
p3777
sS'pdb3zc0'
p3778
S'/net/chevy/raid1/pdb_mirror/pdb/zc/pdb3zc0.ent.gz'
p3779
sS'pdb2xgj'
p3780
S'/net/chevy/raid1/pdb_mirror/pdb/xg/pdb2xgj.ent.gz'
p3781
sS'pdb2ch5'
p3782
S'/net/chevy/raid1/pdb_mirror/pdb/ch/pdb2ch5.ent.gz'
p3783
sS'pdb2ch6'
p3784
S'/net/chevy/raid1/pdb_mirror/pdb/ch/pdb2ch6.ent.gz'
p3785
sS'pdb2xd0'
p3786
S'/net/chevy/raid1/pdb_mirror/pdb/xd/pdb2xd0.ent.gz'
p3787
sS'pdb2wp2'
p3788
S'/net/chevy/raid1/pdb_mirror/pdb/wp/pdb2wp2.ent.gz'
p3789
sS'pdb1bmo'
p3790
S'/net/chevy/raid1/pdb_mirror/pdb/bm/pdb1bmo.ent.gz'
p3791
sS'pdb1bml'
p3792
S'/net/chevy/raid1/pdb_mirror/pdb/bm/pdb1bml.ent.gz'
p3793
sS'pdb2wp9'
p3794
S'/net/chevy/raid1/pdb_mirror/pdb/wp/pdb2wp9.ent.gz'
p3795
sS'pdb4bd8'
p3796
S'/net/chevy/raid1/pdb_mirror/pdb/bd/pdb4bd8.ent.gz'
p3797
sS'pdb4i4l'
p3798
S'/net/chevy/raid1/pdb_mirror/pdb/i4/pdb4i4l.ent.gz'
p3799
sS'pdb1oa8'
p3800
S'/net/chevy/raid1/pdb_mirror/pdb/oa/pdb1oa8.ent.gz'
p3801
sS'pdb1osm'
p3802
S'/net/chevy/raid1/pdb_mirror/pdb/os/pdb1osm.ent.gz'
p3803
sS'pdb4acf'
p3804
S'/net/chevy/raid1/pdb_mirror/pdb/ac/pdb4acf.ent.gz'
p3805
sS'pdb2xg8'
p3806
S'/net/chevy/raid1/pdb_mirror/pdb/xg/pdb2xg8.ent.gz'
p3807
sS'pdb2chb'
p3808
S'/net/chevy/raid1/pdb_mirror/pdb/ch/pdb2chb.ent.gz'
p3809
sS'pdb4kmb'
p3810
S'/net/chevy/raid1/pdb_mirror/pdb/km/pdb4kmb.ent.gz'
p3811
sS'pdb4acq'
p3812
S'/net/chevy/raid1/pdb_mirror/pdb/ac/pdb4acq.ent.gz'
p3813
sS'pdb4a63'
p3814
S'/net/chevy/raid1/pdb_mirror/pdb/a6/pdb4a63.ent.gz'
p3815
sS'pdb4acs'
p3816
S'/net/chevy/raid1/pdb_mirror/pdb/ac/pdb4acs.ent.gz'
p3817
sS'pdb4acr'
p3818
S'/net/chevy/raid1/pdb_mirror/pdb/ac/pdb4acr.ent.gz'
p3819
sS'pdb3qhr'
p3820
S'/net/chevy/raid1/pdb_mirror/pdb/qh/pdb3qhr.ent.gz'
p3821
sS'pdb2chp'
p3822
S'/net/chevy/raid1/pdb_mirror/pdb/ch/pdb2chp.ent.gz'
p3823
sS'pdb1o8q'
p3824
S'/net/chevy/raid1/pdb_mirror/pdb/o8/pdb1o8q.ent.gz'
p3825
sS'pdb2iz8'
p3826
S'/net/chevy/raid1/pdb_mirror/pdb/iz/pdb2iz8.ent.gz'
p3827
sS'pdb2iz9'
p3828
S'/net/chevy/raid1/pdb_mirror/pdb/iz/pdb2iz9.ent.gz'
p3829
sS'pdb1e2t'
p3830
S'/net/chevy/raid1/pdb_mirror/pdb/e2/pdb1e2t.ent.gz'
p3831
sS'pdb2iz0'
p3832
S'/net/chevy/raid1/pdb_mirror/pdb/iz/pdb2iz0.ent.gz'
p3833
sS'pdb1o8c'
p3834
S'/net/chevy/raid1/pdb_mirror/pdb/o8/pdb1o8c.ent.gz'
p3835
sS'pdb1gq6'
p3836
S'/net/chevy/raid1/pdb_mirror/pdb/gq/pdb1gq6.ent.gz'
p3837
sS'pdb1h3f'
p3838
S'/net/chevy/raid1/pdb_mirror/pdb/h3/pdb1h3f.ent.gz'
p3839
sS'pdb1h3c'
p3840
S'/net/chevy/raid1/pdb_mirror/pdb/h3/pdb1h3c.ent.gz'
p3841
sS'pdb1gq3'
p3842
S'/net/chevy/raid1/pdb_mirror/pdb/gq/pdb1gq3.ent.gz'
p3843
sS'pdb1o8o'
p3844
S'/net/chevy/raid1/pdb_mirror/pdb/o8/pdb1o8o.ent.gz'
p3845
sS'pdb1o8n'
p3846
S'/net/chevy/raid1/pdb_mirror/pdb/o8/pdb1o8n.ent.gz'
p3847
sS'pdb1auy'
p3848
S'/net/chevy/raid1/pdb_mirror/pdb/au/pdb1auy.ent.gz'
p3849
sS'pdb4lfy'
p3850
S'/net/chevy/raid1/pdb_mirror/pdb/lf/pdb4lfy.ent.gz'
p3851
sS'pdb4bvh'
p3852
S'/net/chevy/raid1/pdb_mirror/pdb/bv/pdb4bvh.ent.gz'
p3853
sS'pdb2wbl'
p3854
S'/net/chevy/raid1/pdb_mirror/pdb/wb/pdb2wbl.ent.gz'
p3855
sS'pdb1aus'
p3856
S'/net/chevy/raid1/pdb_mirror/pdb/au/pdb1aus.ent.gz'
p3857
sS'pdb1auw'
p3858
S'/net/chevy/raid1/pdb_mirror/pdb/au/pdb1auw.ent.gz'
p3859
sS'pdb2b2g'
p3860
S'/net/chevy/raid1/pdb_mirror/pdb/b2/pdb2b2g.ent.gz'
p3861
sS'pdb2b2e'
p3862
S'/net/chevy/raid1/pdb_mirror/pdb/b2/pdb2b2e.ent.gz'
p3863
sS'pdb2b2d'
p3864
S'/net/chevy/raid1/pdb_mirror/pdb/b2/pdb2b2d.ent.gz'
p3865
sS'pdb4lfg'
p3866
S'/net/chevy/raid1/pdb_mirror/pdb/lf/pdb4lfg.ent.gz'
p3867
sS'pdb1ciw'
p3868
S'/net/chevy/raid1/pdb_mirror/pdb/ci/pdb1ciw.ent.gz'
p3869
sS'pdb4lfe'
p3870
S'/net/chevy/raid1/pdb_mirror/pdb/lf/pdb4lfe.ent.gz'
p3871
sS'pdb1aug'
p3872
S'/net/chevy/raid1/pdb_mirror/pdb/au/pdb1aug.ent.gz'
p3873
sS'pdb1gqo'
p3874
S'/net/chevy/raid1/pdb_mirror/pdb/gq/pdb1gqo.ent.gz'
p3875
sS'pdb1o83'
p3876
S'/net/chevy/raid1/pdb_mirror/pdb/o8/pdb1o83.ent.gz'
p3877
sS'pdb3nc0'
p3878
S'/net/chevy/raid1/pdb_mirror/pdb/nc/pdb3nc0.ent.gz'
p3879
sS'pdb2izz'
p3880
S'/net/chevy/raid1/pdb_mirror/pdb/iz/pdb2izz.ent.gz'
p3881
sS'pdb2y1v'
p3882
S'/net/chevy/raid1/pdb_mirror/pdb/y1/pdb2y1v.ent.gz'
p3883
sS'pdb1h37'
p3884
S'/net/chevy/raid1/pdb_mirror/pdb/h3/pdb1h37.ent.gz'
p3885
sS'pdb1h36'
p3886
S'/net/chevy/raid1/pdb_mirror/pdb/h3/pdb1h36.ent.gz'
p3887
sS'pdb1h35'
p3888
S'/net/chevy/raid1/pdb_mirror/pdb/h3/pdb1h35.ent.gz'
p3889
sS'pdb2izw'
p3890
S'/net/chevy/raid1/pdb_mirror/pdb/iz/pdb2izw.ent.gz'
p3891
sS'pdb1h31'
p3892
S'/net/chevy/raid1/pdb_mirror/pdb/h3/pdb1h31.ent.gz'
p3893
sS'pdb4fp4'
p3894
S'/net/chevy/raid1/pdb_mirror/pdb/fp/pdb4fp4.ent.gz'
p3895
sS'pdb2izn'
p3896
S'/net/chevy/raid1/pdb_mirror/pdb/iz/pdb2izn.ent.gz'
p3897
sS'pdb1cvn'
p3898
S'/net/chevy/raid1/pdb_mirror/pdb/cv/pdb1cvn.ent.gz'
p3899
sS'pdb3cji'
p3900
S'/net/chevy/raid1/pdb_mirror/pdb/cj/pdb3cji.ent.gz'
p3901
sS'pdb1tf6'
p3902
S'/net/chevy/raid1/pdb_mirror/pdb/tf/pdb1tf6.ent.gz'
p3903
sS'pdb1ci4'
p3904
S'/net/chevy/raid1/pdb_mirror/pdb/ci/pdb1ci4.ent.gz'
p3905
sS'pdb4bv2'
p3906
S'/net/chevy/raid1/pdb_mirror/pdb/bv/pdb4bv2.ent.gz'
p3907
sS'pdb4jxk'
p3908
S'/net/chevy/raid1/pdb_mirror/pdb/jx/pdb4jxk.ent.gz'
p3909
sS'pdb1rh2'
p3910
S'/net/chevy/raid1/pdb_mirror/pdb/rh/pdb1rh2.ent.gz'
p3911
sS'pdb1ag8'
p3912
S'/net/chevy/raid1/pdb_mirror/pdb/ag/pdb1ag8.ent.gz'
p3913
sS'pdb2wl4'
p3914
S'/net/chevy/raid1/pdb_mirror/pdb/wl/pdb2wl4.ent.gz'
p3915
sS'pdb2wl5'
p3916
S'/net/chevy/raid1/pdb_mirror/pdb/wl/pdb2wl5.ent.gz'
p3917
sS'pdb2wl6'
p3918
S'/net/chevy/raid1/pdb_mirror/pdb/wl/pdb2wl6.ent.gz'
p3919
sS'pdb1b35'
p3920
S'/net/chevy/raid1/pdb_mirror/pdb/b3/pdb1b35.ent.gz'
p3921
sS'pdb1b37'
p3922
S'/net/chevy/raid1/pdb_mirror/pdb/b3/pdb1b37.ent.gz'
p3923
sS'pdb2c5c'
p3924
S'/net/chevy/raid1/pdb_mirror/pdb/c5/pdb2c5c.ent.gz'
p3925
sS'pdb2xgk'
p3926
S'/net/chevy/raid1/pdb_mirror/pdb/xg/pdb2xgk.ent.gz'
p3927
sS'pdb2c5d'
p3928
S'/net/chevy/raid1/pdb_mirror/pdb/c5/pdb2c5d.ent.gz'
p3929
sS'pdb2fmt'
p3930
S'/net/chevy/raid1/pdb_mirror/pdb/fm/pdb2fmt.ent.gz'
p3931
sS'pdb2c5r'
p3932
S'/net/chevy/raid1/pdb_mirror/pdb/c5/pdb2c5r.ent.gz'
p3933
sS'pdb2c5q'
p3934
S'/net/chevy/raid1/pdb_mirror/pdb/c5/pdb2c5q.ent.gz'
p3935
sS'pdb1bto'
p3936
S'/net/chevy/raid1/pdb_mirror/pdb/bt/pdb1bto.ent.gz'
p3937
sS'pdb3hmg'
p3938
S'/net/chevy/raid1/pdb_mirror/pdb/hm/pdb3hmg.ent.gz'
p3939
sS'pdb4djz'
p3940
S'/net/chevy/raid1/pdb_mirror/pdb/dj/pdb4djz.ent.gz'
p3941
sS'pdb2pbw'
p3942
S'/net/chevy/raid1/pdb_mirror/pdb/pb/pdb2pbw.ent.gz'
p3943
sS'pdb2j04'
p3944
S'/net/chevy/raid1/pdb_mirror/pdb/j0/pdb2j04.ent.gz'
p3945
sS'pdb1b3k'
p3946
S'/net/chevy/raid1/pdb_mirror/pdb/b3/pdb1b3k.ent.gz'
p3947
sS'pdb4gtu'
p3948
S'/net/chevy/raid1/pdb_mirror/pdb/gt/pdb4gtu.ent.gz'
p3949
sS'pdb1rhq'
p3950
S'/net/chevy/raid1/pdb_mirror/pdb/rh/pdb1rhq.ent.gz'
p3951
sS'pdb2wlb'
p3952
S'/net/chevy/raid1/pdb_mirror/pdb/wl/pdb2wlb.ent.gz'
p3953
sS'pdb1hfz'
p3954
S'/net/chevy/raid1/pdb_mirror/pdb/hf/pdb1hfz.ent.gz'
p3955
sS'pdb1rhg'
p3956
S'/net/chevy/raid1/pdb_mirror/pdb/rh/pdb1rhg.ent.gz'
p3957
sS'pdb1cgq'
p3958
S'/net/chevy/raid1/pdb_mirror/pdb/cg/pdb1cgq.ent.gz'
p3959
sS'pdb4jx6'
p3960
S'/net/chevy/raid1/pdb_mirror/pdb/jx/pdb4jx6.ent.gz'
p3961
sS'pdb4jx5'
p3962
S'/net/chevy/raid1/pdb_mirror/pdb/jx/pdb4jx5.ent.gz'
p3963
sS'pdb4jx4'
p3964
S'/net/chevy/raid1/pdb_mirror/pdb/jx/pdb4jx4.ent.gz'
p3965
sS'pdb1agn'
p3966
S'/net/chevy/raid1/pdb_mirror/pdb/ag/pdb1agn.ent.gz'
p3967
sS'pdb4at6'
p3968
S'/net/chevy/raid1/pdb_mirror/pdb/at/pdb4at6.ent.gz'
p3969
sS'pdb3v65'
p3970
S'/net/chevy/raid1/pdb_mirror/pdb/v6/pdb3v65.ent.gz'
p3971
sS'pdb1p1g'
p3972
S'/net/chevy/raid1/pdb_mirror/pdb/p1/pdb1p1g.ent.gz'
p3973
sS'pdb2qzv'
p3974
S'/net/chevy/raid1/pdb_mirror/pdb/qz/pdb2qzv.ent.gz'
p3975
sS'pdb1a6v'
p3976
S'/net/chevy/raid1/pdb_mirror/pdb/a6/pdb1a6v.ent.gz'
p3977
sS'pdb2c51'
p3978
S'/net/chevy/raid1/pdb_mirror/pdb/c5/pdb2c51.ent.gz'
p3979
sS'pdb2c50'
p3980
S'/net/chevy/raid1/pdb_mirror/pdb/c5/pdb2c50.ent.gz'
p3981
sS'pdb2c57'
p3982
S'/net/chevy/raid1/pdb_mirror/pdb/c5/pdb2c57.ent.gz'
p3983
sS'pdb4apt'
p3984
S'/net/chevy/raid1/pdb_mirror/pdb/ap/pdb4apt.ent.gz'
p3985
sS'pdb3zlk'
p3986
S'/net/chevy/raid1/pdb_mirror/pdb/zl/pdb3zlk.ent.gz'
p3987
sS'pdb1pvc'
p3988
S'/net/chevy/raid1/pdb_mirror/pdb/pv/pdb1pvc.ent.gz'
p3989
sS'pdb3zll'
p3990
S'/net/chevy/raid1/pdb_mirror/pdb/zl/pdb3zll.ent.gz'
p3991
sS'pdb4apz'
p3992
S'/net/chevy/raid1/pdb_mirror/pdb/ap/pdb4apz.ent.gz'
p3993
sS'pdb4glv'
p3994
S'/net/chevy/raid1/pdb_mirror/pdb/gl/pdb4glv.ent.gz'
p3995
sS'pdb4ivb'
p3996
S'/net/chevy/raid1/pdb_mirror/pdb/iv/pdb4ivb.ent.gz'
p3997
sS'pdb2yh2'
p3998
S'/net/chevy/raid1/pdb_mirror/pdb/yh/pdb2yh2.ent.gz'
p3999
sS'pdb4apa'
p4000
S'/net/chevy/raid1/pdb_mirror/pdb/ap/pdb4apa.ent.gz'
p4001
sS'pdb4apb'
p4002
S'/net/chevy/raid1/pdb_mirror/pdb/ap/pdb4apb.ent.gz'
p4003
sS'pdb1fro'
p4004
S'/net/chevy/raid1/pdb_mirror/pdb/fr/pdb1fro.ent.gz'
p4005
sS'pdb2y22'
p4006
S'/net/chevy/raid1/pdb_mirror/pdb/y2/pdb2y22.ent.gz'
p4007
sS'pdb4ivd'
p4008
S'/net/chevy/raid1/pdb_mirror/pdb/iv/pdb4ivd.ent.gz'
p4009
sS'pdb1a6z'
p4010
S'/net/chevy/raid1/pdb_mirror/pdb/a6/pdb1a6z.ent.gz'
p4011
sS'pdb4ap6'
p4012
S'/net/chevy/raid1/pdb_mirror/pdb/ap/pdb4ap6.ent.gz'
p4013
sS'pdb2yhe'
p4014
S'/net/chevy/raid1/pdb_mirror/pdb/yh/pdb2yhe.ent.gz'
p4015
sS'pdb4ap0'
p4016
S'/net/chevy/raid1/pdb_mirror/pdb/ap/pdb4ap0.ent.gz'
p4017
sS'pdb1lrp'
p4018
S'/net/chevy/raid1/pdb_mirror/pdb/lr/pdb1lrp.ent.gz'
p4019
sS'pdb2wm2'
p4020
S'/net/chevy/raid1/pdb_mirror/pdb/wm/pdb2wm2.ent.gz'
p4021
sS'pdb1x36'
p4022
S'/net/chevy/raid1/pdb_mirror/pdb/x3/pdb1x36.ent.gz'
p4023
sS'pdb1x35'
p4024
S'/net/chevy/raid1/pdb_mirror/pdb/x3/pdb1x35.ent.gz'
p4025
sS'pdb1x33'
p4026
S'/net/chevy/raid1/pdb_mirror/pdb/x3/pdb1x33.ent.gz'
p4027
sS'pdb2v8w'
p4028
S'/net/chevy/raid1/pdb_mirror/pdb/v8/pdb2v8w.ent.gz'
p4029
sS'pdb1htm'
p4030
S'/net/chevy/raid1/pdb_mirror/pdb/ht/pdb1htm.ent.gz'
p4031
sS'pdb2v8y'
p4032
S'/net/chevy/raid1/pdb_mirror/pdb/v8/pdb2v8y.ent.gz'
p4033
sS'pdb2v8x'
p4034
S'/net/chevy/raid1/pdb_mirror/pdb/v8/pdb2v8x.ent.gz'
p4035
sS'pdb2v8z'
p4036
S'/net/chevy/raid1/pdb_mirror/pdb/v8/pdb2v8z.ent.gz'
p4037
sS'pdb2v8d'
p4038
S'/net/chevy/raid1/pdb_mirror/pdb/v8/pdb2v8d.ent.gz'
p4039
sS'pdb2v8g'
p4040
S'/net/chevy/raid1/pdb_mirror/pdb/v8/pdb2v8g.ent.gz'
p4041
sS'pdb2v8h'
p4042
S'/net/chevy/raid1/pdb_mirror/pdb/v8/pdb2v8h.ent.gz'
p4043
sS'pdb1htt'
p4044
S'/net/chevy/raid1/pdb_mirror/pdb/ht/pdb1htt.ent.gz'
p4045
sS'pdb1gn2'
p4046
S'/net/chevy/raid1/pdb_mirror/pdb/gn/pdb1gn2.ent.gz'
p4047
sS'pdb2v9s'
p4048
S'/net/chevy/raid1/pdb_mirror/pdb/v9/pdb2v9s.ent.gz'
p4049
sS'pdb4a5x'
p4050
S'/net/chevy/raid1/pdb_mirror/pdb/a5/pdb4a5x.ent.gz'
p4051
sS'pdb4b0j'
p4052
S'/net/chevy/raid1/pdb_mirror/pdb/b0/pdb4b0j.ent.gz'
p4053
sS'pdb4b0i'
p4054
S'/net/chevy/raid1/pdb_mirror/pdb/b0/pdb4b0i.ent.gz'
p4055
sS'pdb4b0c'
p4056
S'/net/chevy/raid1/pdb_mirror/pdb/b0/pdb4b0c.ent.gz'
p4057
sS'pdb3uwm'
p4058
S'/net/chevy/raid1/pdb_mirror/pdb/uw/pdb3uwm.ent.gz'
p4059
sS'pdb2ckj'
p4060
S'/net/chevy/raid1/pdb_mirror/pdb/ck/pdb2ckj.ent.gz'
p4061
sS'pdb2xva'
p4062
S'/net/chevy/raid1/pdb_mirror/pdb/xv/pdb2xva.ent.gz'
p4063
sS'pdb1opo'
p4064
S'/net/chevy/raid1/pdb_mirror/pdb/op/pdb1opo.ent.gz'
p4065
sS'pdb3zbn'
p4066
S'/net/chevy/raid1/pdb_mirror/pdb/zb/pdb3zbn.ent.gz'
p4067
sS'pdb1bz5'
p4068
S'/net/chevy/raid1/pdb_mirror/pdb/bz/pdb1bz5.ent.gz'
p4069
sS'pdb1ut2'
p4070
S'/net/chevy/raid1/pdb_mirror/pdb/ut/pdb1ut2.ent.gz'
p4071
sS'pdb1bz0'
p4072
S'/net/chevy/raid1/pdb_mirror/pdb/bz/pdb1bz0.ent.gz'
p4073
sS'pdb1opf'
p4074
S'/net/chevy/raid1/pdb_mirror/pdb/op/pdb1opf.ent.gz'
p4075
sS'pdb3gqx'
p4076
S'/net/chevy/raid1/pdb_mirror/pdb/gq/pdb3gqx.ent.gz'
p4077
sS'pdb2xvt'
p4078
S'/net/chevy/raid1/pdb_mirror/pdb/xv/pdb2xvt.ent.gz'
p4079
sS'pdb4aby'
p4080
S'/net/chevy/raid1/pdb_mirror/pdb/ab/pdb4aby.ent.gz'
p4081
sS'pdb2vsk'
p4082
S'/net/chevy/raid1/pdb_mirror/pdb/vs/pdb2vsk.ent.gz'
p4083
sS'pdb1mqt'
p4084
S'/net/chevy/raid1/pdb_mirror/pdb/mq/pdb1mqt.ent.gz'
p4085
sS'pdb4b03'
p4086
S'/net/chevy/raid1/pdb_mirror/pdb/b0/pdb4b03.ent.gz'
p4087
sS'pdb1w8d'
p4088
S'/net/chevy/raid1/pdb_mirror/pdb/w8/pdb1w8d.ent.gz'
p4089
sS'pdb1bl8'
p4090
S'/net/chevy/raid1/pdb_mirror/pdb/bl/pdb1bl8.ent.gz'
p4091
sS'pdb1w8x'
p4092
S'/net/chevy/raid1/pdb_mirror/pdb/w8/pdb1w8x.ent.gz'
p4093
sS'pdb2c41'
p4094
S'/net/chevy/raid1/pdb_mirror/pdb/c4/pdb2c41.ent.gz'
p4095
sS'pdb1jlx'
p4096
S'/net/chevy/raid1/pdb_mirror/pdb/jl/pdb1jlx.ent.gz'
p4097
sS'pdb2bis'
p4098
S'/net/chevy/raid1/pdb_mirror/pdb/bi/pdb2bis.ent.gz'
p4099
sS'pdb1bzz'
p4100
S'/net/chevy/raid1/pdb_mirror/pdb/bz/pdb1bzz.ent.gz'
p4101
sS'pdb2biw'
p4102
S'/net/chevy/raid1/pdb_mirror/pdb/bi/pdb2biw.ent.gz'
p4103
sS'pdb2dub'
p4104
S'/net/chevy/raid1/pdb_mirror/pdb/du/pdb2dub.ent.gz'
p4105
sS'pdb1bzy'
p4106
S'/net/chevy/raid1/pdb_mirror/pdb/bz/pdb1bzy.ent.gz'
p4107
sS'pdb1bzw'
p4108
S'/net/chevy/raid1/pdb_mirror/pdb/bz/pdb1bzw.ent.gz'
p4109
sS'pdb6r1r'
p4110
S'/net/chevy/raid1/pdb_mirror/pdb/r1/pdb6r1r.ent.gz'
p4111
sS'pdb1bzq'
p4112
S'/net/chevy/raid1/pdb_mirror/pdb/bz/pdb1bzq.ent.gz'
p4113
sS'pdb1z14'
p4114
S'/net/chevy/raid1/pdb_mirror/pdb/z1/pdb1z14.ent.gz'
p4115
sS'pdb1pyg'
p4116
S'/net/chevy/raid1/pdb_mirror/pdb/py/pdb1pyg.ent.gz'
p4117
sS'pdb1dbv'
p4118
S'/net/chevy/raid1/pdb_mirror/pdb/db/pdb1dbv.ent.gz'
p4119
sS'pdb4ab7'
p4120
S'/net/chevy/raid1/pdb_mirror/pdb/ab/pdb4ab7.ent.gz'
p4121
sS'pdb2c47'
p4122
S'/net/chevy/raid1/pdb_mirror/pdb/c4/pdb2c47.ent.gz'
p4123
sS'pdb2ws9'
p4124
S'/net/chevy/raid1/pdb_mirror/pdb/ws/pdb2ws9.ent.gz'
p4125
sS'pdb1gvn'
p4126
S'/net/chevy/raid1/pdb_mirror/pdb/gv/pdb1gvn.ent.gz'
p4127
sS'pdb1gvm'
p4128
S'/net/chevy/raid1/pdb_mirror/pdb/gv/pdb1gvm.ent.gz'
p4129
sS'pdb3n7x'
p4130
S'/net/chevy/raid1/pdb_mirror/pdb/n7/pdb3n7x.ent.gz'
p4131
sS'pdb2iyp'
p4132
S'/net/chevy/raid1/pdb_mirror/pdb/iy/pdb2iyp.ent.gz'
p4133
sS'pdb1r2j'
p4134
S'/net/chevy/raid1/pdb_mirror/pdb/r2/pdb1r2j.ent.gz'
p4135
sS'pdb2ws3'
p4136
S'/net/chevy/raid1/pdb_mirror/pdb/ws/pdb2ws3.ent.gz'
p4137
sS'pdb1cx2'
p4138
S'/net/chevy/raid1/pdb_mirror/pdb/cx/pdb1cx2.ent.gz'
p4139
sS'pdb2y0n'
p4140
S'/net/chevy/raid1/pdb_mirror/pdb/y0/pdb2y0n.ent.gz'
p4141
sS'pdb2y0f'
p4142
S'/net/chevy/raid1/pdb_mirror/pdb/y0/pdb2y0f.ent.gz'
p4143
sS'pdb2y0d'
p4144
S'/net/chevy/raid1/pdb_mirror/pdb/y0/pdb2y0d.ent.gz'
p4145
sS'pdb2iyb'
p4146
S'/net/chevy/raid1/pdb_mirror/pdb/iy/pdb2iyb.ent.gz'
p4147
sS'pdb2y0b'
p4148
S'/net/chevy/raid1/pdb_mirror/pdb/y0/pdb2y0b.ent.gz'
p4149
sS'pdb2y0c'
p4150
S'/net/chevy/raid1/pdb_mirror/pdb/y0/pdb2y0c.ent.gz'
p4151
sS'pdb3ueo'
p4152
S'/net/chevy/raid1/pdb_mirror/pdb/ue/pdb3ueo.ent.gz'
p4153
sS'pdb3uel'
p4154
S'/net/chevy/raid1/pdb_mirror/pdb/ue/pdb3uel.ent.gz'
p4155
sS'pdb2qe7'
p4156
S'/net/chevy/raid1/pdb_mirror/pdb/qe/pdb2qe7.ent.gz'
p4157
sS'pdb3dbv'
p4158
S'/net/chevy/raid1/pdb_mirror/pdb/db/pdb3dbv.ent.gz'
p4159
sS'pdb4a99'
p4160
S'/net/chevy/raid1/pdb_mirror/pdb/a9/pdb4a99.ent.gz'
p4161
sS'pdb2va1'
p4162
S'/net/chevy/raid1/pdb_mirror/pdb/va/pdb2va1.ent.gz'
p4163
sS'pdb4dwh'
p4164
S'/net/chevy/raid1/pdb_mirror/pdb/dw/pdb4dwh.ent.gz'
p4165
sS'pdb4dwj'
p4166
S'/net/chevy/raid1/pdb_mirror/pdb/dw/pdb4dwj.ent.gz'
p4167
sS'pdb3pca'
p4168
S'/net/chevy/raid1/pdb_mirror/pdb/pc/pdb3pca.ent.gz'
p4169
sS'pdb3pcc'
p4170
S'/net/chevy/raid1/pdb_mirror/pdb/pc/pdb3pcc.ent.gz'
p4171
sS'pdb3pcb'
p4172
S'/net/chevy/raid1/pdb_mirror/pdb/pc/pdb3pcb.ent.gz'
p4173
sS'pdb1ofg'
p4174
S'/net/chevy/raid1/pdb_mirror/pdb/of/pdb1ofg.ent.gz'
p4175
sS'pdb3pcd'
p4176
S'/net/chevy/raid1/pdb_mirror/pdb/pc/pdb3pcd.ent.gz'
p4177
sS'pdb3pcg'
p4178
S'/net/chevy/raid1/pdb_mirror/pdb/pc/pdb3pcg.ent.gz'
p4179
sS'pdb3pcf'
p4180
S'/net/chevy/raid1/pdb_mirror/pdb/pc/pdb3pcf.ent.gz'
p4181
sS'pdb3pci'
p4182
S'/net/chevy/raid1/pdb_mirror/pdb/pc/pdb3pci.ent.gz'
p4183
sS'pdb3pch'
p4184
S'/net/chevy/raid1/pdb_mirror/pdb/pc/pdb3pch.ent.gz'
p4185
sS'pdb3pck'
p4186
S'/net/chevy/raid1/pdb_mirror/pdb/pc/pdb3pck.ent.gz'
p4187
sS'pdb3pcj'
p4188
S'/net/chevy/raid1/pdb_mirror/pdb/pc/pdb3pcj.ent.gz'
p4189
sS'pdb3pcm'
p4190
S'/net/chevy/raid1/pdb_mirror/pdb/pc/pdb3pcm.ent.gz'
p4191
sS'pdb3pcl'
p4192
S'/net/chevy/raid1/pdb_mirror/pdb/pc/pdb3pcl.ent.gz'
p4193
sS'pdb3pcn'
p4194
S'/net/chevy/raid1/pdb_mirror/pdb/pc/pdb3pcn.ent.gz'
p4195
sS'pdb1ofs'
p4196
S'/net/chevy/raid1/pdb_mirror/pdb/of/pdb1ofs.ent.gz'
p4197
sS'pdb4kbp'
p4198
S'/net/chevy/raid1/pdb_mirror/pdb/kb/pdb4kbp.ent.gz'
p4199
sS'pdb4lrh'
p4200
S'/net/chevy/raid1/pdb_mirror/pdb/lr/pdb4lrh.ent.gz'
p4201
sS'pdb1sva'
p4202
S'/net/chevy/raid1/pdb_mirror/pdb/sv/pdb1sva.ent.gz'
p4203
sS'pdb2vav'
p4204
S'/net/chevy/raid1/pdb_mirror/pdb/va/pdb2vav.ent.gz'
p4205
sS'pdb2vat'
p4206
S'/net/chevy/raid1/pdb_mirror/pdb/va/pdb2vat.ent.gz'
p4207
sS'pdb2var'
p4208
S'/net/chevy/raid1/pdb_mirror/pdb/va/pdb2var.ent.gz'
p4209
sS'pdb4a9w'
p4210
S'/net/chevy/raid1/pdb_mirror/pdb/a9/pdb4a9w.ent.gz'
p4211
sS'pdb2klr'
p4212
S'/net/chevy/raid1/pdb_mirror/pdb/kl/pdb2klr.ent.gz'
p4213
sS'pdb2vax'
p4214
S'/net/chevy/raid1/pdb_mirror/pdb/va/pdb2vax.ent.gz'
p4215
sS'pdb2woc'
p4216
S'/net/chevy/raid1/pdb_mirror/pdb/wo/pdb2woc.ent.gz'
p4217
sS'pdb1b2u'
p4218
S'/net/chevy/raid1/pdb_mirror/pdb/b2/pdb1b2u.ent.gz'
p4219
sS'pdb1cde'
p4220
S'/net/chevy/raid1/pdb_mirror/pdb/cd/pdb1cde.ent.gz'
p4221
sS'pdb1b2s'
p4222
S'/net/chevy/raid1/pdb_mirror/pdb/b2/pdb1b2s.ent.gz'
p4223
sS'pdb1h24'
p4224
S'/net/chevy/raid1/pdb_mirror/pdb/h2/pdb1h24.ent.gz'
p4225
sS'pdb1h25'
p4226
S'/net/chevy/raid1/pdb_mirror/pdb/h2/pdb1h25.ent.gz'
p4227
sS'pdb1h26'
p4228
S'/net/chevy/raid1/pdb_mirror/pdb/h2/pdb1h26.ent.gz'
p4229
sS'pdb1h27'
p4230
S'/net/chevy/raid1/pdb_mirror/pdb/h2/pdb1h27.ent.gz'
p4231
sS'pdb1ahs'
p4232
S'/net/chevy/raid1/pdb_mirror/pdb/ah/pdb1ahs.ent.gz'
p4233
sS'pdb1h21'
p4234
S'/net/chevy/raid1/pdb_mirror/pdb/h2/pdb1h21.ent.gz'
p4235
sS'pdb1b2x'
p4236
S'/net/chevy/raid1/pdb_mirror/pdb/b2/pdb1b2x.ent.gz'
p4237
sS'pdb1o91'
p4238
S'/net/chevy/raid1/pdb_mirror/pdb/o9/pdb1o91.ent.gz'
p4239
sS'pdb1av1'
p4240
S'/net/chevy/raid1/pdb_mirror/pdb/av/pdb1av1.ent.gz'
p4241
sS'pdb1ahj'
p4242
S'/net/chevy/raid1/pdb_mirror/pdb/ah/pdb1ahj.ent.gz'
p4243
sS'pdb1av2'
p4244
S'/net/chevy/raid1/pdb_mirror/pdb/av/pdb1av2.ent.gz'
p4245
sS'pdb1j4a'
p4246
S'/net/chevy/raid1/pdb_mirror/pdb/j4/pdb1j4a.ent.gz'
p4247
sS'pdb1b2m'
p4248
S'/net/chevy/raid1/pdb_mirror/pdb/b2/pdb1b2m.ent.gz'
p4249
sS'pdb1j4e'
p4250
S'/net/chevy/raid1/pdb_mirror/pdb/j4/pdb1j4e.ent.gz'
p4251
sS'pdb2wj7'
p4252
S'/net/chevy/raid1/pdb_mirror/pdb/wj/pdb2wj7.ent.gz'
p4253
sS'pdb4j24'
p4254
S'/net/chevy/raid1/pdb_mirror/pdb/j2/pdb4j24.ent.gz'
p4255
sS'pdb4j26'
p4256
S'/net/chevy/raid1/pdb_mirror/pdb/j2/pdb4j26.ent.gz'
p4257
sS'pdb2a2g'
p4258
S'/net/chevy/raid1/pdb_mirror/pdb/a2/pdb2a2g.ent.gz'
p4259
sS'pdb3tw7'
p4260
S'/net/chevy/raid1/pdb_mirror/pdb/tw/pdb3tw7.ent.gz'
p4261
sS'pdb2a2u'
p4262
S'/net/chevy/raid1/pdb_mirror/pdb/a2/pdb2a2u.ent.gz'
p4263
sS'pdb4bd4'
p4264
S'/net/chevy/raid1/pdb_mirror/pdb/bd/pdb4bd4.ent.gz'
p4265
sS'pdb2v5p'
p4266
S'/net/chevy/raid1/pdb_mirror/pdb/v5/pdb2v5p.ent.gz'
p4267
sS'pdb4bw5'
p4268
S'/net/chevy/raid1/pdb_mirror/pdb/bw/pdb4bw5.ent.gz'
p4269
sS'pdb4dej'
p4270
S'/net/chevy/raid1/pdb_mirror/pdb/de/pdb4dej.ent.gz'
p4271
sS'pdb1b27'
p4272
S'/net/chevy/raid1/pdb_mirror/pdb/b2/pdb1b27.ent.gz'
p4273
sS'pdb3ukf'
p4274
S'/net/chevy/raid1/pdb_mirror/pdb/uk/pdb3ukf.ent.gz'
p4275
sS'pdb1b25'
p4276
S'/net/chevy/raid1/pdb_mirror/pdb/b2/pdb1b25.ent.gz'
p4277
sS'pdb3uka'
p4278
S'/net/chevy/raid1/pdb_mirror/pdb/uk/pdb3uka.ent.gz'
p4279
sS'pdb1b20'
p4280
S'/net/chevy/raid1/pdb_mirror/pdb/b2/pdb1b20.ent.gz'
p4281
sS'pdb1o9y'
p4282
S'/net/chevy/raid1/pdb_mirror/pdb/o9/pdb1o9y.ent.gz'
p4283
sS'pdb3ukl'
p4284
S'/net/chevy/raid1/pdb_mirror/pdb/uk/pdb3ukl.ent.gz'
p4285
sS'pdb3nby'
p4286
S'/net/chevy/raid1/pdb_mirror/pdb/nb/pdb3nby.ent.gz'
p4287
sS'pdb3nbz'
p4288
S'/net/chevy/raid1/pdb_mirror/pdb/nb/pdb3nbz.ent.gz'
p4289
sS'pdb1o9r'
p4290
S'/net/chevy/raid1/pdb_mirror/pdb/o9/pdb1o9r.ent.gz'
p4291
sS'pdb1e3u'
p4292
S'/net/chevy/raid1/pdb_mirror/pdb/e3/pdb1e3u.ent.gz'
p4293
sS'pdb1cd1'
p4294
S'/net/chevy/raid1/pdb_mirror/pdb/cd/pdb1cd1.ent.gz'
p4295
sS'pdb1ts2'
p4296
S'/net/chevy/raid1/pdb_mirror/pdb/ts/pdb1ts2.ent.gz'
p4297
sS'pdb3ukp'
p4298
S'/net/chevy/raid1/pdb_mirror/pdb/uk/pdb3ukp.ent.gz'
p4299
sS'pdb3ukq'
p4300
S'/net/chevy/raid1/pdb_mirror/pdb/uk/pdb3ukq.ent.gz'
p4301
sS'pdb1cd9'
p4302
S'/net/chevy/raid1/pdb_mirror/pdb/cd/pdb1cd9.ent.gz'
p4303
sS'pdb4fqb'
p4304
S'/net/chevy/raid1/pdb_mirror/pdb/fq/pdb4fqb.ent.gz'
p4305
sS'pdb1e3d'
p4306
S'/net/chevy/raid1/pdb_mirror/pdb/e3/pdb1e3d.ent.gz'
p4307
sS'pdb1tei'
p4308
S'/net/chevy/raid1/pdb_mirror/pdb/te/pdb1tei.ent.gz'
p4309
sS'pdb2oow'
p4310
S'/net/chevy/raid1/pdb_mirror/pdb/oo/pdb2oow.ent.gz'
p4311
sS'pdb1tez'
p4312
S'/net/chevy/raid1/pdb_mirror/pdb/te/pdb1tez.ent.gz'
p4313
sS'pdb1k3v'
p4314
S'/net/chevy/raid1/pdb_mirror/pdb/k3/pdb1k3v.ent.gz'
p4315
sS'pdb1hgg'
p4316
S'/net/chevy/raid1/pdb_mirror/pdb/hg/pdb1hgg.ent.gz'
p4317
sS'pdb2jjy'
p4318
S'/net/chevy/raid1/pdb_mirror/pdb/jj/pdb2jjy.ent.gz'
p4319
sS'pdb2jjx'
p4320
S'/net/chevy/raid1/pdb_mirror/pdb/jj/pdb2jjx.ent.gz'
p4321
sS'pdb2yoq'
p4322
S'/net/chevy/raid1/pdb_mirror/pdb/yo/pdb2yoq.ent.gz'
p4323
sS'pdb2yop'
p4324
S'/net/chevy/raid1/pdb_mirror/pdb/yo/pdb2yop.ent.gz'
p4325
sS'pdb2v90'
p4326
S'/net/chevy/raid1/pdb_mirror/pdb/v9/pdb2v90.ent.gz'
p4327
sS'pdb2jjd'
p4328
S'/net/chevy/raid1/pdb_mirror/pdb/jj/pdb2jjd.ent.gz'
p4329
sS'pdb2jjm'
p4330
S'/net/chevy/raid1/pdb_mirror/pdb/jj/pdb2jjm.ent.gz'
p4331
sS'pdb1b0w'
p4332
S'/net/chevy/raid1/pdb_mirror/pdb/b0/pdb1b0w.ent.gz'
p4333
sS'pdb2c4z'
p4334
S'/net/chevy/raid1/pdb_mirror/pdb/c4/pdb2c4z.ent.gz'
p4335
sS'pdb2wmz'
p4336
S'/net/chevy/raid1/pdb_mirror/pdb/wm/pdb2wmz.ent.gz'
p4337
sS'pdb5cox'
p4338
S'/net/chevy/raid1/pdb_mirror/pdb/co/pdb5cox.ent.gz'
p4339
sS'pdb1hkd'
p4340
S'/net/chevy/raid1/pdb_mirror/pdb/hk/pdb1hkd.ent.gz'
p4341
sS'pdb1pya'
p4342
S'/net/chevy/raid1/pdb_mirror/pdb/py/pdb1pya.ent.gz'
p4343
sS'pdb1hkn'
p4344
S'/net/chevy/raid1/pdb_mirror/pdb/hk/pdb1hkn.ent.gz'
p4345
sS'pdb2v9d'
p4346
S'/net/chevy/raid1/pdb_mirror/pdb/v9/pdb2v9d.ent.gz'
p4347
sS'pdb2c44'
p4348
S'/net/chevy/raid1/pdb_mirror/pdb/c4/pdb2c44.ent.gz'
p4349
sS'pdb2c46'
p4350
S'/net/chevy/raid1/pdb_mirror/pdb/c4/pdb2c46.ent.gz'
p4351
sS'pdb2fpf'
p4352
S'/net/chevy/raid1/pdb_mirror/pdb/fp/pdb2fpf.ent.gz'
p4353
sS'pdb2jj4'
p4354
S'/net/chevy/raid1/pdb_mirror/pdb/jj/pdb2jj4.ent.gz'
p4355
sS'pdb2j1k'
p4356
S'/net/chevy/raid1/pdb_mirror/pdb/j1/pdb2j1k.ent.gz'
p4357
sS'pdb3p9u'
p4358
S'/net/chevy/raid1/pdb_mirror/pdb/p9/pdb3p9u.ent.gz'
p4359
sS'pdb2j1n'
p4360
S'/net/chevy/raid1/pdb_mirror/pdb/j1/pdb2j1n.ent.gz'
p4361
sS'pdb2c4j'
p4362
S'/net/chevy/raid1/pdb_mirror/pdb/c4/pdb2c4j.ent.gz'
p4363
sS'pdb4cox'
p4364
S'/net/chevy/raid1/pdb_mirror/pdb/co/pdb4cox.ent.gz'
p4365
sS'pdb2c4o'
p4366
S'/net/chevy/raid1/pdb_mirror/pdb/c4/pdb2c4o.ent.gz'
p4367
sS'pdb2sod'
p4368
S'/net/chevy/raid1/pdb_mirror/pdb/so/pdb2sod.ent.gz'
p4369
sS'pdb1hk9'
p4370
S'/net/chevy/raid1/pdb_mirror/pdb/hk/pdb1hk9.ent.gz'
p4371
sS'pdb2c4y'
p4372
S'/net/chevy/raid1/pdb_mirror/pdb/c4/pdb2c4y.ent.gz'
p4373
sS'pdb2pcd'
p4374
S'/net/chevy/raid1/pdb_mirror/pdb/pc/pdb2pcd.ent.gz'
p4375
sS'pdb1nsi'
p4376
S'/net/chevy/raid1/pdb_mirror/pdb/ns/pdb1nsi.ent.gz'
p4377
sS'pdb1nsk'
p4378
S'/net/chevy/raid1/pdb_mirror/pdb/ns/pdb1nsk.ent.gz'
p4379
sS'pdb3v5i'
p4380
S'/net/chevy/raid1/pdb_mirror/pdb/v5/pdb3v5i.ent.gz'
p4381
sS'pdb2c4q'
p4382
S'/net/chevy/raid1/pdb_mirror/pdb/c4/pdb2c4q.ent.gz'
p4383
s.