(dp1
S'1pgl'
p2
S'/net/chevy/raid1/pdb_mirror/pdb/pg/pdb1pgl.ent.gz'
p3
sS'2at2'
p4
S'/net/chevy/raid1/pdb_mirror/pdb/at/pdb2at2.ent.gz'
p5
sS'4iw4'
p6
S'/net/chevy/raid1/pdb_mirror/pdb/iw/pdb4iw4.ent.gz'
p7
sS'1e7p'
p8
S'/net/chevy/raid1/pdb_mirror/pdb/e7/pdb1e7p.ent.gz'
p9
sS'1gbn'
p10
S'/net/chevy/raid1/pdb_mirror/pdb/gb/pdb1gbn.ent.gz'
p11
sS'1mhc'
p12
S'/net/chevy/raid1/pdb_mirror/pdb/mh/pdb1mhc.ent.gz'
p13
sS'1pgw'
p14
S'/net/chevy/raid1/pdb_mirror/pdb/pg/pdb1pgw.ent.gz'
p15
sS'1pgr'
p16
S'/net/chevy/raid1/pdb_mirror/pdb/pg/pdb1pgr.ent.gz'
p17
sS'4bof'
p18
S'/net/chevy/raid1/pdb_mirror/pdb/bo/pdb4bof.ent.gz'
p19
sS'1o7l'
p20
S'/net/chevy/raid1/pdb_mirror/pdb/o7/pdb1o7l.ent.gz'
p21
sS'1o7k'
p22
S'/net/chevy/raid1/pdb_mirror/pdb/o7/pdb1o7k.ent.gz'
p23
sS'1a9n'
p24
S'/net/chevy/raid1/pdb_mirror/pdb/a9/pdb1a9n.ent.gz'
p25
sS'3nby'
p26
S'/net/chevy/raid1/pdb_mirror/pdb/nb/pdb3nby.ent.gz'
p27
sS'1a9c'
p28
S'/net/chevy/raid1/pdb_mirror/pdb/a9/pdb1a9c.ent.gz'
p29
sS'3nbz'
p30
S'/net/chevy/raid1/pdb_mirror/pdb/nb/pdb3nbz.ent.gz'
p31
sS'4aun'
p32
S'/net/chevy/raid1/pdb_mirror/pdb/au/pdb4aun.ent.gz'
p33
sS'2jla'
p34
S'/net/chevy/raid1/pdb_mirror/pdb/jl/pdb2jla.ent.gz'
p35
sS'4aul'
p36
S'/net/chevy/raid1/pdb_mirror/pdb/au/pdb4aul.ent.gz'
p37
sS'4aum'
p38
S'/net/chevy/raid1/pdb_mirror/pdb/au/pdb4aum.ent.gz'
p39
sS'4auv'
p40
S'/net/chevy/raid1/pdb_mirror/pdb/au/pdb4auv.ent.gz'
p41
sS'2va1'
p42
S'/net/chevy/raid1/pdb_mirror/pdb/va/pdb2va1.ent.gz'
p43
sS'2va0'
p44
S'/net/chevy/raid1/pdb_mirror/pdb/va/pdb2va0.ent.gz'
p45
sS'1o7t'
p46
S'/net/chevy/raid1/pdb_mirror/pdb/o7/pdb1o7t.ent.gz'
p47
sS'1f29'
p48
S'/net/chevy/raid1/pdb_mirror/pdb/f2/pdb1f29.ent.gz'
p49
sS'1a9w'
p50
S'/net/chevy/raid1/pdb_mirror/pdb/a9/pdb1a9w.ent.gz'
p51
sS'1uos'
p52
S'/net/chevy/raid1/pdb_mirror/pdb/uo/pdb1uos.ent.gz'
p53
sS'2bbv'
p54
S'/net/chevy/raid1/pdb_mirror/pdb/bb/pdb2bbv.ent.gz'
p55
sS'2wwr'
p56
S'/net/chevy/raid1/pdb_mirror/pdb/ww/pdb2wwr.ent.gz'
p57
sS'2wws'
p58
S'/net/chevy/raid1/pdb_mirror/pdb/ww/pdb2wws.ent.gz'
p59
sS'2wwt'
p60
S'/net/chevy/raid1/pdb_mirror/pdb/ww/pdb2wwt.ent.gz'
p61
sS'4kq6'
p62
S'/net/chevy/raid1/pdb_mirror/pdb/kq/pdb4kq6.ent.gz'
p63
sS'2wwh'
p64
S'/net/chevy/raid1/pdb_mirror/pdb/ww/pdb2wwh.ent.gz'
p65
sS'2wwi'
p66
S'/net/chevy/raid1/pdb_mirror/pdb/ww/pdb2wwi.ent.gz'
p67
sS'2wwf'
p68
S'/net/chevy/raid1/pdb_mirror/pdb/ww/pdb2wwf.ent.gz'
p69
sS'1bvp'
p70
S'/net/chevy/raid1/pdb_mirror/pdb/bv/pdb1bvp.ent.gz'
p71
sS'1dao'
p72
S'/net/chevy/raid1/pdb_mirror/pdb/da/pdb1dao.ent.gz'
p73
sS'3zv0'
p74
S'/net/chevy/raid1/pdb_mirror/pdb/zv/pdb3zv0.ent.gz'
p75
sS'1f2n'
p76
S'/net/chevy/raid1/pdb_mirror/pdb/f2/pdb1f2n.ent.gz'
p77
sS'1a99'
p78
S'/net/chevy/raid1/pdb_mirror/pdb/a9/pdb1a99.ent.gz'
p79
sS'2bnz'
p80
S'/net/chevy/raid1/pdb_mirror/pdb/bn/pdb2bnz.ent.gz'
p81
sS'2vat'
p82
S'/net/chevy/raid1/pdb_mirror/pdb/va/pdb2vat.ent.gz'
p83
sS'1k5g'
p84
S'/net/chevy/raid1/pdb_mirror/pdb/k5/pdb1k5g.ent.gz'
p85
sS'2var'
p86
S'/net/chevy/raid1/pdb_mirror/pdb/va/pdb2var.ent.gz'
p87
sS'4au5'
p88
S'/net/chevy/raid1/pdb_mirror/pdb/au/pdb4au5.ent.gz'
p89
sS'1dap'
p90
S'/net/chevy/raid1/pdb_mirror/pdb/da/pdb1dap.ent.gz'
p91
sS'2wkv'
p92
S'/net/chevy/raid1/pdb_mirror/pdb/wk/pdb2wkv.ent.gz'
p93
sS'1k5m'
p94
S'/net/chevy/raid1/pdb_mirror/pdb/k5/pdb1k5m.ent.gz'
p95
sS'2vax'
p96
S'/net/chevy/raid1/pdb_mirror/pdb/va/pdb2vax.ent.gz'
p97
sS'3v23'
p98
S'/net/chevy/raid1/pdb_mirror/pdb/v2/pdb3v23.ent.gz'
p99
sS'3zx2'
p100
S'/net/chevy/raid1/pdb_mirror/pdb/zx/pdb3zx2.ent.gz'
p101
sS'3zx0'
p102
S'/net/chevy/raid1/pdb_mirror/pdb/zx/pdb3zx0.ent.gz'
p103
sS'4loq'
p104
S'/net/chevy/raid1/pdb_mirror/pdb/lo/pdb4loq.ent.gz'
p105
sS'4lop'
p106
S'/net/chevy/raid1/pdb_mirror/pdb/lo/pdb4lop.ent.gz'
p107
sS'1rk2'
p108
S'/net/chevy/raid1/pdb_mirror/pdb/rk/pdb1rk2.ent.gz'
p109
sS'4nos'
p110
S'/net/chevy/raid1/pdb_mirror/pdb/no/pdb4nos.ent.gz'
p111
sS'1a79'
p112
S'/net/chevy/raid1/pdb_mirror/pdb/a7/pdb1a79.ent.gz'
p113
sS'2we4'
p114
S'/net/chevy/raid1/pdb_mirror/pdb/we/pdb2we4.ent.gz'
p115
sS'2w8s'
p116
S'/net/chevy/raid1/pdb_mirror/pdb/w8/pdb2w8s.ent.gz'
p117
sS'3n97'
p118
S'/net/chevy/raid1/pdb_mirror/pdb/n9/pdb3n97.ent.gz'
p119
sS'2yfw'
p120
S'/net/chevy/raid1/pdb_mirror/pdb/yf/pdb2yfw.ent.gz'
p121
sS'3v9h'
p122
S'/net/chevy/raid1/pdb_mirror/pdb/v9/pdb3v9h.ent.gz'
p123
sS'3v9i'
p124
S'/net/chevy/raid1/pdb_mirror/pdb/v9/pdb3v9i.ent.gz'
p125
sS'1piv'
p126
S'/net/chevy/raid1/pdb_mirror/pdb/pi/pdb1piv.ent.gz'
p127
sS'4hoh'
p128
S'/net/chevy/raid1/pdb_mirror/pdb/ho/pdb4hoh.ent.gz'
p129
sS'1ugi'
p130
S'/net/chevy/raid1/pdb_mirror/pdb/ug/pdb1ugi.ent.gz'
p131
sS'1gll'
p132
S'/net/chevy/raid1/pdb_mirror/pdb/gl/pdb1gll.ent.gz'
p133
sS'3rul'
p134
S'/net/chevy/raid1/pdb_mirror/pdb/ru/pdb3rul.ent.gz'
p135
sS'1glj'
p136
S'/net/chevy/raid1/pdb_mirror/pdb/gl/pdb1glj.ent.gz'
p137
sS'3v9g'
p138
S'/net/chevy/raid1/pdb_mirror/pdb/v9/pdb3v9g.ent.gz'
p139
sS'3zxw'
p140
S'/net/chevy/raid1/pdb_mirror/pdb/zx/pdb3zxw.ent.gz'
p141
sS'3zxv'
p142
S'/net/chevy/raid1/pdb_mirror/pdb/zx/pdb3zxv.ent.gz'
p143
sS'3zxu'
p144
S'/net/chevy/raid1/pdb_mirror/pdb/zx/pdb3zxu.ent.gz'
p145
sS'3zxt'
p146
S'/net/chevy/raid1/pdb_mirror/pdb/zx/pdb3zxt.ent.gz'
p147
sS'3zxs'
p148
S'/net/chevy/raid1/pdb_mirror/pdb/zx/pdb3zxs.ent.gz'
p149
sS'3zxr'
p150
S'/net/chevy/raid1/pdb_mirror/pdb/zx/pdb3zxr.ent.gz'
p151
sS'2jlm'
p152
S'/net/chevy/raid1/pdb_mirror/pdb/jl/pdb2jlm.ent.gz'
p153
sS'1a7l'
p154
S'/net/chevy/raid1/pdb_mirror/pdb/a7/pdb1a7l.ent.gz'
p155
sS'3zxd'
p156
S'/net/chevy/raid1/pdb_mirror/pdb/zx/pdb3zxd.ent.gz'
p157
sS'3zxa'
p158
S'/net/chevy/raid1/pdb_mirror/pdb/zx/pdb3zxa.ent.gz'
p159
sS'1b8d'
p160
S'/net/chevy/raid1/pdb_mirror/pdb/b8/pdb1b8d.ent.gz'
p161
sS'2afn'
p162
S'/net/chevy/raid1/pdb_mirror/pdb/af/pdb2afn.ent.gz'
p163
sS'4aue'
p164
S'/net/chevy/raid1/pdb_mirror/pdb/au/pdb4aue.ent.gz'
p165
sS'1b8h'
p166
S'/net/chevy/raid1/pdb_mirror/pdb/b8/pdb1b8h.ent.gz'
p167
sS'5hoh'
p168
S'/net/chevy/raid1/pdb_mirror/pdb/ho/pdb5hoh.ent.gz'
p169
sS'1iph'
p170
S'/net/chevy/raid1/pdb_mirror/pdb/ip/pdb1iph.ent.gz'
p171
sS'1olp'
p172
S'/net/chevy/raid1/pdb_mirror/pdb/ol/pdb1olp.ent.gz'
p173
sS'4jsu'
p174
S'/net/chevy/raid1/pdb_mirror/pdb/js/pdb4jsu.ent.gz'
p175
sS'4b4m'
p176
S'/net/chevy/raid1/pdb_mirror/pdb/b4/pdb4b4m.ent.gz'
p177
sS'1qma'
p178
S'/net/chevy/raid1/pdb_mirror/pdb/qm/pdb1qma.ent.gz'
p179
sS'4jsq'
p180
S'/net/chevy/raid1/pdb_mirror/pdb/js/pdb4jsq.ent.gz'
p181
sS'4b4g'
p182
S'/net/chevy/raid1/pdb_mirror/pdb/b4/pdb4b4g.ent.gz'
p183
sS'1qmo'
p184
S'/net/chevy/raid1/pdb_mirror/pdb/qm/pdb1qmo.ent.gz'
p185
sS'4b4b'
p186
S'/net/chevy/raid1/pdb_mirror/pdb/b4/pdb4b4b.ent.gz'
p187
sS'1qmv'
p188
S'/net/chevy/raid1/pdb_mirror/pdb/qm/pdb1qmv.ent.gz'
p189
sS'2xlb'
p190
S'/net/chevy/raid1/pdb_mirror/pdb/xl/pdb2xlb.ent.gz'
p191
sS'1qmp'
p192
S'/net/chevy/raid1/pdb_mirror/pdb/qm/pdb1qmp.ent.gz'
p193
sS'4jsn'
p194
S'/net/chevy/raid1/pdb_mirror/pdb/js/pdb4jsn.ent.gz'
p195
sS'3ey9'
p196
S'/net/chevy/raid1/pdb_mirror/pdb/ey/pdb3ey9.ent.gz'
p197
sS'2c2b'
p198
S'/net/chevy/raid1/pdb_mirror/pdb/c2/pdb2c2b.ent.gz'
p199
sS'3qr3'
p200
S'/net/chevy/raid1/pdb_mirror/pdb/qr/pdb3qr3.ent.gz'
p201
sS'1ltt'
p202
S'/net/chevy/raid1/pdb_mirror/pdb/lt/pdb1ltt.ent.gz'
p203
sS'1lts'
p204
S'/net/chevy/raid1/pdb_mirror/pdb/lt/pdb1lts.ent.gz'
p205
sS'1ltr'
p206
S'/net/chevy/raid1/pdb_mirror/pdb/lt/pdb1ltr.ent.gz'
p207
sS'2vf7'
p208
S'/net/chevy/raid1/pdb_mirror/pdb/vf/pdb2vf7.ent.gz'
p209
sS'2c2l'
p210
S'/net/chevy/raid1/pdb_mirror/pdb/c2/pdb2c2l.ent.gz'
p211
sS'2v70'
p212
S'/net/chevy/raid1/pdb_mirror/pdb/v7/pdb2v70.ent.gz'
p213
sS'1v1j'
p214
S'/net/chevy/raid1/pdb_mirror/pdb/v1/pdb1v1j.ent.gz'
p215
sS'1v1h'
p216
S'/net/chevy/raid1/pdb_mirror/pdb/v1/pdb1v1h.ent.gz'
p217
sS'1v1i'
p218
S'/net/chevy/raid1/pdb_mirror/pdb/v1/pdb1v1i.ent.gz'
p219
sS'2v78'
p220
S'/net/chevy/raid1/pdb_mirror/pdb/v7/pdb2v78.ent.gz'
p221
sS'1aug'
p222
S'/net/chevy/raid1/pdb_mirror/pdb/au/pdb1aug.ent.gz'
p223
sS'4js5'
p224
S'/net/chevy/raid1/pdb_mirror/pdb/js/pdb4js5.ent.gz'
p225
sS'4js4'
p226
S'/net/chevy/raid1/pdb_mirror/pdb/js/pdb4js4.ent.gz'
p227
sS'1z6o'
p228
S'/net/chevy/raid1/pdb_mirror/pdb/z6/pdb1z6o.ent.gz'
p229
sS'2y22'
p230
S'/net/chevy/raid1/pdb_mirror/pdb/y2/pdb2y22.ent.gz'
p231
sS'4b42'
p232
S'/net/chevy/raid1/pdb_mirror/pdb/b4/pdb4b42.ent.gz'
p233
sS'4b40'
p234
S'/net/chevy/raid1/pdb_mirror/pdb/b4/pdb4b40.ent.gz'
p235
sS'2v7d'
p236
S'/net/chevy/raid1/pdb_mirror/pdb/v7/pdb2v7d.ent.gz'
p237
sS'2v7g'
p238
S'/net/chevy/raid1/pdb_mirror/pdb/v7/pdb2v7g.ent.gz'
p239
sS'7r1r'
p240
S'/net/chevy/raid1/pdb_mirror/pdb/r1/pdb7r1r.ent.gz'
p241
sS'2c21'
p242
S'/net/chevy/raid1/pdb_mirror/pdb/c2/pdb2c21.ent.gz'
p243
sS'2xbo'
p244
S'/net/chevy/raid1/pdb_mirror/pdb/xb/pdb2xbo.ent.gz'
p245
sS'3zjx'
p246
S'/net/chevy/raid1/pdb_mirror/pdb/zj/pdb3zjx.ent.gz'
p247
sS'4dqy'
p248
S'/net/chevy/raid1/pdb_mirror/pdb/dq/pdb4dqy.ent.gz'
p249
sS'1qnu'
p250
S'/net/chevy/raid1/pdb_mirror/pdb/qn/pdb1qnu.ent.gz'
p251
sS'6msf'
p252
S'/net/chevy/raid1/pdb_mirror/pdb/ms/pdb6msf.ent.gz'
p253
sS'2x17'
p254
S'/net/chevy/raid1/pdb_mirror/pdb/x1/pdb2x17.ent.gz'
p255
sS'2vpf'
p256
S'/net/chevy/raid1/pdb_mirror/pdb/vp/pdb2vpf.ent.gz'
p257
sS'2y85'
p258
S'/net/chevy/raid1/pdb_mirror/pdb/y8/pdb2y85.ent.gz'
p259
sS'2g8g'
p260
S'/net/chevy/raid1/pdb_mirror/pdb/g8/pdb2g8g.ent.gz'
p261
sS'1ump'
p262
S'/net/chevy/raid1/pdb_mirror/pdb/um/pdb1ump.ent.gz'
p263
sS'1hvu'
p264
S'/net/chevy/raid1/pdb_mirror/pdb/hv/pdb1hvu.ent.gz'
p265
sS'3ia0'
p266
S'/net/chevy/raid1/pdb_mirror/pdb/ia/pdb3ia0.ent.gz'
p267
sS'4ahq'
p268
S'/net/chevy/raid1/pdb_mirror/pdb/ah/pdb4ahq.ent.gz'
p269
sS'4ahp'
p270
S'/net/chevy/raid1/pdb_mirror/pdb/ah/pdb4ahp.ent.gz'
p271
sS'1zbe'
p272
S'/net/chevy/raid1/pdb_mirror/pdb/zb/pdb1zbe.ent.gz'
p273
sS'1scf'
p274
S'/net/chevy/raid1/pdb_mirror/pdb/sc/pdb1scf.ent.gz'
p275
sS'12e8'
p276
S'/net/chevy/raid1/pdb_mirror/pdb/2e/pdb12e8.ent.gz'
p277
sS'2ckj'
p278
S'/net/chevy/raid1/pdb_mirror/pdb/ck/pdb2ckj.ent.gz'
p279
sS'2iuo'
p280
S'/net/chevy/raid1/pdb_mirror/pdb/iu/pdb2iuo.ent.gz'
p281
sS'4aho'
p282
S'/net/chevy/raid1/pdb_mirror/pdb/ah/pdb4aho.ent.gz'
p283
sS'43c9'
p284
S'/net/chevy/raid1/pdb_mirror/pdb/3c/pdb43c9.ent.gz'
p285
sS'1w62'
p286
S'/net/chevy/raid1/pdb_mirror/pdb/w6/pdb1w62.ent.gz'
p287
sS'4ahc'
p288
S'/net/chevy/raid1/pdb_mirror/pdb/ah/pdb4ahc.ent.gz'
p289
sS'2iua'
p290
S'/net/chevy/raid1/pdb_mirror/pdb/iu/pdb2iua.ent.gz'
p291
sS'1js9'
p292
S'/net/chevy/raid1/pdb_mirror/pdb/js/pdb1js9.ent.gz'
p293
sS'2ztn'
p294
S'/net/chevy/raid1/pdb_mirror/pdb/zt/pdb2ztn.ent.gz'
p295
sS'2iu8'
p296
S'/net/chevy/raid1/pdb_mirror/pdb/iu/pdb2iu8.ent.gz'
p297
sS'2iu9'
p298
S'/net/chevy/raid1/pdb_mirror/pdb/iu/pdb2iu9.ent.gz'
p299
sS'2iu7'
p300
S'/net/chevy/raid1/pdb_mirror/pdb/iu/pdb2iu7.ent.gz'
p301
sS'43ca'
p302
S'/net/chevy/raid1/pdb_mirror/pdb/3c/pdb43ca.ent.gz'
p303
sS'4h04'
p304
S'/net/chevy/raid1/pdb_mirror/pdb/h0/pdb4h04.ent.gz'
p305
sS'2j7v'
p306
S'/net/chevy/raid1/pdb_mirror/pdb/j7/pdb2j7v.ent.gz'
p307
sS'2j7q'
p308
S'/net/chevy/raid1/pdb_mirror/pdb/j7/pdb2j7q.ent.gz'
p309
sS'2j7p'
p310
S'/net/chevy/raid1/pdb_mirror/pdb/j7/pdb2j7p.ent.gz'
p311
sS'1w6u'
p312
S'/net/chevy/raid1/pdb_mirror/pdb/w6/pdb1w6u.ent.gz'
p313
sS'3ueo'
p314
S'/net/chevy/raid1/pdb_mirror/pdb/ue/pdb3ueo.ent.gz'
p315
sS'3uel'
p316
S'/net/chevy/raid1/pdb_mirror/pdb/ue/pdb3uel.ent.gz'
p317
sS'2wvh'
p318
S'/net/chevy/raid1/pdb_mirror/pdb/wv/pdb2wvh.ent.gz'
p319
sS'2wva'
p320
S'/net/chevy/raid1/pdb_mirror/pdb/wv/pdb2wva.ent.gz'
p321
sS'4ivd'
p322
S'/net/chevy/raid1/pdb_mirror/pdb/iv/pdb4ivd.ent.gz'
p323
sS'4ivc'
p324
S'/net/chevy/raid1/pdb_mirror/pdb/iv/pdb4ivc.ent.gz'
p325
sS'4ivb'
p326
S'/net/chevy/raid1/pdb_mirror/pdb/iv/pdb4ivb.ent.gz'
p327
sS'1bv4'
p328
S'/net/chevy/raid1/pdb_mirror/pdb/bv/pdb1bv4.ent.gz'
p329
sS'1f1m'
p330
S'/net/chevy/raid1/pdb_mirror/pdb/f1/pdb1f1m.ent.gz'
p331
sS'2vbf'
p332
S'/net/chevy/raid1/pdb_mirror/pdb/vb/pdb2vbf.ent.gz'
p333
sS'2vbg'
p334
S'/net/chevy/raid1/pdb_mirror/pdb/vb/pdb2vbg.ent.gz'
p335
sS'2x3h'
p336
S'/net/chevy/raid1/pdb_mirror/pdb/x3/pdb2x3h.ent.gz'
p337
sS'2euh'
p338
S'/net/chevy/raid1/pdb_mirror/pdb/eu/pdb2euh.ent.gz'
p339
sS'2vzk'
p340
S'/net/chevy/raid1/pdb_mirror/pdb/vz/pdb2vzk.ent.gz'
p341
sS'4evg'
p342
S'/net/chevy/raid1/pdb_mirror/pdb/ev/pdb4evg.ent.gz'
p343
sS'4ayd'
p344
S'/net/chevy/raid1/pdb_mirror/pdb/ay/pdb4ayd.ent.gz'
p345
sS'1zpd'
p346
S'/net/chevy/raid1/pdb_mirror/pdb/zp/pdb1zpd.ent.gz'
p347
sS'1bvi'
p348
S'/net/chevy/raid1/pdb_mirror/pdb/bv/pdb1bvi.ent.gz'
p349
sS'4j70'
p350
S'/net/chevy/raid1/pdb_mirror/pdb/j7/pdb4j70.ent.gz'
p351
sS'1usq'
p352
S'/net/chevy/raid1/pdb_mirror/pdb/us/pdb1usq.ent.gz'
p353
sS'2uzq'
p354
S'/net/chevy/raid1/pdb_mirror/pdb/uz/pdb2uzq.ent.gz'
p355
sS'4iv3'
p356
S'/net/chevy/raid1/pdb_mirror/pdb/iv/pdb4iv3.ent.gz'
p357
sS'4iv1'
p358
S'/net/chevy/raid1/pdb_mirror/pdb/iv/pdb4iv1.ent.gz'
p359
sS'4afn'
p360
S'/net/chevy/raid1/pdb_mirror/pdb/af/pdb4afn.ent.gz'
p361
sS'4afl'
p362
S'/net/chevy/raid1/pdb_mirror/pdb/af/pdb4afl.ent.gz'
p363
sS'1tdi'
p364
S'/net/chevy/raid1/pdb_mirror/pdb/td/pdb1tdi.ent.gz'
p365
sS'3ukh'
p366
S'/net/chevy/raid1/pdb_mirror/pdb/uk/pdb3ukh.ent.gz'
p367
sS'3ukk'
p368
S'/net/chevy/raid1/pdb_mirror/pdb/uk/pdb3ukk.ent.gz'
p369
sS'4ev0'
p370
S'/net/chevy/raid1/pdb_mirror/pdb/ev/pdb4ev0.ent.gz'
p371
sS'3oah'
p372
S'/net/chevy/raid1/pdb_mirror/pdb/oa/pdb3oah.ent.gz'
p373
sS'4g3d'
p374
S'/net/chevy/raid1/pdb_mirror/pdb/g3/pdb4g3d.ent.gz'
p375
sS'4g3e'
p376
S'/net/chevy/raid1/pdb_mirror/pdb/g3/pdb4g3e.ent.gz'
p377
sS'3uka'
p378
S'/net/chevy/raid1/pdb_mirror/pdb/uk/pdb3uka.ent.gz'
p379
sS'3ukf'
p380
S'/net/chevy/raid1/pdb_mirror/pdb/uk/pdb3ukf.ent.gz'
p381
sS'3pgd'
p382
S'/net/chevy/raid1/pdb_mirror/pdb/pg/pdb3pgd.ent.gz'
p383
sS'3pgh'
p384
S'/net/chevy/raid1/pdb_mirror/pdb/pg/pdb3pgh.ent.gz'
p385
sS'3ukp'
p386
S'/net/chevy/raid1/pdb_mirror/pdb/uk/pdb3ukp.ent.gz'
p387
sS'1f15'
p388
S'/net/chevy/raid1/pdb_mirror/pdb/f1/pdb1f15.ent.gz'
p389
sS'3tat'
p390
S'/net/chevy/raid1/pdb_mirror/pdb/ta/pdb3tat.ent.gz'
p391
sS'1a4e'
p392
S'/net/chevy/raid1/pdb_mirror/pdb/a4/pdb1a4e.ent.gz'
p393
sS'3w5u'
p394
S'/net/chevy/raid1/pdb_mirror/pdb/w5/pdb3w5u.ent.gz'
p395
sS'1a4o'
p396
S'/net/chevy/raid1/pdb_mirror/pdb/a4/pdb1a4o.ent.gz'
p397
sS'3w5v'
p398
S'/net/chevy/raid1/pdb_mirror/pdb/w5/pdb3w5v.ent.gz'
p399
sS'1a4s'
p400
S'/net/chevy/raid1/pdb_mirror/pdb/a4/pdb1a4s.ent.gz'
p401
sS'1c8n'
p402
S'/net/chevy/raid1/pdb_mirror/pdb/c8/pdb1c8n.ent.gz'
p403
sS'1a4z'
p404
S'/net/chevy/raid1/pdb_mirror/pdb/a4/pdb1a4z.ent.gz'
p405
sS'3vyw'
p406
S'/net/chevy/raid1/pdb_mirror/pdb/vy/pdb3vyw.ent.gz'
p407
sS'2wdq'
p408
S'/net/chevy/raid1/pdb_mirror/pdb/wd/pdb2wdq.ent.gz'
p409
sS'1e4d'
p410
S'/net/chevy/raid1/pdb_mirror/pdb/e4/pdb1e4d.ent.gz'
p411
sS'2wdr'
p412
S'/net/chevy/raid1/pdb_mirror/pdb/wd/pdb2wdr.ent.gz'
p413
sS'1h1c'
p414
S'/net/chevy/raid1/pdb_mirror/pdb/h1/pdb1h1c.ent.gz'
p415
sS'1h1l'
p416
S'/net/chevy/raid1/pdb_mirror/pdb/h1/pdb1h1l.ent.gz'
p417
sS'2wdz'
p418
S'/net/chevy/raid1/pdb_mirror/pdb/wd/pdb2wdz.ent.gz'
p419
sS'1e4k'
p420
S'/net/chevy/raid1/pdb_mirror/pdb/e4/pdb1e4k.ent.gz'
p421
sS'4blv'
p422
S'/net/chevy/raid1/pdb_mirror/pdb/bl/pdb4blv.ent.gz'
p423
sS'4blu'
p424
S'/net/chevy/raid1/pdb_mirror/pdb/bl/pdb4blu.ent.gz'
p425
sS'2bmc'
p426
S'/net/chevy/raid1/pdb_mirror/pdb/bm/pdb2bmc.ent.gz'
p427
sS'1o79'
p428
S'/net/chevy/raid1/pdb_mirror/pdb/o7/pdb1o79.ent.gz'
p429
sS'4at6'
p430
S'/net/chevy/raid1/pdb_mirror/pdb/at/pdb4at6.ent.gz'
p431
sS'2bmk'
p432
S'/net/chevy/raid1/pdb_mirror/pdb/bm/pdb2bmk.ent.gz'
p433
sS'1k5d'
p434
S'/net/chevy/raid1/pdb_mirror/pdb/k5/pdb1k5d.ent.gz'
p435
sS'2ygu'
p436
S'/net/chevy/raid1/pdb_mirror/pdb/yg/pdb2ygu.ent.gz'
p437
sS'1pfz'
p438
S'/net/chevy/raid1/pdb_mirror/pdb/pf/pdb1pfz.ent.gz'
p439
sS'1mif'
p440
S'/net/chevy/raid1/pdb_mirror/pdb/mi/pdb1mif.ent.gz'
p441
sS'3vcn'
p442
S'/net/chevy/raid1/pdb_mirror/pdb/vc/pdb3vcn.ent.gz'
p443
sS'2wd0'
p444
S'/net/chevy/raid1/pdb_mirror/pdb/wd/pdb2wd0.ent.gz'
p445
sS'2bm2'
p446
S'/net/chevy/raid1/pdb_mirror/pdb/bm/pdb2bm2.ent.gz'
p447
sS'2wd7'
p448
S'/net/chevy/raid1/pdb_mirror/pdb/wd/pdb2wd7.ent.gz'
p449
sS'3vcf'
p450
S'/net/chevy/raid1/pdb_mirror/pdb/vc/pdb3vcf.ent.gz'
p451
sS'2wd8'
p452
S'/net/chevy/raid1/pdb_mirror/pdb/wd/pdb2wd8.ent.gz'
p453
sS'4atf'
p454
S'/net/chevy/raid1/pdb_mirror/pdb/at/pdb4atf.ent.gz'
p455
sS'4bl4'
p456
S'/net/chevy/raid1/pdb_mirror/pdb/bl/pdb4bl4.ent.gz'
p457
sS'3q8m'
p458
S'/net/chevy/raid1/pdb_mirror/pdb/q8/pdb3q8m.ent.gz'
p459
sS'4atv'
p460
S'/net/chevy/raid1/pdb_mirror/pdb/at/pdb4atv.ent.gz'
p461
sS'2v2g'
p462
S'/net/chevy/raid1/pdb_mirror/pdb/v2/pdb2v2g.ent.gz'
p463
sS'1qk4'
p464
S'/net/chevy/raid1/pdb_mirror/pdb/qk/pdb1qk4.ent.gz'
p465
sS'3zfg'
p466
S'/net/chevy/raid1/pdb_mirror/pdb/zf/pdb3zfg.ent.gz'
p467
sS'1aa1'
p468
S'/net/chevy/raid1/pdb_mirror/pdb/aa/pdb1aa1.ent.gz'
p469
sS'4hzl'
p470
S'/net/chevy/raid1/pdb_mirror/pdb/hz/pdb4hzl.ent.gz'
p471
sS'1leh'
p472
S'/net/chevy/raid1/pdb_mirror/pdb/le/pdb1leh.ent.gz'
p473
sS'2v8d'
p474
S'/net/chevy/raid1/pdb_mirror/pdb/v8/pdb2v8d.ent.gz'
p475
sS'2v8g'
p476
S'/net/chevy/raid1/pdb_mirror/pdb/v8/pdb2v8g.ent.gz'
p477
sS'2v8x'
p478
S'/net/chevy/raid1/pdb_mirror/pdb/v8/pdb2v8x.ent.gz'
p479
sS'2v8y'
p480
S'/net/chevy/raid1/pdb_mirror/pdb/v8/pdb2v8y.ent.gz'
p481
sS'2v8z'
p482
S'/net/chevy/raid1/pdb_mirror/pdb/v8/pdb2v8z.ent.gz'
p483
sS'3xim'
p484
S'/net/chevy/raid1/pdb_mirror/pdb/xi/pdb3xim.ent.gz'
p485
sS'2v8v'
p486
S'/net/chevy/raid1/pdb_mirror/pdb/v8/pdb2v8v.ent.gz'
p487
sS'2v8w'
p488
S'/net/chevy/raid1/pdb_mirror/pdb/v8/pdb2v8w.ent.gz'
p489
sS'1lep'
p490
S'/net/chevy/raid1/pdb_mirror/pdb/le/pdb1lep.ent.gz'
p491
sS'3zlk'
p492
S'/net/chevy/raid1/pdb_mirror/pdb/zl/pdb3zlk.ent.gz'
p493
sS'4hz2'
p494
S'/net/chevy/raid1/pdb_mirror/pdb/hz/pdb4hz2.ent.gz'
p495
sS'1cmv'
p496
S'/net/chevy/raid1/pdb_mirror/pdb/cm/pdb1cmv.ent.gz'
p497
sS'2xqy'
p498
S'/net/chevy/raid1/pdb_mirror/pdb/xq/pdb2xqy.ent.gz'
p499
sS'1cmx'
p500
S'/net/chevy/raid1/pdb_mirror/pdb/cm/pdb1cmx.ent.gz'
p501
sS'2vza'
p502
S'/net/chevy/raid1/pdb_mirror/pdb/vz/pdb2vza.ent.gz'
p503
sS'1cmi'
p504
S'/net/chevy/raid1/pdb_mirror/pdb/cm/pdb1cmi.ent.gz'
p505
sS'1gmw'
p506
S'/net/chevy/raid1/pdb_mirror/pdb/gm/pdb1gmw.ent.gz'
p507
sS'4kbp'
p508
S'/net/chevy/raid1/pdb_mirror/pdb/kb/pdb4kbp.ent.gz'
p509
sS'1gmu'
p510
S'/net/chevy/raid1/pdb_mirror/pdb/gm/pdb1gmu.ent.gz'
p511
sS'1agq'
p512
S'/net/chevy/raid1/pdb_mirror/pdb/ag/pdb1agq.ent.gz'
p513
sS'1gun'
p514
S'/net/chevy/raid1/pdb_mirror/pdb/gu/pdb1gun.ent.gz'
p515
sS'3zll'
p516
S'/net/chevy/raid1/pdb_mirror/pdb/zl/pdb3zll.ent.gz'
p517
sS'4brp'
p518
S'/net/chevy/raid1/pdb_mirror/pdb/br/pdb4brp.ent.gz'
p519
sS'2pi8'
p520
S'/net/chevy/raid1/pdb_mirror/pdb/pi/pdb2pi8.ent.gz'
p521
sS'1gme'
p522
S'/net/chevy/raid1/pdb_mirror/pdb/gm/pdb1gme.ent.gz'
p523
sS'1phs'
p524
S'/net/chevy/raid1/pdb_mirror/pdb/ph/pdb1phs.ent.gz'
p525
sS'1cqd'
p526
S'/net/chevy/raid1/pdb_mirror/pdb/cq/pdb1cqd.ent.gz'
p527
sS'1ng0'
p528
S'/net/chevy/raid1/pdb_mirror/pdb/ng/pdb1ng0.ent.gz'
p529
sS'4b52'
p530
S'/net/chevy/raid1/pdb_mirror/pdb/b5/pdb4b52.ent.gz'
p531
sS'2yq5'
p532
S'/net/chevy/raid1/pdb_mirror/pdb/yq/pdb2yq5.ent.gz'
p533
sS'1hgf'
p534
S'/net/chevy/raid1/pdb_mirror/pdb/hg/pdb1hgf.ent.gz'
p535
sS'1hgg'
p536
S'/net/chevy/raid1/pdb_mirror/pdb/hg/pdb1hgg.ent.gz'
p537
sS'1hgd'
p538
S'/net/chevy/raid1/pdb_mirror/pdb/hg/pdb1hgd.ent.gz'
p539
sS'1hge'
p540
S'/net/chevy/raid1/pdb_mirror/pdb/hg/pdb1hge.ent.gz'
p541
sS'1w7q'
p542
S'/net/chevy/raid1/pdb_mirror/pdb/w7/pdb1w7q.ent.gz'
p543
sS'4cro'
p544
S'/net/chevy/raid1/pdb_mirror/pdb/cr/pdb4cro.ent.gz'
p545
sS'1w7r'
p546
S'/net/chevy/raid1/pdb_mirror/pdb/w7/pdb1w7r.ent.gz'
p547
sS'1v02'
p548
S'/net/chevy/raid1/pdb_mirror/pdb/v0/pdb1v02.ent.gz'
p549
sS'1hgj'
p550
S'/net/chevy/raid1/pdb_mirror/pdb/hg/pdb1hgj.ent.gz'
p551
sS'4f5x'
p552
S'/net/chevy/raid1/pdb_mirror/pdb/f5/pdb4f5x.ent.gz'
p553
sS'3chx'
p554
S'/net/chevy/raid1/pdb_mirror/pdb/ch/pdb3chx.ent.gz'
p555
sS'1hgi'
p556
S'/net/chevy/raid1/pdb_mirror/pdb/hg/pdb1hgi.ent.gz'
p557
sS'4bt1'
p558
S'/net/chevy/raid1/pdb_mirror/pdb/bt/pdb4bt1.ent.gz'
p559
sS'2c10'
p560
S'/net/chevy/raid1/pdb_mirror/pdb/c1/pdb2c10.ent.gz'
p561
sS'2c11'
p562
S'/net/chevy/raid1/pdb_mirror/pdb/c1/pdb2c11.ent.gz'
p563
sS'4b5k'
p564
S'/net/chevy/raid1/pdb_mirror/pdb/b5/pdb4b5k.ent.gz'
p565
sS'1emc'
p566
S'/net/chevy/raid1/pdb_mirror/pdb/em/pdb1emc.ent.gz'
p567
sS'4b5b'
p568
S'/net/chevy/raid1/pdb_mirror/pdb/b5/pdb4b5b.ent.gz'
p569
sS'4b5g'
p570
S'/net/chevy/raid1/pdb_mirror/pdb/b5/pdb4b5g.ent.gz'
p571
sS'2xma'
p572
S'/net/chevy/raid1/pdb_mirror/pdb/xm/pdb2xma.ent.gz'
p573
sS'2xme'
p574
S'/net/chevy/raid1/pdb_mirror/pdb/xm/pdb2xme.ent.gz'
p575
sS'1qju'
p576
S'/net/chevy/raid1/pdb_mirror/pdb/qj/pdb1qju.ent.gz'
p577
sS'1srd'
p578
S'/net/chevy/raid1/pdb_mirror/pdb/sr/pdb1srd.ent.gz'
p579
sS'1qjx'
p580
S'/net/chevy/raid1/pdb_mirror/pdb/qj/pdb1qjx.ent.gz'
p581
sS'1qjy'
p582
S'/net/chevy/raid1/pdb_mirror/pdb/qj/pdb1qjy.ent.gz'
p583
sS'2xmn'
p584
S'/net/chevy/raid1/pdb_mirror/pdb/xm/pdb2xmn.ent.gz'
p585
sS'1w73'
p586
S'/net/chevy/raid1/pdb_mirror/pdb/w7/pdb1w73.ent.gz'
p587
sS'1kaw'
p588
S'/net/chevy/raid1/pdb_mirror/pdb/ka/pdb1kaw.ent.gz'
p589
sS'4ekc'
p590
S'/net/chevy/raid1/pdb_mirror/pdb/ek/pdb4ekc.ent.gz'
p591
sS'3kz4'
p592
S'/net/chevy/raid1/pdb_mirror/pdb/kz/pdb3kz4.ent.gz'
p593
sS'1hg3'
p594
S'/net/chevy/raid1/pdb_mirror/pdb/hg/pdb1hg3.ent.gz'
p595
sS'2c1w'
p596
S'/net/chevy/raid1/pdb_mirror/pdb/c1/pdb2c1w.ent.gz'
p597
sS'2j04'
p598
S'/net/chevy/raid1/pdb_mirror/pdb/j0/pdb2j04.ent.gz'
p599
sS'1urz'
p600
S'/net/chevy/raid1/pdb_mirror/pdb/ur/pdb1urz.ent.gz'
p601
sS'1v0f'
p602
S'/net/chevy/raid1/pdb_mirror/pdb/v0/pdb1v0f.ent.gz'
p603
sS'2cb2'
p604
S'/net/chevy/raid1/pdb_mirror/pdb/cb/pdb2cb2.ent.gz'
p605
sS'1tgx'
p606
S'/net/chevy/raid1/pdb_mirror/pdb/tg/pdb1tgx.ent.gz'
p607
sS'2cxe'
p608
S'/net/chevy/raid1/pdb_mirror/pdb/cx/pdb2cxe.ent.gz'
p609
sS'4aed'
p610
S'/net/chevy/raid1/pdb_mirror/pdb/ae/pdb4aed.ent.gz'
p611
sS'4aei'
p612
S'/net/chevy/raid1/pdb_mirror/pdb/ae/pdb4aei.ent.gz'
p613
sS'1bg8'
p614
S'/net/chevy/raid1/pdb_mirror/pdb/bg/pdb1bg8.ent.gz'
p615
sS'3utd'
p616
S'/net/chevy/raid1/pdb_mirror/pdb/ut/pdb3utd.ent.gz'
p617
sS'3utc'
p618
S'/net/chevy/raid1/pdb_mirror/pdb/ut/pdb3utc.ent.gz'
p619
sS'1za7'
p620
S'/net/chevy/raid1/pdb_mirror/pdb/za/pdb1za7.ent.gz'
p621
sS'2uwa'
p622
S'/net/chevy/raid1/pdb_mirror/pdb/uw/pdb2uwa.ent.gz'
p623
sS'2tmg'
p624
S'/net/chevy/raid1/pdb_mirror/pdb/tm/pdb2tmg.ent.gz'
p625
sS'1dpp'
p626
S'/net/chevy/raid1/pdb_mirror/pdb/dp/pdb1dpp.ent.gz'
p627
sS'1bu1'
p628
S'/net/chevy/raid1/pdb_mirror/pdb/bu/pdb1bu1.ent.gz'
p629
sS'4ae8'
p630
S'/net/chevy/raid1/pdb_mirror/pdb/ae/pdb4ae8.ent.gz'
p631
sS'2vqz'
p632
S'/net/chevy/raid1/pdb_mirror/pdb/vq/pdb2vqz.ent.gz'
p633
sS'2ebo'
p634
S'/net/chevy/raid1/pdb_mirror/pdb/eb/pdb2ebo.ent.gz'
p635
sS'4gvq'
p636
S'/net/chevy/raid1/pdb_mirror/pdb/gv/pdb4gvq.ent.gz'
p637
sS'6pfk'
p638
S'/net/chevy/raid1/pdb_mirror/pdb/pf/pdb6pfk.ent.gz'
p639
sS'1ecb'
p640
S'/net/chevy/raid1/pdb_mirror/pdb/ec/pdb1ecb.ent.gz'
p641
sS'1sda'
p642
S'/net/chevy/raid1/pdb_mirror/pdb/sd/pdb1sda.ent.gz'
p643
sS'1ecj'
p644
S'/net/chevy/raid1/pdb_mirror/pdb/ec/pdb1ecj.ent.gz'
p645
sS'1sdy'
p646
S'/net/chevy/raid1/pdb_mirror/pdb/sd/pdb1sdy.ent.gz'
p647
sS'1hyh'
p648
S'/net/chevy/raid1/pdb_mirror/pdb/hy/pdb1hyh.ent.gz'
p649
sS'4h1z'
p650
S'/net/chevy/raid1/pdb_mirror/pdb/h1/pdb4h1z.ent.gz'
p651
sS'2cjf'
p652
S'/net/chevy/raid1/pdb_mirror/pdb/cj/pdb2cjf.ent.gz'
p653
sS'1bgg'
p654
S'/net/chevy/raid1/pdb_mirror/pdb/bg/pdb1bgg.ent.gz'
p655
sS'1pyg'
p656
S'/net/chevy/raid1/pdb_mirror/pdb/py/pdb1pyg.ent.gz'
p657
sS'1pya'
p658
S'/net/chevy/raid1/pdb_mirror/pdb/py/pdb1pya.ent.gz'
p659
sS'3vbh'
p660
S'/net/chevy/raid1/pdb_mirror/pdb/vb/pdb3vbh.ent.gz'
p661
sS'4asj'
p662
S'/net/chevy/raid1/pdb_mirror/pdb/as/pdb4asj.ent.gz'
p663
sS'3vbo'
p664
S'/net/chevy/raid1/pdb_mirror/pdb/vb/pdb3vbo.ent.gz'
p665
sS'2wul'
p666
S'/net/chevy/raid1/pdb_mirror/pdb/wu/pdb2wul.ent.gz'
p667
sS'1vew'
p668
S'/net/chevy/raid1/pdb_mirror/pdb/ve/pdb1vew.ent.gz'
p669
sS'3vbf'
p670
S'/net/chevy/raid1/pdb_mirror/pdb/vb/pdb3vbf.ent.gz'
p671
sS'4asx'
p672
S'/net/chevy/raid1/pdb_mirror/pdb/as/pdb4asx.ent.gz'
p673
sS'4asy'
p674
S'/net/chevy/raid1/pdb_mirror/pdb/as/pdb4asy.ent.gz'
p675
sS'1gu6'
p676
S'/net/chevy/raid1/pdb_mirror/pdb/gu/pdb1gu6.ent.gz'
p677
sS'3vbs'
p678
S'/net/chevy/raid1/pdb_mirror/pdb/vb/pdb3vbs.ent.gz'
p679
sS'3vbr'
p680
S'/net/chevy/raid1/pdb_mirror/pdb/vb/pdb3vbr.ent.gz'
p681
sS'3vbu'
p682
S'/net/chevy/raid1/pdb_mirror/pdb/vb/pdb3vbu.ent.gz'
p683
sS'2uyp'
p684
S'/net/chevy/raid1/pdb_mirror/pdb/uy/pdb2uyp.ent.gz'
p685
sS'3ufj'
p686
S'/net/chevy/raid1/pdb_mirror/pdb/uf/pdb3ufj.ent.gz'
p687
sS'2uyy'
p688
S'/net/chevy/raid1/pdb_mirror/pdb/uy/pdb2uyy.ent.gz'
p689
sS'1oey'
p690
S'/net/chevy/raid1/pdb_mirror/pdb/oe/pdb1oey.ent.gz'
p691
sS'2uyl'
p692
S'/net/chevy/raid1/pdb_mirror/pdb/uy/pdb2uyl.ent.gz'
p693
sS'2yfk'
p694
S'/net/chevy/raid1/pdb_mirror/pdb/yf/pdb2yfk.ent.gz'
p695
sS'2uyn'
p696
S'/net/chevy/raid1/pdb_mirror/pdb/uy/pdb2uyn.ent.gz'
p697
sS'2uyj'
p698
S'/net/chevy/raid1/pdb_mirror/pdb/uy/pdb2uyj.ent.gz'
p699
sS'2uyk'
p700
S'/net/chevy/raid1/pdb_mirror/pdb/uy/pdb2uyk.ent.gz'
p701
sS'2vck'
p702
S'/net/chevy/raid1/pdb_mirror/pdb/vc/pdb2vck.ent.gz'
p703
sS'1gkp'
p704
S'/net/chevy/raid1/pdb_mirror/pdb/gk/pdb1gkp.ent.gz'
p705
sS'2yop'
p706
S'/net/chevy/raid1/pdb_mirror/pdb/yo/pdb2yop.ent.gz'
p707
sS'1qpr'
p708
S'/net/chevy/raid1/pdb_mirror/pdb/qp/pdb1qpr.ent.gz'
p709
sS'2wu5'
p710
S'/net/chevy/raid1/pdb_mirror/pdb/wu/pdb2wu5.ent.gz'
p711
sS'2vcy'
p712
S'/net/chevy/raid1/pdb_mirror/pdb/vc/pdb2vcy.ent.gz'
p713
sS'1seb'
p714
S'/net/chevy/raid1/pdb_mirror/pdb/se/pdb1seb.ent.gz'
p715
sS'1dcn'
p716
S'/net/chevy/raid1/pdb_mirror/pdb/dc/pdb1dcn.ent.gz'
p717
sS'2vct'
p718
S'/net/chevy/raid1/pdb_mirror/pdb/vc/pdb2vct.ent.gz'
p719
sS'2vcv'
p720
S'/net/chevy/raid1/pdb_mirror/pdb/vc/pdb2vcv.ent.gz'
p721
sS'4as5'
p722
S'/net/chevy/raid1/pdb_mirror/pdb/as/pdb4as5.ent.gz'
p723
sS'1dci'
p724
S'/net/chevy/raid1/pdb_mirror/pdb/dc/pdb1dci.ent.gz'
p725
sS'2pro'
p726
S'/net/chevy/raid1/pdb_mirror/pdb/pr/pdb2pro.ent.gz'
p727
sS'2vyc'
p728
S'/net/chevy/raid1/pdb_mirror/pdb/vy/pdb2vyc.ent.gz'
p729
sS'1cnt'
p730
S'/net/chevy/raid1/pdb_mirror/pdb/cn/pdb1cnt.ent.gz'
p731
sS'1wyk'
p732
S'/net/chevy/raid1/pdb_mirror/pdb/wy/pdb1wyk.ent.gz'
p733
sS'1cno'
p734
S'/net/chevy/raid1/pdb_mirror/pdb/cn/pdb1cno.ent.gz'
p735
sS'3n5m'
p736
S'/net/chevy/raid1/pdb_mirror/pdb/n5/pdb3n5m.ent.gz'
p737
sS'2bn2'
p738
S'/net/chevy/raid1/pdb_mirror/pdb/bn/pdb2bn2.ent.gz'
p739
sS'3rla'
p740
S'/net/chevy/raid1/pdb_mirror/pdb/rl/pdb3rla.ent.gz'
p741
sS'4eiw'
p742
S'/net/chevy/raid1/pdb_mirror/pdb/ei/pdb4eiw.ent.gz'
p743
sS'2yf2'
p744
S'/net/chevy/raid1/pdb_mirror/pdb/yf/pdb2yf2.ent.gz'
p745
sS'4kmb'
p746
S'/net/chevy/raid1/pdb_mirror/pdb/km/pdb4kmb.ent.gz'
p747
sS'1a5h'
p748
S'/net/chevy/raid1/pdb_mirror/pdb/a5/pdb1a5h.ent.gz'
p749
sS'3zzv'
p750
S'/net/chevy/raid1/pdb_mirror/pdb/zz/pdb3zzv.ent.gz'
p751
sS'3n58'
p752
S'/net/chevy/raid1/pdb_mirror/pdb/n5/pdb3n58.ent.gz'
p753
sS'3zzh'
p754
S'/net/chevy/raid1/pdb_mirror/pdb/zz/pdb3zzh.ent.gz'
p755
sS'3zzg'
p756
S'/net/chevy/raid1/pdb_mirror/pdb/zz/pdb3zzg.ent.gz'
p757
sS'3zzf'
p758
S'/net/chevy/raid1/pdb_mirror/pdb/zz/pdb3zzf.ent.gz'
p759
sS'1gn2'
p760
S'/net/chevy/raid1/pdb_mirror/pdb/gn/pdb1gn2.ent.gz'
p761
sS'1gn6'
p762
S'/net/chevy/raid1/pdb_mirror/pdb/gn/pdb1gn6.ent.gz'
p763
sS'2bnw'
p764
S'/net/chevy/raid1/pdb_mirror/pdb/bn/pdb2bnw.ent.gz'
p765
sS'4bmg'
p766
S'/net/chevy/raid1/pdb_mirror/pdb/bm/pdb4bmg.ent.gz'
p767
sS'1vb2'
p768
S'/net/chevy/raid1/pdb_mirror/pdb/vb/pdb1vb2.ent.gz'
p769
sS'4hi3'
p770
S'/net/chevy/raid1/pdb_mirror/pdb/hi/pdb4hi3.ent.gz'
p771
sS'2wku'
p772
S'/net/chevy/raid1/pdb_mirror/pdb/wk/pdb2wku.ent.gz'
p773
sS'1h0m'
p774
S'/net/chevy/raid1/pdb_mirror/pdb/h0/pdb1h0m.ent.gz'
p775
sS'2bny'
p776
S'/net/chevy/raid1/pdb_mirror/pdb/bn/pdb2bny.ent.gz'
p777
sS'4bs1'
p778
S'/net/chevy/raid1/pdb_mirror/pdb/bs/pdb4bs1.ent.gz'
p779
sS'1e5q'
p780
S'/net/chevy/raid1/pdb_mirror/pdb/e5/pdb1e5q.ent.gz'
p781
sS'1e5p'
p782
S'/net/chevy/raid1/pdb_mirror/pdb/e5/pdb1e5p.ent.gz'
p783
sS'2wkn'
p784
S'/net/chevy/raid1/pdb_mirror/pdb/wk/pdb2wkn.ent.gz'
p785
sS'2bng'
p786
S'/net/chevy/raid1/pdb_mirror/pdb/bn/pdb2bng.ent.gz'
p787
sS'2bnl'
p788
S'/net/chevy/raid1/pdb_mirror/pdb/bn/pdb2bnl.ent.gz'
p789
sS'1ux2'
p790
S'/net/chevy/raid1/pdb_mirror/pdb/ux/pdb1ux2.ent.gz'
p791
sS'4dej'
p792
S'/net/chevy/raid1/pdb_mirror/pdb/de/pdb4dej.ent.gz'
p793
sS'1qki'
p794
S'/net/chevy/raid1/pdb_mirror/pdb/qk/pdb1qki.ent.gz'
p795
sS'2w88'
p796
S'/net/chevy/raid1/pdb_mirror/pdb/w8/pdb2w88.ent.gz'
p797
sS'1ere'
p798
S'/net/chevy/raid1/pdb_mirror/pdb/er/pdb1ere.ent.gz'
p799
sS'1nfd'
p800
S'/net/chevy/raid1/pdb_mirror/pdb/nf/pdb1nfd.ent.gz'
p801
sS'2frv'
p802
S'/net/chevy/raid1/pdb_mirror/pdb/fr/pdb2frv.ent.gz'
p803
sS'1gx3'
p804
S'/net/chevy/raid1/pdb_mirror/pdb/gx/pdb1gx3.ent.gz'
p805
sS'2xbb'
p806
S'/net/chevy/raid1/pdb_mirror/pdb/xb/pdb2xbb.ent.gz'
p807
sS'1kbp'
p808
S'/net/chevy/raid1/pdb_mirror/pdb/kb/pdb1kbp.ent.gz'
p809
sS'1usl'
p810
S'/net/chevy/raid1/pdb_mirror/pdb/us/pdb1usl.ent.gz'
p811
sS'4fie'
p812
S'/net/chevy/raid1/pdb_mirror/pdb/fi/pdb4fie.ent.gz'
p813
sS'4fig'
p814
S'/net/chevy/raid1/pdb_mirror/pdb/fi/pdb4fig.ent.gz'
p815
sS'4fif'
p816
S'/net/chevy/raid1/pdb_mirror/pdb/fi/pdb4fif.ent.gz'
p817
sS'4fio'
p818
S'/net/chevy/raid1/pdb_mirror/pdb/fi/pdb4fio.ent.gz'
p819
sS'2v90'
p820
S'/net/chevy/raid1/pdb_mirror/pdb/v9/pdb2v90.ent.gz'
p821
sS'1tr1'
p822
S'/net/chevy/raid1/pdb_mirror/pdb/tr/pdb1tr1.ent.gz'
p823
sS'2xb9'
p824
S'/net/chevy/raid1/pdb_mirror/pdb/xb/pdb2xb9.ent.gz'
p825
sS'4ap0'
p826
S'/net/chevy/raid1/pdb_mirror/pdb/ap/pdb4ap0.ent.gz'
p827
sS'2xb2'
p828
S'/net/chevy/raid1/pdb_mirror/pdb/xb/pdb2xb2.ent.gz'
p829
sS'1qk3'
p830
S'/net/chevy/raid1/pdb_mirror/pdb/qk/pdb1qk3.ent.gz'
p831
sS'3kmb'
p832
S'/net/chevy/raid1/pdb_mirror/pdb/km/pdb3kmb.ent.gz'
p833
sS'1w47'
p834
S'/net/chevy/raid1/pdb_mirror/pdb/w4/pdb1w47.ent.gz'
p835
sS'1kpl'
p836
S'/net/chevy/raid1/pdb_mirror/pdb/kp/pdb1kpl.ent.gz'
p837
sS'4fi4'
p838
S'/net/chevy/raid1/pdb_mirror/pdb/fi/pdb4fi4.ent.gz'
p839
sS'1kpk'
p840
S'/net/chevy/raid1/pdb_mirror/pdb/kp/pdb1kpk.ent.gz'
p841
sS'1lde'
p842
S'/net/chevy/raid1/pdb_mirror/pdb/ld/pdb1lde.ent.gz'
p843
sS'2v9d'
p844
S'/net/chevy/raid1/pdb_mirror/pdb/v9/pdb2v9d.ent.gz'
p845
sS'1ldb'
p846
S'/net/chevy/raid1/pdb_mirror/pdb/ld/pdb1ldb.ent.gz'
p847
sS'3min'
p848
S'/net/chevy/raid1/pdb_mirror/pdb/mi/pdb3min.ent.gz'
p849
sS'1ldy'
p850
S'/net/chevy/raid1/pdb_mirror/pdb/ld/pdb1ldy.ent.gz'
p851
sS'2v9s'
p852
S'/net/chevy/raid1/pdb_mirror/pdb/v9/pdb2v9s.ent.gz'
p853
sS'2vrs'
p854
S'/net/chevy/raid1/pdb_mirror/pdb/vr/pdb2vrs.ent.gz'
p855
sS'2vrq'
p856
S'/net/chevy/raid1/pdb_mirror/pdb/vr/pdb2vrq.ent.gz'
p857
sS'1dps'
p858
S'/net/chevy/raid1/pdb_mirror/pdb/dp/pdb1dps.ent.gz'
p859
sS'1jdb'
p860
S'/net/chevy/raid1/pdb_mirror/pdb/jd/pdb1jdb.ent.gz'
p861
sS'1bdv'
p862
S'/net/chevy/raid1/pdb_mirror/pdb/bd/pdb1bdv.ent.gz'
p863
sS'2fpf'
p864
S'/net/chevy/raid1/pdb_mirror/pdb/fp/pdb2fpf.ent.gz'
p865
sS'1dpt'
p866
S'/net/chevy/raid1/pdb_mirror/pdb/dp/pdb1dpt.ent.gz'
p867
sS'1jdy'
p868
S'/net/chevy/raid1/pdb_mirror/pdb/jd/pdb1jdy.ent.gz'
p869
sS'2vra'
p870
S'/net/chevy/raid1/pdb_mirror/pdb/vr/pdb2vra.ent.gz'
p871
sS'4ts1'
p872
S'/net/chevy/raid1/pdb_mirror/pdb/ts/pdb4ts1.ent.gz'
p873
sS'2qfj'
p874
S'/net/chevy/raid1/pdb_mirror/pdb/qf/pdb2qfj.ent.gz'
p875
sS'2vrk'
p876
S'/net/chevy/raid1/pdb_mirror/pdb/vr/pdb2vrk.ent.gz'
p877
sS'1bfr'
p878
S'/net/chevy/raid1/pdb_mirror/pdb/bf/pdb1bfr.ent.gz'
p879
sS'1p1g'
p880
S'/net/chevy/raid1/pdb_mirror/pdb/p1/pdb1p1g.ent.gz'
p881
sS'4jgz'
p882
S'/net/chevy/raid1/pdb_mirror/pdb/jg/pdb4jgz.ent.gz'
p883
sS'4jgy'
p884
S'/net/chevy/raid1/pdb_mirror/pdb/jg/pdb4jgy.ent.gz'
p885
sS'1bfo'
p886
S'/net/chevy/raid1/pdb_mirror/pdb/bf/pdb1bfo.ent.gz'
p887
sS'1tup'
p888
S'/net/chevy/raid1/pdb_mirror/pdb/tu/pdb1tup.ent.gz'
p889
sS'2iwe'
p890
S'/net/chevy/raid1/pdb_mirror/pdb/iw/pdb2iwe.ent.gz'
p891
sS'1qmi'
p892
S'/net/chevy/raid1/pdb_mirror/pdb/qm/pdb1qmi.ent.gz'
p893
sS'2vr9'
p894
S'/net/chevy/raid1/pdb_mirror/pdb/vr/pdb2vr9.ent.gz'
p895
sS'1w9z'
p896
S'/net/chevy/raid1/pdb_mirror/pdb/w9/pdb1w9z.ent.gz'
p897
sS'1h5q'
p898
S'/net/chevy/raid1/pdb_mirror/pdb/h5/pdb1h5q.ent.gz'
p899
sS'1fvf'
p900
S'/net/chevy/raid1/pdb_mirror/pdb/fv/pdb1fvf.ent.gz'
p901
sS'2x7o'
p902
S'/net/chevy/raid1/pdb_mirror/pdb/x7/pdb2x7o.ent.gz'
p903
sS'2j1k'
p904
S'/net/chevy/raid1/pdb_mirror/pdb/j1/pdb2j1k.ent.gz'
p905
sS'1oih'
p906
S'/net/chevy/raid1/pdb_mirror/pdb/oi/pdb1oih.ent.gz'
p907
sS'2j1n'
p908
S'/net/chevy/raid1/pdb_mirror/pdb/j1/pdb2j1n.ent.gz'
p909
sS'3ice'
p910
S'/net/chevy/raid1/pdb_mirror/pdb/ic/pdb3ice.ent.gz'
p911
sS'1hfz'
p912
S'/net/chevy/raid1/pdb_mirror/pdb/hf/pdb1hfz.ent.gz'
p913
sS'2xlc'
p914
S'/net/chevy/raid1/pdb_mirror/pdb/xl/pdb2xlc.ent.gz'
p915
sS'3pkp'
p916
S'/net/chevy/raid1/pdb_mirror/pdb/pk/pdb3pkp.ent.gz'
p917
sS'3pkq'
p918
S'/net/chevy/raid1/pdb_mirror/pdb/pk/pdb3pkq.ent.gz'
p919
sS'1bt6'
p920
S'/net/chevy/raid1/pdb_mirror/pdb/bt/pdb1bt6.ent.gz'
p921
sS'1tf6'
p922
S'/net/chevy/raid1/pdb_mirror/pdb/tf/pdb1tf6.ent.gz'
p923
sS'2hoh'
p924
S'/net/chevy/raid1/pdb_mirror/pdb/ho/pdb2hoh.ent.gz'
p925
sS'2xll'
p926
S'/net/chevy/raid1/pdb_mirror/pdb/xl/pdb2xll.ent.gz'
p927
sS'2vdh'
p928
S'/net/chevy/raid1/pdb_mirror/pdb/vd/pdb2vdh.ent.gz'
p929
sS'2vdi'
p930
S'/net/chevy/raid1/pdb_mirror/pdb/vd/pdb2vdi.ent.gz'
p931
sS'1dbv'
p932
S'/net/chevy/raid1/pdb_mirror/pdb/db/pdb1dbv.ent.gz'
p933
sS'2uv0'
p934
S'/net/chevy/raid1/pdb_mirror/pdb/uv/pdb2uv0.ent.gz'
p935
sS'2ewy'
p936
S'/net/chevy/raid1/pdb_mirror/pdb/ew/pdb2ewy.ent.gz'
p937
sS'1pvc'
p938
S'/net/chevy/raid1/pdb_mirror/pdb/pv/pdb1pvc.ent.gz'
p939
sS'4etg'
p940
S'/net/chevy/raid1/pdb_mirror/pdb/et/pdb4etg.ent.gz'
p941
sS'2vdw'
p942
S'/net/chevy/raid1/pdb_mirror/pdb/vd/pdb2vdw.ent.gz'
p943
sS'4pgm'
p944
S'/net/chevy/raid1/pdb_mirror/pdb/pg/pdb4pgm.ent.gz'
p945
sS'2ux2'
p946
S'/net/chevy/raid1/pdb_mirror/pdb/ux/pdb2ux2.ent.gz'
p947
sS'2ux0'
p948
S'/net/chevy/raid1/pdb_mirror/pdb/ux/pdb2ux0.ent.gz'
p949
sS'4adq'
p950
S'/net/chevy/raid1/pdb_mirror/pdb/ad/pdb4adq.ent.gz'
p951
sS'2ux9'
p952
S'/net/chevy/raid1/pdb_mirror/pdb/ux/pdb2ux9.ent.gz'
p953
sS'4adf'
p954
S'/net/chevy/raid1/pdb_mirror/pdb/ad/pdb4adf.ent.gz'
p955
sS'1bto'
p956
S'/net/chevy/raid1/pdb_mirror/pdb/bt/pdb1bto.ent.gz'
p957
sS'2ybr'
p958
S'/net/chevy/raid1/pdb_mirror/pdb/yb/pdb2ybr.ent.gz'
p959
sS'2vy3'
p960
S'/net/chevy/raid1/pdb_mirror/pdb/vy/pdb2vy3.ent.gz'
p961
sS'2tbv'
p962
S'/net/chevy/raid1/pdb_mirror/pdb/tb/pdb2tbv.ent.gz'
p963
sS'3dqz'
p964
S'/net/chevy/raid1/pdb_mirror/pdb/dq/pdb3dqz.ent.gz'
p965
sS'3uun'
p966
S'/net/chevy/raid1/pdb_mirror/pdb/uu/pdb3uun.ent.gz'
p967
sS'3uum'
p968
S'/net/chevy/raid1/pdb_mirror/pdb/uu/pdb3uum.ent.gz'
p969
sS'4gh4'
p970
S'/net/chevy/raid1/pdb_mirror/pdb/gh/pdb4gh4.ent.gz'
p971
sS'2uvd'
p972
S'/net/chevy/raid1/pdb_mirror/pdb/uv/pdb2uvd.ent.gz'
p973
sS'2vd6'
p974
S'/net/chevy/raid1/pdb_mirror/pdb/vd/pdb2vd6.ent.gz'
p975
sS'1www'
p976
S'/net/chevy/raid1/pdb_mirror/pdb/ww/pdb1www.ent.gz'
p977
sS'1a2o'
p978
S'/net/chevy/raid1/pdb_mirror/pdb/a2/pdb1a2o.ent.gz'
p979
sS'1a2z'
p980
S'/net/chevy/raid1/pdb_mirror/pdb/a2/pdb1a2z.ent.gz'
p981
sS'3toi'
p982
S'/net/chevy/raid1/pdb_mirror/pdb/to/pdb3toi.ent.gz'
p983
sS'1a2p'
p984
S'/net/chevy/raid1/pdb_mirror/pdb/a2/pdb1a2p.ent.gz'
p985
sS'1a2v'
p986
S'/net/chevy/raid1/pdb_mirror/pdb/a2/pdb1a2v.ent.gz'
p987
sS'1h3b'
p988
S'/net/chevy/raid1/pdb_mirror/pdb/h3/pdb1h3b.ent.gz'
p989
sS'1h3c'
p990
S'/net/chevy/raid1/pdb_mirror/pdb/h3/pdb1h3c.ent.gz'
p991
sS'1h3a'
p992
S'/net/chevy/raid1/pdb_mirror/pdb/h3/pdb1h3a.ent.gz'
p993
sS'1h3f'
p994
S'/net/chevy/raid1/pdb_mirror/pdb/h3/pdb1h3f.ent.gz'
p995
sS'1rtd'
p996
S'/net/chevy/raid1/pdb_mirror/pdb/rt/pdb1rtd.ent.gz'
p997
sS'2wjx'
p998
S'/net/chevy/raid1/pdb_mirror/pdb/wj/pdb2wjx.ent.gz'
p999
sS'2wju'
p1000
S'/net/chevy/raid1/pdb_mirror/pdb/wj/pdb2wju.ent.gz'
p1001
sS'1rtm'
p1002
S'/net/chevy/raid1/pdb_mirror/pdb/rt/pdb1rtm.ent.gz'
p1003
sS'2bos'
p1004
S'/net/chevy/raid1/pdb_mirror/pdb/bo/pdb2bos.ent.gz'
p1005
sS'4bby'
p1006
S'/net/chevy/raid1/pdb_mirror/pdb/bb/pdb4bby.ent.gz'
p1007
sS'2yav'
p1008
S'/net/chevy/raid1/pdb_mirror/pdb/ya/pdb2yav.ent.gz'
p1009
sS'2yaw'
p1010
S'/net/chevy/raid1/pdb_mirror/pdb/ya/pdb2yaw.ent.gz'
p1011
sS'2yax'
p1012
S'/net/chevy/raid1/pdb_mirror/pdb/ya/pdb2yax.ent.gz'
p1013
sS'4ar2'
p1014
S'/net/chevy/raid1/pdb_mirror/pdb/ar/pdb4ar2.ent.gz'
p1015
sS'4gzm'
p1016
S'/net/chevy/raid1/pdb_mirror/pdb/gz/pdb4gzm.ent.gz'
p1017
sS'4gzl'
p1018
S'/net/chevy/raid1/pdb_mirror/pdb/gz/pdb4gzl.ent.gz'
p1019
sS'1a21'
p1020
S'/net/chevy/raid1/pdb_mirror/pdb/a2/pdb1a21.ent.gz'
p1021
sS'2wj8'
p1022
S'/net/chevy/raid1/pdb_mirror/pdb/wj/pdb2wj8.ent.gz'
p1023
sS'2wj7'
p1024
S'/net/chevy/raid1/pdb_mirror/pdb/wj/pdb2wj7.ent.gz'
p1025
sS'2wj6'
p1026
S'/net/chevy/raid1/pdb_mirror/pdb/wj/pdb2wj6.ent.gz'
p1027
sS'3nop'
p1028
S'/net/chevy/raid1/pdb_mirror/pdb/no/pdb3nop.ent.gz'
p1029
sS'2wj4'
p1030
S'/net/chevy/raid1/pdb_mirror/pdb/wj/pdb2wj4.ent.gz'
p1031
sS'2wj3'
p1032
S'/net/chevy/raid1/pdb_mirror/pdb/wj/pdb2wj3.ent.gz'
p1033
sS'2wtl'
p1034
S'/net/chevy/raid1/pdb_mirror/pdb/wt/pdb2wtl.ent.gz'
p1035
sS'3not'
p1036
S'/net/chevy/raid1/pdb_mirror/pdb/no/pdb3not.ent.gz'
p1037
sS'3nou'
p1038
S'/net/chevy/raid1/pdb_mirror/pdb/no/pdb3nou.ent.gz'
p1039
sS'4ary'
p1040
S'/net/chevy/raid1/pdb_mirror/pdb/ar/pdb4ary.ent.gz'
p1041
sS'1h31'
p1042
S'/net/chevy/raid1/pdb_mirror/pdb/h3/pdb1h31.ent.gz'
p1043
sS'1h36'
p1044
S'/net/chevy/raid1/pdb_mirror/pdb/h3/pdb1h36.ent.gz'
p1045
sS'1h37'
p1046
S'/net/chevy/raid1/pdb_mirror/pdb/h3/pdb1h37.ent.gz'
p1047
sS'1h35'
p1048
S'/net/chevy/raid1/pdb_mirror/pdb/h3/pdb1h35.ent.gz'
p1049
sS'4bb5'
p1050
S'/net/chevy/raid1/pdb_mirror/pdb/bb/pdb4bb5.ent.gz'
p1051
sS'1h39'
p1052
S'/net/chevy/raid1/pdb_mirror/pdb/h3/pdb1h39.ent.gz'
p1053
sS'4arw'
p1054
S'/net/chevy/raid1/pdb_mirror/pdb/ar/pdb4arw.ent.gz'
p1055
sS'1gyk'
p1056
S'/net/chevy/raid1/pdb_mirror/pdb/gy/pdb1gyk.ent.gz'
p1057
sS'3raa'
p1058
S'/net/chevy/raid1/pdb_mirror/pdb/ra/pdb3raa.ent.gz'
p1059
sS'2w3r'
p1060
S'/net/chevy/raid1/pdb_mirror/pdb/w3/pdb2w3r.ent.gz'
p1061
sS'2w3s'
p1062
S'/net/chevy/raid1/pdb_mirror/pdb/w3/pdb2w3s.ent.gz'
p1063
sS'3ran'
p1064
S'/net/chevy/raid1/pdb_mirror/pdb/ra/pdb3ran.ent.gz'
p1065
sS'2w3x'
p1066
S'/net/chevy/raid1/pdb_mirror/pdb/w3/pdb2w3x.ent.gz'
p1067
sS'1b35'
p1068
S'/net/chevy/raid1/pdb_mirror/pdb/b3/pdb1b35.ent.gz'
p1069
sS'1b37'
p1070
S'/net/chevy/raid1/pdb_mirror/pdb/b3/pdb1b37.ent.gz'
p1071
sS'1gyr'
p1072
S'/net/chevy/raid1/pdb_mirror/pdb/gy/pdb1gyr.ent.gz'
p1073
sS'1gyq'
p1074
S'/net/chevy/raid1/pdb_mirror/pdb/gy/pdb1gyq.ent.gz'
p1075
sS'1gyp'
p1076
S'/net/chevy/raid1/pdb_mirror/pdb/gy/pdb1gyp.ent.gz'
p1077
sS'1ao0'
p1078
S'/net/chevy/raid1/pdb_mirror/pdb/ao/pdb1ao0.ent.gz'
p1079
sS'2jb6'
p1080
S'/net/chevy/raid1/pdb_mirror/pdb/jb/pdb2jb6.ent.gz'
p1081
sS'1lgh'
p1082
S'/net/chevy/raid1/pdb_mirror/pdb/lg/pdb1lgh.ent.gz'
p1083
sS'1lgn'
p1084
S'/net/chevy/raid1/pdb_mirror/pdb/lg/pdb1lgn.ent.gz'
p1085
sS'1qzw'
p1086
S'/net/chevy/raid1/pdb_mirror/pdb/qz/pdb1qzw.ent.gz'
p1087
sS'3i3j'
p1088
S'/net/chevy/raid1/pdb_mirror/pdb/i3/pdb3i3j.ent.gz'
p1089
sS'1y1a'
p1090
S'/net/chevy/raid1/pdb_mirror/pdb/y1/pdb1y1a.ent.gz'
p1091
sS'1lgy'
p1092
S'/net/chevy/raid1/pdb_mirror/pdb/lg/pdb1lgy.ent.gz'
p1093
sS'3w9i'
p1094
S'/net/chevy/raid1/pdb_mirror/pdb/w9/pdb3w9i.ent.gz'
p1095
sS'1lgr'
p1096
S'/net/chevy/raid1/pdb_mirror/pdb/lg/pdb1lgr.ent.gz'
p1097
sS'2byk'
p1098
S'/net/chevy/raid1/pdb_mirror/pdb/by/pdb2byk.ent.gz'
p1099
sS'2byj'
p1100
S'/net/chevy/raid1/pdb_mirror/pdb/by/pdb2byj.ent.gz'
p1101
sS'2bym'
p1102
S'/net/chevy/raid1/pdb_mirror/pdb/by/pdb2bym.ent.gz'
p1103
sS'2byl'
p1104
S'/net/chevy/raid1/pdb_mirror/pdb/by/pdb2byl.ent.gz'
p1105
sS'1b3k'
p1106
S'/net/chevy/raid1/pdb_mirror/pdb/b3/pdb1b3k.ent.gz'
p1107
sS'3ra4'
p1108
S'/net/chevy/raid1/pdb_mirror/pdb/ra/pdb3ra4.ent.gz'
p1109
sS'1gy8'
p1110
S'/net/chevy/raid1/pdb_mirror/pdb/gy/pdb1gy8.ent.gz'
p1111
sS'1b3r'
p1112
S'/net/chevy/raid1/pdb_mirror/pdb/b3/pdb1b3r.ent.gz'
p1113
sS'1b3s'
p1114
S'/net/chevy/raid1/pdb_mirror/pdb/b3/pdb1b3s.ent.gz'
p1115
sS'2bys'
p1116
S'/net/chevy/raid1/pdb_mirror/pdb/by/pdb2bys.ent.gz'
p1117
sS'2byr'
p1118
S'/net/chevy/raid1/pdb_mirror/pdb/by/pdb2byr.ent.gz'
p1119
sS'3ra8'
p1120
S'/net/chevy/raid1/pdb_mirror/pdb/ra/pdb3ra8.ent.gz'
p1121
sS'3ra9'
p1122
S'/net/chevy/raid1/pdb_mirror/pdb/ra/pdb3ra9.ent.gz'
p1123
sS'1x33'
p1124
S'/net/chevy/raid1/pdb_mirror/pdb/x3/pdb1x33.ent.gz'
p1125
sS'1x36'
p1126
S'/net/chevy/raid1/pdb_mirror/pdb/x3/pdb1x36.ent.gz'
p1127
sS'1x35'
p1128
S'/net/chevy/raid1/pdb_mirror/pdb/x3/pdb1x35.ent.gz'
p1129
sS'1rjw'
p1130
S'/net/chevy/raid1/pdb_mirror/pdb/rj/pdb1rjw.ent.gz'
p1131
sS'250d'
p1132
S'/net/chevy/raid1/pdb_mirror/pdb/50/pdb250d.ent.gz'
p1133
sS'3ejh'
p1134
S'/net/chevy/raid1/pdb_mirror/pdb/ej/pdb3ejh.ent.gz'
p1135
sS'3dbv'
p1136
S'/net/chevy/raid1/pdb_mirror/pdb/db/pdb3dbv.ent.gz'
p1137
sS'3r9i'
p1138
S'/net/chevy/raid1/pdb_mirror/pdb/r9/pdb3r9i.ent.gz'
p1139
sS'1fui'
p1140
S'/net/chevy/raid1/pdb_mirror/pdb/fu/pdb1fui.ent.gz'
p1141
sS'1qh8'
p1142
S'/net/chevy/raid1/pdb_mirror/pdb/qh/pdb1qh8.ent.gz'
p1143
sS'3ldh'
p1144
S'/net/chevy/raid1/pdb_mirror/pdb/ld/pdb3ldh.ent.gz'
p1145
sS'1qh1'
p1146
S'/net/chevy/raid1/pdb_mirror/pdb/qh/pdb1qh1.ent.gz'
p1147
sS'1ca7'
p1148
S'/net/chevy/raid1/pdb_mirror/pdb/ca/pdb1ca7.ent.gz'
p1149
sS'2v0o'
p1150
S'/net/chevy/raid1/pdb_mirror/pdb/v0/pdb2v0o.ent.gz'
p1151
sS'1hig'
p1152
S'/net/chevy/raid1/pdb_mirror/pdb/hi/pdb1hig.ent.gz'
p1153
sS'1hia'
p1154
S'/net/chevy/raid1/pdb_mirror/pdb/hi/pdb1hia.ent.gz'
p1155
sS'2j2f'
p1156
S'/net/chevy/raid1/pdb_mirror/pdb/j2/pdb2j2f.ent.gz'
p1157
sS'2i99'
p1158
S'/net/chevy/raid1/pdb_mirror/pdb/i9/pdb2i99.ent.gz'
p1159
sS'1juj'
p1160
S'/net/chevy/raid1/pdb_mirror/pdb/ju/pdb1juj.ent.gz'
p1161
sS'1up7'
p1162
S'/net/chevy/raid1/pdb_mirror/pdb/up/pdb1up7.ent.gz'
p1163
sS'1up4'
p1164
S'/net/chevy/raid1/pdb_mirror/pdb/up/pdb1up4.ent.gz'
p1165
sS'1up8'
p1166
S'/net/chevy/raid1/pdb_mirror/pdb/up/pdb1up8.ent.gz'
p1167
sS'2j2j'
p1168
S'/net/chevy/raid1/pdb_mirror/pdb/j2/pdb2j2j.ent.gz'
p1169
sS'3ide'
p1170
S'/net/chevy/raid1/pdb_mirror/pdb/id/pdb3ide.ent.gz'
p1171
sS'4dfd'
p1172
S'/net/chevy/raid1/pdb_mirror/pdb/df/pdb4dfd.ent.gz'
p1173
sS'2x45'
p1174
S'/net/chevy/raid1/pdb_mirror/pdb/x4/pdb2x45.ent.gz'
p1175
sS'1qhb'
p1176
S'/net/chevy/raid1/pdb_mirror/pdb/qh/pdb1qhb.ent.gz'
p1177
sS'4jvu'
p1178
S'/net/chevy/raid1/pdb_mirror/pdb/jv/pdb4jvu.ent.gz'
p1179
sS'4jvw'
p1180
S'/net/chevy/raid1/pdb_mirror/pdb/jv/pdb4jvw.ent.gz'
p1181
sS'1nec'
p1182
S'/net/chevy/raid1/pdb_mirror/pdb/ne/pdb1nec.ent.gz'
p1183
sS'2xcm'
p1184
S'/net/chevy/raid1/pdb_mirror/pdb/xc/pdb2xcm.ent.gz'
p1185
sS'1stm'
p1186
S'/net/chevy/raid1/pdb_mirror/pdb/st/pdb1stm.ent.gz'
p1187
sS'1uyj'
p1188
S'/net/chevy/raid1/pdb_mirror/pdb/uy/pdb1uyj.ent.gz'
p1189
sS'1upb'
p1190
S'/net/chevy/raid1/pdb_mirror/pdb/up/pdb1upb.ent.gz'
p1191
sS'1upc'
p1192
S'/net/chevy/raid1/pdb_mirror/pdb/up/pdb1upc.ent.gz'
p1193
sS'1upa'
p1194
S'/net/chevy/raid1/pdb_mirror/pdb/up/pdb1upa.ent.gz'
p1195
sS'3zjk'
p1196
S'/net/chevy/raid1/pdb_mirror/pdb/zj/pdb3zjk.ent.gz'
p1197
sS'1uyw'
p1198
S'/net/chevy/raid1/pdb_mirror/pdb/uy/pdb1uyw.ent.gz'
p1199
sS'3cf2'
p1200
S'/net/chevy/raid1/pdb_mirror/pdb/cf/pdb3cf2.ent.gz'
p1201
sS'1upm'
p1202
S'/net/chevy/raid1/pdb_mirror/pdb/up/pdb1upm.ent.gz'
p1203
sS'1upp'
p1204
S'/net/chevy/raid1/pdb_mirror/pdb/up/pdb1upp.ent.gz'
p1205
sS'2v5h'
p1206
S'/net/chevy/raid1/pdb_mirror/pdb/v5/pdb2v5h.ent.gz'
p1207
sS'1hi9'
p1208
S'/net/chevy/raid1/pdb_mirror/pdb/hi/pdb1hi9.ent.gz'
p1209
sS'1upt'
p1210
S'/net/chevy/raid1/pdb_mirror/pdb/up/pdb1upt.ent.gz'
p1211
sS'1hi0'
p1212
S'/net/chevy/raid1/pdb_mirror/pdb/hi/pdb1hi0.ent.gz'
p1213
sS'1hi1'
p1214
S'/net/chevy/raid1/pdb_mirror/pdb/hi/pdb1hi1.ent.gz'
p1215
sS'4iem'
p1216
S'/net/chevy/raid1/pdb_mirror/pdb/ie/pdb4iem.ent.gz'
p1217
sS'4acp'
p1218
S'/net/chevy/raid1/pdb_mirror/pdb/ac/pdb4acp.ent.gz'
p1219
sS'4acq'
p1220
S'/net/chevy/raid1/pdb_mirror/pdb/ac/pdb4acq.ent.gz'
p1221
sS'4acr'
p1222
S'/net/chevy/raid1/pdb_mirror/pdb/ac/pdb4acr.ent.gz'
p1223
sS'4acs'
p1224
S'/net/chevy/raid1/pdb_mirror/pdb/ac/pdb4acs.ent.gz'
p1225
sS'1tah'
p1226
S'/net/chevy/raid1/pdb_mirror/pdb/ta/pdb1tah.ent.gz'
p1227
sS'2ch5'
p1228
S'/net/chevy/raid1/pdb_mirror/pdb/ch/pdb2ch5.ent.gz'
p1229
sS'2ch6'
p1230
S'/net/chevy/raid1/pdb_mirror/pdb/ch/pdb2ch6.ent.gz'
p1231
sS'1tad'
p1232
S'/net/chevy/raid1/pdb_mirror/pdb/ta/pdb1tad.ent.gz'
p1233
sS'1r2j'
p1234
S'/net/chevy/raid1/pdb_mirror/pdb/r2/pdb1r2j.ent.gz'
p1235
sS'4acf'
p1236
S'/net/chevy/raid1/pdb_mirror/pdb/ac/pdb4acf.ent.gz'
p1237
sS'3dpr'
p1238
S'/net/chevy/raid1/pdb_mirror/pdb/dp/pdb3dpr.ent.gz'
p1239
sS'3ode'
p1240
S'/net/chevy/raid1/pdb_mirror/pdb/od/pdb3ode.ent.gz'
p1241
sS'4b98'
p1242
S'/net/chevy/raid1/pdb_mirror/pdb/b9/pdb4b98.ent.gz'
p1243
sS'3oda'
p1244
S'/net/chevy/raid1/pdb_mirror/pdb/od/pdb3oda.ent.gz'
p1245
sS'4ac8'
p1246
S'/net/chevy/raid1/pdb_mirror/pdb/ac/pdb4ac8.ent.gz'
p1247
sS'3zpr'
p1248
S'/net/chevy/raid1/pdb_mirror/pdb/zp/pdb3zpr.ent.gz'
p1249
sS'2ivg'
p1250
S'/net/chevy/raid1/pdb_mirror/pdb/iv/pdb2ivg.ent.gz'
p1251
sS'2chb'
p1252
S'/net/chevy/raid1/pdb_mirror/pdb/ch/pdb2chb.ent.gz'
p1253
sS'2ivb'
p1254
S'/net/chevy/raid1/pdb_mirror/pdb/iv/pdb2ivb.ent.gz'
p1255
sS'1bev'
p1256
S'/net/chevy/raid1/pdb_mirror/pdb/be/pdb1bev.ent.gz'
p1257
sS'2chp'
p1258
S'/net/chevy/raid1/pdb_mirror/pdb/ch/pdb2chp.ent.gz'
p1259
sS'2ivq'
p1260
S'/net/chevy/raid1/pdb_mirror/pdb/iv/pdb2ivq.ent.gz'
p1261
sS'2vsk'
p1262
S'/net/chevy/raid1/pdb_mirror/pdb/vs/pdb2vsk.ent.gz'
p1263
sS'2g33'
p1264
S'/net/chevy/raid1/pdb_mirror/pdb/g3/pdb2g33.ent.gz'
p1265
sS'2y9x'
p1266
S'/net/chevy/raid1/pdb_mirror/pdb/y9/pdb2y9x.ent.gz'
p1267
sS'1nsi'
p1268
S'/net/chevy/raid1/pdb_mirror/pdb/ns/pdb1nsi.ent.gz'
p1269
sS'1nsk'
p1270
S'/net/chevy/raid1/pdb_mirror/pdb/ns/pdb1nsk.ent.gz'
p1271
sS'3uv6'
p1272
S'/net/chevy/raid1/pdb_mirror/pdb/uv/pdb3uv6.ent.gz'
p1273
sS'3uv7'
p1274
S'/net/chevy/raid1/pdb_mirror/pdb/uv/pdb3uv7.ent.gz'
p1275
sS'1qfl'
p1276
S'/net/chevy/raid1/pdb_mirror/pdb/qf/pdb1qfl.ent.gz'
p1277
sS'1qfo'
p1278
S'/net/chevy/raid1/pdb_mirror/pdb/qf/pdb1qfo.ent.gz'
p1279
sS'1qfh'
p1280
S'/net/chevy/raid1/pdb_mirror/pdb/qf/pdb1qfh.ent.gz'
p1281
sS'3unh'
p1282
S'/net/chevy/raid1/pdb_mirror/pdb/un/pdb3unh.ent.gz'
p1283
sS'3od8'
p1284
S'/net/chevy/raid1/pdb_mirror/pdb/od/pdb3od8.ent.gz'
p1285
sS'4b9b'
p1286
S'/net/chevy/raid1/pdb_mirror/pdb/b9/pdb4b9b.ent.gz'
p1287
sS'2y9a'
p1288
S'/net/chevy/raid1/pdb_mirror/pdb/y9/pdb2y9a.ent.gz'
p1289
sS'4b9w'
p1290
S'/net/chevy/raid1/pdb_mirror/pdb/b9/pdb4b9w.ent.gz'
p1291
sS'1eav'
p1292
S'/net/chevy/raid1/pdb_mirror/pdb/ea/pdb1eav.ent.gz'
p1293
sS'4b9q'
p1294
S'/net/chevy/raid1/pdb_mirror/pdb/b9/pdb4b9q.ent.gz'
p1295
sS'1vcb'
p1296
S'/net/chevy/raid1/pdb_mirror/pdb/vc/pdb1vcb.ent.gz'
p1297
sS'1vcp'
p1298
S'/net/chevy/raid1/pdb_mirror/pdb/vc/pdb1vcp.ent.gz'
p1299
sS'1vcr'
p1300
S'/net/chevy/raid1/pdb_mirror/pdb/vc/pdb1vcr.ent.gz'
p1301
sS'4eya'
p1302
S'/net/chevy/raid1/pdb_mirror/pdb/ey/pdb4eya.ent.gz'
p1303
sS'2gtl'
p1304
S'/net/chevy/raid1/pdb_mirror/pdb/gt/pdb2gtl.ent.gz'
p1305
sS'4aqp'
p1306
S'/net/chevy/raid1/pdb_mirror/pdb/aq/pdb4aqp.ent.gz'
p1307
sS'4aqq'
p1308
S'/net/chevy/raid1/pdb_mirror/pdb/aq/pdb4aqq.ent.gz'
p1309
sS'4aqf'
p1310
S'/net/chevy/raid1/pdb_mirror/pdb/aq/pdb4aqf.ent.gz'
p1311
sS'4iss'
p1312
S'/net/chevy/raid1/pdb_mirror/pdb/is/pdb4iss.ent.gz'
p1313
sS'4ist'
p1314
S'/net/chevy/raid1/pdb_mirror/pdb/is/pdb4ist.ent.gz'
p1315
sS'2vkz'
p1316
S'/net/chevy/raid1/pdb_mirror/pdb/vk/pdb2vkz.ent.gz'
p1317
sS'2ve7'
p1318
S'/net/chevy/raid1/pdb_mirror/pdb/ve/pdb2ve7.ent.gz'
p1319
sS'2scu'
p1320
S'/net/chevy/raid1/pdb_mirror/pdb/sc/pdb2scu.ent.gz'
p1321
sS'2br7'
p1322
S'/net/chevy/raid1/pdb_mirror/pdb/br/pdb2br7.ent.gz'
p1323
sS'1ts2'
p1324
S'/net/chevy/raid1/pdb_mirror/pdb/ts/pdb1ts2.ent.gz'
p1325
sS'4aq3'
p1326
S'/net/chevy/raid1/pdb_mirror/pdb/aq/pdb4aq3.ent.gz'
p1327
sS'1vub'
p1328
S'/net/chevy/raid1/pdb_mirror/pdb/vu/pdb1vub.ent.gz'
p1329
sS'4gka'
p1330
S'/net/chevy/raid1/pdb_mirror/pdb/gk/pdb4gka.ent.gz'
p1331
sS'2vee'
p1332
S'/net/chevy/raid1/pdb_mirror/pdb/ve/pdb2vee.ent.gz'
p1333
sS'2wuk'
p1334
S'/net/chevy/raid1/pdb_mirror/pdb/wu/pdb2wuk.ent.gz'
p1335
sS'2gfb'
p1336
S'/net/chevy/raid1/pdb_mirror/pdb/gf/pdb2gfb.ent.gz'
p1337
sS'3v5i'
p1338
S'/net/chevy/raid1/pdb_mirror/pdb/v5/pdb3v5i.ent.gz'
p1339
sS'3tn9'
p1340
S'/net/chevy/raid1/pdb_mirror/pdb/tn/pdb3tn9.ent.gz'
p1341
sS'4bqb'
p1342
S'/net/chevy/raid1/pdb_mirror/pdb/bq/pdb4bqb.ent.gz'
p1343
sS'3v5e'
p1344
S'/net/chevy/raid1/pdb_mirror/pdb/v5/pdb3v5e.ent.gz'
p1345
sS'1b2m'
p1346
S'/net/chevy/raid1/pdb_mirror/pdb/b2/pdb1b2m.ent.gz'
p1347
sS'4hkj'
p1348
S'/net/chevy/raid1/pdb_mirror/pdb/hk/pdb4hkj.ent.gz'
p1349
sS'1b2u'
p1350
S'/net/chevy/raid1/pdb_mirror/pdb/b2/pdb1b2u.ent.gz'
p1351
sS'1a38'
p1352
S'/net/chevy/raid1/pdb_mirror/pdb/a3/pdb1a38.ent.gz'
p1353
sS'1b2s'
p1354
S'/net/chevy/raid1/pdb_mirror/pdb/b2/pdb1b2s.ent.gz'
p1355
sS'4bqs'
p1356
S'/net/chevy/raid1/pdb_mirror/pdb/bq/pdb4bqs.ent.gz'
p1357
sS'1a37'
p1358
S'/net/chevy/raid1/pdb_mirror/pdb/a3/pdb1a37.ent.gz'
p1359
sS'1b2z'
p1360
S'/net/chevy/raid1/pdb_mirror/pdb/b2/pdb1b2z.ent.gz'
p1361
sS'1a34'
p1362
S'/net/chevy/raid1/pdb_mirror/pdb/a3/pdb1a34.ent.gz'
p1363
sS'2bh1'
p1364
S'/net/chevy/raid1/pdb_mirror/pdb/bh/pdb2bh1.ent.gz'
p1365
sS'4eoy'
p1366
S'/net/chevy/raid1/pdb_mirror/pdb/eo/pdb4eoy.ent.gz'
p1367
sS'1h28'
p1368
S'/net/chevy/raid1/pdb_mirror/pdb/h2/pdb1h28.ent.gz'
p1369
sS'4bc9'
p1370
S'/net/chevy/raid1/pdb_mirror/pdb/bc/pdb4bc9.ent.gz'
p1371
sS'1ml1'
p1372
S'/net/chevy/raid1/pdb_mirror/pdb/ml/pdb1ml1.ent.gz'
p1373
sS'1h25'
p1374
S'/net/chevy/raid1/pdb_mirror/pdb/h2/pdb1h25.ent.gz'
p1375
sS'1h24'
p1376
S'/net/chevy/raid1/pdb_mirror/pdb/h2/pdb1h24.ent.gz'
p1377
sS'1h27'
p1378
S'/net/chevy/raid1/pdb_mirror/pdb/h2/pdb1h27.ent.gz'
p1379
sS'1h26'
p1380
S'/net/chevy/raid1/pdb_mirror/pdb/h2/pdb1h26.ent.gz'
p1381
sS'1h21'
p1382
S'/net/chevy/raid1/pdb_mirror/pdb/h2/pdb1h21.ent.gz'
p1383
sS'1a3a'
p1384
S'/net/chevy/raid1/pdb_mirror/pdb/a3/pdb1a3a.ent.gz'
p1385
sS'1a3f'
p1386
S'/net/chevy/raid1/pdb_mirror/pdb/a3/pdb1a3f.ent.gz'
p1387
sS'1b27'
p1388
S'/net/chevy/raid1/pdb_mirror/pdb/b2/pdb1b27.ent.gz'
p1389
sS'1b26'
p1390
S'/net/chevy/raid1/pdb_mirror/pdb/b2/pdb1b26.ent.gz'
p1391
sS'1b25'
p1392
S'/net/chevy/raid1/pdb_mirror/pdb/b2/pdb1b25.ent.gz'
p1393
sS'4bq6'
p1394
S'/net/chevy/raid1/pdb_mirror/pdb/bq/pdb4bq6.ent.gz'
p1395
sS'4bq0'
p1396
S'/net/chevy/raid1/pdb_mirror/pdb/bq/pdb4bq0.ent.gz'
p1397
sS'1b21'
p1398
S'/net/chevy/raid1/pdb_mirror/pdb/b2/pdb1b21.ent.gz'
p1399
sS'1b20'
p1400
S'/net/chevy/raid1/pdb_mirror/pdb/b2/pdb1b20.ent.gz'
p1401
sS'1a3q'
p1402
S'/net/chevy/raid1/pdb_mirror/pdb/a3/pdb1a3q.ent.gz'
p1403
sS'1umy'
p1404
S'/net/chevy/raid1/pdb_mirror/pdb/um/pdb1umy.ent.gz'
p1405
sS'2r1r'
p1406
S'/net/chevy/raid1/pdb_mirror/pdb/r1/pdb2r1r.ent.gz'
p1407
sS'3uul'
p1408
S'/net/chevy/raid1/pdb_mirror/pdb/uu/pdb3uul.ent.gz'
p1409
sS'1ohv'
p1410
S'/net/chevy/raid1/pdb_mirror/pdb/oh/pdb1ohv.ent.gz'
p1411
sS'1ohw'
p1412
S'/net/chevy/raid1/pdb_mirror/pdb/oh/pdb1ohw.ent.gz'
p1413
sS'1ohy'
p1414
S'/net/chevy/raid1/pdb_mirror/pdb/oh/pdb1ohy.ent.gz'
p1415
sS'4bce'
p1416
S'/net/chevy/raid1/pdb_mirror/pdb/bc/pdb4bce.ent.gz'
p1417
sS'2bhs'
p1418
S'/net/chevy/raid1/pdb_mirror/pdb/bh/pdb2bhs.ent.gz'
p1419
sS'2hrp'
p1420
S'/net/chevy/raid1/pdb_mirror/pdb/hr/pdb2hrp.ent.gz'
p1421
sS'2wiw'
p1422
S'/net/chevy/raid1/pdb_mirror/pdb/wi/pdb2wiw.ent.gz'
p1423
sS'2bhw'
p1424
S'/net/chevy/raid1/pdb_mirror/pdb/bh/pdb2bhw.ent.gz'
p1425
sS'2bhn'
p1426
S'/net/chevy/raid1/pdb_mirror/pdb/bh/pdb2bhn.ent.gz'
p1427
sS'1ohg'
p1428
S'/net/chevy/raid1/pdb_mirror/pdb/oh/pdb1ohg.ent.gz'
p1429
sS'4bcu'
p1430
S'/net/chevy/raid1/pdb_mirror/pdb/bc/pdb4bcu.ent.gz'
p1431
sS'1gz5'
p1432
S'/net/chevy/raid1/pdb_mirror/pdb/gz/pdb1gz5.ent.gz'
p1433
sS'3kk6'
p1434
S'/net/chevy/raid1/pdb_mirror/pdb/kk/pdb3kk6.ent.gz'
p1435
sS'1nds'
p1436
S'/net/chevy/raid1/pdb_mirror/pdb/nd/pdb1nds.ent.gz'
p1437
sS'1ndr'
p1438
S'/net/chevy/raid1/pdb_mirror/pdb/nd/pdb1ndr.ent.gz'
p1439
sS'1ndl'
p1440
S'/net/chevy/raid1/pdb_mirror/pdb/nd/pdb1ndl.ent.gz'
p1441
sS'1ndo'
p1442
S'/net/chevy/raid1/pdb_mirror/pdb/nd/pdb1ndo.ent.gz'
p1443
sS'1zba'
p1444
S'/net/chevy/raid1/pdb_mirror/pdb/zb/pdb1zba.ent.gz'
p1445
sS'1qip'
p1446
S'/net/chevy/raid1/pdb_mirror/pdb/qi/pdb1qip.ent.gz'
p1447
sS'1azd'
p1448
S'/net/chevy/raid1/pdb_mirror/pdb/az/pdb1azd.ent.gz'
p1449
sS'1cbu'
p1450
S'/net/chevy/raid1/pdb_mirror/pdb/cb/pdb1cbu.ent.gz'
p1451
sS'3fct'
p1452
S'/net/chevy/raid1/pdb_mirror/pdb/fc/pdb3fct.ent.gz'
p1453
sS'2w2u'
p1454
S'/net/chevy/raid1/pdb_mirror/pdb/w2/pdb2w2u.ent.gz'
p1455
sS'1gzu'
p1456
S'/net/chevy/raid1/pdb_mirror/pdb/gz/pdb1gzu.ent.gz'
p1457
sS'2xrf'
p1458
S'/net/chevy/raid1/pdb_mirror/pdb/xr/pdb2xrf.ent.gz'
p1459
sS'2xrc'
p1460
S'/net/chevy/raid1/pdb_mirror/pdb/xr/pdb2xrc.ent.gz'
p1461
sS'1lp3'
p1462
S'/net/chevy/raid1/pdb_mirror/pdb/lp/pdb1lp3.ent.gz'
p1463
sS'2w2c'
p1464
S'/net/chevy/raid1/pdb_mirror/pdb/w2/pdb2w2c.ent.gz'
p1465
sS'2y7k'
p1466
S'/net/chevy/raid1/pdb_mirror/pdb/y7/pdb2y7k.ent.gz'
p1467
sS'1qi1'
p1468
S'/net/chevy/raid1/pdb_mirror/pdb/qi/pdb1qi1.ent.gz'
p1469
sS'1gzm'
p1470
S'/net/chevy/raid1/pdb_mirror/pdb/gz/pdb1gzm.ent.gz'
p1471
sS'2ckb'
p1472
S'/net/chevy/raid1/pdb_mirror/pdb/ck/pdb2ckb.ent.gz'
p1473
sS'1gzh'
p1474
S'/net/chevy/raid1/pdb_mirror/pdb/gz/pdb1gzh.ent.gz'
p1475
sS'1qi6'
p1476
S'/net/chevy/raid1/pdb_mirror/pdb/qi/pdb1qi6.ent.gz'
p1477
sS'3znu'
p1478
S'/net/chevy/raid1/pdb_mirror/pdb/zn/pdb3znu.ent.gz'
p1479
sS'1cb5'
p1480
S'/net/chevy/raid1/pdb_mirror/pdb/cb/pdb1cb5.ent.gz'
p1481
sS'1lfd'
p1482
S'/net/chevy/raid1/pdb_mirror/pdb/lf/pdb1lfd.ent.gz'
p1483
sS'1bda'
p1484
S'/net/chevy/raid1/pdb_mirror/pdb/bd/pdb1bda.ent.gz'
p1485
sS'1bdt'
p1486
S'/net/chevy/raid1/pdb_mirror/pdb/bd/pdb1bdt.ent.gz'
p1487
sS'3p0s'
p1488
S'/net/chevy/raid1/pdb_mirror/pdb/p0/pdb3p0s.ent.gz'
p1489
sS'4a99'
p1490
S'/net/chevy/raid1/pdb_mirror/pdb/a9/pdb4a99.ent.gz'
p1491
sS'1bdx'
p1492
S'/net/chevy/raid1/pdb_mirror/pdb/bd/pdb1bdx.ent.gz'
p1493
sS'2vtb'
p1494
S'/net/chevy/raid1/pdb_mirror/pdb/vt/pdb2vtb.ent.gz'
p1495
sS'1fta'
p1496
S'/net/chevy/raid1/pdb_mirror/pdb/ft/pdb1fta.ent.gz'
p1497
sS'1qgn'
p1498
S'/net/chevy/raid1/pdb_mirror/pdb/qg/pdb1qgn.ent.gz'
p1499
sS'2rdv'
p1500
S'/net/chevy/raid1/pdb_mirror/pdb/rd/pdb2rdv.ent.gz'
p1501
sS'1qgh'
p1502
S'/net/chevy/raid1/pdb_mirror/pdb/qg/pdb1qgh.ent.gz'
p1503
sS'3ky9'
p1504
S'/net/chevy/raid1/pdb_mirror/pdb/ky/pdb3ky9.ent.gz'
p1505
sS'6r1r'
p1506
S'/net/chevy/raid1/pdb_mirror/pdb/r1/pdb6r1r.ent.gz'
p1507
sS'1qgu'
p1508
S'/net/chevy/raid1/pdb_mirror/pdb/qg/pdb1qgu.ent.gz'
p1509
sS'1qgt'
p1510
S'/net/chevy/raid1/pdb_mirror/pdb/qg/pdb1qgt.ent.gz'
p1511
sS'3dar'
p1512
S'/net/chevy/raid1/pdb_mirror/pdb/da/pdb3dar.ent.gz'
p1513
sS'3dap'
p1514
S'/net/chevy/raid1/pdb_mirror/pdb/da/pdb3dap.ent.gz'
p1515
sS'1ftr'
p1516
S'/net/chevy/raid1/pdb_mirror/pdb/ft/pdb1ftr.ent.gz'
p1517
sS'5cro'
p1518
S'/net/chevy/raid1/pdb_mirror/pdb/cr/pdb5cro.ent.gz'
p1519
sS'1hh3'
p1520
S'/net/chevy/raid1/pdb_mirror/pdb/hh/pdb1hh3.ent.gz'
p1521
sS'2e0z'
p1522
S'/net/chevy/raid1/pdb_mirror/pdb/e0/pdb2e0z.ent.gz'
p1523
sS'4i6s'
p1524
S'/net/chevy/raid1/pdb_mirror/pdb/i6/pdb4i6s.ent.gz'
p1525
sS'2x5i'
p1526
S'/net/chevy/raid1/pdb_mirror/pdb/x5/pdb2x5i.ent.gz'
p1527
sS'2x5k'
p1528
S'/net/chevy/raid1/pdb_mirror/pdb/x5/pdb2x5k.ent.gz'
p1529
sS'2x5j'
p1530
S'/net/chevy/raid1/pdb_mirror/pdb/x5/pdb2x5j.ent.gz'
p1531
sS'2cg8'
p1532
S'/net/chevy/raid1/pdb_mirror/pdb/cg/pdb2cg8.ent.gz'
p1533
sS'4a9w'
p1534
S'/net/chevy/raid1/pdb_mirror/pdb/a9/pdb4a9w.ent.gz'
p1535
sS'3es5'
p1536
S'/net/chevy/raid1/pdb_mirror/pdb/es/pdb3es5.ent.gz'
p1537
sS'2wjz'
p1538
S'/net/chevy/raid1/pdb_mirror/pdb/wj/pdb2wjz.ent.gz'
p1539
sS'4fqb'
p1540
S'/net/chevy/raid1/pdb_mirror/pdb/fq/pdb4fqb.ent.gz'
p1541
sS'2a8v'
p1542
S'/net/chevy/raid1/pdb_mirror/pdb/a8/pdb2a8v.ent.gz'
p1543
sS'2xd0'
p1544
S'/net/chevy/raid1/pdb_mirror/pdb/xd/pdb2xd0.ent.gz'
p1545
sS'1hhf'
p1546
S'/net/chevy/raid1/pdb_mirror/pdb/hh/pdb1hhf.ent.gz'
p1547
sS'1w2t'
p1548
S'/net/chevy/raid1/pdb_mirror/pdb/w2/pdb1w2t.ent.gz'
p1549
sS'2j3z'
p1550
S'/net/chevy/raid1/pdb_mirror/pdb/j3/pdb2j3z.ent.gz'
p1551
sS'1hhc'
p1552
S'/net/chevy/raid1/pdb_mirror/pdb/hh/pdb1hhc.ent.gz'
p1553
sS'1hha'
p1554
S'/net/chevy/raid1/pdb_mirror/pdb/hh/pdb1hha.ent.gz'
p1555
sS'2y84'
p1556
S'/net/chevy/raid1/pdb_mirror/pdb/y8/pdb2y84.ent.gz'
p1557
sS'1hhz'
p1558
S'/net/chevy/raid1/pdb_mirror/pdb/hh/pdb1hhz.ent.gz'
p1559
sS'1p32'
p1560
S'/net/chevy/raid1/pdb_mirror/pdb/p3/pdb1p32.ent.gz'
p1561
sS'1hhu'
p1562
S'/net/chevy/raid1/pdb_mirror/pdb/hh/pdb1hhu.ent.gz'
p1563
sS'1hht'
p1564
S'/net/chevy/raid1/pdb_mirror/pdb/hh/pdb1hht.ent.gz'
p1565
sS'1hhs'
p1566
S'/net/chevy/raid1/pdb_mirror/pdb/hh/pdb1hhs.ent.gz'
p1567
sS'2uzy'
p1568
S'/net/chevy/raid1/pdb_mirror/pdb/uz/pdb2uzy.ent.gz'
p1569
sS'2uzx'
p1570
S'/net/chevy/raid1/pdb_mirror/pdb/uz/pdb2uzx.ent.gz'
p1571
sS'2uzz'
p1572
S'/net/chevy/raid1/pdb_mirror/pdb/uz/pdb2uzz.ent.gz'
p1573
sS'1bz5'
p1574
S'/net/chevy/raid1/pdb_mirror/pdb/bz/pdb1bz5.ent.gz'
p1575
sS'4ab7'
p1576
S'/net/chevy/raid1/pdb_mirror/pdb/ab/pdb4ab7.ent.gz'
p1577
sS'2uzp'
p1578
S'/net/chevy/raid1/pdb_mirror/pdb/uz/pdb2uzp.ent.gz'
p1579
sS'1bz1'
p1580
S'/net/chevy/raid1/pdb_mirror/pdb/bz/pdb1bz1.ent.gz'
p1581
sS'1bz0'
p1582
S'/net/chevy/raid1/pdb_mirror/pdb/bz/pdb1bz0.ent.gz'
p1583
sS'2uzh'
p1584
S'/net/chevy/raid1/pdb_mirror/pdb/uz/pdb2uzh.ent.gz'
p1585
sS'1ap2'
p1586
S'/net/chevy/raid1/pdb_mirror/pdb/ap/pdb1ap2.ent.gz'
p1587
sS'2uzc'
p1588
S'/net/chevy/raid1/pdb_mirror/pdb/uz/pdb2uzc.ent.gz'
p1589
sS'2vfg'
p1590
S'/net/chevy/raid1/pdb_mirror/pdb/vf/pdb2vfg.ent.gz'
p1591
sS'4a72'
p1592
S'/net/chevy/raid1/pdb_mirror/pdb/a7/pdb4a72.ent.gz'
p1593
sS'1dla'
p1594
S'/net/chevy/raid1/pdb_mirror/pdb/dl/pdb1dla.ent.gz'
p1595
sS'1r1r'
p1596
S'/net/chevy/raid1/pdb_mirror/pdb/r1/pdb1r1r.ent.gz'
p1597
sS'4aby'
p1598
S'/net/chevy/raid1/pdb_mirror/pdb/ab/pdb4aby.ent.gz'
p1599
sS'1bzz'
p1600
S'/net/chevy/raid1/pdb_mirror/pdb/bz/pdb1bzz.ent.gz'
p1601
sS'1bzy'
p1602
S'/net/chevy/raid1/pdb_mirror/pdb/bz/pdb1bzy.ent.gz'
p1603
sS'1bzw'
p1604
S'/net/chevy/raid1/pdb_mirror/pdb/bz/pdb1bzw.ent.gz'
p1605
sS'1bzq'
p1606
S'/net/chevy/raid1/pdb_mirror/pdb/bz/pdb1bzq.ent.gz'
p1607
sS'3hip'
p1608
S'/net/chevy/raid1/pdb_mirror/pdb/hi/pdb3hip.ent.gz'
p1609
sS'4g7w'
p1610
S'/net/chevy/raid1/pdb_mirror/pdb/g7/pdb4g7w.ent.gz'
p1611
sS'2min'
p1612
S'/net/chevy/raid1/pdb_mirror/pdb/mi/pdb2min.ent.gz'
p1613
sS'2vf1'
p1614
S'/net/chevy/raid1/pdb_mirror/pdb/vf/pdb2vf1.ent.gz'
p1615
sS'2vf9'
p1616
S'/net/chevy/raid1/pdb_mirror/pdb/vf/pdb2vf9.ent.gz'
p1617
sS'3uwm'
p1618
S'/net/chevy/raid1/pdb_mirror/pdb/uw/pdb3uwm.ent.gz'
p1619
sS'1a0t'
p1620
S'/net/chevy/raid1/pdb_mirror/pdb/a0/pdb1a0t.ent.gz'
p1621
sS'1a0s'
p1622
S'/net/chevy/raid1/pdb_mirror/pdb/a0/pdb1a0s.ent.gz'
p1623
sS'3tmk'
p1624
S'/net/chevy/raid1/pdb_mirror/pdb/tm/pdb3tmk.ent.gz'
p1625
sS'1a0d'
p1626
S'/net/chevy/raid1/pdb_mirror/pdb/a0/pdb1a0d.ent.gz'
p1627
sS'1a0c'
p1628
S'/net/chevy/raid1/pdb_mirror/pdb/a0/pdb1a0c.ent.gz'
p1629
sS'1vb4'
p1630
S'/net/chevy/raid1/pdb_mirror/pdb/vb/pdb1vb4.ent.gz'
p1631
sS'1a0o'
p1632
S'/net/chevy/raid1/pdb_mirror/pdb/a0/pdb1a0o.ent.gz'
p1633
sS'1a0l'
p1634
S'/net/chevy/raid1/pdb_mirror/pdb/a0/pdb1a0l.ent.gz'
p1635
sS'1a0j'
p1636
S'/net/chevy/raid1/pdb_mirror/pdb/a0/pdb1a0j.ent.gz'
p1637
sS'2bfo'
p1638
S'/net/chevy/raid1/pdb_mirror/pdb/bf/pdb2bfo.ent.gz'
p1639
sS'2ji3'
p1640
S'/net/chevy/raid1/pdb_mirror/pdb/ji/pdb2ji3.ent.gz'
p1641
sS'2ji2'
p1642
S'/net/chevy/raid1/pdb_mirror/pdb/ji/pdb2ji2.ent.gz'
p1643
sS'2ji1'
p1644
S'/net/chevy/raid1/pdb_mirror/pdb/ji/pdb2ji1.ent.gz'
p1645
sS'1oiu'
p1646
S'/net/chevy/raid1/pdb_mirror/pdb/oi/pdb1oiu.ent.gz'
p1647
sS'4ap6'
p1648
S'/net/chevy/raid1/pdb_mirror/pdb/ap/pdb4ap6.ent.gz'
p1649
sS'2bis'
p1650
S'/net/chevy/raid1/pdb_mirror/pdb/bi/pdb2bis.ent.gz'
p1651
sS'1oiy'
p1652
S'/net/chevy/raid1/pdb_mirror/pdb/oi/pdb1oiy.ent.gz'
p1653
sS'2biw'
p1654
S'/net/chevy/raid1/pdb_mirror/pdb/bi/pdb2biw.ent.gz'
p1655
sS'1mms'
p1656
S'/net/chevy/raid1/pdb_mirror/pdb/mm/pdb1mms.ent.gz'
p1657
sS'1oij'
p1658
S'/net/chevy/raid1/pdb_mirror/pdb/oi/pdb1oij.ent.gz'
p1659
sS'1oii'
p1660
S'/net/chevy/raid1/pdb_mirror/pdb/oi/pdb1oii.ent.gz'
p1661
sS'2hsd'
p1662
S'/net/chevy/raid1/pdb_mirror/pdb/hs/pdb2hsd.ent.gz'
p1663
sS'1vbc'
p1664
S'/net/chevy/raid1/pdb_mirror/pdb/vb/pdb1vbc.ent.gz'
p1665
sS'1vbb'
p1666
S'/net/chevy/raid1/pdb_mirror/pdb/vb/pdb1vbb.ent.gz'
p1667
sS'1vba'
p1668
S'/net/chevy/raid1/pdb_mirror/pdb/vb/pdb1vba.ent.gz'
p1669
sS'1vbe'
p1670
S'/net/chevy/raid1/pdb_mirror/pdb/vb/pdb1vbe.ent.gz'
p1671
sS'2wh0'
p1672
S'/net/chevy/raid1/pdb_mirror/pdb/wh/pdb2wh0.ent.gz'
p1673
sS'2xaa'
p1674
S'/net/chevy/raid1/pdb_mirror/pdb/xa/pdb2xaa.ent.gz'
p1675
sS'1trr'
p1676
S'/net/chevy/raid1/pdb_mirror/pdb/tr/pdb1trr.ent.gz'
p1677
sS'4apt'
p1678
S'/net/chevy/raid1/pdb_mirror/pdb/ap/pdb4apt.ent.gz'
p1679
sS'2hmg'
p1680
S'/net/chevy/raid1/pdb_mirror/pdb/hm/pdb2hmg.ent.gz'
p1681
sS'1oi9'
p1682
S'/net/chevy/raid1/pdb_mirror/pdb/oi/pdb1oi9.ent.gz'
p1683
sS'4apz'
p1684
S'/net/chevy/raid1/pdb_mirror/pdb/ap/pdb4apz.ent.gz'
p1685
sS'4apa'
p1686
S'/net/chevy/raid1/pdb_mirror/pdb/ap/pdb4apa.ent.gz'
p1687
sS'4apb'
p1688
S'/net/chevy/raid1/pdb_mirror/pdb/ap/pdb4apb.ent.gz'
p1689
sS'2jif'
p1690
S'/net/chevy/raid1/pdb_mirror/pdb/ji/pdb2jif.ent.gz'
p1691
sS'2yc4'
p1692
S'/net/chevy/raid1/pdb_mirror/pdb/yc/pdb2yc4.ent.gz'
p1693
sS'2yc2'
p1694
S'/net/chevy/raid1/pdb_mirror/pdb/yc/pdb2yc2.ent.gz'
p1695
sS'2wzr'
p1696
S'/net/chevy/raid1/pdb_mirror/pdb/wz/pdb2wzr.ent.gz'
p1697
sS'2yc1'
p1698
S'/net/chevy/raid1/pdb_mirror/pdb/yc/pdb2yc1.ent.gz'
p1699
sS'1am4'
p1700
S'/net/chevy/raid1/pdb_mirror/pdb/am/pdb1am4.ent.gz'
p1701
sS'1am7'
p1702
S'/net/chevy/raid1/pdb_mirror/pdb/am/pdb1am7.ent.gz'
p1703
sS'3mdj'
p1704
S'/net/chevy/raid1/pdb_mirror/pdb/md/pdb3mdj.ent.gz'
p1705
sS'2xsc'
p1706
S'/net/chevy/raid1/pdb_mirror/pdb/xs/pdb2xsc.ent.gz'
p1707
sS'4bv2'
p1708
S'/net/chevy/raid1/pdb_mirror/pdb/bv/pdb4bv2.ent.gz'
p1709
sS'2w1a'
p1710
S'/net/chevy/raid1/pdb_mirror/pdb/w1/pdb2w1a.ent.gz'
p1711
sS'2xsz'
p1712
S'/net/chevy/raid1/pdb_mirror/pdb/xs/pdb2xsz.ent.gz'
p1713
sS'4kn2'
p1714
S'/net/chevy/raid1/pdb_mirror/pdb/kn/pdb4kn2.ent.gz'
p1715
sS'2ym9'
p1716
S'/net/chevy/raid1/pdb_mirror/pdb/ym/pdb2ym9.ent.gz'
p1717
sS'2pmt'
p1718
S'/net/chevy/raid1/pdb_mirror/pdb/pm/pdb2pmt.ent.gz'
p1719
sS'2yii'
p1720
S'/net/chevy/raid1/pdb_mirror/pdb/yi/pdb2yii.ent.gz'
p1721
sS'1laj'
p1722
S'/net/chevy/raid1/pdb_mirror/pdb/la/pdb1laj.ent.gz'
p1723
sS'1rhg'
p1724
S'/net/chevy/raid1/pdb_mirror/pdb/rh/pdb1rhg.ent.gz'
p1725
sS'2ypq'
p1726
S'/net/chevy/raid1/pdb_mirror/pdb/yp/pdb2ypq.ent.gz'
p1727
sS'3v4h'
p1728
S'/net/chevy/raid1/pdb_mirror/pdb/v4/pdb3v4h.ent.gz'
p1729
sS'4bvh'
p1730
S'/net/chevy/raid1/pdb_mirror/pdb/bv/pdb4bvh.ent.gz'
p1731
sS'2ymm'
p1732
S'/net/chevy/raid1/pdb_mirror/pdb/ym/pdb2ymm.ent.gz'
p1733
sS'2w19'
p1734
S'/net/chevy/raid1/pdb_mirror/pdb/w1/pdb2w19.ent.gz'
p1735
sS'1rhq'
p1736
S'/net/chevy/raid1/pdb_mirror/pdb/rh/pdb1rhq.ent.gz'
p1737
sS'1b1z'
p1738
S'/net/chevy/raid1/pdb_mirror/pdb/b1/pdb1b1z.ent.gz'
p1739
sS'2nsi'
p1740
S'/net/chevy/raid1/pdb_mirror/pdb/ns/pdb2nsi.ent.gz'
p1741
sS'1gif'
p1742
S'/net/chevy/raid1/pdb_mirror/pdb/gi/pdb1gif.ent.gz'
p1743
sS'1msa'
p1744
S'/net/chevy/raid1/pdb_mirror/pdb/ms/pdb1msa.ent.gz'
p1745
sS'4a8j'
p1746
S'/net/chevy/raid1/pdb_mirror/pdb/a8/pdb4a8j.ent.gz'
p1747
sS'1cud'
p1748
S'/net/chevy/raid1/pdb_mirror/pdb/cu/pdb1cud.ent.gz'
p1749
sS'4a8p'
p1750
S'/net/chevy/raid1/pdb_mirror/pdb/a8/pdb4a8p.ent.gz'
p1751
sS'4lxf'
p1752
S'/net/chevy/raid1/pdb_mirror/pdb/lx/pdb4lxf.ent.gz'
p1753
sS'2bo2'
p1754
S'/net/chevy/raid1/pdb_mirror/pdb/bo/pdb2bo2.ent.gz'
p1755
sS'1w3z'
p1756
S'/net/chevy/raid1/pdb_mirror/pdb/w3/pdb1w3z.ent.gz'
p1757
sS'1hkn'
p1758
S'/net/chevy/raid1/pdb_mirror/pdb/hk/pdb1hkn.ent.gz'
p1759
sS'1sva'
p1760
S'/net/chevy/raid1/pdb_mirror/pdb/sv/pdb1sva.ent.gz'
p1761
sS'2b2g'
p1762
S'/net/chevy/raid1/pdb_mirror/pdb/b2/pdb2b2g.ent.gz'
p1763
sS'2b2d'
p1764
S'/net/chevy/raid1/pdb_mirror/pdb/b2/pdb2b2d.ent.gz'
p1765
sS'2b2e'
p1766
S'/net/chevy/raid1/pdb_mirror/pdb/b2/pdb2b2e.ent.gz'
p1767
sS'1hkd'
p1768
S'/net/chevy/raid1/pdb_mirror/pdb/hk/pdb1hkd.ent.gz'
p1769
sS'4arx'
p1770
S'/net/chevy/raid1/pdb_mirror/pdb/ar/pdb4arx.ent.gz'
p1771
sS'1w3m'
p1772
S'/net/chevy/raid1/pdb_mirror/pdb/w3/pdb1w3m.ent.gz'
p1773
sS'1uv6'
p1774
S'/net/chevy/raid1/pdb_mirror/pdb/uv/pdb1uv6.ent.gz'
p1775
sS'4lfg'
p1776
S'/net/chevy/raid1/pdb_mirror/pdb/lf/pdb4lfg.ent.gz'
p1777
sS'4lfe'
p1778
S'/net/chevy/raid1/pdb_mirror/pdb/lf/pdb4lfe.ent.gz'
p1779
sS'7ahl'
p1780
S'/net/chevy/raid1/pdb_mirror/pdb/ah/pdb7ahl.ent.gz'
p1781
sS'406d'
p1782
S'/net/chevy/raid1/pdb_mirror/pdb/06/pdb406d.ent.gz'
p1783
sS'2ya7'
p1784
S'/net/chevy/raid1/pdb_mirror/pdb/ya/pdb2ya7.ent.gz'
p1785
sS'2pcd'
p1786
S'/net/chevy/raid1/pdb_mirror/pdb/pc/pdb2pcd.ent.gz'
p1787
sS'1kev'
p1788
S'/net/chevy/raid1/pdb_mirror/pdb/ke/pdb1kev.ent.gz'
p1789
sS'1ncf'
p1790
S'/net/chevy/raid1/pdb_mirror/pdb/nc/pdb1ncf.ent.gz'
p1791
sS'4lfy'
p1792
S'/net/chevy/raid1/pdb_mirror/pdb/lf/pdb4lfy.ent.gz'
p1793
sS'1uvh'
p1794
S'/net/chevy/raid1/pdb_mirror/pdb/uv/pdb1uvh.ent.gz'
p1795
sS'1uvi'
p1796
S'/net/chevy/raid1/pdb_mirror/pdb/uv/pdb1uvi.ent.gz'
p1797
sS'1uvj'
p1798
S'/net/chevy/raid1/pdb_mirror/pdb/uv/pdb1uvj.ent.gz'
p1799
sS'1uvk'
p1800
S'/net/chevy/raid1/pdb_mirror/pdb/uv/pdb1uvk.ent.gz'
p1801
sS'1uvl'
p1802
S'/net/chevy/raid1/pdb_mirror/pdb/uv/pdb1uvl.ent.gz'
p1803
sS'1uvm'
p1804
S'/net/chevy/raid1/pdb_mirror/pdb/uv/pdb1uvm.ent.gz'
p1805
sS'1w33'
p1806
S'/net/chevy/raid1/pdb_mirror/pdb/w3/pdb1w33.ent.gz'
p1807
sS'3ukl'
p1808
S'/net/chevy/raid1/pdb_mirror/pdb/uk/pdb3ukl.ent.gz'
p1809
sS'1ouu'
p1810
S'/net/chevy/raid1/pdb_mirror/pdb/ou/pdb1ouu.ent.gz'
p1811
sS'1hk9'
p1812
S'/net/chevy/raid1/pdb_mirror/pdb/hk/pdb1hk9.ent.gz'
p1813
sS'3fbm'
p1814
S'/net/chevy/raid1/pdb_mirror/pdb/fb/pdb3fbm.ent.gz'
p1815
sS'4jt0'
p1816
S'/net/chevy/raid1/pdb_mirror/pdb/jt/pdb4jt0.ent.gz'
p1817
sS'3fbn'
p1818
S'/net/chevy/raid1/pdb_mirror/pdb/fb/pdb3fbn.ent.gz'
p1819
sS'2xg8'
p1820
S'/net/chevy/raid1/pdb_mirror/pdb/xg/pdb2xg8.ent.gz'
p1821
sS'5msf'
p1822
S'/net/chevy/raid1/pdb_mirror/pdb/ms/pdb5msf.ent.gz'
p1823
sS'2cf7'
p1824
S'/net/chevy/raid1/pdb_mirror/pdb/cf/pdb2cf7.ent.gz'
p1825
sS'3hhn'
p1826
S'/net/chevy/raid1/pdb_mirror/pdb/hh/pdb3hhn.ent.gz'
p1827
sS'4a6g'
p1828
S'/net/chevy/raid1/pdb_mirror/pdb/a6/pdb4a6g.ent.gz'
p1829
sS'4a6n'
p1830
S'/net/chevy/raid1/pdb_mirror/pdb/a6/pdb4a6n.ent.gz'
p1831
sS'4a6l'
p1832
S'/net/chevy/raid1/pdb_mirror/pdb/a6/pdb4a6l.ent.gz'
p1833
sS'4e08'
p1834
S'/net/chevy/raid1/pdb_mirror/pdb/e0/pdb4e08.ent.gz'
p1835
sS'4a6t'
p1836
S'/net/chevy/raid1/pdb_mirror/pdb/a6/pdb4a6t.ent.gz'
p1837
sS'4a6s'
p1838
S'/net/chevy/raid1/pdb_mirror/pdb/a6/pdb4a6s.ent.gz'
p1839
sS'2x8j'
p1840
S'/net/chevy/raid1/pdb_mirror/pdb/x8/pdb2x8j.ent.gz'
p1841
sS'2otc'
p1842
S'/net/chevy/raid1/pdb_mirror/pdb/ot/pdb2otc.ent.gz'
p1843
sS'1w39'
p1844
S'/net/chevy/raid1/pdb_mirror/pdb/w3/pdb1w39.ent.gz'
p1845
sS'1bko'
p1846
S'/net/chevy/raid1/pdb_mirror/pdb/bk/pdb1bko.ent.gz'
p1847
sS'2ipg'
p1848
S'/net/chevy/raid1/pdb_mirror/pdb/ip/pdb2ipg.ent.gz'
p1849
sS'2ipf'
p1850
S'/net/chevy/raid1/pdb_mirror/pdb/ip/pdb2ipf.ent.gz'
p1851
sS'1vyw'
p1852
S'/net/chevy/raid1/pdb_mirror/pdb/vy/pdb1vyw.ent.gz'
p1853
sS'2ipj'
p1854
S'/net/chevy/raid1/pdb_mirror/pdb/ip/pdb2ipj.ent.gz'
p1855
sS'1wcd'
p1856
S'/net/chevy/raid1/pdb_mirror/pdb/wc/pdb1wcd.ent.gz'
p1857
sS'2vun'
p1858
S'/net/chevy/raid1/pdb_mirror/pdb/vu/pdb2vun.ent.gz'
p1859
sS'2cfy'
p1860
S'/net/chevy/raid1/pdb_mirror/pdb/cf/pdb2cfy.ent.gz'
p1861
sS'2vub'
p1862
S'/net/chevy/raid1/pdb_mirror/pdb/vu/pdb2vub.ent.gz'
p1863
sS'2a5h'
p1864
S'/net/chevy/raid1/pdb_mirror/pdb/a5/pdb2a5h.ent.gz'
p1865
sS'1shs'
p1866
S'/net/chevy/raid1/pdb_mirror/pdb/sh/pdb1shs.ent.gz'
p1867
sS'1egz'
p1868
S'/net/chevy/raid1/pdb_mirror/pdb/eg/pdb1egz.ent.gz'
p1869
sS'4a63'
p1870
S'/net/chevy/raid1/pdb_mirror/pdb/a6/pdb4a63.ent.gz'
p1871
sS'4djz'
p1872
S'/net/chevy/raid1/pdb_mirror/pdb/dj/pdb4djz.ent.gz'
p1873
sS'2boy'
p1874
S'/net/chevy/raid1/pdb_mirror/pdb/bo/pdb2boy.ent.gz'
p1875
sS'1vak'
p1876
S'/net/chevy/raid1/pdb_mirror/pdb/va/pdb1vak.ent.gz'
p1877
sS'4ihc'
p1878
S'/net/chevy/raid1/pdb_mirror/pdb/ih/pdb4ihc.ent.gz'
p1879
sS'2gd1'
p1880
S'/net/chevy/raid1/pdb_mirror/pdb/gd/pdb2gd1.ent.gz'
p1881
sS'1tdt'
p1882
S'/net/chevy/raid1/pdb_mirror/pdb/td/pdb1tdt.ent.gz'
p1883
sS'1ao5'
p1884
S'/net/chevy/raid1/pdb_mirror/pdb/ao/pdb1ao5.ent.gz'
p1885
sS'2jjx'
p1886
S'/net/chevy/raid1/pdb_mirror/pdb/jj/pdb2jjx.ent.gz'
p1887
sS'2jjy'
p1888
S'/net/chevy/raid1/pdb_mirror/pdb/jj/pdb2jjy.ent.gz'
p1889
sS'1uvz'
p1890
S'/net/chevy/raid1/pdb_mirror/pdb/uv/pdb1uvz.ent.gz'
p1891
sS'4aa7'
p1892
S'/net/chevy/raid1/pdb_mirror/pdb/aa/pdb4aa7.ent.gz'
p1893
sS'2jjm'
p1894
S'/net/chevy/raid1/pdb_mirror/pdb/jj/pdb2jjm.ent.gz'
p1895
sS'2jjd'
p1896
S'/net/chevy/raid1/pdb_mirror/pdb/jj/pdb2jjd.ent.gz'
p1897
sS'2yps'
p1898
S'/net/chevy/raid1/pdb_mirror/pdb/yp/pdb2yps.ent.gz'
p1899
sS'3ubt'
p1900
S'/net/chevy/raid1/pdb_mirror/pdb/ub/pdb3ubt.ent.gz'
p1901
sS'2ypt'
p1902
S'/net/chevy/raid1/pdb_mirror/pdb/yp/pdb2ypt.ent.gz'
p1903
sS'2wv7'
p1904
S'/net/chevy/raid1/pdb_mirror/pdb/wv/pdb2wv7.ent.gz'
p1905
sS'2wv5'
p1906
S'/net/chevy/raid1/pdb_mirror/pdb/wv/pdb2wv5.ent.gz'
p1907
sS'5rla'
p1908
S'/net/chevy/raid1/pdb_mirror/pdb/rl/pdb5rla.ent.gz'
p1909
sS'4gmp'
p1910
S'/net/chevy/raid1/pdb_mirror/pdb/gm/pdb4gmp.ent.gz'
p1911
sS'3f79'
p1912
S'/net/chevy/raid1/pdb_mirror/pdb/f7/pdb3f79.ent.gz'
p1913
sS'2jj4'
p1914
S'/net/chevy/raid1/pdb_mirror/pdb/jj/pdb2jj4.ent.gz'
p1915
sS'4gme'
p1916
S'/net/chevy/raid1/pdb_mirror/pdb/gm/pdb4gme.ent.gz'
p1917
sS'1g31'
p1918
S'/net/chevy/raid1/pdb_mirror/pdb/g3/pdb1g31.ent.gz'
p1919
sS'2wy3'
p1920
S'/net/chevy/raid1/pdb_mirror/pdb/wy/pdb2wy3.ent.gz'
p1921
sS'2wy6'
p1922
S'/net/chevy/raid1/pdb_mirror/pdb/wy/pdb2wy6.ent.gz'
p1923
sS'4iq1'
p1924
S'/net/chevy/raid1/pdb_mirror/pdb/iq/pdb4iq1.ent.gz'
p1925
sS'1go6'
p1926
S'/net/chevy/raid1/pdb_mirror/pdb/go/pdb1go6.ent.gz'
p1927
sS'3m8l'
p1928
S'/net/chevy/raid1/pdb_mirror/pdb/m8/pdb3m8l.ent.gz'
p1929
sS'2bty'
p1930
S'/net/chevy/raid1/pdb_mirror/pdb/bt/pdb2bty.ent.gz'
p1931
sS'1ods'
p1932
S'/net/chevy/raid1/pdb_mirror/pdb/od/pdb1ods.ent.gz'
p1933
sS'2btv'
p1934
S'/net/chevy/raid1/pdb_mirror/pdb/bt/pdb2btv.ent.gz'
p1935
sS'1b0c'
p1936
S'/net/chevy/raid1/pdb_mirror/pdb/b0/pdb1b0c.ent.gz'
p1937
sS'2bj4'
p1938
S'/net/chevy/raid1/pdb_mirror/pdb/bj/pdb2bj4.ent.gz'
p1939
sS'2bj0'
p1940
S'/net/chevy/raid1/pdb_mirror/pdb/bj/pdb2bj0.ent.gz'
p1941
sS'1b0w'
p1942
S'/net/chevy/raid1/pdb_mirror/pdb/b0/pdb1b0w.ent.gz'
p1943
sS'1mpy'
p1944
S'/net/chevy/raid1/pdb_mirror/pdb/mp/pdb1mpy.ent.gz'
p1945
sS'1e92'
p1946
S'/net/chevy/raid1/pdb_mirror/pdb/e9/pdb1e92.ent.gz'
p1947
sS'1mpr'
p1948
S'/net/chevy/raid1/pdb_mirror/pdb/mp/pdb1mpr.ent.gz'
p1949
sS'1oj7'
p1950
S'/net/chevy/raid1/pdb_mirror/pdb/oj/pdb1oj7.ent.gz'
p1951
sS'1mpq'
p1952
S'/net/chevy/raid1/pdb_mirror/pdb/mp/pdb1mpq.ent.gz'
p1953
sS'1h48'
p1954
S'/net/chevy/raid1/pdb_mirror/pdb/h4/pdb1h48.ent.gz'
p1955
sS'1mpn'
p1956
S'/net/chevy/raid1/pdb_mirror/pdb/mp/pdb1mpn.ent.gz'
p1957
sS'1mpo'
p1958
S'/net/chevy/raid1/pdb_mirror/pdb/mp/pdb1mpo.ent.gz'
p1959
sS'1mpm'
p1960
S'/net/chevy/raid1/pdb_mirror/pdb/mp/pdb1mpm.ent.gz'
p1961
sS'1h47'
p1962
S'/net/chevy/raid1/pdb_mirror/pdb/h4/pdb1h47.ent.gz'
p1963
sS'1poi'
p1964
S'/net/chevy/raid1/pdb_mirror/pdb/po/pdb1poi.ent.gz'
p1965
sS'1a1q'
p1966
S'/net/chevy/raid1/pdb_mirror/pdb/a1/pdb1a1q.ent.gz'
p1967
sS'2woc'
p1968
S'/net/chevy/raid1/pdb_mirror/pdb/wo/pdb2woc.ent.gz'
p1969
sS'2woe'
p1970
S'/net/chevy/raid1/pdb_mirror/pdb/wo/pdb2woe.ent.gz'
p1971
sS'2bt4'
p1972
S'/net/chevy/raid1/pdb_mirror/pdb/bt/pdb2bt4.ent.gz'
p1973
sS'2woi'
p1974
S'/net/chevy/raid1/pdb_mirror/pdb/wo/pdb2woi.ent.gz'
p1975
sS'3e8k'
p1976
S'/net/chevy/raid1/pdb_mirror/pdb/e8/pdb3e8k.ent.gz'
p1977
sS'2bt2'
p1978
S'/net/chevy/raid1/pdb_mirror/pdb/bt/pdb2bt2.ent.gz'
p1979
sS'2w4y'
p1980
S'/net/chevy/raid1/pdb_mirror/pdb/w4/pdb2w4y.ent.gz'
p1981
sS'1b09'
p1982
S'/net/chevy/raid1/pdb_mirror/pdb/b0/pdb1b09.ent.gz'
p1983
sS'4bw5'
p1984
S'/net/chevy/raid1/pdb_mirror/pdb/bw/pdb4bw5.ent.gz'
p1985
sS'2vvp'
p1986
S'/net/chevy/raid1/pdb_mirror/pdb/vv/pdb2vvp.ent.gz'
p1987
sS'1d4m'
p1988
S'/net/chevy/raid1/pdb_mirror/pdb/d4/pdb1d4m.ent.gz'
p1989
sS'2bjy'
p1990
S'/net/chevy/raid1/pdb_mirror/pdb/bj/pdb2bjy.ent.gz'
p1991
sS'2sod'
p1992
S'/net/chevy/raid1/pdb_mirror/pdb/so/pdb2sod.ent.gz'
p1993
sS'1h4o'
p1994
S'/net/chevy/raid1/pdb_mirror/pdb/h4/pdb1h4o.ent.gz'
p1995
sS'1ojx'
p1996
S'/net/chevy/raid1/pdb_mirror/pdb/oj/pdb1ojx.ent.gz'
p1997
sS'1ojy'
p1998
S'/net/chevy/raid1/pdb_mirror/pdb/oj/pdb1ojy.ent.gz'
p1999
sS'1ojl'
p2000
S'/net/chevy/raid1/pdb_mirror/pdb/oj/pdb1ojl.ent.gz'
p2001
sS'4baa'
p2002
S'/net/chevy/raid1/pdb_mirror/pdb/ba/pdb4baa.ent.gz'
p2003
sS'4bab'
p2004
S'/net/chevy/raid1/pdb_mirror/pdb/ba/pdb4bab.ent.gz'
p2005
sS'1ojd'
p2006
S'/net/chevy/raid1/pdb_mirror/pdb/oj/pdb1ojd.ent.gz'
p2007
sS'1e9n'
p2008
S'/net/chevy/raid1/pdb_mirror/pdb/e9/pdb1e9n.ent.gz'
p2009
sS'1e9i'
p2010
S'/net/chevy/raid1/pdb_mirror/pdb/e9/pdb1e9i.ent.gz'
p2011
sS'2hpd'
p2012
S'/net/chevy/raid1/pdb_mirror/pdb/hp/pdb2hpd.ent.gz'
p2013
sS'1h4t'
p2014
S'/net/chevy/raid1/pdb_mirror/pdb/h4/pdb1h4t.ent.gz'
p2015
sS'1fdu'
p2016
S'/net/chevy/raid1/pdb_mirror/pdb/fd/pdb1fdu.ent.gz'
p2017
sS'1fdv'
p2018
S'/net/chevy/raid1/pdb_mirror/pdb/fd/pdb1fdv.ent.gz'
p2019
sS'1gt8'
p2020
S'/net/chevy/raid1/pdb_mirror/pdb/gt/pdb1gt8.ent.gz'
p2021
sS'1fdp'
p2022
S'/net/chevy/raid1/pdb_mirror/pdb/fd/pdb1fdp.ent.gz'
p2023
sS'1aon'
p2024
S'/net/chevy/raid1/pdb_mirror/pdb/ao/pdb1aon.ent.gz'
p2025
sS'1gt7'
p2026
S'/net/chevy/raid1/pdb_mirror/pdb/gt/pdb1gt7.ent.gz'
p2027
sS'2w01'
p2028
S'/net/chevy/raid1/pdb_mirror/pdb/w0/pdb2w01.ent.gz'
p2029
sS'4ich'
p2030
S'/net/chevy/raid1/pdb_mirror/pdb/ic/pdb4ich.ent.gz'
p2031
sS'1qni'
p2032
S'/net/chevy/raid1/pdb_mirror/pdb/qn/pdb1qni.ent.gz'
p2033
sS'1lrp'
p2034
S'/net/chevy/raid1/pdb_mirror/pdb/lr/pdb1lrp.ent.gz'
p2035
sS'3me1'
p2036
S'/net/chevy/raid1/pdb_mirror/pdb/me/pdb3me1.ent.gz'
p2037
sS'5i1b'
p2038
S'/net/chevy/raid1/pdb_mirror/pdb/i1/pdb5i1b.ent.gz'
p2039
sS'1uwi'
p2040
S'/net/chevy/raid1/pdb_mirror/pdb/uw/pdb1uwi.ent.gz'
p2041
sS'1ova'
p2042
S'/net/chevy/raid1/pdb_mirror/pdb/ov/pdb1ova.ent.gz'
p2043
sS'1axk'
p2044
S'/net/chevy/raid1/pdb_mirror/pdb/ax/pdb1axk.ent.gz'
p2045
sS'1axg'
p2046
S'/net/chevy/raid1/pdb_mirror/pdb/ax/pdb1axg.ent.gz'
p2047
sS'1uwa'
p2048
S'/net/chevy/raid1/pdb_mirror/pdb/uw/pdb1uwa.ent.gz'
p2049
sS'1ovo'
p2050
S'/net/chevy/raid1/pdb_mirror/pdb/ov/pdb1ovo.ent.gz'
p2051
sS'4hwk'
p2052
S'/net/chevy/raid1/pdb_mirror/pdb/hw/pdb4hwk.ent.gz'
p2053
sS'1cde'
p2054
S'/net/chevy/raid1/pdb_mirror/pdb/cd/pdb1cde.ent.gz'
p2055
sS'2xpj'
p2056
S'/net/chevy/raid1/pdb_mirror/pdb/xp/pdb2xpj.ent.gz'
p2057
sS'3qhw'
p2058
S'/net/chevy/raid1/pdb_mirror/pdb/qh/pdb3qhw.ent.gz'
p2059
sS'1gtz'
p2060
S'/net/chevy/raid1/pdb_mirror/pdb/gt/pdb1gtz.ent.gz'
p2061
sS'1gtu'
p2062
S'/net/chevy/raid1/pdb_mirror/pdb/gt/pdb1gtu.ent.gz'
p2063
sS'1gtm'
p2064
S'/net/chevy/raid1/pdb_mirror/pdb/gt/pdb1gtm.ent.gz'
p2065
sS'1bbt'
p2066
S'/net/chevy/raid1/pdb_mirror/pdb/bb/pdb1bbt.ent.gz'
p2067
sS'1gth'
p2068
S'/net/chevy/raid1/pdb_mirror/pdb/gt/pdb1gth.ent.gz'
p2069
sS'1gti'
p2070
S'/net/chevy/raid1/pdb_mirror/pdb/gt/pdb1gti.ent.gz'
p2071
sS'1gte'
p2072
S'/net/chevy/raid1/pdb_mirror/pdb/gt/pdb1gte.ent.gz'
p2073
sS'3kie'
p2074
S'/net/chevy/raid1/pdb_mirror/pdb/ki/pdb3kie.ent.gz'
p2075
sS'2w0c'
p2076
S'/net/chevy/raid1/pdb_mirror/pdb/w0/pdb2w0c.ent.gz'
p2077
sS'1cd9'
p2078
S'/net/chevy/raid1/pdb_mirror/pdb/cd/pdb1cd9.ent.gz'
p2079
sS'1cd1'
p2080
S'/net/chevy/raid1/pdb_mirror/pdb/cd/pdb1cd1.ent.gz'
p2081
sS'4dwh'
p2082
S'/net/chevy/raid1/pdb_mirror/pdb/dw/pdb4dwh.ent.gz'
p2083
sS'1uw9'
p2084
S'/net/chevy/raid1/pdb_mirror/pdb/uw/pdb1uw9.ent.gz'
p2085
sS'4dwj'
p2086
S'/net/chevy/raid1/pdb_mirror/pdb/dw/pdb4dwj.ent.gz'
p2087
sS'1ax4'
p2088
S'/net/chevy/raid1/pdb_mirror/pdb/ax/pdb1ax4.ent.gz'
p2089
sS'1uw6'
p2090
S'/net/chevy/raid1/pdb_mirror/pdb/uw/pdb1uw6.ent.gz'
p2091
sS'1ixx'
p2092
S'/net/chevy/raid1/pdb_mirror/pdb/ix/pdb1ixx.ent.gz'
p2093
sS'1uw4'
p2094
S'/net/chevy/raid1/pdb_mirror/pdb/uw/pdb1uw4.ent.gz'
p2095
sS'3ra2'
p2096
S'/net/chevy/raid1/pdb_mirror/pdb/ra/pdb3ra2.ent.gz'
p2097
sS'2isd'
p2098
S'/net/chevy/raid1/pdb_mirror/pdb/is/pdb2isd.ent.gz'
p2099
sS'1av1'
p2100
S'/net/chevy/raid1/pdb_mirror/pdb/av/pdb1av1.ent.gz'
p2101
sS'1av2'
p2102
S'/net/chevy/raid1/pdb_mirror/pdb/av/pdb1av2.ent.gz'
p2103
sS'1bjq'
p2104
S'/net/chevy/raid1/pdb_mirror/pdb/bj/pdb1bjq.ent.gz'
p2105
sS'2e2a'
p2106
S'/net/chevy/raid1/pdb_mirror/pdb/e2/pdb2e2a.ent.gz'
p2107
sS'1p5w'
p2108
S'/net/chevy/raid1/pdb_mirror/pdb/p5/pdb1p5w.ent.gz'
p2109
sS'1p5y'
p2110
S'/net/chevy/raid1/pdb_mirror/pdb/p5/pdb1p5y.ent.gz'
p2111
sS'2fmt'
p2112
S'/net/chevy/raid1/pdb_mirror/pdb/fm/pdb2fmt.ent.gz'
p2113
sS'1fro'
p2114
S'/net/chevy/raid1/pdb_mirror/pdb/fr/pdb1fro.ent.gz'
p2115
sS'4jkr'
p2116
S'/net/chevy/raid1/pdb_mirror/pdb/jk/pdb4jkr.ent.gz'
p2117
sS'1z14'
p2118
S'/net/chevy/raid1/pdb_mirror/pdb/z1/pdb1z14.ent.gz'
p2119
sS'1v9u'
p2120
S'/net/chevy/raid1/pdb_mirror/pdb/v9/pdb1v9u.ent.gz'
p2121
sS'1qez'
p2122
S'/net/chevy/raid1/pdb_mirror/pdb/qe/pdb1qez.ent.gz'
p2123
sS'1sie'
p2124
S'/net/chevy/raid1/pdb_mirror/pdb/si/pdb1sie.ent.gz'
p2125
sS'1sid'
p2126
S'/net/chevy/raid1/pdb_mirror/pdb/si/pdb1sid.ent.gz'
p2127
sS'1w49'
p2128
S'/net/chevy/raid1/pdb_mirror/pdb/w4/pdb1w49.ent.gz'
p2129
sS'2jf9'
p2130
S'/net/chevy/raid1/pdb_mirror/pdb/jf/pdb2jf9.ent.gz'
p2131
sS'4aje'
p2132
S'/net/chevy/raid1/pdb_mirror/pdb/aj/pdb4aje.ent.gz'
p2133
sS'3zo7'
p2134
S'/net/chevy/raid1/pdb_mirror/pdb/zo/pdb3zo7.ent.gz'
p2135
sS'1w44'
p2136
S'/net/chevy/raid1/pdb_mirror/pdb/w4/pdb1w44.ent.gz'
p2137
sS'1thj'
p2138
S'/net/chevy/raid1/pdb_mirror/pdb/th/pdb1thj.ent.gz'
p2139
sS'1cvn'
p2140
S'/net/chevy/raid1/pdb_mirror/pdb/cv/pdb1cvn.ent.gz'
p2141
sS'1w46'
p2142
S'/net/chevy/raid1/pdb_mirror/pdb/w4/pdb1w46.ent.gz'
p2143
sS'1bj1'
p2144
S'/net/chevy/raid1/pdb_mirror/pdb/bj/pdb1bj1.ent.gz'
p2145
sS'1swa'
p2146
S'/net/chevy/raid1/pdb_mirror/pdb/sw/pdb1swa.ent.gz'
p2147
sS'1swc'
p2148
S'/net/chevy/raid1/pdb_mirror/pdb/sw/pdb1swc.ent.gz'
p2149
sS'1swb'
p2150
S'/net/chevy/raid1/pdb_mirror/pdb/sw/pdb1swb.ent.gz'
p2151
sS'1swe'
p2152
S'/net/chevy/raid1/pdb_mirror/pdb/sw/pdb1swe.ent.gz'
p2153
sS'1swd'
p2154
S'/net/chevy/raid1/pdb_mirror/pdb/sw/pdb1swd.ent.gz'
p2155
sS'1swg'
p2156
S'/net/chevy/raid1/pdb_mirror/pdb/sw/pdb1swg.ent.gz'
p2157
sS'1hjr'
p2158
S'/net/chevy/raid1/pdb_mirror/pdb/hj/pdb1hjr.ent.gz'
p2159
sS'1swh'
p2160
S'/net/chevy/raid1/pdb_mirror/pdb/sw/pdb1swh.ent.gz'
p2161
sS'1swk'
p2162
S'/net/chevy/raid1/pdb_mirror/pdb/sw/pdb1swk.ent.gz'
p2163
sS'1swj'
p2164
S'/net/chevy/raid1/pdb_mirror/pdb/sw/pdb1swj.ent.gz'
p2165
sS'4jk3'
p2166
S'/net/chevy/raid1/pdb_mirror/pdb/jk/pdb4jk3.ent.gz'
p2167
sS'1swl'
p2168
S'/net/chevy/raid1/pdb_mirror/pdb/sw/pdb1swl.ent.gz'
p2169
sS'1swo'
p2170
S'/net/chevy/raid1/pdb_mirror/pdb/sw/pdb1swo.ent.gz'
p2171
sS'1swn'
p2172
S'/net/chevy/raid1/pdb_mirror/pdb/sw/pdb1swn.ent.gz'
p2173
sS'1swq'
p2174
S'/net/chevy/raid1/pdb_mirror/pdb/sw/pdb1swq.ent.gz'
p2175
sS'1swp'
p2176
S'/net/chevy/raid1/pdb_mirror/pdb/sw/pdb1swp.ent.gz'
p2177
sS'1swr'
p2178
S'/net/chevy/raid1/pdb_mirror/pdb/sw/pdb1swr.ent.gz'
p2179
sS'4ajl'
p2180
S'/net/chevy/raid1/pdb_mirror/pdb/aj/pdb4ajl.ent.gz'
p2181
sS'3w5a'
p2182
S'/net/chevy/raid1/pdb_mirror/pdb/w5/pdb3w5a.ent.gz'
p2183
sS'2vhx'
p2184
S'/net/chevy/raid1/pdb_mirror/pdb/vh/pdb2vhx.ent.gz'
p2185
sS'4glv'
p2186
S'/net/chevy/raid1/pdb_mirror/pdb/gl/pdb4glv.ent.gz'
p2187
sS'1bxc'
p2188
S'/net/chevy/raid1/pdb_mirror/pdb/bx/pdb1bxc.ent.gz'
p2189
sS'1bxb'
p2190
S'/net/chevy/raid1/pdb_mirror/pdb/bx/pdb1bxb.ent.gz'
p2191
sS'1bxn'
p2192
S'/net/chevy/raid1/pdb_mirror/pdb/bx/pdb1bxn.ent.gz'
p2193
sS'1bxh'
p2194
S'/net/chevy/raid1/pdb_mirror/pdb/bx/pdb1bxh.ent.gz'
p2195
sS'4g93'
p2196
S'/net/chevy/raid1/pdb_mirror/pdb/g9/pdb4g93.ent.gz'
p2197
sS'2vhh'
p2198
S'/net/chevy/raid1/pdb_mirror/pdb/vh/pdb2vhh.ent.gz'
p2199
sS'2vhi'
p2200
S'/net/chevy/raid1/pdb_mirror/pdb/vh/pdb2vhi.ent.gz'
p2201
sS'1bxs'
p2202
S'/net/chevy/raid1/pdb_mirror/pdb/bx/pdb1bxs.ent.gz'
p2203
sS'4a59'
p2204
S'/net/chevy/raid1/pdb_mirror/pdb/a5/pdb4a59.ent.gz'
p2205
sS'1bxz'
p2206
S'/net/chevy/raid1/pdb_mirror/pdb/bx/pdb1bxz.ent.gz'
p2207
sS'4j24'
p2208
S'/net/chevy/raid1/pdb_mirror/pdb/j2/pdb4j24.ent.gz'
p2209
sS'4j26'
p2210
S'/net/chevy/raid1/pdb_mirror/pdb/j2/pdb4j26.ent.gz'
p2211
sS'2w48'
p2212
S'/net/chevy/raid1/pdb_mirror/pdb/w4/pdb2w48.ent.gz'
p2213
sS'3hoh'
p2214
S'/net/chevy/raid1/pdb_mirror/pdb/ho/pdb3hoh.ent.gz'
p2215
sS'2vvf'
p2216
S'/net/chevy/raid1/pdb_mirror/pdb/vv/pdb2vvf.ent.gz'
p2217
sS'4a5a'
p2218
S'/net/chevy/raid1/pdb_mirror/pdb/a5/pdb4a5a.ent.gz'
p2219
sS'2vvo'
p2220
S'/net/chevy/raid1/pdb_mirror/pdb/vv/pdb2vvo.ent.gz'
p2221
sS'2wdv'
p2222
S'/net/chevy/raid1/pdb_mirror/pdb/wd/pdb2wdv.ent.gz'
p2223
sS'4a5n'
p2224
S'/net/chevy/raid1/pdb_mirror/pdb/a5/pdb4a5n.ent.gz'
p2225
sS'4a5m'
p2226
S'/net/chevy/raid1/pdb_mirror/pdb/a5/pdb4a5m.ent.gz'
p2227
sS'2x9m'
p2228
S'/net/chevy/raid1/pdb_mirror/pdb/x9/pdb2x9m.ent.gz'
p2229
sS'4a5p'
p2230
S'/net/chevy/raid1/pdb_mirror/pdb/a5/pdb4a5p.ent.gz'
p2231
sS'2x9i'
p2232
S'/net/chevy/raid1/pdb_mirror/pdb/x9/pdb2x9i.ent.gz'
p2233
sS'3lob'
p2234
S'/net/chevy/raid1/pdb_mirror/pdb/lo/pdb3lob.ent.gz'
p2235
sS'2vvq'
p2236
S'/net/chevy/raid1/pdb_mirror/pdb/vv/pdb2vvq.ent.gz'
p2237
sS'4a5z'
p2238
S'/net/chevy/raid1/pdb_mirror/pdb/a5/pdb4a5z.ent.gz'
p2239
sS'4a5x'
p2240
S'/net/chevy/raid1/pdb_mirror/pdb/a5/pdb4a5x.ent.gz'
p2241
sS'1qgw'
p2242
S'/net/chevy/raid1/pdb_mirror/pdb/qg/pdb1qgw.ent.gz'
p2243
sS'2bkc'
p2244
S'/net/chevy/raid1/pdb_mirror/pdb/bk/pdb2bkc.ent.gz'
p2245
sS'2jer'
p2246
S'/net/chevy/raid1/pdb_mirror/pdb/je/pdb2jer.ent.gz'
p2247
sS'2bkq'
p2248
S'/net/chevy/raid1/pdb_mirror/pdb/bk/pdb2bkq.ent.gz'
p2249
sS'2jee'
p2250
S'/net/chevy/raid1/pdb_mirror/pdb/je/pdb2jee.ent.gz'
p2251
sS'2y6q'
p2252
S'/net/chevy/raid1/pdb_mirror/pdb/y6/pdb2y6q.ent.gz'
p2253
sS'2bkz'
p2254
S'/net/chevy/raid1/pdb_mirror/pdb/bk/pdb2bkz.ent.gz'
p2255
sS'2jk8'
p2256
S'/net/chevy/raid1/pdb_mirror/pdb/jk/pdb2jk8.ent.gz'
p2257
sS'2y6s'
p2258
S'/net/chevy/raid1/pdb_mirror/pdb/y6/pdb2y6s.ent.gz'
p2259
sS'4bfx'
p2260
S'/net/chevy/raid1/pdb_mirror/pdb/bf/pdb4bfx.ent.gz'
p2261
sS'1h7z'
p2262
S'/net/chevy/raid1/pdb_mirror/pdb/h7/pdb1h7z.ent.gz'
p2263
sS'1h7x'
p2264
S'/net/chevy/raid1/pdb_mirror/pdb/h7/pdb1h7x.ent.gz'
p2265
sS'4bfe'
p2266
S'/net/chevy/raid1/pdb_mirror/pdb/bf/pdb4bfe.ent.gz'
p2267
sS'1rxo'
p2268
S'/net/chevy/raid1/pdb_mirror/pdb/rx/pdb1rxo.ent.gz'
p2269
sS'4bfl'
p2270
S'/net/chevy/raid1/pdb_mirror/pdb/bf/pdb4bfl.ent.gz'
p2271
sS'2oow'
p2272
S'/net/chevy/raid1/pdb_mirror/pdb/oo/pdb2oow.ent.gz'
p2273
sS'3zpy'
p2274
S'/net/chevy/raid1/pdb_mirror/pdb/zp/pdb3zpy.ent.gz'
p2275
sS'2bk6'
p2276
S'/net/chevy/raid1/pdb_mirror/pdb/bk/pdb2bk6.ent.gz'
p2277
sS'1ok9'
p2278
S'/net/chevy/raid1/pdb_mirror/pdb/ok/pdb1ok9.ent.gz'
p2279
sS'2jkz'
p2280
S'/net/chevy/raid1/pdb_mirror/pdb/jk/pdb2jkz.ent.gz'
p2281
sS'4aj5'
p2282
S'/net/chevy/raid1/pdb_mirror/pdb/aj/pdb4aj5.ent.gz'
p2283
sS'1ok6'
p2284
S'/net/chevy/raid1/pdb_mirror/pdb/ok/pdb1ok6.ent.gz'
p2285
sS'2jki'
p2286
S'/net/chevy/raid1/pdb_mirror/pdb/jk/pdb2jki.ent.gz'
p2287
sS'2jkj'
p2288
S'/net/chevy/raid1/pdb_mirror/pdb/jk/pdb2jkj.ent.gz'
p2289
sS'2jkl'
p2290
S'/net/chevy/raid1/pdb_mirror/pdb/jk/pdb2jkl.ent.gz'
p2291
sS'2jkn'
p2292
S'/net/chevy/raid1/pdb_mirror/pdb/jk/pdb2jkn.ent.gz'
p2293
sS'3v65'
p2294
S'/net/chevy/raid1/pdb_mirror/pdb/v6/pdb3v65.ent.gz'
p2295
sS'2xqq'
p2296
S'/net/chevy/raid1/pdb_mirror/pdb/xq/pdb2xqq.ent.gz'
p2297
sS'1oe0'
p2298
S'/net/chevy/raid1/pdb_mirror/pdb/oe/pdb1oe0.ent.gz'
p2299
sS'1uf2'
p2300
S'/net/chevy/raid1/pdb_mirror/pdb/uf/pdb1uf2.ent.gz'
p2301
sS'1gut'
p2302
S'/net/chevy/raid1/pdb_mirror/pdb/gu/pdb1gut.ent.gz'
p2303
sS'1gus'
p2304
S'/net/chevy/raid1/pdb_mirror/pdb/gu/pdb1gus.ent.gz'
p2305
sS'2bu1'
p2306
S'/net/chevy/raid1/pdb_mirror/pdb/bu/pdb2bu1.ent.gz'
p2307
sS'1guo'
p2308
S'/net/chevy/raid1/pdb_mirror/pdb/gu/pdb1guo.ent.gz'
p2309
sS'1b79'
p2310
S'/net/chevy/raid1/pdb_mirror/pdb/b7/pdb1b79.ent.gz'
p2311
sS'1rn1'
p2312
S'/net/chevy/raid1/pdb_mirror/pdb/rn/pdb1rn1.ent.gz'
p2313
sS'1gk2'
p2314
S'/net/chevy/raid1/pdb_mirror/pdb/gk/pdb1gk2.ent.gz'
p2315
sS'1gug'
p2316
S'/net/chevy/raid1/pdb_mirror/pdb/gu/pdb1gug.ent.gz'
p2317
sS'3gtu'
p2318
S'/net/chevy/raid1/pdb_mirror/pdb/gt/pdb3gtu.ent.gz'
p2319
sS'4bt0'
p2320
S'/net/chevy/raid1/pdb_mirror/pdb/bt/pdb4bt0.ent.gz'
p2321
sS'1b77'
p2322
S'/net/chevy/raid1/pdb_mirror/pdb/b7/pdb1b77.ent.gz'
p2323
sS'4ftb'
p2324
S'/net/chevy/raid1/pdb_mirror/pdb/ft/pdb4ftb.ent.gz'
p2325
sS'2lgs'
p2326
S'/net/chevy/raid1/pdb_mirror/pdb/lg/pdb2lgs.ent.gz'
p2327
sS'4fte'
p2328
S'/net/chevy/raid1/pdb_mirror/pdb/ft/pdb4fte.ent.gz'
p2329
sS'3zq4'
p2330
S'/net/chevy/raid1/pdb_mirror/pdb/zq/pdb3zq4.ent.gz'
p2331
sS'4fts'
p2332
S'/net/chevy/raid1/pdb_mirror/pdb/ft/pdb4fts.ent.gz'
p2333
sS'2xq1'
p2334
S'/net/chevy/raid1/pdb_mirror/pdb/xq/pdb2xq1.ent.gz'
p2335
sS'4btg'
p2336
S'/net/chevy/raid1/pdb_mirror/pdb/bt/pdb4btg.ent.gz'
p2337
sS'1b7b'
p2338
S'/net/chevy/raid1/pdb_mirror/pdb/b7/pdb1b7b.ent.gz'
p2339
sS'1oez'
p2340
S'/net/chevy/raid1/pdb_mirror/pdb/oe/pdb1oez.ent.gz'
p2341
sS'1gu1'
p2342
S'/net/chevy/raid1/pdb_mirror/pdb/gu/pdb1gu1.ent.gz'
p2343
sS'1gu0'
p2344
S'/net/chevy/raid1/pdb_mirror/pdb/gu/pdb1gu0.ent.gz'
p2345
sS'1gkq'
p2346
S'/net/chevy/raid1/pdb_mirror/pdb/gk/pdb1gkq.ent.gz'
p2347
sS'1mqt'
p2348
S'/net/chevy/raid1/pdb_mirror/pdb/mq/pdb1mqt.ent.gz'
p2349
sS'4hfx'
p2350
S'/net/chevy/raid1/pdb_mirror/pdb/hf/pdb4hfx.ent.gz'
p2351
sS'1gkr'
p2352
S'/net/chevy/raid1/pdb_mirror/pdb/gk/pdb1gkr.ent.gz'
p2353
sS'2buk'
p2354
S'/net/chevy/raid1/pdb_mirror/pdb/bu/pdb2buk.ent.gz'
p2355
sS'1oeb'
p2356
S'/net/chevy/raid1/pdb_mirror/pdb/oe/pdb1oeb.ent.gz'
p2357
sS'1akm'
p2358
S'/net/chevy/raid1/pdb_mirror/pdb/ak/pdb1akm.ent.gz'
p2359
sS'4gpd'
p2360
S'/net/chevy/raid1/pdb_mirror/pdb/gp/pdb4gpd.ent.gz'
p2361
sS'3zc0'
p2362
S'/net/chevy/raid1/pdb_mirror/pdb/zc/pdb3zc0.ent.gz'
p2363
sS'3zc1'
p2364
S'/net/chevy/raid1/pdb_mirror/pdb/zc/pdb3zc1.ent.gz'
p2365
sS'1yve'
p2366
S'/net/chevy/raid1/pdb_mirror/pdb/yv/pdb1yve.ent.gz'
p2367
sS'4elm'
p2368
S'/net/chevy/raid1/pdb_mirror/pdb/el/pdb4elm.ent.gz'
p2369
sS'1cwp'
p2370
S'/net/chevy/raid1/pdb_mirror/pdb/cw/pdb1cwp.ent.gz'
p2371
sS'2c9p'
p2372
S'/net/chevy/raid1/pdb_mirror/pdb/c9/pdb2c9p.ent.gz'
p2373
sS'1awv'
p2374
S'/net/chevy/raid1/pdb_mirror/pdb/aw/pdb1awv.ent.gz'
p2375
sS'1awt'
p2376
S'/net/chevy/raid1/pdb_mirror/pdb/aw/pdb1awt.ent.gz'
p2377
sS'5r1r'
p2378
S'/net/chevy/raid1/pdb_mirror/pdb/r1/pdb5r1r.ent.gz'
p2379
sS'1awr'
p2380
S'/net/chevy/raid1/pdb_mirror/pdb/aw/pdb1awr.ent.gz'
p2381
sS'1rh2'
p2382
S'/net/chevy/raid1/pdb_mirror/pdb/rh/pdb1rh2.ent.gz'
p2383
sS'2c9j'
p2384
S'/net/chevy/raid1/pdb_mirror/pdb/c9/pdb2c9j.ent.gz'
p2385
sS'2c9i'
p2386
S'/net/chevy/raid1/pdb_mirror/pdb/c9/pdb2c9i.ent.gz'
p2387
sS'1ut2'
p2388
S'/net/chevy/raid1/pdb_mirror/pdb/ut/pdb1ut2.ent.gz'
p2389
sS'2xgf'
p2390
S'/net/chevy/raid1/pdb_mirror/pdb/xg/pdb2xgf.ent.gz'
p2391
sS'1hmv'
p2392
S'/net/chevy/raid1/pdb_mirror/pdb/hm/pdb1hmv.ent.gz'
p2393
sS'1ut1'
p2394
S'/net/chevy/raid1/pdb_mirror/pdb/ut/pdb1ut1.ent.gz'
p2395
sS'2xgk'
p2396
S'/net/chevy/raid1/pdb_mirror/pdb/xg/pdb2xgk.ent.gz'
p2397
sS'2xgj'
p2398
S'/net/chevy/raid1/pdb_mirror/pdb/xg/pdb2xgj.ent.gz'
p2399
sS'1nal'
p2400
S'/net/chevy/raid1/pdb_mirror/pdb/na/pdb1nal.ent.gz'
p2401
sS'1qqp'
p2402
S'/net/chevy/raid1/pdb_mirror/pdb/qq/pdb1qqp.ent.gz'
p2403
sS'4jza'
p2404
S'/net/chevy/raid1/pdb_mirror/pdb/jz/pdb4jza.ent.gz'
p2405
sS'1up6'
p2406
S'/net/chevy/raid1/pdb_mirror/pdb/up/pdb1up6.ent.gz'
p2407
sS'3ct4'
p2408
S'/net/chevy/raid1/pdb_mirror/pdb/ct/pdb3ct4.ent.gz'
p2409
sS'2v0v'
p2410
S'/net/chevy/raid1/pdb_mirror/pdb/v0/pdb2v0v.ent.gz'
p2411
sS'2c91'
p2412
S'/net/chevy/raid1/pdb_mirror/pdb/c9/pdb2c91.ent.gz'
p2413
sS'1kga'
p2414
S'/net/chevy/raid1/pdb_mirror/pdb/kg/pdb1kga.ent.gz'
p2415
sS'1aw7'
p2416
S'/net/chevy/raid1/pdb_mirror/pdb/aw/pdb1aw7.ent.gz'
p2417
sS'1aw2'
p2418
S'/net/chevy/raid1/pdb_mirror/pdb/aw/pdb1aw2.ent.gz'
p2419
sS'1aw1'
p2420
S'/net/chevy/raid1/pdb_mirror/pdb/aw/pdb1aw1.ent.gz'
p2421
sS'2v0n'
p2422
S'/net/chevy/raid1/pdb_mirror/pdb/v0/pdb2v0n.ent.gz'
p2423
sS'4dzi'
p2424
S'/net/chevy/raid1/pdb_mirror/pdb/dz/pdb4dzi.ent.gz'
p2425
sS'1lmk'
p2426
S'/net/chevy/raid1/pdb_mirror/pdb/lm/pdb1lmk.ent.gz'
p2427
sS'4hpq'
p2428
S'/net/chevy/raid1/pdb_mirror/pdb/hp/pdb4hpq.ent.gz'
p2429
sS'1ayr'
p2430
S'/net/chevy/raid1/pdb_mirror/pdb/ay/pdb1ayr.ent.gz'
p2431
sS'4cox'
p2432
S'/net/chevy/raid1/pdb_mirror/pdb/co/pdb4cox.ent.gz'
p2433
sS'2wpe'
p2434
S'/net/chevy/raid1/pdb_mirror/pdb/wp/pdb2wpe.ent.gz'
p2435
sS'1bi9'
p2436
S'/net/chevy/raid1/pdb_mirror/pdb/bi/pdb1bi9.ent.gz'
p2437
sS'3lns'
p2438
S'/net/chevy/raid1/pdb_mirror/pdb/ln/pdb3lns.ent.gz'
p2439
sS'4a4k'
p2440
S'/net/chevy/raid1/pdb_mirror/pdb/a4/pdb4a4k.ent.gz'
p2441
sS'1ykf'
p2442
S'/net/chevy/raid1/pdb_mirror/pdb/yk/pdb1ykf.ent.gz'
p2443
sS'2wpc'
p2444
S'/net/chevy/raid1/pdb_mirror/pdb/wp/pdb2wpc.ent.gz'
p2445
sS'1bij'
p2446
S'/net/chevy/raid1/pdb_mirror/pdb/bi/pdb1bij.ent.gz'
p2447
sS'2y5m'
p2448
S'/net/chevy/raid1/pdb_mirror/pdb/y5/pdb2y5m.ent.gz'
p2449
sS'2zah'
p2450
S'/net/chevy/raid1/pdb_mirror/pdb/za/pdb2zah.ent.gz'
p2451
sS'2cdp'
p2452
S'/net/chevy/raid1/pdb_mirror/pdb/cd/pdb2cdp.ent.gz'
p2453
sS'2j9o'
p2454
S'/net/chevy/raid1/pdb_mirror/pdb/j9/pdb2j9o.ent.gz'
p2455
sS'3hn8'
p2456
S'/net/chevy/raid1/pdb_mirror/pdb/hn/pdb3hn8.ent.gz'
p2457
sS'2cdy'
p2458
S'/net/chevy/raid1/pdb_mirror/pdb/cd/pdb2cdy.ent.gz'
p2459
sS'2cde'
p2460
S'/net/chevy/raid1/pdb_mirror/pdb/cd/pdb2cde.ent.gz'
p2461
sS'2y5z'
p2462
S'/net/chevy/raid1/pdb_mirror/pdb/y5/pdb2y5z.ent.gz'
p2463
sS'2cdo'
p2464
S'/net/chevy/raid1/pdb_mirror/pdb/cd/pdb2cdo.ent.gz'
p2465
sS'2y5p'
p2466
S'/net/chevy/raid1/pdb_mirror/pdb/y5/pdb2y5p.ent.gz'
p2467
sS'1biu'
p2468
S'/net/chevy/raid1/pdb_mirror/pdb/bi/pdb1biu.ent.gz'
p2469
sS'1qbj'
p2470
S'/net/chevy/raid1/pdb_mirror/pdb/qb/pdb1qbj.ent.gz'
p2471
sS'4g83'
p2472
S'/net/chevy/raid1/pdb_mirror/pdb/g8/pdb4g83.ent.gz'
p2473
sS'4bq7'
p2474
S'/net/chevy/raid1/pdb_mirror/pdb/bq/pdb4bq7.ent.gz'
p2475
sS'1f8v'
p2476
S'/net/chevy/raid1/pdb_mirror/pdb/f8/pdb1f8v.ent.gz'
p2477
sS'2w69'
p2478
S'/net/chevy/raid1/pdb_mirror/pdb/w6/pdb2w69.ent.gz'
p2479
sS'2vi7'
p2480
S'/net/chevy/raid1/pdb_mirror/pdb/vi/pdb2vi7.ent.gz'
p2481
sS'2vi6'
p2482
S'/net/chevy/raid1/pdb_mirror/pdb/vi/pdb2vi6.ent.gz'
p2483
sS'4ao4'
p2484
S'/net/chevy/raid1/pdb_mirror/pdb/ao/pdb4ao4.ent.gz'
p2485
sS'1qmg'
p2486
S'/net/chevy/raid1/pdb_mirror/pdb/qm/pdb1qmg.ent.gz'
p2487
sS'1dio'
p2488
S'/net/chevy/raid1/pdb_mirror/pdb/di/pdb1dio.ent.gz'
p2489
sS'2wkt'
p2490
S'/net/chevy/raid1/pdb_mirror/pdb/wk/pdb2wkt.ent.gz'
p2491
sS'2vix'
p2492
S'/net/chevy/raid1/pdb_mirror/pdb/vi/pdb2vix.ent.gz'
p2493
sS'4aod'
p2494
S'/net/chevy/raid1/pdb_mirror/pdb/ao/pdb4aod.ent.gz'
p2495
sS'4aoe'
p2496
S'/net/chevy/raid1/pdb_mirror/pdb/ao/pdb4aoe.ent.gz'
p2497
sS'2vih'
p2498
S'/net/chevy/raid1/pdb_mirror/pdb/vi/pdb2vih.ent.gz'
p2499
sS'2vig'
p2500
S'/net/chevy/raid1/pdb_mirror/pdb/vi/pdb2vig.ent.gz'
p2501
sS'4aow'
p2502
S'/net/chevy/raid1/pdb_mirror/pdb/ao/pdb4aow.ent.gz'
p2503
sS'2vic'
p2504
S'/net/chevy/raid1/pdb_mirror/pdb/vi/pdb2vic.ent.gz'
p2505
sS'2tep'
p2506
S'/net/chevy/raid1/pdb_mirror/pdb/te/pdb2tep.ent.gz'
p2507
sS'1ofs'
p2508
S'/net/chevy/raid1/pdb_mirror/pdb/of/pdb1ofs.ent.gz'
p2509
sS'4bub'
p2510
S'/net/chevy/raid1/pdb_mirror/pdb/bu/pdb4bub.ent.gz'
p2511
sS'1ahs'
p2512
S'/net/chevy/raid1/pdb_mirror/pdb/ah/pdb1ahs.ent.gz'
p2513
sS'2bvh'
p2514
S'/net/chevy/raid1/pdb_mirror/pdb/bv/pdb2bvh.ent.gz'
p2515
sS'1ahj'
p2516
S'/net/chevy/raid1/pdb_mirror/pdb/ah/pdb1ahj.ent.gz'
p2517
sS'1ofg'
p2518
S'/net/chevy/raid1/pdb_mirror/pdb/of/pdb1ofg.ent.gz'
p2519
sS'2wm2'
p2520
S'/net/chevy/raid1/pdb_mirror/pdb/wm/pdb2wm2.ent.gz'
p2521
sS'1h64'
p2522
S'/net/chevy/raid1/pdb_mirror/pdb/h6/pdb1h64.ent.gz'
p2523
sS'3ndm'
p2524
S'/net/chevy/raid1/pdb_mirror/pdb/nd/pdb3ndm.ent.gz'
p2525
sS'1par'
p2526
S'/net/chevy/raid1/pdb_mirror/pdb/pa/pdb1par.ent.gz'
p2527
sS'4eci'
p2528
S'/net/chevy/raid1/pdb_mirror/pdb/ec/pdb4eci.ent.gz'
p2529
sS'4ecj'
p2530
S'/net/chevy/raid1/pdb_mirror/pdb/ec/pdb4ecj.ent.gz'
p2531
sS'4ece'
p2532
S'/net/chevy/raid1/pdb_mirror/pdb/ec/pdb4ece.ent.gz'
p2533
sS'4eca'
p2534
S'/net/chevy/raid1/pdb_mirror/pdb/ec/pdb4eca.ent.gz'
p2535
sS'3zpq'
p2536
S'/net/chevy/raid1/pdb_mirror/pdb/zp/pdb3zpq.ent.gz'
p2537
sS'4hg4'
p2538
S'/net/chevy/raid1/pdb_mirror/pdb/hg/pdb4hg4.ent.gz'
p2539
sS'2wmc'
p2540
S'/net/chevy/raid1/pdb_mirror/pdb/wm/pdb2wmc.ent.gz'
p2541
sS'2jfa'
p2542
S'/net/chevy/raid1/pdb_mirror/pdb/jf/pdb2jfa.ent.gz'
p2543
sS'2wmz'
p2544
S'/net/chevy/raid1/pdb_mirror/pdb/wm/pdb2wmz.ent.gz'
p2545
sS'2jfd'
p2546
S'/net/chevy/raid1/pdb_mirror/pdb/jf/pdb2jfd.ent.gz'
p2547
sS'2jfk'
p2548
S'/net/chevy/raid1/pdb_mirror/pdb/jf/pdb2jfk.ent.gz'
p2549
sS'2yn6'
p2550
S'/net/chevy/raid1/pdb_mirror/pdb/yn/pdb2yn6.ent.gz'
p2551
sS'1gd1'
p2552
S'/net/chevy/raid1/pdb_mirror/pdb/gd/pdb1gd1.ent.gz'
p2553
sS'1b65'
p2554
S'/net/chevy/raid1/pdb_mirror/pdb/b6/pdb1b65.ent.gz'
p2555
sS'1h6v'
p2556
S'/net/chevy/raid1/pdb_mirror/pdb/h6/pdb1h6v.ent.gz'
p2557
sS'4bgg'
p2558
S'/net/chevy/raid1/pdb_mirror/pdb/bg/pdb4bgg.ent.gz'
p2559
sS'1h6k'
p2560
S'/net/chevy/raid1/pdb_mirror/pdb/h6/pdb1h6k.ent.gz'
p2561
sS'1wac'
p2562
S'/net/chevy/raid1/pdb_mirror/pdb/wa/pdb1wac.ent.gz'
p2563
sS'1llu'
p2564
S'/net/chevy/raid1/pdb_mirror/pdb/ll/pdb1llu.ent.gz'
p2565
sS'2v1t'
p2566
S'/net/chevy/raid1/pdb_mirror/pdb/v1/pdb2v1t.ent.gz'
p2567
sS'2v1s'
p2568
S'/net/chevy/raid1/pdb_mirror/pdb/v1/pdb2v1s.ent.gz'
p2569
sS'4lih'
p2570
S'/net/chevy/raid1/pdb_mirror/pdb/li/pdb4lih.ent.gz'
p2571
sS'1cfm'
p2572
S'/net/chevy/raid1/pdb_mirror/pdb/cf/pdb1cfm.ent.gz'
p2573
sS'2w65'
p2574
S'/net/chevy/raid1/pdb_mirror/pdb/w6/pdb2w65.ent.gz'
p2575
sS'1fba'
p2576
S'/net/chevy/raid1/pdb_mirror/pdb/fb/pdb1fba.ent.gz'
p2577
sS'2pfk'
p2578
S'/net/chevy/raid1/pdb_mirror/pdb/pf/pdb2pfk.ent.gz'
p2579
sS'1llc'
p2580
S'/net/chevy/raid1/pdb_mirror/pdb/ll/pdb1llc.ent.gz'
p2581
sS'1wav'
p2582
S'/net/chevy/raid1/pdb_mirror/pdb/wa/pdb1wav.ent.gz'
p2583
sS'4rub'
p2584
S'/net/chevy/raid1/pdb_mirror/pdb/ru/pdb4rub.ent.gz'
p2585
sS'1cfz'
p2586
S'/net/chevy/raid1/pdb_mirror/pdb/cf/pdb1cfz.ent.gz'
p2587
sS'1uup'
p2588
S'/net/chevy/raid1/pdb_mirror/pdb/uu/pdb1uup.ent.gz'
p2589
sS'1afv'
p2590
S'/net/chevy/raid1/pdb_mirror/pdb/af/pdb1afv.ent.gz'
p2591
sS'1afr'
p2592
S'/net/chevy/raid1/pdb_mirror/pdb/af/pdb1afr.ent.gz'
p2593
sS'1opo'
p2594
S'/net/chevy/raid1/pdb_mirror/pdb/op/pdb1opo.ent.gz'
p2595
sS'1rco'
p2596
S'/net/chevy/raid1/pdb_mirror/pdb/rc/pdb1rco.ent.gz'
p2597
sS'1opf'
p2598
S'/net/chevy/raid1/pdb_mirror/pdb/op/pdb1opf.ent.gz'
p2599
sS'1afd'
p2600
S'/net/chevy/raid1/pdb_mirror/pdb/af/pdb1afd.ent.gz'
p2601
sS'2qa0'
p2602
S'/net/chevy/raid1/pdb_mirror/pdb/qa/pdb2qa0.ent.gz'
p2603
sS'1afa'
p2604
S'/net/chevy/raid1/pdb_mirror/pdb/af/pdb1afa.ent.gz'
p2605
sS'1afb'
p2606
S'/net/chevy/raid1/pdb_mirror/pdb/af/pdb1afb.ent.gz'
p2607
sS'1rcx'
p2608
S'/net/chevy/raid1/pdb_mirror/pdb/rc/pdb1rcx.ent.gz'
p2609
sS'1rbl'
p2610
S'/net/chevy/raid1/pdb_mirror/pdb/rb/pdb1rbl.ent.gz'
p2611
sS'2xvt'
p2612
S'/net/chevy/raid1/pdb_mirror/pdb/xv/pdb2xvt.ent.gz'
p2613
sS'1uug'
p2614
S'/net/chevy/raid1/pdb_mirror/pdb/uu/pdb1uug.ent.gz'
p2615
sS'3zbn'
p2616
S'/net/chevy/raid1/pdb_mirror/pdb/zb/pdb3zbn.ent.gz'
p2617
sS'2v19'
p2618
S'/net/chevy/raid1/pdb_mirror/pdb/v1/pdb2v19.ent.gz'
p2619
sS'2v18'
p2620
S'/net/chevy/raid1/pdb_mirror/pdb/v1/pdb2v18.ent.gz'
p2621
sS'2xva'
p2622
S'/net/chevy/raid1/pdb_mirror/pdb/xv/pdb2xva.ent.gz'
p2623
sS'2vgr'
p2624
S'/net/chevy/raid1/pdb_mirror/pdb/vg/pdb2vgr.ent.gz'
p2625
sS'1gvn'
p2626
S'/net/chevy/raid1/pdb_mirror/pdb/gv/pdb1gvn.ent.gz'
p2627
sS'1gvm'
p2628
S'/net/chevy/raid1/pdb_mirror/pdb/gv/pdb1gvm.ent.gz'
p2629
sS'1cf9'
p2630
S'/net/chevy/raid1/pdb_mirror/pdb/cf/pdb1cf9.ent.gz'
p2631
sS'2wcd'
p2632
S'/net/chevy/raid1/pdb_mirror/pdb/wc/pdb2wcd.ent.gz'
p2633
sS'1af6'
p2634
S'/net/chevy/raid1/pdb_mirror/pdb/af/pdb1af6.ent.gz'
p2635
sS'1lbs'
p2636
S'/net/chevy/raid1/pdb_mirror/pdb/lb/pdb1lbs.ent.gz'
p2637
sS'2wcw'
p2638
S'/net/chevy/raid1/pdb_mirror/pdb/wc/pdb2wcw.ent.gz'
p2639
sS'2ldb'
p2640
S'/net/chevy/raid1/pdb_mirror/pdb/ld/pdb2ldb.ent.gz'
p2641
sS'2iv1'
p2642
S'/net/chevy/raid1/pdb_mirror/pdb/iv/pdb2iv1.ent.gz'
p2643
sS'1vsz'
p2644
S'/net/chevy/raid1/pdb_mirror/pdb/vs/pdb1vsz.ent.gz'
p2645
sS'1w8x'
p2646
S'/net/chevy/raid1/pdb_mirror/pdb/w8/pdb1w8x.ent.gz'
p2647
sS'1bht'
p2648
S'/net/chevy/raid1/pdb_mirror/pdb/bh/pdb1bht.ent.gz'
p2649
sS'1cx2'
p2650
S'/net/chevy/raid1/pdb_mirror/pdb/cx/pdb1cx2.ent.gz'
p2651
sS'1bhc'
p2652
S'/net/chevy/raid1/pdb_mirror/pdb/bh/pdb1bhc.ent.gz'
p2653
sS'2y4t'
p2654
S'/net/chevy/raid1/pdb_mirror/pdb/y4/pdb2y4t.ent.gz'
p2655
sS'1w8d'
p2656
S'/net/chevy/raid1/pdb_mirror/pdb/w8/pdb1w8d.ent.gz'
p2657
sS'2y4p'
p2658
S'/net/chevy/raid1/pdb_mirror/pdb/y4/pdb2y4p.ent.gz'
p2659
sS'4b2x'
p2660
S'/net/chevy/raid1/pdb_mirror/pdb/b2/pdb4b2x.ent.gz'
p2661
sS'4b2y'
p2662
S'/net/chevy/raid1/pdb_mirror/pdb/b2/pdb4b2y.ent.gz'
p2663
sS'1hl5'
p2664
S'/net/chevy/raid1/pdb_mirror/pdb/hl/pdb1hl5.ent.gz'
p2665
sS'1hl4'
p2666
S'/net/chevy/raid1/pdb_mirror/pdb/hl/pdb1hl4.ent.gz'
p2667
sS'2yil'
p2668
S'/net/chevy/raid1/pdb_mirror/pdb/yi/pdb2yil.ent.gz'
p2669
sS'4b2w'
p2670
S'/net/chevy/raid1/pdb_mirror/pdb/b2/pdb4b2w.ent.gz'
p2671
sS'4b2o'
p2672
S'/net/chevy/raid1/pdb_mirror/pdb/b2/pdb4b2o.ent.gz'
p2673
sS'4b2a'
p2674
S'/net/chevy/raid1/pdb_mirror/pdb/b2/pdb4b2a.ent.gz'
p2675
sS'4b2b'
p2676
S'/net/chevy/raid1/pdb_mirror/pdb/b2/pdb4b2b.ent.gz'
p2677
sS'1bh5'
p2678
S'/net/chevy/raid1/pdb_mirror/pdb/bh/pdb1bh5.ent.gz'
p2679
sS'4i58'
p2680
S'/net/chevy/raid1/pdb_mirror/pdb/i5/pdb4i58.ent.gz'
p2681
sS'4i59'
p2682
S'/net/chevy/raid1/pdb_mirror/pdb/i5/pdb4i59.ent.gz'
p2683
sS'1atj'
p2684
S'/net/chevy/raid1/pdb_mirror/pdb/at/pdb1atj.ent.gz'
p2685
sS'1z7s'
p2686
S'/net/chevy/raid1/pdb_mirror/pdb/z7/pdb1z7s.ent.gz'
p2687
sS'2y46'
p2688
S'/net/chevy/raid1/pdb_mirror/pdb/y4/pdb2y46.ent.gz'
p2689
sS'2rla'
p2690
S'/net/chevy/raid1/pdb_mirror/pdb/rl/pdb2rla.ent.gz'
p2691
sS'1ej6'
p2692
S'/net/chevy/raid1/pdb_mirror/pdb/ej/pdb1ej6.ent.gz'
p2693
sS'2xdc'
p2694
S'/net/chevy/raid1/pdb_mirror/pdb/xd/pdb2xdc.ent.gz'
p2695
sS'3ker'
p2696
S'/net/chevy/raid1/pdb_mirror/pdb/ke/pdb3ker.ent.gz'
p2697
sS'1cf2'
p2698
S'/net/chevy/raid1/pdb_mirror/pdb/cf/pdb1cf2.ent.gz'
p2699
sS'2iyb'
p2700
S'/net/chevy/raid1/pdb_mirror/pdb/iy/pdb2iyb.ent.gz'
p2701
sS'1a12'
p2702
S'/net/chevy/raid1/pdb_mirror/pdb/a1/pdb1a12.ent.gz'
p2703
sS'4ang'
p2704
S'/net/chevy/raid1/pdb_mirror/pdb/an/pdb4ang.ent.gz'
p2705
sS'1jlx'
p2706
S'/net/chevy/raid1/pdb_mirror/pdb/jl/pdb1jlx.ent.gz'
p2707
sS'2vju'
p2708
S'/net/chevy/raid1/pdb_mirror/pdb/vj/pdb2vju.ent.gz'
p2709
sS'2vjh'
p2710
S'/net/chevy/raid1/pdb_mirror/pdb/vj/pdb2vjh.ent.gz'
p2711
sS'4a36'
p2712
S'/net/chevy/raid1/pdb_mirror/pdb/a3/pdb4a36.ent.gz'
p2713
sS'1vpf'
p2714
S'/net/chevy/raid1/pdb_mirror/pdb/vp/pdb1vpf.ent.gz'
p2715
sS'4ejf'
p2716
S'/net/chevy/raid1/pdb_mirror/pdb/ej/pdb4ejf.ent.gz'
p2717
sS'1qf3'
p2718
S'/net/chevy/raid1/pdb_mirror/pdb/qf/pdb1qf3.ent.gz'
p2719
sS'2ldx'
p2720
S'/net/chevy/raid1/pdb_mirror/pdb/ld/pdb2ldx.ent.gz'
p2721
sS'3bcc'
p2722
S'/net/chevy/raid1/pdb_mirror/pdb/bc/pdb3bcc.ent.gz'
p2723
sS'3hmg'
p2724
S'/net/chevy/raid1/pdb_mirror/pdb/hm/pdb3hmg.ent.gz'
p2725
sS'2vxi'
p2726
S'/net/chevy/raid1/pdb_mirror/pdb/vx/pdb2vxi.ent.gz'
p2727
sS'3lmt'
p2728
S'/net/chevy/raid1/pdb_mirror/pdb/lm/pdb3lmt.ent.gz'
p2729
sS'3lmu'
p2730
S'/net/chevy/raid1/pdb_mirror/pdb/lm/pdb3lmu.ent.gz'
p2731
sS'2vxa'
p2732
S'/net/chevy/raid1/pdb_mirror/pdb/vx/pdb2vxa.ent.gz'
p2733
sS'2vxx'
p2734
S'/net/chevy/raid1/pdb_mirror/pdb/vx/pdb2vxx.ent.gz'
p2735
sS'2vxu'
p2736
S'/net/chevy/raid1/pdb_mirror/pdb/vx/pdb2vxu.ent.gz'
p2737
sS'4an5'
p2738
S'/net/chevy/raid1/pdb_mirror/pdb/an/pdb4an5.ent.gz'
p2739
sS'4an4'
p2740
S'/net/chevy/raid1/pdb_mirror/pdb/an/pdb4an4.ent.gz'
p2741
sS'2bel'
p2742
S'/net/chevy/raid1/pdb_mirror/pdb/be/pdb2bel.ent.gz'
p2743
sS'2jgv'
p2744
S'/net/chevy/raid1/pdb_mirror/pdb/jg/pdb2jgv.ent.gz'
p2745
sS'2jgs'
p2746
S'/net/chevy/raid1/pdb_mirror/pdb/jg/pdb2jgs.ent.gz'
p2747
sS'1o82'
p2748
S'/net/chevy/raid1/pdb_mirror/pdb/o8/pdb1o82.ent.gz'
p2749
sS'1o83'
p2750
S'/net/chevy/raid1/pdb_mirror/pdb/o8/pdb1o83.ent.gz'
p2751
sS'2bet'
p2752
S'/net/chevy/raid1/pdb_mirror/pdb/be/pdb2bet.ent.gz'
p2753
sS'2bes'
p2754
S'/net/chevy/raid1/pdb_mirror/pdb/be/pdb2bes.ent.gz'
p2755
sS'4bdn'
p2756
S'/net/chevy/raid1/pdb_mirror/pdb/bd/pdb4bdn.ent.gz'
p2757
sS'4bdo'
p2758
S'/net/chevy/raid1/pdb_mirror/pdb/bd/pdb4bdo.ent.gz'
p2759
sS'4bdm'
p2760
S'/net/chevy/raid1/pdb_mirror/pdb/bd/pdb4bdm.ent.gz'
p2761
sS'1maa'
p2762
S'/net/chevy/raid1/pdb_mirror/pdb/ma/pdb1maa.ent.gz'
p2763
sS'1mal'
p2764
S'/net/chevy/raid1/pdb_mirror/pdb/ma/pdb1mal.ent.gz'
p2765
sS'1n5x'
p2766
S'/net/chevy/raid1/pdb_mirror/pdb/n5/pdb1n5x.ent.gz'
p2767
sS'1o8c'
p2768
S'/net/chevy/raid1/pdb_mirror/pdb/o8/pdb1o8c.ent.gz'
p2769
sS'2jg1'
p2770
S'/net/chevy/raid1/pdb_mirror/pdb/jg/pdb2jg1.ent.gz'
p2771
sS'3ve1'
p2772
S'/net/chevy/raid1/pdb_mirror/pdb/ve/pdb3ve1.ent.gz'
p2773
sS'1o8n'
p2774
S'/net/chevy/raid1/pdb_mirror/pdb/o8/pdb1o8n.ent.gz'
p2775
sS'1o8o'
p2776
S'/net/chevy/raid1/pdb_mirror/pdb/o8/pdb1o8o.ent.gz'
p2777
sS'1o8q'
p2778
S'/net/chevy/raid1/pdb_mirror/pdb/o8/pdb1o8q.ent.gz'
p2779
sS'2wl5'
p2780
S'/net/chevy/raid1/pdb_mirror/pdb/wl/pdb2wl5.ent.gz'
p2781
sS'2wl4'
p2782
S'/net/chevy/raid1/pdb_mirror/pdb/wl/pdb2wl4.ent.gz'
p2783
sS'2wl6'
p2784
S'/net/chevy/raid1/pdb_mirror/pdb/wl/pdb2wl6.ent.gz'
p2785
sS'2g34'
p2786
S'/net/chevy/raid1/pdb_mirror/pdb/g3/pdb2g34.ent.gz'
p2787
sS'4inu'
p2788
S'/net/chevy/raid1/pdb_mirror/pdb/in/pdb4inu.ent.gz'
p2789
sS'4int'
p2790
S'/net/chevy/raid1/pdb_mirror/pdb/in/pdb4int.ent.gz'
p2791
sS'4inr'
p2792
S'/net/chevy/raid1/pdb_mirror/pdb/in/pdb4inr.ent.gz'
p2793
sS'4bd8'
p2794
S'/net/chevy/raid1/pdb_mirror/pdb/bd/pdb4bd8.ent.gz'
p2795
sS'4bd7'
p2796
S'/net/chevy/raid1/pdb_mirror/pdb/bd/pdb4bd7.ent.gz'
p2797
sS'4bd4'
p2798
S'/net/chevy/raid1/pdb_mirror/pdb/bd/pdb4bd4.ent.gz'
p2799
sS'4inn'
p2800
S'/net/chevy/raid1/pdb_mirror/pdb/in/pdb4inn.ent.gz'
p2801
sS'2xwq'
p2802
S'/net/chevy/raid1/pdb_mirror/pdb/xw/pdb2xwq.ent.gz'
p2803
sS'3zed'
p2804
S'/net/chevy/raid1/pdb_mirror/pdb/ze/pdb3zed.ent.gz'
p2805
sS'1og6'
p2806
S'/net/chevy/raid1/pdb_mirror/pdb/og/pdb1og6.ent.gz'
p2807
sS'2xwg'
p2808
S'/net/chevy/raid1/pdb_mirror/pdb/xw/pdb2xwg.ent.gz'
p2809
sS'3tgq'
p2810
S'/net/chevy/raid1/pdb_mirror/pdb/tg/pdb3tgq.ent.gz'
p2811
sS'1x9t'
p2812
S'/net/chevy/raid1/pdb_mirror/pdb/x9/pdb1x9t.ent.gz'
p2813
sS'1c2y'
p2814
S'/net/chevy/raid1/pdb_mirror/pdb/c2/pdb1c2y.ent.gz'
p2815
sS'1x9p'
p2816
S'/net/chevy/raid1/pdb_mirror/pdb/x9/pdb1x9p.ent.gz'
p2817
sS'2bwe'
p2818
S'/net/chevy/raid1/pdb_mirror/pdb/bw/pdb2bwe.ent.gz'
p2819
sS'2bwg'
p2820
S'/net/chevy/raid1/pdb_mirror/pdb/bw/pdb2bwg.ent.gz'
p2821
sS'2bwb'
p2822
S'/net/chevy/raid1/pdb_mirror/pdb/bw/pdb2bwb.ent.gz'
p2823
sS'2wbl'
p2824
S'/net/chevy/raid1/pdb_mirror/pdb/wb/pdb2wbl.ent.gz'
p2825
sS'4eb3'
p2826
S'/net/chevy/raid1/pdb_mirror/pdb/eb/pdb4eb3.ent.gz'
p2827
sS'2bwj'
p2828
S'/net/chevy/raid1/pdb_mirror/pdb/bw/pdb2bwj.ent.gz'
p2829
sS'1wpg'
p2830
S'/net/chevy/raid1/pdb_mirror/pdb/wp/pdb1wpg.ent.gz'
p2831
sS'1e2t'
p2832
S'/net/chevy/raid1/pdb_mirror/pdb/e2/pdb1e2t.ent.gz'
p2833
sS'4bju'
p2834
S'/net/chevy/raid1/pdb_mirror/pdb/bj/pdb4bju.ent.gz'
p2835
sS'1ogy'
p2836
S'/net/chevy/raid1/pdb_mirror/pdb/og/pdb1ogy.ent.gz'
p2837
sS'1b5s'
p2838
S'/net/chevy/raid1/pdb_mirror/pdb/b5/pdb1b5s.ent.gz'
p2839
sS'1b5q'
p2840
S'/net/chevy/raid1/pdb_mirror/pdb/b5/pdb1b5q.ent.gz'
p2841
sS'1ogu'
p2842
S'/net/chevy/raid1/pdb_mirror/pdb/og/pdb1ogu.ent.gz'
p2843
sS'1aip'
p2844
S'/net/chevy/raid1/pdb_mirror/pdb/ai/pdb1aip.ent.gz'
p2845
sS'2yic'
p2846
S'/net/chevy/raid1/pdb_mirror/pdb/yi/pdb2yic.ent.gz'
p2847
sS'2yid'
p2848
S'/net/chevy/raid1/pdb_mirror/pdb/yi/pdb2yid.ent.gz'
p2849
sS'1ogp'
p2850
S'/net/chevy/raid1/pdb_mirror/pdb/og/pdb1ogp.ent.gz'
p2851
sS'1aih'
p2852
S'/net/chevy/raid1/pdb_mirror/pdb/ai/pdb1aih.ent.gz'
p2853
sS'2yiz'
p2854
S'/net/chevy/raid1/pdb_mirror/pdb/yi/pdb2yiz.ent.gz'
p2855
sS'4dhg'
p2856
S'/net/chevy/raid1/pdb_mirror/pdb/dh/pdb4dhg.ent.gz'
p2857
sS'3ze4'
p2858
S'/net/chevy/raid1/pdb_mirror/pdb/ze/pdb3ze4.ent.gz'
p2859
sS'1e2a'
p2860
S'/net/chevy/raid1/pdb_mirror/pdb/e2/pdb1e2a.ent.gz'
p2861
sS'2yip'
p2862
S'/net/chevy/raid1/pdb_mirror/pdb/yi/pdb2yip.ent.gz'
p2863
sS'4grm'
p2864
S'/net/chevy/raid1/pdb_mirror/pdb/gr/pdb4grm.ent.gz'
p2865
sS'4fr4'
p2866
S'/net/chevy/raid1/pdb_mirror/pdb/fr/pdb4fr4.ent.gz'
p2867
sS'4gra'
p2868
S'/net/chevy/raid1/pdb_mirror/pdb/gr/pdb4gra.ent.gz'
p2869
sS'2bw1'
p2870
S'/net/chevy/raid1/pdb_mirror/pdb/bw/pdb2bw1.ent.gz'
p2871
sS'2v21'
p2872
S'/net/chevy/raid1/pdb_mirror/pdb/v2/pdb2v21.ent.gz'
p2873
sS'2y4y'
p2874
S'/net/chevy/raid1/pdb_mirror/pdb/y4/pdb2y4y.ent.gz'
p2875
sS'2c7v'
p2876
S'/net/chevy/raid1/pdb_mirror/pdb/c7/pdb2c7v.ent.gz'
p2877
sS'1qr4'
p2878
S'/net/chevy/raid1/pdb_mirror/pdb/qr/pdb1qr4.ent.gz'
p2879
sS'1auy'
p2880
S'/net/chevy/raid1/pdb_mirror/pdb/au/pdb1auy.ent.gz'
p2881
sS'1qfj'
p2882
S'/net/chevy/raid1/pdb_mirror/pdb/qf/pdb1qfj.ent.gz'
p2883
sS'2j8x'
p2884
S'/net/chevy/raid1/pdb_mirror/pdb/j8/pdb2j8x.ent.gz'
p2885
sS'2j8y'
p2886
S'/net/chevy/raid1/pdb_mirror/pdb/j8/pdb2j8y.ent.gz'
p2887
sS'1auw'
p2888
S'/net/chevy/raid1/pdb_mirror/pdb/au/pdb1auw.ent.gz'
p2889
sS'1cyd'
p2890
S'/net/chevy/raid1/pdb_mirror/pdb/cy/pdb1cyd.ent.gz'
p2891
sS'1aus'
p2892
S'/net/chevy/raid1/pdb_mirror/pdb/au/pdb1aus.ent.gz'
p2893
sS'1rpx'
p2894
S'/net/chevy/raid1/pdb_mirror/pdb/rp/pdb1rpx.ent.gz'
p2895
sS'4jxk'
p2896
S'/net/chevy/raid1/pdb_mirror/pdb/jx/pdb4jxk.ent.gz'
p2897
sS'3gxe'
p2898
S'/net/chevy/raid1/pdb_mirror/pdb/gx/pdb3gxe.ent.gz'
p2899
sS'3kbp'
p2900
S'/net/chevy/raid1/pdb_mirror/pdb/kb/pdb3kbp.ent.gz'
p2901
sS'1euh'
p2902
S'/net/chevy/raid1/pdb_mirror/pdb/eu/pdb1euh.ent.gz'
p2903
sS'1uz6'
p2904
S'/net/chevy/raid1/pdb_mirror/pdb/uz/pdb1uz6.ent.gz'
p2905
sS'1nob'
p2906
S'/net/chevy/raid1/pdb_mirror/pdb/no/pdb1nob.ent.gz'
p2907
sS'1ag8'
p2908
S'/net/chevy/raid1/pdb_mirror/pdb/ag/pdb1ag8.ent.gz'
p2909
sS'2w54'
p2910
S'/net/chevy/raid1/pdb_mirror/pdb/w5/pdb2w54.ent.gz'
p2911
sS'2w55'
p2912
S'/net/chevy/raid1/pdb_mirror/pdb/w5/pdb2w55.ent.gz'
p2913
sS'2xev'
p2914
S'/net/chevy/raid1/pdb_mirror/pdb/xe/pdb2xev.ent.gz'
p2915
sS'1wbl'
p2916
S'/net/chevy/raid1/pdb_mirror/pdb/wb/pdb1wbl.ent.gz'
p2917
sS'1wbh'
p2918
S'/net/chevy/raid1/pdb_mirror/pdb/wb/pdb1wbh.ent.gz'
p2919
sS'1wbi'
p2920
S'/net/chevy/raid1/pdb_mirror/pdb/wb/pdb1wbi.ent.gz'
p2921
sS'1w7w'
p2922
S'/net/chevy/raid1/pdb_mirror/pdb/w7/pdb1w7w.ent.gz'
p2923
sS'2dub'
p2924
S'/net/chevy/raid1/pdb_mirror/pdb/du/pdb2dub.ent.gz'
p2925
sS'1cgq'
p2926
S'/net/chevy/raid1/pdb_mirror/pdb/cg/pdb1cgq.ent.gz'
p2927
sS'2bjh'
p2928
S'/net/chevy/raid1/pdb_mirror/pdb/bj/pdb2bjh.ent.gz'
p2929
sS'1fag'
p2930
S'/net/chevy/raid1/pdb_mirror/pdb/fa/pdb1fag.ent.gz'
p2931
sS'2y9b'
p2932
S'/net/chevy/raid1/pdb_mirror/pdb/y9/pdb2y9b.ent.gz'
p2933
sS'2y9c'
p2934
S'/net/chevy/raid1/pdb_mirror/pdb/y9/pdb2y9c.ent.gz'
p2935
sS'1gwc'
p2936
S'/net/chevy/raid1/pdb_mirror/pdb/gw/pdb1gwc.ent.gz'
p2937
sS'1rbo'
p2938
S'/net/chevy/raid1/pdb_mirror/pdb/rb/pdb1rbo.ent.gz'
p2939
sS'2y9d'
p2940
S'/net/chevy/raid1/pdb_mirror/pdb/y9/pdb2y9d.ent.gz'
p2941
sS'1fpn'
p2942
S'/net/chevy/raid1/pdb_mirror/pdb/fp/pdb1fpn.ent.gz'
p2943
sS'1uzr'
p2944
S'/net/chevy/raid1/pdb_mirror/pdb/uz/pdb1uzr.ent.gz'
p2945
sS'1uzh'
p2946
S'/net/chevy/raid1/pdb_mirror/pdb/uz/pdb1uzh.ent.gz'
p2947
sS'1uzd'
p2948
S'/net/chevy/raid1/pdb_mirror/pdb/uz/pdb1uzd.ent.gz'
p2949
sS'1agn'
p2950
S'/net/chevy/raid1/pdb_mirror/pdb/ag/pdb1agn.ent.gz'
p2951
sS'4jx6'
p2952
S'/net/chevy/raid1/pdb_mirror/pdb/jx/pdb4jx6.ent.gz'
p2953
sS'4jx4'
p2954
S'/net/chevy/raid1/pdb_mirror/pdb/jx/pdb4jx4.ent.gz'
p2955
sS'4jx5'
p2956
S'/net/chevy/raid1/pdb_mirror/pdb/jx/pdb4jx5.ent.gz'
p2957
sS'1ha5'
p2958
S'/net/chevy/raid1/pdb_mirror/pdb/ha/pdb1ha5.ent.gz'
p2959
sS'2wov'
p2960
S'/net/chevy/raid1/pdb_mirror/pdb/wo/pdb2wov.ent.gz'
p2961
sS'1w96'
p2962
S'/net/chevy/raid1/pdb_mirror/pdb/w9/pdb1w96.ent.gz'
p2963
sS'1hgh'
p2964
S'/net/chevy/raid1/pdb_mirror/pdb/hg/pdb1hgh.ent.gz'
p2965
sS'1w7z'
p2966
S'/net/chevy/raid1/pdb_mirror/pdb/w7/pdb1w7z.ent.gz'
p2967
sS'2y75'
p2968
S'/net/chevy/raid1/pdb_mirror/pdb/y7/pdb2y75.ent.gz'
p2969
sS'2vyn'
p2970
S'/net/chevy/raid1/pdb_mirror/pdb/vy/pdb2vyn.ent.gz'
p2971
sS'4a2l'
p2972
S'/net/chevy/raid1/pdb_mirror/pdb/a2/pdb4a2l.ent.gz'
p2973
sS'4i4l'
p2974
S'/net/chevy/raid1/pdb_mirror/pdb/i4/pdb4i4l.ent.gz'
p2975
sS'3anz'
p2976
S'/net/chevy/raid1/pdb_mirror/pdb/an/pdb3anz.ent.gz'
p2977
sS'4b31'
p2978
S'/net/chevy/raid1/pdb_mirror/pdb/b3/pdb4b31.ent.gz'
p2979
sS'3u1n'
p2980
S'/net/chevy/raid1/pdb_mirror/pdb/u1/pdb3u1n.ent.gz'
p2981
sS'4a2x'
p2982
S'/net/chevy/raid1/pdb_mirror/pdb/a2/pdb4a2x.ent.gz'
p2983
sS'2vyx'
p2984
S'/net/chevy/raid1/pdb_mirror/pdb/vy/pdb2vyx.ent.gz'
p2985
sS'2vyv'
p2986
S'/net/chevy/raid1/pdb_mirror/pdb/vy/pdb2vyv.ent.gz'
p2987
sS'4a2q'
p2988
S'/net/chevy/raid1/pdb_mirror/pdb/a2/pdb4a2q.ent.gz'
p2989
sS'4otc'
p2990
S'/net/chevy/raid1/pdb_mirror/pdb/ot/pdb4otc.ent.gz'
p2991
sS'1bos'
p2992
S'/net/chevy/raid1/pdb_mirror/pdb/bo/pdb1bos.ent.gz'
p2993
sS'2xkb'
p2994
S'/net/chevy/raid1/pdb_mirror/pdb/xk/pdb2xkb.ent.gz'
p2995
sS'2xka'
p2996
S'/net/chevy/raid1/pdb_mirror/pdb/xk/pdb2xka.ent.gz'
p2997
sS'2xko'
p2998
S'/net/chevy/raid1/pdb_mirror/pdb/xk/pdb2xko.ent.gz'
p2999
sS'2y7f'
p3000
S'/net/chevy/raid1/pdb_mirror/pdb/y7/pdb2y7f.ent.gz'
p3001
sS'4gvs'
p3002
S'/net/chevy/raid1/pdb_mirror/pdb/gv/pdb4gvs.ent.gz'
p3003
sS'2y7d'
p3004
S'/net/chevy/raid1/pdb_mirror/pdb/y7/pdb2y7d.ent.gz'
p3005
sS'1a8m'
p3006
S'/net/chevy/raid1/pdb_mirror/pdb/a8/pdb1a8m.ent.gz'
p3007
sS'2xkp'
p3008
S'/net/chevy/raid1/pdb_mirror/pdb/xk/pdb2xkp.ent.gz'
p3009
sS'2y7r'
p3010
S'/net/chevy/raid1/pdb_mirror/pdb/y7/pdb2y7r.ent.gz'
p3011
sS'2y7w'
p3012
S'/net/chevy/raid1/pdb_mirror/pdb/y7/pdb2y7w.ent.gz'
p3013
sS'2xky'
p3014
S'/net/chevy/raid1/pdb_mirror/pdb/xk/pdb2xky.ent.gz'
p3015
sS'4b3z'
p3016
S'/net/chevy/raid1/pdb_mirror/pdb/b3/pdb4b3z.ent.gz'
p3017
sS'4b3u'
p3018
S'/net/chevy/raid1/pdb_mirror/pdb/b3/pdb4b3u.ent.gz'
p3019
sS'1fod'
p3020
S'/net/chevy/raid1/pdb_mirror/pdb/fo/pdb1fod.ent.gz'
p3021
sS'1ekm'
p3022
S'/net/chevy/raid1/pdb_mirror/pdb/ek/pdb1ekm.ent.gz'
p3023
sS'4b3l'
p3024
S'/net/chevy/raid1/pdb_mirror/pdb/b3/pdb4b3l.ent.gz'
p3025
sS'4b3k'
p3026
S'/net/chevy/raid1/pdb_mirror/pdb/b3/pdb4b3k.ent.gz'
p3027
sS'4e4l'
p3028
S'/net/chevy/raid1/pdb_mirror/pdb/e4/pdb4e4l.ent.gz'
p3029
sS'1foh'
p3030
S'/net/chevy/raid1/pdb_mirror/pdb/fo/pdb1foh.ent.gz'
p3031
sS'4a25'
p3032
S'/net/chevy/raid1/pdb_mirror/pdb/a2/pdb4a25.ent.gz'
p3033
sS'3un8'
p3034
S'/net/chevy/raid1/pdb_mirror/pdb/un/pdb3un8.ent.gz'
p3035
sS'3ntt'
p3036
S'/net/chevy/raid1/pdb_mirror/pdb/nt/pdb3ntt.ent.gz'
p3037
sS'2gh8'
p3038
S'/net/chevy/raid1/pdb_mirror/pdb/gh/pdb2gh8.ent.gz'
p3039
sS'3un4'
p3040
S'/net/chevy/raid1/pdb_mirror/pdb/un/pdb3un4.ent.gz'
p3041
sS'1o9r'
p3042
S'/net/chevy/raid1/pdb_mirror/pdb/o9/pdb1o9r.ent.gz'
p3043
sS'1o9y'
p3044
S'/net/chevy/raid1/pdb_mirror/pdb/o9/pdb1o9y.ent.gz'
p3045
sS'4imr'
p3046
S'/net/chevy/raid1/pdb_mirror/pdb/im/pdb4imr.ent.gz'
p3047
sS'2bs9'
p3048
S'/net/chevy/raid1/pdb_mirror/pdb/bs/pdb2bs9.ent.gz'
p3049
sS'3bto'
p3050
S'/net/chevy/raid1/pdb_mirror/pdb/bt/pdb3bto.ent.gz'
p3051
sS'3hbx'
p3052
S'/net/chevy/raid1/pdb_mirror/pdb/hb/pdb3hbx.ent.gz'
p3053
sS'4am8'
p3054
S'/net/chevy/raid1/pdb_mirror/pdb/am/pdb4am8.ent.gz'
p3055
sS'3zwm'
p3056
S'/net/chevy/raid1/pdb_mirror/pdb/zw/pdb3zwm.ent.gz'
p3057
sS'2bs1'
p3058
S'/net/chevy/raid1/pdb_mirror/pdb/bs/pdb2bs1.ent.gz'
p3059
sS'1o91'
p3060
S'/net/chevy/raid1/pdb_mirror/pdb/o9/pdb1o91.ent.gz'
p3061
sS'2vkr'
p3062
S'/net/chevy/raid1/pdb_mirror/pdb/vk/pdb2vkr.ent.gz'
p3063
sS'3unb'
p3064
S'/net/chevy/raid1/pdb_mirror/pdb/un/pdb3unb.ent.gz'
p3065
sS'3unf'
p3066
S'/net/chevy/raid1/pdb_mirror/pdb/un/pdb3unf.ent.gz'
p3067
sS'2vkx'
p3068
S'/net/chevy/raid1/pdb_mirror/pdb/vk/pdb2vkx.ent.gz'
p3069
sS'3une'
p3070
S'/net/chevy/raid1/pdb_mirror/pdb/un/pdb3une.ent.gz'
p3071
sS'4amj'
p3072
S'/net/chevy/raid1/pdb_mirror/pdb/am/pdb4amj.ent.gz'
p3073
sS'4ami'
p3074
S'/net/chevy/raid1/pdb_mirror/pdb/am/pdb4ami.ent.gz'
p3075
sS'4ama'
p3076
S'/net/chevy/raid1/pdb_mirror/pdb/am/pdb4ama.ent.gz'
p3077
sS'2cpg'
p3078
S'/net/chevy/raid1/pdb_mirror/pdb/cp/pdb2cpg.ent.gz'
p3079
sS'1hss'
p3080
S'/net/chevy/raid1/pdb_mirror/pdb/hs/pdb1hss.ent.gz'
p3081
sS'4amx'
p3082
S'/net/chevy/raid1/pdb_mirror/pdb/am/pdb4amx.ent.gz'
p3083
sS'1jch'
p3084
S'/net/chevy/raid1/pdb_mirror/pdb/jc/pdb1jch.ent.gz'
p3085
sS'3p9u'
p3086
S'/net/chevy/raid1/pdb_mirror/pdb/p9/pdb3p9u.ent.gz'
p3087
sS'4amw'
p3088
S'/net/chevy/raid1/pdb_mirror/pdb/am/pdb4amw.ent.gz'
p3089
sS'1e3u'
p3090
S'/net/chevy/raid1/pdb_mirror/pdb/e3/pdb1e3u.ent.gz'
p3091
sS'1b4u'
p3092
S'/net/chevy/raid1/pdb_mirror/pdb/b4/pdb1b4u.ent.gz'
p3093
sS'1b4w'
p3094
S'/net/chevy/raid1/pdb_mirror/pdb/b4/pdb1b4w.ent.gz'
p3095
sS'2ws3'
p3096
S'/net/chevy/raid1/pdb_mirror/pdb/ws/pdb2ws3.ent.gz'
p3097
sS'2ws9'
p3098
S'/net/chevy/raid1/pdb_mirror/pdb/ws/pdb2ws9.ent.gz'
p3099
sS'2yhe'
p3100
S'/net/chevy/raid1/pdb_mirror/pdb/yh/pdb2yhe.ent.gz'
p3101
sS'3v3n'
p3102
S'/net/chevy/raid1/pdb_mirror/pdb/v3/pdb3v3n.ent.gz'
p3103
sS'1e3d'
p3104
S'/net/chevy/raid1/pdb_mirror/pdb/e3/pdb1e3d.ent.gz'
p3105
sS'1rsc'
p3106
S'/net/chevy/raid1/pdb_mirror/pdb/rs/pdb1rsc.ent.gz'
p3107
sS'4bkn'
p3108
S'/net/chevy/raid1/pdb_mirror/pdb/bk/pdb4bkn.ent.gz'
p3109
sS'2bf7'
p3110
S'/net/chevy/raid1/pdb_mirror/pdb/bf/pdb2bf7.ent.gz'
p3111
sS'1b4n'
p3112
S'/net/chevy/raid1/pdb_mirror/pdb/b4/pdb1b4n.ent.gz'
p3113
sS'3zrt'
p3114
S'/net/chevy/raid1/pdb_mirror/pdb/zr/pdb3zrt.ent.gz'
p3115
sS'1mf2'
p3116
S'/net/chevy/raid1/pdb_mirror/pdb/mf/pdb1mf2.ent.gz'
p3117
sS'1vkl'
p3118
S'/net/chevy/raid1/pdb_mirror/pdb/vk/pdb1vkl.ent.gz'
p3119
sS'1h86'
p3120
S'/net/chevy/raid1/pdb_mirror/pdb/h8/pdb1h86.ent.gz'
p3121
sS'1h84'
p3122
S'/net/chevy/raid1/pdb_mirror/pdb/h8/pdb1h84.ent.gz'
p3123
sS'1h83'
p3124
S'/net/chevy/raid1/pdb_mirror/pdb/h8/pdb1h83.ent.gz'
p3125
sS'1h82'
p3126
S'/net/chevy/raid1/pdb_mirror/pdb/h8/pdb1h82.ent.gz'
p3127
sS'1h81'
p3128
S'/net/chevy/raid1/pdb_mirror/pdb/h8/pdb1h81.ent.gz'
p3129
sS'1pci'
p3130
S'/net/chevy/raid1/pdb_mirror/pdb/pc/pdb1pci.ent.gz'
p3131
sS'4guq'
p3132
S'/net/chevy/raid1/pdb_mirror/pdb/gu/pdb4guq.ent.gz'
p3133
sS'1pcf'
p3134
S'/net/chevy/raid1/pdb_mirror/pdb/pc/pdb1pcf.ent.gz'
p3135
sS'4guv'
p3136
S'/net/chevy/raid1/pdb_mirror/pdb/gu/pdb4guv.ent.gz'
p3137
sS'2wst'
p3138
S'/net/chevy/raid1/pdb_mirror/pdb/ws/pdb2wst.ent.gz'
p3139
sS'2wsu'
p3140
S'/net/chevy/raid1/pdb_mirror/pdb/ws/pdb2wsu.ent.gz'
p3141
sS'1b44'
p3142
S'/net/chevy/raid1/pdb_mirror/pdb/b4/pdb1b44.ent.gz'
p3143
sS'1b47'
p3144
S'/net/chevy/raid1/pdb_mirror/pdb/b4/pdb1b47.ent.gz'
p3145
sS'2bfm'
p3146
S'/net/chevy/raid1/pdb_mirror/pdb/bf/pdb2bfm.ent.gz'
p3147
sS'2bfa'
p3148
S'/net/chevy/raid1/pdb_mirror/pdb/bf/pdb2bfa.ent.gz'
p3149
sS'2bfg'
p3150
S'/net/chevy/raid1/pdb_mirror/pdb/bf/pdb2bfg.ent.gz'
p3151
sS'2yh2'
p3152
S'/net/chevy/raid1/pdb_mirror/pdb/yh/pdb2yh2.ent.gz'
p3153
sS'2bfp'
p3154
S'/net/chevy/raid1/pdb_mirror/pdb/bf/pdb2bfp.ent.gz'
p3155
sS'3vdd'
p3156
S'/net/chevy/raid1/pdb_mirror/pdb/vd/pdb3vdd.ent.gz'
p3157
sS'2bfu'
p3158
S'/net/chevy/raid1/pdb_mirror/pdb/bf/pdb2bfu.ent.gz'
p3159
sS'3zr4'
p3160
S'/net/chevy/raid1/pdb_mirror/pdb/zr/pdb3zr4.ent.gz'
p3161
sS'1mfr'
p3162
S'/net/chevy/raid1/pdb_mirror/pdb/mf/pdb1mfr.ent.gz'
p3163
sS'4fet'
p3164
S'/net/chevy/raid1/pdb_mirror/pdb/fe/pdb4fet.ent.gz'
p3165
sS'1h8v'
p3166
S'/net/chevy/raid1/pdb_mirror/pdb/h8/pdb1h8v.ent.gz'
p3167
sS'1h8t'
p3168
S'/net/chevy/raid1/pdb_mirror/pdb/h8/pdb1h8t.ent.gz'
p3169
sS'1ppr'
p3170
S'/net/chevy/raid1/pdb_mirror/pdb/pp/pdb1ppr.ent.gz'
p3171
sS'2mpr'
p3172
S'/net/chevy/raid1/pdb_mirror/pdb/mp/pdb2mpr.ent.gz'
p3173
sS'1mff'
p3174
S'/net/chevy/raid1/pdb_mirror/pdb/mf/pdb1mff.ent.gz'
p3175
sS'1mfi'
p3176
S'/net/chevy/raid1/pdb_mirror/pdb/mf/pdb1mfi.ent.gz'
p3177
sS'4fao'
p3178
S'/net/chevy/raid1/pdb_mirror/pdb/fa/pdb4fao.ent.gz'
p3179
sS'1kzu'
p3180
S'/net/chevy/raid1/pdb_mirror/pdb/kz/pdb1kzu.ent.gz'
p3181
sS'2v3w'
p3182
S'/net/chevy/raid1/pdb_mirror/pdb/v3/pdb2v3w.ent.gz'
p3183
sS'1wcb'
p3184
S'/net/chevy/raid1/pdb_mirror/pdb/wc/pdb1wcb.ent.gz'
p3185
sS'1wce'
p3186
S'/net/chevy/raid1/pdb_mirror/pdb/wc/pdb1wce.ent.gz'
p3187
sS'3vun'
p3188
S'/net/chevy/raid1/pdb_mirror/pdb/vu/pdb3vun.ent.gz'
p3189
sS'2xmh'
p3190
S'/net/chevy/raid1/pdb_mirror/pdb/xm/pdb2xmh.ent.gz'
p3191
sS'1gpd'
p3192
S'/net/chevy/raid1/pdb_mirror/pdb/gp/pdb1gpd.ent.gz'
p3193
sS'1gph'
p3194
S'/net/chevy/raid1/pdb_mirror/pdb/gp/pdb1gph.ent.gz'
p3195
sS'1ady'
p3196
S'/net/chevy/raid1/pdb_mirror/pdb/ad/pdb1ady.ent.gz'
p3197
sS'2bp1'
p3198
S'/net/chevy/raid1/pdb_mirror/pdb/bp/pdb2bp1.ent.gz'
p3199
sS'1adj'
p3200
S'/net/chevy/raid1/pdb_mirror/pdb/ad/pdb1adj.ent.gz'
p3201
sS'1urp'
p3202
S'/net/chevy/raid1/pdb_mirror/pdb/ur/pdb1urp.ent.gz'
p3203
sS'2w4z'
p3204
S'/net/chevy/raid1/pdb_mirror/pdb/w4/pdb2w4z.ent.gz'
p3205
sS'3zdg'
p3206
S'/net/chevy/raid1/pdb_mirror/pdb/zd/pdb3zdg.ent.gz'
p3207
sS'2fz2'
p3208
S'/net/chevy/raid1/pdb_mirror/pdb/fz/pdb2fz2.ent.gz'
p3209
sS'2fz1'
p3210
S'/net/chevy/raid1/pdb_mirror/pdb/fz/pdb2fz1.ent.gz'
p3211
sS'2xts'
p3212
S'/net/chevy/raid1/pdb_mirror/pdb/xt/pdb2xts.ent.gz'
p3213
sS'2v32'
p3214
S'/net/chevy/raid1/pdb_mirror/pdb/v3/pdb2v32.ent.gz'
p3215
sS'1axm'
p3216
S'/net/chevy/raid1/pdb_mirror/pdb/ax/pdb1axm.ent.gz'
p3217
sS'1ch0'
p3218
S'/net/chevy/raid1/pdb_mirror/pdb/ch/pdb1ch0.ent.gz'
p3219
sS'1wc7'
p3220
S'/net/chevy/raid1/pdb_mirror/pdb/wc/pdb1wc7.ent.gz'
p3221
sS'2xta'
p3222
S'/net/chevy/raid1/pdb_mirror/pdb/xt/pdb2xta.ent.gz'
p3223
sS'7msf'
p3224
S'/net/chevy/raid1/pdb_mirror/pdb/ms/pdb7msf.ent.gz'
p3225
sS'1v0e'
p3226
S'/net/chevy/raid1/pdb_mirror/pdb/v0/pdb1v0e.ent.gz'
p3227
sS'3zke'
p3228
S'/net/chevy/raid1/pdb_mirror/pdb/zk/pdb3zke.ent.gz'
p3229
sS'2bpm'
p3230
S'/net/chevy/raid1/pdb_mirror/pdb/bp/pdb2bpm.ent.gz'
p3231
sS'2wam'
p3232
S'/net/chevy/raid1/pdb_mirror/pdb/wa/pdb2wam.ent.gz'
p3233
sS'3k8z'
p3234
S'/net/chevy/raid1/pdb_mirror/pdb/k8/pdb3k8z.ent.gz'
p3235
sS'1gp7'
p3236
S'/net/chevy/raid1/pdb_mirror/pdb/gp/pdb1gp7.ent.gz'
p3237
sS'4fsj'
p3238
S'/net/chevy/raid1/pdb_mirror/pdb/fs/pdb4fsj.ent.gz'
p3239
sS'2y6v'
p3240
S'/net/chevy/raid1/pdb_mirror/pdb/y6/pdb2y6v.ent.gz'
p3241
sS'2caz'
p3242
S'/net/chevy/raid1/pdb_mirror/pdb/ca/pdb2caz.ent.gz'
p3243
sS'2cax'
p3244
S'/net/chevy/raid1/pdb_mirror/pdb/ca/pdb2cax.ent.gz'
p3245
sS'2y6r'
p3246
S'/net/chevy/raid1/pdb_mirror/pdb/y6/pdb2y6r.ent.gz'
p3247
sS'2c63'
p3248
S'/net/chevy/raid1/pdb_mirror/pdb/c6/pdb2c63.ent.gz'
p3249
sS'2can'
p3250
S'/net/chevy/raid1/pdb_mirror/pdb/ca/pdb2can.ent.gz'
p3251
sS'1smr'
p3252
S'/net/chevy/raid1/pdb_mirror/pdb/sm/pdb1smr.ent.gz'
p3253
sS'2y6n'
p3254
S'/net/chevy/raid1/pdb_mirror/pdb/y6/pdb2y6n.ent.gz'
p3255
sS'1bnl'
p3256
S'/net/chevy/raid1/pdb_mirror/pdb/bn/pdb1bnl.ent.gz'
p3257
sS'1ehy'
p3258
S'/net/chevy/raid1/pdb_mirror/pdb/eh/pdb1ehy.ent.gz'
p3259
sS'2xz0'
p3260
S'/net/chevy/raid1/pdb_mirror/pdb/xz/pdb2xz0.ent.gz'
p3261
sS'2xz1'
p3262
S'/net/chevy/raid1/pdb_mirror/pdb/xz/pdb2xz1.ent.gz'
p3263
sS'2vq0'
p3264
S'/net/chevy/raid1/pdb_mirror/pdb/vq/pdb2vq0.ent.gz'
p3265
sS'2xyo'
p3266
S'/net/chevy/raid1/pdb_mirror/pdb/xy/pdb2xyo.ent.gz'
p3267
sS'4b0j'
p3268
S'/net/chevy/raid1/pdb_mirror/pdb/b0/pdb4b0j.ent.gz'
p3269
sS'4b0i'
p3270
S'/net/chevy/raid1/pdb_mirror/pdb/b0/pdb4b0i.ent.gz'
p3271
sS'4b0c'
p3272
S'/net/chevy/raid1/pdb_mirror/pdb/b0/pdb4b0c.ent.gz'
p3273
sS'1lxt'
p3274
S'/net/chevy/raid1/pdb_mirror/pdb/lx/pdb1lxt.ent.gz'
p3275
sS'2c6x'
p3276
S'/net/chevy/raid1/pdb_mirror/pdb/c6/pdb2c6x.ent.gz'
p3277
sS'2c6s'
p3278
S'/net/chevy/raid1/pdb_mirror/pdb/c6/pdb2c6s.ent.gz'
p3279
sS'2j9l'
p3280
S'/net/chevy/raid1/pdb_mirror/pdb/j9/pdb2j9l.ent.gz'
p3281
sS'1arz'
p3282
S'/net/chevy/raid1/pdb_mirror/pdb/ar/pdb1arz.ent.gz'
p3283
sS'2j9u'
p3284
S'/net/chevy/raid1/pdb_mirror/pdb/j9/pdb2j9u.ent.gz'
p3285
sS'1ts3'
p3286
S'/net/chevy/raid1/pdb_mirror/pdb/ts/pdb1ts3.ent.gz'
p3287
sS'2xzt'
p3288
S'/net/chevy/raid1/pdb_mirror/pdb/xz/pdb2xzt.ent.gz'
p3289
sS'4b03'
p3290
S'/net/chevy/raid1/pdb_mirror/pdb/b0/pdb4b03.ent.gz'
p3291
sS'1axs'
p3292
S'/net/chevy/raid1/pdb_mirror/pdb/ax/pdb1axs.ent.gz'
p3293
sS'1dji'
p3294
S'/net/chevy/raid1/pdb_mirror/pdb/dj/pdb1dji.ent.gz'
p3295
sS'1djh'
p3296
S'/net/chevy/raid1/pdb_mirror/pdb/dj/pdb1djh.ent.gz'
p3297
sS'2vle'
p3298
S'/net/chevy/raid1/pdb_mirror/pdb/vl/pdb2vle.ent.gz'
p3299
sS'2mas'
p3300
S'/net/chevy/raid1/pdb_mirror/pdb/ma/pdb2mas.ent.gz'
p3301
sS'1djg'
p3302
S'/net/chevy/raid1/pdb_mirror/pdb/dj/pdb1djg.ent.gz'
p3303
sS'1tnv'
p3304
S'/net/chevy/raid1/pdb_mirror/pdb/tn/pdb1tnv.ent.gz'
p3305
sS'3qhr'
p3306
S'/net/chevy/raid1/pdb_mirror/pdb/qh/pdb3qhr.ent.gz'
p3307
sS'1hrd'
p3308
S'/net/chevy/raid1/pdb_mirror/pdb/hr/pdb1hrd.ent.gz'
p3309
sS'1dx9'
p3310
S'/net/chevy/raid1/pdb_mirror/pdb/dx/pdb1dx9.ent.gz'
p3311
sS'4alx'
p3312
S'/net/chevy/raid1/pdb_mirror/pdb/al/pdb4alx.ent.gz'
p3313
sS'1tnd'
p3314
S'/net/chevy/raid1/pdb_mirror/pdb/tn/pdb1tnd.ent.gz'
p3315
sS'1tnf'
p3316
S'/net/chevy/raid1/pdb_mirror/pdb/tn/pdb1tnf.ent.gz'
p3317
sS'4alb'
p3318
S'/net/chevy/raid1/pdb_mirror/pdb/al/pdb4alb.ent.gz'
p3319
sS'2iyp'
p3320
S'/net/chevy/raid1/pdb_mirror/pdb/iy/pdb2iyp.ent.gz'
p3321
sS'2vz0'
p3322
S'/net/chevy/raid1/pdb_mirror/pdb/vz/pdb2vz0.ent.gz'
p3323
sS'2vl0'
p3324
S'/net/chevy/raid1/pdb_mirror/pdb/vl/pdb2vl0.ent.gz'
p3325
sS'2vl1'
p3326
S'/net/chevy/raid1/pdb_mirror/pdb/vl/pdb2vl1.ent.gz'
p3327
sS'2vl6'
p3328
S'/net/chevy/raid1/pdb_mirror/pdb/vl/pdb2vl6.ent.gz'
p3329
sS'4h4d'
p3330
S'/net/chevy/raid1/pdb_mirror/pdb/h4/pdb4h4d.ent.gz'
p3331
sS'4h4e'
p3332
S'/net/chevy/raid1/pdb_mirror/pdb/h4/pdb4h4e.ent.gz'
p3333
sS'4h4c'
p3334
S'/net/chevy/raid1/pdb_mirror/pdb/h4/pdb4h4c.ent.gz'
p3335
sS'4al4'
p3336
S'/net/chevy/raid1/pdb_mirror/pdb/al/pdb4al4.ent.gz'
p3337
sS'2vzb'
p3338
S'/net/chevy/raid1/pdb_mirror/pdb/vz/pdb2vzb.ent.gz'
p3339
sS'1dxx'
p3340
S'/net/chevy/raid1/pdb_mirror/pdb/dx/pdb1dxx.ent.gz'
p3341
sS'4al9'
p3342
S'/net/chevy/raid1/pdb_mirror/pdb/al/pdb4al9.ent.gz'
p3343
sS'8i1b'
p3344
S'/net/chevy/raid1/pdb_mirror/pdb/i1/pdb8i1b.ent.gz'
p3345
sS'2iy4'
p3346
S'/net/chevy/raid1/pdb_mirror/pdb/iy/pdb2iy4.ent.gz'
p3347
sS'1hr3'
p3348
S'/net/chevy/raid1/pdb_mirror/pdb/hr/pdb1hr3.ent.gz'
p3349
sS'1dxl'
p3350
S'/net/chevy/raid1/pdb_mirror/pdb/dx/pdb1dxl.ent.gz'
p3351
sS'2bgw'
p3352
S'/net/chevy/raid1/pdb_mirror/pdb/bg/pdb2bgw.ent.gz'
p3353
sS'4gb3'
p3354
S'/net/chevy/raid1/pdb_mirror/pdb/gb/pdb4gb3.ent.gz'
p3355
sS'1br4'
p3356
S'/net/chevy/raid1/pdb_mirror/pdb/br/pdb1br4.ent.gz'
p3357
sS'1br2'
p3358
S'/net/chevy/raid1/pdb_mirror/pdb/br/pdb1br2.ent.gz'
p3359
sS'1br1'
p3360
S'/net/chevy/raid1/pdb_mirror/pdb/br/pdb1br1.ent.gz'
p3361
sS'2w0d'
p3362
S'/net/chevy/raid1/pdb_mirror/pdb/w0/pdb2w0d.ent.gz'
p3363
sS'2bgn'
p3364
S'/net/chevy/raid1/pdb_mirror/pdb/bg/pdb2bgn.ent.gz'
p3365
sS'2bgj'
p3366
S'/net/chevy/raid1/pdb_mirror/pdb/bg/pdb2bgj.ent.gz'
p3367
sS'1ddo'
p3368
S'/net/chevy/raid1/pdb_mirror/pdb/dd/pdb1ddo.ent.gz'
p3369
sS'1ddl'
p3370
S'/net/chevy/raid1/pdb_mirror/pdb/dd/pdb1ddl.ent.gz'
p3371
sS'1ddk'
p3372
S'/net/chevy/raid1/pdb_mirror/pdb/dd/pdb1ddk.ent.gz'
p3373
sS'3n7x'
p3374
S'/net/chevy/raid1/pdb_mirror/pdb/n7/pdb3n7x.ent.gz'
p3375
sS'4l6w'
p3376
S'/net/chevy/raid1/pdb_mirror/pdb/l6/pdb4l6w.ent.gz'
p3377
sS'1bre'
p3378
S'/net/chevy/raid1/pdb_mirror/pdb/br/pdb1bre.ent.gz'
p3379
sS'3v22'
p3380
S'/net/chevy/raid1/pdb_mirror/pdb/v2/pdb3v22.ent.gz'
p3381
sS'2vav'
p3382
S'/net/chevy/raid1/pdb_mirror/pdb/va/pdb2vav.ent.gz'
p3383
sS'2ja3'
p3384
S'/net/chevy/raid1/pdb_mirror/pdb/ja/pdb2ja3.ent.gz'
p3385
sS'4gbt'
p3386
S'/net/chevy/raid1/pdb_mirror/pdb/gb/pdb4gbt.ent.gz'
p3387
sS'1brm'
p3388
S'/net/chevy/raid1/pdb_mirror/pdb/br/pdb1brm.ent.gz'
p3389
sS'2xut'
p3390
S'/net/chevy/raid1/pdb_mirror/pdb/xu/pdb2xut.ent.gz'
p3391
sS'1brr'
p3392
S'/net/chevy/raid1/pdb_mirror/pdb/br/pdb1brr.ent.gz'
p3393
sS'4azx'
p3394
S'/net/chevy/raid1/pdb_mirror/pdb/az/pdb4azx.ent.gz'
p3395
sS'4iz5'
p3396
S'/net/chevy/raid1/pdb_mirror/pdb/iz/pdb4iz5.ent.gz'
p3397
sS'3pcl'
p3398
S'/net/chevy/raid1/pdb_mirror/pdb/pc/pdb3pcl.ent.gz'
p3399
sS'3pcm'
p3400
S'/net/chevy/raid1/pdb_mirror/pdb/pc/pdb3pcm.ent.gz'
p3401
sS'3pcn'
p3402
S'/net/chevy/raid1/pdb_mirror/pdb/pc/pdb3pcn.ent.gz'
p3403
sS'3pch'
p3404
S'/net/chevy/raid1/pdb_mirror/pdb/pc/pdb3pch.ent.gz'
p3405
sS'3pci'
p3406
S'/net/chevy/raid1/pdb_mirror/pdb/pc/pdb3pci.ent.gz'
p3407
sS'3pcj'
p3408
S'/net/chevy/raid1/pdb_mirror/pdb/pc/pdb3pcj.ent.gz'
p3409
sS'3pck'
p3410
S'/net/chevy/raid1/pdb_mirror/pdb/pc/pdb3pck.ent.gz'
p3411
sS'3pcd'
p3412
S'/net/chevy/raid1/pdb_mirror/pdb/pc/pdb3pcd.ent.gz'
p3413
sS'3pce'
p3414
S'/net/chevy/raid1/pdb_mirror/pdb/pc/pdb3pce.ent.gz'
p3415
sS'3pcf'
p3416
S'/net/chevy/raid1/pdb_mirror/pdb/pc/pdb3pcf.ent.gz'
p3417
sS'3pcg'
p3418
S'/net/chevy/raid1/pdb_mirror/pdb/pc/pdb3pcg.ent.gz'
p3419
sS'3pca'
p3420
S'/net/chevy/raid1/pdb_mirror/pdb/pc/pdb3pca.ent.gz'
p3421
sS'3pcb'
p3422
S'/net/chevy/raid1/pdb_mirror/pdb/pc/pdb3pcb.ent.gz'
p3423
sS'3pcc'
p3424
S'/net/chevy/raid1/pdb_mirror/pdb/pc/pdb3pcc.ent.gz'
p3425
sS'3hag'
p3426
S'/net/chevy/raid1/pdb_mirror/pdb/ha/pdb3hag.ent.gz'
p3427
sS'2vx3'
p3428
S'/net/chevy/raid1/pdb_mirror/pdb/vx/pdb2vx3.ent.gz'
p3429
sS'3v29'
p3430
S'/net/chevy/raid1/pdb_mirror/pdb/v2/pdb3v29.ent.gz'
p3431
sS'4bh0'
p3432
S'/net/chevy/raid1/pdb_mirror/pdb/bh/pdb4bh0.ent.gz'
p3433
sS'1oa8'
p3434
S'/net/chevy/raid1/pdb_mirror/pdb/oa/pdb1oa8.ent.gz'
p3435
sS'4bh6'
p3436
S'/net/chevy/raid1/pdb_mirror/pdb/bh/pdb4bh6.ent.gz'
p3437
sS'2xuq'
p3438
S'/net/chevy/raid1/pdb_mirror/pdb/xu/pdb2xuq.ent.gz'
p3439
sS'2xup'
p3440
S'/net/chevy/raid1/pdb_mirror/pdb/xu/pdb2xup.ent.gz'
p3441
sS'3sqc'
p3442
S'/net/chevy/raid1/pdb_mirror/pdb/sq/pdb3sqc.ent.gz'
p3443
sS'3sqb'
p3444
S'/net/chevy/raid1/pdb_mirror/pdb/sq/pdb3sqb.ent.gz'
p3445
sS'3v25'
p3446
S'/net/chevy/raid1/pdb_mirror/pdb/v2/pdb3v25.ent.gz'
p3447
sS'3v24'
p3448
S'/net/chevy/raid1/pdb_mirror/pdb/v2/pdb3v24.ent.gz'
p3449
sS'3v26'
p3450
S'/net/chevy/raid1/pdb_mirror/pdb/v2/pdb3v26.ent.gz'
p3451
sS'2xui'
p3452
S'/net/chevy/raid1/pdb_mirror/pdb/xu/pdb2xui.ent.gz'
p3453
sS'2xuh'
p3454
S'/net/chevy/raid1/pdb_mirror/pdb/xu/pdb2xuh.ent.gz'
p3455
sS'2xuk'
p3456
S'/net/chevy/raid1/pdb_mirror/pdb/xu/pdb2xuk.ent.gz'
p3457
sS'2xuj'
p3458
S'/net/chevy/raid1/pdb_mirror/pdb/xu/pdb2xuj.ent.gz'
p3459
sS'2xuo'
p3460
S'/net/chevy/raid1/pdb_mirror/pdb/xu/pdb2xuo.ent.gz'
p3461
sS'1c4q'
p3462
S'/net/chevy/raid1/pdb_mirror/pdb/c4/pdb1c4q.ent.gz'
p3463
sS'1c4r'
p3464
S'/net/chevy/raid1/pdb_mirror/pdb/c4/pdb1c4r.ent.gz'
p3465
sS'1c4t'
p3466
S'/net/chevy/raid1/pdb_mirror/pdb/c4/pdb1c4t.ent.gz'
p3467
sS'2xud'
p3468
S'/net/chevy/raid1/pdb_mirror/pdb/xu/pdb2xud.ent.gz'
p3469
sS'2xug'
p3470
S'/net/chevy/raid1/pdb_mirror/pdb/xu/pdb2xug.ent.gz'
p3471
sS'2xuf'
p3472
S'/net/chevy/raid1/pdb_mirror/pdb/xu/pdb2xuf.ent.gz'
p3473
sS'3tw7'
p3474
S'/net/chevy/raid1/pdb_mirror/pdb/tw/pdb3tw7.ent.gz'
p3475
sS'1b2x'
p3476
S'/net/chevy/raid1/pdb_mirror/pdb/b2/pdb1b2x.ent.gz'
p3477
sS'2ykv'
p3478
S'/net/chevy/raid1/pdb_mirror/pdb/yk/pdb2ykv.ent.gz'
p3479
sS'1oaz'
p3480
S'/net/chevy/raid1/pdb_mirror/pdb/oa/pdb1oaz.ent.gz'
p3481
sS'1oay'
p3482
S'/net/chevy/raid1/pdb_mirror/pdb/oa/pdb1oay.ent.gz'
p3483
sS'1oax'
p3484
S'/net/chevy/raid1/pdb_mirror/pdb/oa/pdb1oax.ent.gz'
p3485
sS'2yks'
p3486
S'/net/chevy/raid1/pdb_mirror/pdb/yk/pdb2yks.ent.gz'
p3487
sS'1oar'
p3488
S'/net/chevy/raid1/pdb_mirror/pdb/oa/pdb1oar.ent.gz'
p3489
sS'1pbi'
p3490
S'/net/chevy/raid1/pdb_mirror/pdb/pb/pdb1pbi.ent.gz'
p3491
sS'1oau'
p3492
S'/net/chevy/raid1/pdb_mirror/pdb/oa/pdb1oau.ent.gz'
p3493
sS'1oat'
p3494
S'/net/chevy/raid1/pdb_mirror/pdb/oa/pdb1oat.ent.gz'
p3495
sS'1c48'
p3496
S'/net/chevy/raid1/pdb_mirror/pdb/c4/pdb1c48.ent.gz'
p3497
sS'1c41'
p3498
S'/net/chevy/raid1/pdb_mirror/pdb/c4/pdb1c41.ent.gz'
p3499
sS'4bhh'
p3500
S'/net/chevy/raid1/pdb_mirror/pdb/bh/pdb4bhh.ent.gz'
p3501
sS'1ggi'
p3502
S'/net/chevy/raid1/pdb_mirror/pdb/gg/pdb1ggi.ent.gz'
p3503
sS'1e0o'
p3504
S'/net/chevy/raid1/pdb_mirror/pdb/e0/pdb1e0o.ent.gz'
p3505
sS'1d3b'
p3506
S'/net/chevy/raid1/pdb_mirror/pdb/d3/pdb1d3b.ent.gz'
p3507
sS'3zuv'
p3508
S'/net/chevy/raid1/pdb_mirror/pdb/zu/pdb3zuv.ent.gz'
p3509
sS'4gtl'
p3510
S'/net/chevy/raid1/pdb_mirror/pdb/gt/pdb4gtl.ent.gz'
p3511
sS'4fp4'
p3512
S'/net/chevy/raid1/pdb_mirror/pdb/fp/pdb4fp4.ent.gz'
p3513
sS'1uw5'
p3514
S'/net/chevy/raid1/pdb_mirror/pdb/uw/pdb1uw5.ent.gz'
p3515
sS'2bq5'
p3516
S'/net/chevy/raid1/pdb_mirror/pdb/bq/pdb2bq5.ent.gz'
p3517
sS'3nap'
p3518
S'/net/chevy/raid1/pdb_mirror/pdb/na/pdb3nap.ent.gz'
p3519
sS'4gtu'
p3520
S'/net/chevy/raid1/pdb_mirror/pdb/gt/pdb4gtu.ent.gz'
p3521
sS'3zuo'
p3522
S'/net/chevy/raid1/pdb_mirror/pdb/zu/pdb3zuo.ent.gz'
p3523
sS'2c5r'
p3524
S'/net/chevy/raid1/pdb_mirror/pdb/c5/pdb2c5r.ent.gz'
p3525
sS'2v41'
p3526
S'/net/chevy/raid1/pdb_mirror/pdb/v4/pdb2v41.ent.gz'
p3527
sS'2c5q'
p3528
S'/net/chevy/raid1/pdb_mirror/pdb/c5/pdb2c5q.ent.gz'
p3529
sS'2c5c'
p3530
S'/net/chevy/raid1/pdb_mirror/pdb/c5/pdb2c5c.ent.gz'
p3531
sS'1ci4'
p3532
S'/net/chevy/raid1/pdb_mirror/pdb/ci/pdb1ci4.ent.gz'
p3533
sS'2c5d'
p3534
S'/net/chevy/raid1/pdb_mirror/pdb/c5/pdb2c5d.ent.gz'
p3535
sS'1qpn'
p3536
S'/net/chevy/raid1/pdb_mirror/pdb/qp/pdb1qpn.ent.gz'
p3537
sS'1qpo'
p3538
S'/net/chevy/raid1/pdb_mirror/pdb/qp/pdb1qpo.ent.gz'
p3539
sS'1ux1'
p3540
S'/net/chevy/raid1/pdb_mirror/pdb/ux/pdb1ux1.ent.gz'
p3541
sS'1ae1'
p3542
S'/net/chevy/raid1/pdb_mirror/pdb/ae/pdb1ae1.ent.gz'
p3543
sS'5cox'
p3544
S'/net/chevy/raid1/pdb_mirror/pdb/co/pdb5cox.ent.gz'
p3545
sS'1gq3'
p3546
S'/net/chevy/raid1/pdb_mirror/pdb/gq/pdb1gq3.ent.gz'
p3547
sS'1gq7'
p3548
S'/net/chevy/raid1/pdb_mirror/pdb/gq/pdb1gq7.ent.gz'
p3549
sS'1gq6'
p3550
S'/net/chevy/raid1/pdb_mirror/pdb/gq/pdb1gq6.ent.gz'
p3551
sS'1qpq'
p3552
S'/net/chevy/raid1/pdb_mirror/pdb/qp/pdb1qpq.ent.gz'
p3553
sS'1nmt'
p3554
S'/net/chevy/raid1/pdb_mirror/pdb/nm/pdb1nmt.ent.gz'
p3555
sS'2yoq'
p3556
S'/net/chevy/raid1/pdb_mirror/pdb/yo/pdb2yoq.ent.gz'
p3557
sS'2c50'
p3558
S'/net/chevy/raid1/pdb_mirror/pdb/c5/pdb2c50.ent.gz'
p3559
sS'2c51'
p3560
S'/net/chevy/raid1/pdb_mirror/pdb/c5/pdb2c51.ent.gz'
p3561
sS'2c57'
p3562
S'/net/chevy/raid1/pdb_mirror/pdb/c5/pdb2c57.ent.gz'
p3563
sS'2v4h'
p3564
S'/net/chevy/raid1/pdb_mirror/pdb/v4/pdb2v4h.ent.gz'
p3565
sS'2v4i'
p3566
S'/net/chevy/raid1/pdb_mirror/pdb/v4/pdb2v4i.ent.gz'
p3567
sS'2v4j'
p3568
S'/net/chevy/raid1/pdb_mirror/pdb/v4/pdb2v4j.ent.gz'
p3569
sS'1as8'
p3570
S'/net/chevy/raid1/pdb_mirror/pdb/as/pdb1as8.ent.gz'
p3571
sS'1ciw'
p3572
S'/net/chevy/raid1/pdb_mirror/pdb/ci/pdb1ciw.ent.gz'
p3573
sS'1lia'
p3574
S'/net/chevy/raid1/pdb_mirror/pdb/li/pdb1lia.ent.gz'
p3575
sS'1as7'
p3576
S'/net/chevy/raid1/pdb_mirror/pdb/as/pdb1as7.ent.gz'
p3577
sS'1as6'
p3578
S'/net/chevy/raid1/pdb_mirror/pdb/as/pdb1as6.ent.gz'
p3579
sS'4hls'
p3580
S'/net/chevy/raid1/pdb_mirror/pdb/hl/pdb4hls.ent.gz'
p3581
sS'1gqo'
p3582
S'/net/chevy/raid1/pdb_mirror/pdb/gq/pdb1gqo.ent.gz'
p3583
sS'2vhg'
p3584
S'/net/chevy/raid1/pdb_mirror/pdb/vh/pdb2vhg.ent.gz'
p3585
sS'1gqm'
p3586
S'/net/chevy/raid1/pdb_mirror/pdb/gq/pdb1gqm.ent.gz'
p3587
sS'1uxl'
p3588
S'/net/chevy/raid1/pdb_mirror/pdb/ux/pdb1uxl.ent.gz'
p3589
sS'1uxm'
p3590
S'/net/chevy/raid1/pdb_mirror/pdb/ux/pdb1uxm.ent.gz'
p3591
sS'1uxb'
p3592
S'/net/chevy/raid1/pdb_mirror/pdb/ux/pdb1uxb.ent.gz'
p3593
sS'1uxa'
p3594
S'/net/chevy/raid1/pdb_mirror/pdb/ux/pdb1uxa.ent.gz'
p3595
sS'1osm'
p3596
S'/net/chevy/raid1/pdb_mirror/pdb/os/pdb1osm.ent.gz'
p3597
sS'1uxe'
p3598
S'/net/chevy/raid1/pdb_mirror/pdb/ux/pdb1uxe.ent.gz'
p3599
sS'2x2n'
p3600
S'/net/chevy/raid1/pdb_mirror/pdb/x2/pdb2x2n.ent.gz'
p3601
sS'2x2h'
p3602
S'/net/chevy/raid1/pdb_mirror/pdb/x2/pdb2x2h.ent.gz'
p3603
sS'1hc7'
p3604
S'/net/chevy/raid1/pdb_mirror/pdb/hc/pdb1hc7.ent.gz'
p3605
sS'2x2j'
p3606
S'/net/chevy/raid1/pdb_mirror/pdb/x2/pdb2x2j.ent.gz'
p3607
sS'1zag'
p3608
S'/net/chevy/raid1/pdb_mirror/pdb/za/pdb1zag.ent.gz'
p3609
sS'1ei7'
p3610
S'/net/chevy/raid1/pdb_mirror/pdb/ei/pdb1ei7.ent.gz'
p3611
sS'4rla'
p3612
S'/net/chevy/raid1/pdb_mirror/pdb/rl/pdb4rla.ent.gz'
p3613
sS'2x2s'
p3614
S'/net/chevy/raid1/pdb_mirror/pdb/x2/pdb2x2s.ent.gz'
p3615
sS'4a0u'
p3616
S'/net/chevy/raid1/pdb_mirror/pdb/a0/pdb4a0u.ent.gz'
p3617
sS'4a0t'
p3618
S'/net/chevy/raid1/pdb_mirror/pdb/a0/pdb4a0t.ent.gz'
p3619
sS'2j4l'
p3620
S'/net/chevy/raid1/pdb_mirror/pdb/j4/pdb2j4l.ent.gz'
p3621
sS'3s6p'
p3622
S'/net/chevy/raid1/pdb_mirror/pdb/s6/pdb3s6p.ent.gz'
p3623
sS'2j4j'
p3624
S'/net/chevy/raid1/pdb_mirror/pdb/j4/pdb2j4j.ent.gz'
p3625
sS'2j4k'
p3626
S'/net/chevy/raid1/pdb_mirror/pdb/j4/pdb2j4k.ent.gz'
p3627
sS'2j4u'
p3628
S'/net/chevy/raid1/pdb_mirror/pdb/j4/pdb2j4u.ent.gz'
p3629
sS'4a0g'
p3630
S'/net/chevy/raid1/pdb_mirror/pdb/a0/pdb4a0g.ent.gz'
p3631
sS'2qij'
p3632
S'/net/chevy/raid1/pdb_mirror/pdb/qi/pdb2qij.ent.gz'
p3633
sS'2qil'
p3634
S'/net/chevy/raid1/pdb_mirror/pdb/qi/pdb2qil.ent.gz'
p3635
sS'2xim'
p3636
S'/net/chevy/raid1/pdb_mirror/pdb/xi/pdb2xim.ent.gz'
p3637
sS'2y1v'
p3638
S'/net/chevy/raid1/pdb_mirror/pdb/y1/pdb2y1v.ent.gz'
p3639
sS'1hcu'
p3640
S'/net/chevy/raid1/pdb_mirror/pdb/hc/pdb1hcu.ent.gz'
p3641
sS'2tss'
p3642
S'/net/chevy/raid1/pdb_mirror/pdb/ts/pdb2tss.ent.gz'
p3643
sS'4b1o'
p3644
S'/net/chevy/raid1/pdb_mirror/pdb/b1/pdb4b1o.ent.gz'
p3645
sS'1hcy'
p3646
S'/net/chevy/raid1/pdb_mirror/pdb/hc/pdb1hcy.ent.gz'
p3647
sS'1bmo'
p3648
S'/net/chevy/raid1/pdb_mirror/pdb/bm/pdb1bmo.ent.gz'
p3649
sS'1bml'
p3650
S'/net/chevy/raid1/pdb_mirror/pdb/bm/pdb1bml.ent.gz'
p3651
sS'4b1p'
p3652
S'/net/chevy/raid1/pdb_mirror/pdb/b1/pdb4b1p.ent.gz'
p3653
sS'1bga'
p3654
S'/net/chevy/raid1/pdb_mirror/pdb/bg/pdb1bga.ent.gz'
p3655
sS'2x23'
p3656
S'/net/chevy/raid1/pdb_mirror/pdb/x2/pdb2x23.ent.gz'
p3657
sS'1kmn'
p3658
S'/net/chevy/raid1/pdb_mirror/pdb/km/pdb1kmn.ent.gz'
p3659
sS'1kmm'
p3660
S'/net/chevy/raid1/pdb_mirror/pdb/km/pdb1kmm.ent.gz'
p3661
sS'1kmb'
p3662
S'/net/chevy/raid1/pdb_mirror/pdb/km/pdb1kmb.ent.gz'
p3663
sS'8gss'
p3664
S'/net/chevy/raid1/pdb_mirror/pdb/gs/pdb8gss.ent.gz'
p3665
sS'1qnn'
p3666
S'/net/chevy/raid1/pdb_mirror/pdb/qn/pdb1qnn.ent.gz'
p3667
sS'4hk2'
p3668
S'/net/chevy/raid1/pdb_mirror/pdb/hk/pdb4hk2.ent.gz'
p3669
sS'3djf'
p3670
S'/net/chevy/raid1/pdb_mirror/pdb/dj/pdb3djf.ent.gz'
p3671
sS'1fmd'
p3672
S'/net/chevy/raid1/pdb_mirror/pdb/fm/pdb1fmd.ent.gz'
p3673
sS'4g22'
p3674
S'/net/chevy/raid1/pdb_mirror/pdb/g2/pdb4g22.ent.gz'
p3675
sS'4aym'
p3676
S'/net/chevy/raid1/pdb_mirror/pdb/ay/pdb4aym.ent.gz'
p3677
sS'1xim'
p3678
S'/net/chevy/raid1/pdb_mirror/pdb/xi/pdb1xim.ent.gz'
p3679
sS'4ger'
p3680
S'/net/chevy/raid1/pdb_mirror/pdb/ge/pdb4ger.ent.gz'
p3681
sS'4aye'
p3682
S'/net/chevy/raid1/pdb_mirror/pdb/ay/pdb4aye.ent.gz'
p3683
sS'4gej'
p3684
S'/net/chevy/raid1/pdb_mirror/pdb/ge/pdb4gej.ent.gz'
p3685
sS'4gek'
p3686
S'/net/chevy/raid1/pdb_mirror/pdb/ge/pdb4gek.ent.gz'
p3687
sS'4ak9'
p3688
S'/net/chevy/raid1/pdb_mirror/pdb/ak/pdb4ak9.ent.gz'
p3689
sS'3obv'
p3690
S'/net/chevy/raid1/pdb_mirror/pdb/ob/pdb3obv.ent.gz'
p3691
sS'1j4a'
p3692
S'/net/chevy/raid1/pdb_mirror/pdb/j4/pdb1j4a.ent.gz'
p3693
sS'1zse'
p3694
S'/net/chevy/raid1/pdb_mirror/pdb/zs/pdb1zse.ent.gz'
p3695
sS'1j4e'
p3696
S'/net/chevy/raid1/pdb_mirror/pdb/j4/pdb1j4e.ent.gz'
p3697
sS'2wlb'
p3698
S'/net/chevy/raid1/pdb_mirror/pdb/wl/pdb2wlb.ent.gz'
p3699
sS'4r1r'
p3700
S'/net/chevy/raid1/pdb_mirror/pdb/r1/pdb4r1r.ent.gz'
p3701
sS'2vml'
p3702
S'/net/chevy/raid1/pdb_mirror/pdb/vm/pdb2vml.ent.gz'
p3703
sS'1bq7'
p3704
S'/net/chevy/raid1/pdb_mirror/pdb/bq/pdb1bq7.ent.gz'
p3705
sS'4ay6'
p3706
S'/net/chevy/raid1/pdb_mirror/pdb/ay/pdb4ay6.ent.gz'
p3707
sS'4ay4'
p3708
S'/net/chevy/raid1/pdb_mirror/pdb/ay/pdb4ay4.ent.gz'
p3709
sS'4ay5'
p3710
S'/net/chevy/raid1/pdb_mirror/pdb/ay/pdb4ay5.ent.gz'
p3711
sS'2cnw'
p3712
S'/net/chevy/raid1/pdb_mirror/pdb/cn/pdb2cnw.ent.gz'
p3713
sS'2ixf'
p3714
S'/net/chevy/raid1/pdb_mirror/pdb/ix/pdb2ixf.ent.gz'
p3715
sS'3s4g'
p3716
S'/net/chevy/raid1/pdb_mirror/pdb/s4/pdb3s4g.ent.gz'
p3717
sS'2taa'
p3718
S'/net/chevy/raid1/pdb_mirror/pdb/ta/pdb2taa.ent.gz'
p3719
sS'1bcf'
p3720
S'/net/chevy/raid1/pdb_mirror/pdb/bc/pdb1bcf.ent.gz'
p3721
sS'1u1y'
p3722
S'/net/chevy/raid1/pdb_mirror/pdb/u1/pdb1u1y.ent.gz'
p3723
sS'2cnb'
p3724
S'/net/chevy/raid1/pdb_mirror/pdb/cn/pdb2cnb.ent.gz'
p3725
sS'1bcc'
p3726
S'/net/chevy/raid1/pdb_mirror/pdb/bc/pdb1bcc.ent.gz'
p3727
sS'1jac'
p3728
S'/net/chevy/raid1/pdb_mirror/pdb/ja/pdb1jac.ent.gz'
p3729
sS'1bch'
p3730
S'/net/chevy/raid1/pdb_mirror/pdb/bc/pdb1bch.ent.gz'
p3731
sS'1huu'
p3732
S'/net/chevy/raid1/pdb_mirror/pdb/hu/pdb1huu.ent.gz'
p3733
sS'1bcj'
p3734
S'/net/chevy/raid1/pdb_mirror/pdb/bc/pdb1bcj.ent.gz'
p3735
sS'1ped'
p3736
S'/net/chevy/raid1/pdb_mirror/pdb/pe/pdb1ped.ent.gz'
p3737
sS'2bht'
p3738
S'/net/chevy/raid1/pdb_mirror/pdb/bh/pdb2bht.ent.gz'
p3739
sS'2yjz'
p3740
S'/net/chevy/raid1/pdb_mirror/pdb/yj/pdb2yjz.ent.gz'
p3741
sS'4egr'
p3742
S'/net/chevy/raid1/pdb_mirror/pdb/eg/pdb4egr.ent.gz'
p3743
sS'1e1h'
p3744
S'/net/chevy/raid1/pdb_mirror/pdb/e1/pdb1e1h.ent.gz'
p3745
sS'4bik'
p3746
S'/net/chevy/raid1/pdb_mirror/pdb/bi/pdb4bik.ent.gz'
p3747
sS'1mli'
p3748
S'/net/chevy/raid1/pdb_mirror/pdb/ml/pdb1mli.ent.gz'
p3749
sS'4bia'
p3750
S'/net/chevy/raid1/pdb_mirror/pdb/bi/pdb4bia.ent.gz'
p3751
sS'2yjl'
p3752
S'/net/chevy/raid1/pdb_mirror/pdb/yj/pdb2yjl.ent.gz'
p3753
sS'2jbf'
p3754
S'/net/chevy/raid1/pdb_mirror/pdb/jb/pdb2jbf.ent.gz'
p3755
sS'2jbw'
p3756
S'/net/chevy/raid1/pdb_mirror/pdb/jb/pdb2jbw.ent.gz'
p3757
sS'2jbt'
p3758
S'/net/chevy/raid1/pdb_mirror/pdb/jb/pdb2jbt.ent.gz'
p3759
sS'2jbr'
p3760
S'/net/chevy/raid1/pdb_mirror/pdb/jb/pdb2jbr.ent.gz'
p3761
sS'2jbs'
p3762
S'/net/chevy/raid1/pdb_mirror/pdb/jb/pdb2jbs.ent.gz'
p3763
sS'2jbp'
p3764
S'/net/chevy/raid1/pdb_mirror/pdb/jb/pdb2jbp.ent.gz'
p3765
sS'3ztj'
p3766
S'/net/chevy/raid1/pdb_mirror/pdb/zt/pdb3ztj.ent.gz'
p3767
sS'3c6q'
p3768
S'/net/chevy/raid1/pdb_mirror/pdb/c6/pdb3c6q.ent.gz'
p3769
sS'2yj0'
p3770
S'/net/chevy/raid1/pdb_mirror/pdb/yj/pdb2yj0.ent.gz'
p3771
sS'4bi9'
p3772
S'/net/chevy/raid1/pdb_mirror/pdb/bi/pdb4bi9.ent.gz'
p3773
sS'1ohf'
p3774
S'/net/chevy/raid1/pdb_mirror/pdb/oh/pdb1ohf.ent.gz'
p3775
sS'2wqu'
p3776
S'/net/chevy/raid1/pdb_mirror/pdb/wq/pdb2wqu.ent.gz'
p3777
sS'4bi5'
p3778
S'/net/chevy/raid1/pdb_mirror/pdb/bi/pdb4bi5.ent.gz'
p3779
sS'2y3r'
p3780
S'/net/chevy/raid1/pdb_mirror/pdb/y3/pdb2y3r.ent.gz'
p3781
sS'1umn'
p3782
S'/net/chevy/raid1/pdb_mirror/pdb/um/pdb1umn.ent.gz'
p3783
sS'2wql'
p3784
S'/net/chevy/raid1/pdb_mirror/pdb/wq/pdb2wql.ent.gz'
p3785
sS'2siv'
p3786
S'/net/chevy/raid1/pdb_mirror/pdb/si/pdb2siv.ent.gz'
p3787
sS'1k3v'
p3788
S'/net/chevy/raid1/pdb_mirror/pdb/k3/pdb1k3v.ent.gz'
p3789
sS'1mdy'
p3790
S'/net/chevy/raid1/pdb_mirror/pdb/md/pdb1mdy.ent.gz'
p3791
sS'1n2c'
p3792
S'/net/chevy/raid1/pdb_mirror/pdb/n2/pdb1n2c.ent.gz'
p3793
sS'1psd'
p3794
S'/net/chevy/raid1/pdb_mirror/pdb/ps/pdb1psd.ent.gz'
p3795
sS'4gw9'
p3796
S'/net/chevy/raid1/pdb_mirror/pdb/gw/pdb4gw9.ent.gz'
p3797
sS'4aw4'
p3798
S'/net/chevy/raid1/pdb_mirror/pdb/aw/pdb4aw4.ent.gz'
p3799
sS'4aw6'
p3800
S'/net/chevy/raid1/pdb_mirror/pdb/aw/pdb4aw6.ent.gz'
p3801
sS'1o4z'
p3802
S'/net/chevy/raid1/pdb_mirror/pdb/o4/pdb1o4z.ent.gz'
p3803
sS'4eqv'
p3804
S'/net/chevy/raid1/pdb_mirror/pdb/eq/pdb4eqv.ent.gz'
p3805
sS'3k4g'
p3806
S'/net/chevy/raid1/pdb_mirror/pdb/k4/pdb3k4g.ent.gz'
p3807
sS'1cjb'
p3808
S'/net/chevy/raid1/pdb_mirror/pdb/cj/pdb1cjb.ent.gz'
p3809
sS'2v5p'
p3810
S'/net/chevy/raid1/pdb_mirror/pdb/v5/pdb2v5p.ent.gz'
p3811
sS'1cjd'
p3812
S'/net/chevy/raid1/pdb_mirror/pdb/cj/pdb1cjd.ent.gz'
p3813
sS'1cje'
p3814
S'/net/chevy/raid1/pdb_mirror/pdb/cj/pdb1cje.ent.gz'
p3815
sS'1cjx'
p3816
S'/net/chevy/raid1/pdb_mirror/pdb/cj/pdb1cjx.ent.gz'
p3817
sS'2pbw'
p3818
S'/net/chevy/raid1/pdb_mirror/pdb/pb/pdb2pbw.ent.gz'
p3819
sS'1uyp'
p3820
S'/net/chevy/raid1/pdb_mirror/pdb/uy/pdb1uyp.ent.gz'
p3821
sS'1qil'
p3822
S'/net/chevy/raid1/pdb_mirror/pdb/qi/pdb1qil.ent.gz'
p3823
sS'1grl'
p3824
S'/net/chevy/raid1/pdb_mirror/pdb/gr/pdb1grl.ent.gz'
p3825
sS'4hmr'
p3826
S'/net/chevy/raid1/pdb_mirror/pdb/hm/pdb4hmr.ent.gz'
p3827
sS'1grc'
p3828
S'/net/chevy/raid1/pdb_mirror/pdb/gr/pdb1grc.ent.gz'
p3829
sS'4hmg'
p3830
S'/net/chevy/raid1/pdb_mirror/pdb/hm/pdb4hmg.ent.gz'
p3831
sS'2br8'
p3832
S'/net/chevy/raid1/pdb_mirror/pdb/br/pdb2br8.ent.gz'
p3833
sS'1grw'
p3834
S'/net/chevy/raid1/pdb_mirror/pdb/gr/pdb1grw.ent.gz'
p3835
sS'4hmm'
p3836
S'/net/chevy/raid1/pdb_mirror/pdb/hm/pdb4hmm.ent.gz'
p3837
sS'2wg3'
p3838
S'/net/chevy/raid1/pdb_mirror/pdb/wg/pdb2wg3.ent.gz'
p3839
sS'2v43'
p3840
S'/net/chevy/raid1/pdb_mirror/pdb/v4/pdb2v43.ent.gz'
p3841
sS'3i85'
p3842
S'/net/chevy/raid1/pdb_mirror/pdb/i8/pdb3i85.ent.gz'
p3843
sS'2v50'
p3844
S'/net/chevy/raid1/pdb_mirror/pdb/v5/pdb2v50.ent.gz'
p3845
sS'3zfe'
p3846
S'/net/chevy/raid1/pdb_mirror/pdb/zf/pdb3zfe.ent.gz'
p3847
sS'1c5e'
p3848
S'/net/chevy/raid1/pdb_mirror/pdb/c5/pdb1c5e.ent.gz'
p3849
sS'3zff'
p3850
S'/net/chevy/raid1/pdb_mirror/pdb/zf/pdb3zff.ent.gz'
p3851
sS'3gie'
p3852
S'/net/chevy/raid1/pdb_mirror/pdb/gi/pdb3gie.ent.gz'
p3853
sS'1cj1'
p3854
S'/net/chevy/raid1/pdb_mirror/pdb/cj/pdb1cj1.ent.gz'
p3855
sS'3zfw'
p3856
S'/net/chevy/raid1/pdb_mirror/pdb/zf/pdb3zfw.ent.gz'
p3857
sS'1swf'
p3858
S'/net/chevy/raid1/pdb_mirror/pdb/sw/pdb1swf.ent.gz'
p3859
sS'2dbv'
p3860
S'/net/chevy/raid1/pdb_mirror/pdb/db/pdb2dbv.ent.gz'
p3861
sS'2wgg'
p3862
S'/net/chevy/raid1/pdb_mirror/pdb/wg/pdb2wgg.ent.gz'
p3863
sS'1obw'
p3864
S'/net/chevy/raid1/pdb_mirror/pdb/ob/pdb1obw.ent.gz'
p3865
sS'3o44'
p3866
S'/net/chevy/raid1/pdb_mirror/pdb/o4/pdb3o44.ent.gz'
p3867
sS'1gr7'
p3868
S'/net/chevy/raid1/pdb_mirror/pdb/gr/pdb1gr7.ent.gz'
p3869
sS'5hmg'
p3870
S'/net/chevy/raid1/pdb_mirror/pdb/hm/pdb5hmg.ent.gz'
p3871
sS'2brq'
p3872
S'/net/chevy/raid1/pdb_mirror/pdb/br/pdb2brq.ent.gz'
p3873
sS'2y0p'
p3874
S'/net/chevy/raid1/pdb_mirror/pdb/y0/pdb2y0p.ent.gz'
p3875
sS'4b6d'
p3876
S'/net/chevy/raid1/pdb_mirror/pdb/b6/pdb4b6d.ent.gz'
p3877
sS'4dbv'
p3878
S'/net/chevy/raid1/pdb_mirror/pdb/db/pdb4dbv.ent.gz'
p3879
sS'2y0c'
p3880
S'/net/chevy/raid1/pdb_mirror/pdb/y0/pdb2y0c.ent.gz'
p3881
sS'2y0b'
p3882
S'/net/chevy/raid1/pdb_mirror/pdb/y0/pdb2y0b.ent.gz'
p3883
sS'2y0f'
p3884
S'/net/chevy/raid1/pdb_mirror/pdb/y0/pdb2y0f.ent.gz'
p3885
sS'2y0e'
p3886
S'/net/chevy/raid1/pdb_mirror/pdb/y0/pdb2y0e.ent.gz'
p3887
sS'2y0d'
p3888
S'/net/chevy/raid1/pdb_mirror/pdb/y0/pdb2y0d.ent.gz'
p3889
sS'1sos'
p3890
S'/net/chevy/raid1/pdb_mirror/pdb/so/pdb1sos.ent.gz'
p3891
sS'2xns'
p3892
S'/net/chevy/raid1/pdb_mirror/pdb/xn/pdb2xns.ent.gz'
p3893
sS'2y0n'
p3894
S'/net/chevy/raid1/pdb_mirror/pdb/y0/pdb2y0n.ent.gz'
p3895
sS'3r1r'
p3896
S'/net/chevy/raid1/pdb_mirror/pdb/r1/pdb3r1r.ent.gz'
p3897
sS'1qox'
p3898
S'/net/chevy/raid1/pdb_mirror/pdb/qo/pdb1qox.ent.gz'
p3899
sS'1flt'
p3900
S'/net/chevy/raid1/pdb_mirror/pdb/fl/pdb1flt.ent.gz'
p3901
sS'2c4o'
p3902
S'/net/chevy/raid1/pdb_mirror/pdb/c4/pdb2c4o.ent.gz'
p3903
sS'2c4j'
p3904
S'/net/chevy/raid1/pdb_mirror/pdb/c4/pdb2c4j.ent.gz'
p3905
sS'1qom'
p3906
S'/net/chevy/raid1/pdb_mirror/pdb/qo/pdb1qom.ent.gz'
p3907
sS'2c4q'
p3908
S'/net/chevy/raid1/pdb_mirror/pdb/c4/pdb2c4q.ent.gz'
p3909
sS'1qoh'
p3910
S'/net/chevy/raid1/pdb_mirror/pdb/qo/pdb1qoh.ent.gz'
p3911
sS'1kno'
p3912
S'/net/chevy/raid1/pdb_mirror/pdb/kn/pdb1kno.ent.gz'
p3913
sS'2c4y'
p3914
S'/net/chevy/raid1/pdb_mirror/pdb/c4/pdb2c4y.ent.gz'
p3915
sS'1flc'
p3916
S'/net/chevy/raid1/pdb_mirror/pdb/fl/pdb1flc.ent.gz'
p3917
sS'2c4z'
p3918
S'/net/chevy/raid1/pdb_mirror/pdb/c4/pdb2c4z.ent.gz'
p3919
sS'1bl8'
p3920
S'/net/chevy/raid1/pdb_mirror/pdb/bl/pdb1bl8.ent.gz'
p3921
sS'3kae'
p3922
S'/net/chevy/raid1/pdb_mirror/pdb/ka/pdb3kae.ent.gz'
p3923
sS'1hb8'
p3924
S'/net/chevy/raid1/pdb_mirror/pdb/hb/pdb1hb8.ent.gz'
p3925
sS'2wgf'
p3926
S'/net/chevy/raid1/pdb_mirror/pdb/wg/pdb2wgf.ent.gz'
p3927
sS'1apx'
p3928
S'/net/chevy/raid1/pdb_mirror/pdb/ap/pdb1apx.ent.gz'
p3929
sS'3ukq'
p3930
S'/net/chevy/raid1/pdb_mirror/pdb/uk/pdb3ukq.ent.gz'
p3931
sS'2xn1'
p3932
S'/net/chevy/raid1/pdb_mirror/pdb/xn/pdb2xn1.ent.gz'
p3933
sS'3zhe'
p3934
S'/net/chevy/raid1/pdb_mirror/pdb/zh/pdb3zhe.ent.gz'
p3935
sS'1qo5'
p3936
S'/net/chevy/raid1/pdb_mirror/pdb/qo/pdb1qo5.ent.gz'
p3937
sS'3qpr'
p3938
S'/net/chevy/raid1/pdb_mirror/pdb/qp/pdb3qpr.ent.gz'
p3939
sS'2c44'
p3940
S'/net/chevy/raid1/pdb_mirror/pdb/c4/pdb2c44.ent.gz'
p3941
sS'2c47'
p3942
S'/net/chevy/raid1/pdb_mirror/pdb/c4/pdb2c47.ent.gz'
p3943
sS'2c46'
p3944
S'/net/chevy/raid1/pdb_mirror/pdb/c4/pdb2c46.ent.gz'
p3945
sS'2c41'
p3946
S'/net/chevy/raid1/pdb_mirror/pdb/c4/pdb2c41.ent.gz'
p3947
sS'3zhp'
p3948
S'/net/chevy/raid1/pdb_mirror/pdb/zh/pdb3zhp.ent.gz'
p3949
sS'4fm5'
p3950
S'/net/chevy/raid1/pdb_mirror/pdb/fm/pdb4fm5.ent.gz'
p3951
sS'2vnk'
p3952
S'/net/chevy/raid1/pdb_mirror/pdb/vn/pdb2vnk.ent.gz'
p3953
sS'4hl8'
p3954
S'/net/chevy/raid1/pdb_mirror/pdb/hl/pdb4hl8.ent.gz'
p3955
sS'2pel'
p3956
S'/net/chevy/raid1/pdb_mirror/pdb/pe/pdb2pel.ent.gz'
p3957
sS'2vnt'
p3958
S'/net/chevy/raid1/pdb_mirror/pdb/vn/pdb2vnt.ent.gz'
p3959
sS'2qzv'
p3960
S'/net/chevy/raid1/pdb_mirror/pdb/qz/pdb2qzv.ent.gz'
p3961
sS'4jcf'
p3962
S'/net/chevy/raid1/pdb_mirror/pdb/jc/pdb4jcf.ent.gz'
p3963
sS'4jce'
p3964
S'/net/chevy/raid1/pdb_mirror/pdb/jc/pdb4jce.ent.gz'
p3965
sS'4jcd'
p3966
S'/net/chevy/raid1/pdb_mirror/pdb/jc/pdb4jcd.ent.gz'
p3967
sS'1sac'
p3968
S'/net/chevy/raid1/pdb_mirror/pdb/sa/pdb1sac.ent.gz'
p3969
sS'1htm'
p3970
S'/net/chevy/raid1/pdb_mirror/pdb/ht/pdb1htm.ent.gz'
p3971
sS'1bbp'
p3972
S'/net/chevy/raid1/pdb_mirror/pdb/bb/pdb1bbp.ent.gz'
p3973
sS'1bbz'
p3974
S'/net/chevy/raid1/pdb_mirror/pdb/bb/pdb1bbz.ent.gz'
p3975
sS'4jct'
p3976
S'/net/chevy/raid1/pdb_mirror/pdb/jc/pdb4jct.ent.gz'
p3977
sS'1w48'
p3978
S'/net/chevy/raid1/pdb_mirror/pdb/w4/pdb1w48.ent.gz'
p3979
sS'4jcr'
p3980
S'/net/chevy/raid1/pdb_mirror/pdb/jc/pdb4jcr.ent.gz'
p3981
sS'4jcq'
p3982
S'/net/chevy/raid1/pdb_mirror/pdb/jc/pdb4jcq.ent.gz'
p3983
sS'4ajk'
p3984
S'/net/chevy/raid1/pdb_mirror/pdb/aj/pdb4ajk.ent.gz'
p3985
sS'4ajj'
p3986
S'/net/chevy/raid1/pdb_mirror/pdb/aj/pdb4ajj.ent.gz'
p3987
sS'4aji'
p3988
S'/net/chevy/raid1/pdb_mirror/pdb/aj/pdb4aji.ent.gz'
p3989
sS'4ajh'
p3990
S'/net/chevy/raid1/pdb_mirror/pdb/aj/pdb4ajh.ent.gz'
p3991
sS'4ajo'
p3992
S'/net/chevy/raid1/pdb_mirror/pdb/aj/pdb4ajo.ent.gz'
p3993
sS'4ajn'
p3994
S'/net/chevy/raid1/pdb_mirror/pdb/aj/pdb4ajn.ent.gz'
p3995
sS'1htt'
p3996
S'/net/chevy/raid1/pdb_mirror/pdb/ht/pdb1htt.ent.gz'
p3997
sS'3q7h'
p3998
S'/net/chevy/raid1/pdb_mirror/pdb/q7/pdb3q7h.ent.gz'
p3999
sS'3pmg'
p4000
S'/net/chevy/raid1/pdb_mirror/pdb/pm/pdb3pmg.ent.gz'
p4001
sS'1fzc'
p4002
S'/net/chevy/raid1/pdb_mirror/pdb/fz/pdb1fzc.ent.gz'
p4003
sS'1fze'
p4004
S'/net/chevy/raid1/pdb_mirror/pdb/fz/pdb1fze.ent.gz'
p4005
sS'1fzd'
p4006
S'/net/chevy/raid1/pdb_mirror/pdb/fz/pdb1fzd.ent.gz'
p4007
sS'1tez'
p4008
S'/net/chevy/raid1/pdb_mirror/pdb/te/pdb1tez.ent.gz'
p4009
sS'2v8h'
p4010
S'/net/chevy/raid1/pdb_mirror/pdb/v8/pdb2v8h.ent.gz'
p4011
sS'4aj2'
p4012
S'/net/chevy/raid1/pdb_mirror/pdb/aj/pdb4aj2.ent.gz'
p4013
sS'4aj1'
p4014
S'/net/chevy/raid1/pdb_mirror/pdb/aj/pdb4aj1.ent.gz'
p4015
sS'2a2g'
p4016
S'/net/chevy/raid1/pdb_mirror/pdb/a2/pdb2a2g.ent.gz'
p4017
sS'4aj4'
p4018
S'/net/chevy/raid1/pdb_mirror/pdb/aj/pdb4aj4.ent.gz'
p4019
sS'2kmb'
p4020
S'/net/chevy/raid1/pdb_mirror/pdb/km/pdb2kmb.ent.gz'
p4021
sS'1w4a'
p4022
S'/net/chevy/raid1/pdb_mirror/pdb/w4/pdb1w4a.ent.gz'
p4023
sS'1w4b'
p4024
S'/net/chevy/raid1/pdb_mirror/pdb/w4/pdb1w4b.ent.gz'
p4025
sS'1w4c'
p4026
S'/net/chevy/raid1/pdb_mirror/pdb/w4/pdb1w4c.ent.gz'
p4027
sS'2j5t'
p4028
S'/net/chevy/raid1/pdb_mirror/pdb/j5/pdb2j5t.ent.gz'
p4029
sS'2a2u'
p4030
S'/net/chevy/raid1/pdb_mirror/pdb/a2/pdb2a2u.ent.gz'
p4031
sS'1dzl'
p4032
S'/net/chevy/raid1/pdb_mirror/pdb/dz/pdb1dzl.ent.gz'
p4033
sS'2qhd'
p4034
S'/net/chevy/raid1/pdb_mirror/pdb/qh/pdb2qhd.ent.gz'
p4035
sS'1w4v'
p4036
S'/net/chevy/raid1/pdb_mirror/pdb/w4/pdb1w4v.ent.gz'
p4037
sS'1w4r'
p4038
S'/net/chevy/raid1/pdb_mirror/pdb/w4/pdb1w4r.ent.gz'
p4039
sS'1vz8'
p4040
S'/net/chevy/raid1/pdb_mirror/pdb/vz/pdb1vz8.ent.gz'
p4041
sS'2wpw'
p4042
S'/net/chevy/raid1/pdb_mirror/pdb/wp/pdb2wpw.ent.gz'
p4043
sS'1vz7'
p4044
S'/net/chevy/raid1/pdb_mirror/pdb/vz/pdb1vz7.ent.gz'
p4045
sS'2vrf'
p4046
S'/net/chevy/raid1/pdb_mirror/pdb/vr/pdb2vrf.ent.gz'
p4047
sS'3zw0'
p4048
S'/net/chevy/raid1/pdb_mirror/pdb/zw/pdb3zw0.ent.gz'
p4049
sS'7mdh'
p4050
S'/net/chevy/raid1/pdb_mirror/pdb/md/pdb7mdh.ent.gz'
p4051
sS'2wpf'
p4052
S'/net/chevy/raid1/pdb_mirror/pdb/wp/pdb2wpf.ent.gz'
p4053
sS'3vw4'
p4054
S'/net/chevy/raid1/pdb_mirror/pdb/vw/pdb3vw4.ent.gz'
p4055
sS'1dfi'
p4056
S'/net/chevy/raid1/pdb_mirror/pdb/df/pdb1dfi.ent.gz'
p4057
sS'3uv3'
p4058
S'/net/chevy/raid1/pdb_mirror/pdb/uv/pdb3uv3.ent.gz'
p4059
sS'2oat'
p4060
S'/net/chevy/raid1/pdb_mirror/pdb/oa/pdb2oat.ent.gz'
p4061
sS'1mel'
p4062
S'/net/chevy/raid1/pdb_mirror/pdb/me/pdb1mel.ent.gz'
p4063
sS'1f3w'
p4064
S'/net/chevy/raid1/pdb_mirror/pdb/f3/pdb1f3w.ent.gz'
p4065
sS'2wu2'
p4066
S'/net/chevy/raid1/pdb_mirror/pdb/wu/pdb2wu2.ent.gz'
p4067
sS'2oag'
p4068
S'/net/chevy/raid1/pdb_mirror/pdb/oa/pdb2oag.ent.gz'
p4069
sS'1bpo'
p4070
S'/net/chevy/raid1/pdb_mirror/pdb/bp/pdb1bpo.ent.gz'
p4071
sS'2wp9'
p4072
S'/net/chevy/raid1/pdb_mirror/pdb/wp/pdb2wp9.ent.gz'
p4073
sS'4ix9'
p4074
S'/net/chevy/raid1/pdb_mirror/pdb/ix/pdb4ix9.ent.gz'
p4075
sS'2wp2'
p4076
S'/net/chevy/raid1/pdb_mirror/pdb/wp/pdb2wp2.ent.gz'
p4077
sS'2qqp'
p4078
S'/net/chevy/raid1/pdb_mirror/pdb/qq/pdb2qqp.ent.gz'
p4079
sS'1vzm'
p4080
S'/net/chevy/raid1/pdb_mirror/pdb/vz/pdb1vzm.ent.gz'
p4081
sS'4gdc'
p4082
S'/net/chevy/raid1/pdb_mirror/pdb/gd/pdb4gdc.ent.gz'
p4083
sS'1bpw'
p4084
S'/net/chevy/raid1/pdb_mirror/pdb/bp/pdb1bpw.ent.gz'
p4085
sS'2zzq'
p4086
S'/net/chevy/raid1/pdb_mirror/pdb/zz/pdb2zzq.ent.gz'
p4087
sS'4gdd'
p4088
S'/net/chevy/raid1/pdb_mirror/pdb/gd/pdb4gdd.ent.gz'
p4089
sS'3uic'
p4090
S'/net/chevy/raid1/pdb_mirror/pdb/ui/pdb3uic.ent.gz'
p4091
sS'4j4b'
p4092
S'/net/chevy/raid1/pdb_mirror/pdb/j4/pdb4j4b.ent.gz'
p4093
sS'1tbg'
p4094
S'/net/chevy/raid1/pdb_mirror/pdb/tb/pdb1tbg.ent.gz'
p4095
sS'4g1b'
p4096
S'/net/chevy/raid1/pdb_mirror/pdb/g1/pdb4g1b.ent.gz'
p4097
sS'4j4h'
p4098
S'/net/chevy/raid1/pdb_mirror/pdb/j4/pdb4j4h.ent.gz'
p4099
sS'2vcp'
p4100
S'/net/chevy/raid1/pdb_mirror/pdb/vc/pdb2vcp.ent.gz'
p4101
sS'4j4x'
p4102
S'/net/chevy/raid1/pdb_mirror/pdb/j4/pdb4j4x.ent.gz'
p4103
sS'4j4y'
p4104
S'/net/chevy/raid1/pdb_mirror/pdb/j4/pdb4j4y.ent.gz'
p4105
sS'1e69'
p4106
S'/net/chevy/raid1/pdb_mirror/pdb/e6/pdb1e69.ent.gz'
p4107
sS'2vhw'
p4108
S'/net/chevy/raid1/pdb_mirror/pdb/vh/pdb2vhw.ent.gz'
p4109
sS'3rku'
p4110
S'/net/chevy/raid1/pdb_mirror/pdb/rk/pdb3rku.ent.gz'
p4111
sS'1a6v'
p4112
S'/net/chevy/raid1/pdb_mirror/pdb/a6/pdb1a6v.ent.gz'
p4113
sS'3sod'
p4114
S'/net/chevy/raid1/pdb_mirror/pdb/so/pdb3sod.ent.gz'
p4115
sS'3rko'
p4116
S'/net/chevy/raid1/pdb_mirror/pdb/rk/pdb3rko.ent.gz'
p4117
sS'1a6z'
p4118
S'/net/chevy/raid1/pdb_mirror/pdb/a6/pdb1a6z.ent.gz'
p4119
sS'3nc0'
p4120
S'/net/chevy/raid1/pdb_mirror/pdb/nc/pdb3nc0.ent.gz'
p4121
sS'2wfc'
p4122
S'/net/chevy/raid1/pdb_mirror/pdb/wf/pdb2wfc.ent.gz'
p4123
sS'3zw2'
p4124
S'/net/chevy/raid1/pdb_mirror/pdb/zw/pdb3zw2.ent.gz'
p4125
sS'2wff'
p4126
S'/net/chevy/raid1/pdb_mirror/pdb/wf/pdb2wff.ent.gz'
p4127
sS'2wfe'
p4128
S'/net/chevy/raid1/pdb_mirror/pdb/wf/pdb2wfe.ent.gz'
p4129
sS'3gqx'
p4130
S'/net/chevy/raid1/pdb_mirror/pdb/gq/pdb3gqx.ent.gz'
p4131
sS'4av7'
p4132
S'/net/chevy/raid1/pdb_mirror/pdb/av/pdb4av7.ent.gz'
p4133
sS'2jc3'
p4134
S'/net/chevy/raid1/pdb_mirror/pdb/jc/pdb2jc3.ent.gz'
p4135
sS'2agv'
p4136
S'/net/chevy/raid1/pdb_mirror/pdb/ag/pdb2agv.ent.gz'
p4137
sS'1a88'
p4138
S'/net/chevy/raid1/pdb_mirror/pdb/a8/pdb1a88.ent.gz'
p4139
sS'1gav'
p4140
S'/net/chevy/raid1/pdb_mirror/pdb/ga/pdb1gav.ent.gz'
p4141
sS'2yev'
p4142
S'/net/chevy/raid1/pdb_mirror/pdb/ye/pdb2yev.ent.gz'
p4143
sS'2yep'
p4144
S'/net/chevy/raid1/pdb_mirror/pdb/ye/pdb2yep.ent.gz'
p4145
sS'2yeq'
p4146
S'/net/chevy/raid1/pdb_mirror/pdb/ye/pdb2yeq.ent.gz'
p4147
sS'2y9w'
p4148
S'/net/chevy/raid1/pdb_mirror/pdb/y9/pdb2y9w.ent.gz'
p4149
sS'1b9l'
p4150
S'/net/chevy/raid1/pdb_mirror/pdb/b9/pdb1b9l.ent.gz'
p4151
sS'1b9c'
p4152
S'/net/chevy/raid1/pdb_mirror/pdb/b9/pdb1b9c.ent.gz'
p4153
sS'2jca'
p4154
S'/net/chevy/raid1/pdb_mirror/pdb/jc/pdb2jca.ent.gz'
p4155
sS'4otb'
p4156
S'/net/chevy/raid1/pdb_mirror/pdb/ot/pdb4otb.ent.gz'
p4157
sS'4ota'
p4158
S'/net/chevy/raid1/pdb_mirror/pdb/ot/pdb4ota.ent.gz'
p4159
sS'4gvr'
p4160
S'/net/chevy/raid1/pdb_mirror/pdb/gv/pdb4gvr.ent.gz'
p4161
sS'3zwx'
p4162
S'/net/chevy/raid1/pdb_mirror/pdb/zw/pdb3zwx.ent.gz'
p4163
sS'3zwy'
p4164
S'/net/chevy/raid1/pdb_mirror/pdb/zw/pdb3zwy.ent.gz'
p4165
sS'3zwv'
p4166
S'/net/chevy/raid1/pdb_mirror/pdb/zw/pdb3zwv.ent.gz'
p4167
sS'3zww'
p4168
S'/net/chevy/raid1/pdb_mirror/pdb/zw/pdb3zww.ent.gz'
p4169
sS'1o6h'
p4170
S'/net/chevy/raid1/pdb_mirror/pdb/o6/pdb1o6h.ent.gz'
p4171
sS'3zwp'
p4172
S'/net/chevy/raid1/pdb_mirror/pdb/zw/pdb3zwp.ent.gz'
p4173
sS'1o6r'
p4174
S'/net/chevy/raid1/pdb_mirror/pdb/o6/pdb1o6r.ent.gz'
p4175
sS'3zwo'
p4176
S'/net/chevy/raid1/pdb_mirror/pdb/zw/pdb3zwo.ent.gz'
p4177
sS'1oc3'
p4178
S'/net/chevy/raid1/pdb_mirror/pdb/oc/pdb1oc3.ent.gz'
p4179
sS'1o6q'
p4180
S'/net/chevy/raid1/pdb_mirror/pdb/o6/pdb1o6q.ent.gz'
p4181
sS'3tue'
p4182
S'/net/chevy/raid1/pdb_mirror/pdb/tu/pdb3tue.ent.gz'
p4183
sS'1o6z'
p4184
S'/net/chevy/raid1/pdb_mirror/pdb/o6/pdb1o6z.ent.gz'
p4185
sS'3zwe'
p4186
S'/net/chevy/raid1/pdb_mirror/pdb/zw/pdb3zwe.ent.gz'
p4187
sS'1a8r'
p4188
S'/net/chevy/raid1/pdb_mirror/pdb/a8/pdb1a8r.ent.gz'
p4189
sS'1aqw'
p4190
S'/net/chevy/raid1/pdb_mirror/pdb/aq/pdb1aqw.ent.gz'
p4191
sS'1aqx'
p4192
S'/net/chevy/raid1/pdb_mirror/pdb/aq/pdb1aqx.ent.gz'
p4193
sS'1aqd'
p4194
S'/net/chevy/raid1/pdb_mirror/pdb/aq/pdb1aqd.ent.gz'
p4195
sS'2vom'
p4196
S'/net/chevy/raid1/pdb_mirror/pdb/vo/pdb2vom.ent.gz'
p4197
sS'4dpl'
p4198
S'/net/chevy/raid1/pdb_mirror/pdb/dp/pdb4dpl.ent.gz'
p4199
sS'4dpm'
p4200
S'/net/chevy/raid1/pdb_mirror/pdb/dp/pdb4dpm.ent.gz'
p4201
sS'2v6a'
p4202
S'/net/chevy/raid1/pdb_mirror/pdb/v6/pdb2v6a.ent.gz'
p4203
sS'3zko'
p4204
S'/net/chevy/raid1/pdb_mirror/pdb/zk/pdb3zko.ent.gz'
p4205
sS'1lkt'
p4206
S'/net/chevy/raid1/pdb_mirror/pdb/lk/pdb1lkt.ent.gz'
p4207
sS'2xyn'
p4208
S'/net/chevy/raid1/pdb_mirror/pdb/xy/pdb2xyn.ent.gz'
p4209
sS'2rsl'
p4210
S'/net/chevy/raid1/pdb_mirror/pdb/rs/pdb2rsl.ent.gz'
p4211
sS'4ajp'
p4212
S'/net/chevy/raid1/pdb_mirror/pdb/aj/pdb4ajp.ent.gz'
p4213
sS'1cks'
p4214
S'/net/chevy/raid1/pdb_mirror/pdb/ck/pdb1cks.ent.gz'
p4215
sS'1aq8'
p4216
S'/net/chevy/raid1/pdb_mirror/pdb/aq/pdb1aq8.ent.gz'
p4217
sS'1gsd'
p4218
S'/net/chevy/raid1/pdb_mirror/pdb/gs/pdb1gsd.ent.gz'
p4219
sS'1gsf'
p4220
S'/net/chevy/raid1/pdb_mirror/pdb/gs/pdb1gsf.ent.gz'
p4221
sS'2v64'
p4222
S'/net/chevy/raid1/pdb_mirror/pdb/v6/pdb2v64.ent.gz'
p4223
sS'1gsz'
p4224
S'/net/chevy/raid1/pdb_mirror/pdb/gs/pdb1gsz.ent.gz'
p4225
sS'4hnk'
p4226
S'/net/chevy/raid1/pdb_mirror/pdb/hn/pdb4hnk.ent.gz'
p4227
sS'2v68'
p4228
S'/net/chevy/raid1/pdb_mirror/pdb/v6/pdb2v68.ent.gz'
p4229
sS'2v69'
p4230
S'/net/chevy/raid1/pdb_mirror/pdb/v6/pdb2v69.ent.gz'
p4231
sS'3lhb'
p4232
S'/net/chevy/raid1/pdb_mirror/pdb/lh/pdb3lhb.ent.gz'
p4233
sS'4lrh'
p4234
S'/net/chevy/raid1/pdb_mirror/pdb/lr/pdb4lrh.ent.gz'
p4235
sS'2y32'
p4236
S'/net/chevy/raid1/pdb_mirror/pdb/y3/pdb2y32.ent.gz'
p4237
sS'5bca'
p4238
S'/net/chevy/raid1/pdb_mirror/pdb/bc/pdb5bca.ent.gz'
p4239
sS'1ny7'
p4240
S'/net/chevy/raid1/pdb_mirror/pdb/ny/pdb1ny7.ent.gz'
p4241
sS'2wbh'
p4242
S'/net/chevy/raid1/pdb_mirror/pdb/wb/pdb2wbh.ent.gz'
p4243
sS'3cji'
p4244
S'/net/chevy/raid1/pdb_mirror/pdb/cj/pdb3cji.ent.gz'
p4245
sS'1jqi'
p4246
S'/net/chevy/raid1/pdb_mirror/pdb/jq/pdb1jqi.ent.gz'
p4247
sS'4f7i'
p4248
S'/net/chevy/raid1/pdb_mirror/pdb/f7/pdb4f7i.ent.gz'
p4249
sS'2klr'
p4250
S'/net/chevy/raid1/pdb_mirror/pdb/kl/pdb2klr.ent.gz'
p4251
sS'2j6i'
p4252
S'/net/chevy/raid1/pdb_mirror/pdb/j6/pdb2j6i.ent.gz'
p4253
sS'2j6l'
p4254
S'/net/chevy/raid1/pdb_mirror/pdb/j6/pdb2j6l.ent.gz'
p4255
sS'2j6y'
p4256
S'/net/chevy/raid1/pdb_mirror/pdb/j6/pdb2j6y.ent.gz'
p4257
sS'4f7r'
p4258
S'/net/chevy/raid1/pdb_mirror/pdb/f7/pdb4f7r.ent.gz'
p4259
sS'4b7c'
p4260
S'/net/chevy/raid1/pdb_mirror/pdb/b7/pdb4b7c.ent.gz'
p4261
sS'3ux1'
p4262
S'/net/chevy/raid1/pdb_mirror/pdb/ux/pdb3ux1.ent.gz'
p4263
sS'3ux4'
p4264
S'/net/chevy/raid1/pdb_mirror/pdb/ux/pdb3ux4.ent.gz'
p4265
sS'4jrq'
p4266
S'/net/chevy/raid1/pdb_mirror/pdb/jr/pdb4jrq.ent.gz'
p4267
sS'2y3v'
p4268
S'/net/chevy/raid1/pdb_mirror/pdb/y3/pdb2y3v.ent.gz'
p4269
sS'2y3t'
p4270
S'/net/chevy/raid1/pdb_mirror/pdb/y3/pdb2y3t.ent.gz'
p4271
sS'2wvg'
p4272
S'/net/chevy/raid1/pdb_mirror/pdb/wv/pdb2wvg.ent.gz'
p4273
sS'4jre'
p4274
S'/net/chevy/raid1/pdb_mirror/pdb/jr/pdb4jre.ent.gz'
p4275
sS'4b7y'
p4276
S'/net/chevy/raid1/pdb_mirror/pdb/b7/pdb4b7y.ent.gz'
p4277
sS'4b7x'
p4278
S'/net/chevy/raid1/pdb_mirror/pdb/b7/pdb4b7x.ent.gz'
p4279
sS'3r0r'
p4280
S'/net/chevy/raid1/pdb_mirror/pdb/r0/pdb3r0r.ent.gz'
p4281
sS'1qlr'
p4282
S'/net/chevy/raid1/pdb_mirror/pdb/ql/pdb1qlr.ent.gz'
p4283
sS'1iok'
p4284
S'/net/chevy/raid1/pdb_mirror/pdb/io/pdb1iok.ent.gz'
p4285
sS'2c3n'
p4286
S'/net/chevy/raid1/pdb_mirror/pdb/c3/pdb2c3n.ent.gz'
p4287
sS'1lul'
p4288
S'/net/chevy/raid1/pdb_mirror/pdb/lu/pdb1lul.ent.gz'
p4289
sS'2c3q'
p4290
S'/net/chevy/raid1/pdb_mirror/pdb/c3/pdb2c3q.ent.gz'
p4291
sS'2c3t'
p4292
S'/net/chevy/raid1/pdb_mirror/pdb/c3/pdb2c3t.ent.gz'
p4293
sS'2j69'
p4294
S'/net/chevy/raid1/pdb_mirror/pdb/j6/pdb2j69.ent.gz'
p4295
sS'4agu'
p4296
S'/net/chevy/raid1/pdb_mirror/pdb/ag/pdb4agu.ent.gz'
p4297
sS'2qe7'
p4298
S'/net/chevy/raid1/pdb_mirror/pdb/qe/pdb2qe7.ent.gz'
p4299
sS'1m1c'
p4300
S'/net/chevy/raid1/pdb_mirror/pdb/m1/pdb1m1c.ent.gz'
p4301
sS'4ags'
p4302
S'/net/chevy/raid1/pdb_mirror/pdb/ag/pdb4ags.ent.gz'
p4303
sS'1dw9'
p4304
S'/net/chevy/raid1/pdb_mirror/pdb/dw/pdb1dw9.ent.gz'
p4305
sS'4agx'
p4306
S'/net/chevy/raid1/pdb_mirror/pdb/ag/pdb4agx.ent.gz'
p4307
sS'4agy'
p4308
S'/net/chevy/raid1/pdb_mirror/pdb/ag/pdb4agy.ent.gz'
p4309
sS'1bwf'
p4310
S'/net/chevy/raid1/pdb_mirror/pdb/bw/pdb1bwf.ent.gz'
p4311
sS'6ald'
p4312
S'/net/chevy/raid1/pdb_mirror/pdb/al/pdb6ald.ent.gz'
p4313
sS'2vo9'
p4314
S'/net/chevy/raid1/pdb_mirror/pdb/vo/pdb2vo9.ent.gz'
p4315
sS'1o7j'
p4316
S'/net/chevy/raid1/pdb_mirror/pdb/o7/pdb1o7j.ent.gz'
p4317
sS'2clr'
p4318
S'/net/chevy/raid1/pdb_mirror/pdb/cl/pdb2clr.ent.gz'
p4319
sS'1tei'
p4320
S'/net/chevy/raid1/pdb_mirror/pdb/te/pdb1tei.ent.gz'
p4321
sS'1bwv'
p4322
S'/net/chevy/raid1/pdb_mirror/pdb/bw/pdb1bwv.ent.gz'
p4323
sS'2iz0'
p4324
S'/net/chevy/raid1/pdb_mirror/pdb/iz/pdb2iz0.ent.gz'
p4325
sS'2uuu'
p4326
S'/net/chevy/raid1/pdb_mirror/pdb/uu/pdb2uuu.ent.gz'
p4327
sS'2uuv'
p4328
S'/net/chevy/raid1/pdb_mirror/pdb/uu/pdb2uuv.ent.gz'
p4329
sS'2iz9'
p4330
S'/net/chevy/raid1/pdb_mirror/pdb/iz/pdb2iz9.ent.gz'
p4331
sS'2iz8'
p4332
S'/net/chevy/raid1/pdb_mirror/pdb/iz/pdb2iz8.ent.gz'
p4333
sS'4g0j'
p4334
S'/net/chevy/raid1/pdb_mirror/pdb/g0/pdb4g0j.ent.gz'
p4335
sS'2uud'
p4336
S'/net/chevy/raid1/pdb_mirror/pdb/uu/pdb2uud.ent.gz'
p4337
sS'4g0r'
p4338
S'/net/chevy/raid1/pdb_mirror/pdb/g0/pdb4g0r.ent.gz'
p4339
sS'2uug'
p4340
S'/net/chevy/raid1/pdb_mirror/pdb/uu/pdb2uug.ent.gz'
p4341
sS'1dwv'
p4342
S'/net/chevy/raid1/pdb_mirror/pdb/dw/pdb1dwv.ent.gz'
p4343
sS'1dww'
p4344
S'/net/chevy/raid1/pdb_mirror/pdb/dw/pdb1dww.ent.gz'
p4345
sS'4ag3'
p4346
S'/net/chevy/raid1/pdb_mirror/pdb/ag/pdb4ag3.ent.gz'
p4347
sS'1dwx'
p4348
S'/net/chevy/raid1/pdb_mirror/pdb/dw/pdb1dwx.ent.gz'
p4349
sS'1e2y'
p4350
S'/net/chevy/raid1/pdb_mirror/pdb/e2/pdb1e2y.ent.gz'
p4351
sS'1dwk'
p4352
S'/net/chevy/raid1/pdb_mirror/pdb/dw/pdb1dwk.ent.gz'
p4353
sS'1dwn'
p4354
S'/net/chevy/raid1/pdb_mirror/pdb/dw/pdb1dwn.ent.gz'
p4355
sS'1sbb'
p4356
S'/net/chevy/raid1/pdb_mirror/pdb/sb/pdb1sbb.ent.gz'
p4357
sS'2tod'
p4358
S'/net/chevy/raid1/pdb_mirror/pdb/to/pdb2tod.ent.gz'
p4359
sS'1baw'
p4360
S'/net/chevy/raid1/pdb_mirror/pdb/ba/pdb1baw.ent.gz'
p4361
sS'2izw'
p4362
S'/net/chevy/raid1/pdb_mirror/pdb/iz/pdb2izw.ent.gz'
p4363
sS'2uu7'
p4364
S'/net/chevy/raid1/pdb_mirror/pdb/uu/pdb2uu7.ent.gz'
p4365
sS'2clw'
p4366
S'/net/chevy/raid1/pdb_mirror/pdb/cl/pdb2clw.ent.gz'
p4367
sS'2izz'
p4368
S'/net/chevy/raid1/pdb_mirror/pdb/iz/pdb2izz.ent.gz'
p4369
sS'1hwz'
p4370
S'/net/chevy/raid1/pdb_mirror/pdb/hw/pdb1hwz.ent.gz'
p4371
sS'2clp'
p4372
S'/net/chevy/raid1/pdb_mirror/pdb/cl/pdb2clp.ent.gz'
p4373
sS'4aip'
p4374
S'/net/chevy/raid1/pdb_mirror/pdb/ai/pdb4aip.ent.gz'
p4375
sS'1hwy'
p4376
S'/net/chevy/raid1/pdb_mirror/pdb/hw/pdb1hwy.ent.gz'
p4377
sS'4aih'
p4378
S'/net/chevy/raid1/pdb_mirror/pdb/ai/pdb4aih.ent.gz'
p4379
sS'2clb'
p4380
S'/net/chevy/raid1/pdb_mirror/pdb/cl/pdb2clb.ent.gz'
p4381
sS'2izn'
p4382
S'/net/chevy/raid1/pdb_mirror/pdb/iz/pdb2izn.ent.gz'
p4383
s.