(lp1
(lp2
S'4NTT'
p3
aI0
aI1
aI1
aI-1
aI1
aI1
aI-1
aF0.29599999999999999
aF0.438
aF0
aa(lp4
S'4H6Y'
p5
aI0
aI1
aI1
aI-1
aI1
aI1
aI-1
aF3.6659999999999999
aF2.895
aF0
aa(lp6
S'4AKH'
p7
aI0
aI1
aI1
aI-1
aI1
aI1
aI-1
aF1.911
aF1.9279999999999999
aF0
aa(lp8
S'1VSZ'
p9
aI59
aI59
aI59
aI-1
aI0
aI0
aI-1
aF61.241
aF54.709000000000003
aF0
aa(lp10
S'4UL0'
p11
aI0
aI0
aI0
aI-1
aI0
aI0
aI-1
aF17.488
aF16.789999999999999
aF0
aa(lp12
S'4KD8'
p13
aI0
aI0
aI0
aI-1
aI0
aI0
aI-1
aF8.6910000000000007
aF8.8369999999999997
aF0
aa(lp14
S'4DRW'
p15
aI0
aI4
aI4
aI-1
aI2
aI2
aI-1
aF0.874
aF0.39100000000000001
aF0
aa(lp16
S'3M0C'
p17
aI0
aI0
aI0
aI-1
aI0
aI0
aI-1
aF3.6240000000000001
aF3.4569999999999999
aF0
aa(lp18
S'3V0B'
p19
aI0
aI0
aI0
aI-1
aI0
aI0
aI-1
aF22.158999999999999
aF22.782
aF0
aa(lp20
S'3QS7'
p21
aI0
aI4
aI4
aI-1
aI2
aI2
aI-1
aF3.9220000000000002
aF3.218
aF0
aa(lp22
S'4NV2'
p23
aI0
aI0
aI0
aI-1
aI0
aI0
aI-1
aF0.066000000000000003
aF0.067000000000000004
aF0
aa(lp24
S'4DS6'
p25
aI0
aI0
aI0
aI-1
aI0
aI0
aI-1
aF0.193
aF0.127
aF0
aa(lp26
S'4NV6'
p27
aI0
aI0
aI0
aI-1
aI0
aI0
aI-1
aF0.063
aF0.064000000000000001
aF0
aa(lp28
S'4DT0'
p29
aI0
aI0
aI0
aI-1
aI0
aI0
aI-1
aF0.041000000000000002
aF0.042000000000000003
aF0
aa(lp30
S'4AKI'
p31
aI0
aI1
aI1
aI-1
aI1
aI1
aI-1
aF1.804
aF1.804
aF0
aa(lp32
S'4NWN'
p33
aI0
aI22
aI22
aI-1
aI2
aI2
aI-1
aF67.709000000000003
aF12.339
aF0
aa(lp34
S'4DUU'
p35
aI0
aI0
aI0
aI-1
aI0
aI0
aI-1
aF0.17799999999999999
aF0.17999999999999999
aF0
aa(lp36
S'4H8S'
p37
aI0
aI3
aI3
aI-1
aI1
aI1
aI-1
aF11.923
aF5.758
aF0
aa(lp38
S'3QS9'
p39
aI0
aI5
aI5
aI-1
aI2
aI2
aI-1
aF0.83199999999999996
aF0.75600000000000001
aF0
aa(lp40
S'3M2K'
p41
aI0
aI1
aI1
aI-1
aI1
aI1
aI-1
aF1.105
aF1.0780000000000001
aF0
aa(lp42
S'4DUZ'
p43
aI0
aI0
aI0
aI-1
aI0
aI0
aI-1
aF7.2949999999999999
aF8.734
aF0
aa(lp44
S'4AMC'
p45
aI0
aI0
aI0
aI-1
aI0
aI0
aI-1
aF0.187
aF0.192
aF0
aa(lp46
S'3QT1'
p47
aI0
aI0
aI0
aI-1
aI0
aI0
aI-1
aF1.605
aF1.585
aF0
aa(lp48
S'3M3N'
p49
aI0
aI1
aI1
aI-1
aI1
aI1
aI-1
aF1.792
aF1.7929999999999999
aF0
aa(lp50
S'4ANG'
p51
aI119
aI119
aI119
aI-1
aI0
aI0
aI-1
aF2.6349999999999998
aF2.5819999999999999
aF0
aa(lp52
S'3QYB'
p53
aI0
aI0
aI0
aI-1
aI0
aI0
aI-1
aF0.071999999999999995
aF0.071999999999999995
aF0
aa(lp54
S'3M4O'
p55
aI0
aI0
aI0
aI-1
aI0
aI0
aI-1
aF1.1419999999999999
aF1.1699999999999999
aF0
aa(lp56
S'3QYX'
p57
aI0
aI3
aI3
aI-1
aI1
aI1
aI-1
aF1.1479999999999999
aF0.70899999999999996
aF0
aa(lp58
S'4KD9'
p59
aI0
aI2
aI2
aI-1
aI1
aI1
aI-1
aF19.056999999999999
aF17.454999999999998
aF0
aa(lp60
S'4ANI'
p61
aI0
aI5
aI5
aI-1
aI2
aI2
aI-1
aF21.826000000000001
aF10.321999999999999
aF0
aa(lp62
S'3M9B'
p63
aI0
aI6
aI11
aI-1
aI3
aI1
aI-1
aF2.8140000000000001
aF1.0860000000000001
aF0
aa(lp64
S'3R08'
p65
aI0
aI0
aI0
aI-1
aI0
aI0
aI-1
aF0.76800000000000002
aF0.78300000000000003
aF0
aa(lp66
S'3R1A'
p67
aI0
aI7
aI7
aI-1
aI1
aI1
aI-1
aF31.190000000000001
aF11.612
aF0
aa(lp68
S'4DV0'
p69
aI0
aI0
aI0
aI-1
aI0
aI0
aI-1
aF10.159000000000001
aF9.7520000000000007
aF0
aa(lp70
S'4HH1'
p71
aI0
aI1
aI1
aI-1
aI1
aI1
aI-1
aF2.2349999999999999
aF2.0059999999999998
aF0
aa(lp72
S'3M9C'
p73
aI0
aI1
aI1
aI-1
aI1
aI1
aI-1
aF2.109
aF2.101
aF0
aa(lp74
S'4HI5'
p75
aI0
aI0
aI0
aI-1
aI0
aI0
aI-1
aF0.035000000000000003
aF0.037999999999999999
aF0
aa(lp76
S'3M9D'
p77
aI0
aI16
aI16
aI-1
aI2
aI2
aI-1
aF4.6109999999999998
aF1.369
aF0
aa(lp78
S'4UL1'
p79
aI0
aI0
aI0
aI-1
aI0
aI0
aI-1
aF88.364999999999995
aF85.230000000000004
aF0
aa(lp80
S'4HJC'
p81
aI0
aI0
aI0
aI-1
aI0
aI0
aI-1
aF0.104
aF0.105
aF0
aa(lp82
S'4HKB'
p83
aI0
aI9
aI9
aI-1
aI3
aI3
aI-1
aF17.867000000000001
aF6.3609999999999998
aF0
aa(lp84
S'3M9S'
p85
aI0
aI1
aI3
aI-1
aI1
aI2
aI-1
aF69.893000000000001
aF37.368000000000002
aF0
aa(lp86
S'3V0C'
p87
aI0
aI0
aI0
aI-1
aI0
aI0
aI-1
aF0.318
aF0.31900000000000001
aF0
aa(lp88
S'4DV1'
p89
aI0
aI0
aI0
aI-1
aI0
aI0
aI-1
aF7.0839999999999996
aF7.234
aF0
aa(lp90
S'3V11'
p91
aI0
aI0
aI0
aI-1
aI0
aI0
aI-1
aF0.185
aF0.187
aF0
aa(lp92
S'3V4W'
p93
aI0
aI0
aI0
aI-1
aI0
aI0
aI-1
aF0.019
aF0.019
aF0
aa(lp94
S'3V5S'
p95
aI0
aI0
aI0
aI-1
aI0
aI0
aI-1
aF0.067000000000000004
aF0.067000000000000004
aF0
aa(lp96
S'4AOL'
p97
aI1
aI1
aI1
aI-1
aI1
aI1
aI-1
aF422.36799999999999
aF312.90699999999998
aF0
aa(lp98
S'3V6K'
p99
aI0
aI3
aI3
aI-1
aI3
aI3
aI-1
aF2.2890000000000001
aF2.1709999999999998
aF0
aa(lp100
S'4KDA'
p101
aI0
aI0
aI0
aI-1
aI0
aI0
aI-1
aF6.9370000000000003
aF6.5010000000000003
aF0
aa(lp102
S'3V6U'
p103
aI0
aI0
aI0
aI-1
aI0
aI0
aI-1
aF12.507999999999999
aF11.955
aF0
aa(lp104
S'4HL8'
p105
aI38
aI38
aI38
aI-1
aI0
aI0
aI-1
aF0.44
aF0.46600000000000003
aF0
aa(lp106
S'4DV2'
p107
aI0
aI0
aI0
aI-1
aI0
aI0
aI-1
aF8.0280000000000005
aF6.734
aF0
aa(lp108
S'4HMY'
p109
aI0
aI0
aI0
aI-1
aI0
aI0
aI-1
aF5.4180000000000001
aF4.4619999999999997
aF0
aa(lp110
S'3R2W'
p111
aI0
aI3
aI3
aI-1
aI1
aI1
aI-1
aF23.245999999999999
aF11.839
aF0
aa(lp112
S'4KDB'
p113
aI0
aI2
aI2
aI-1
aI1
aI1
aI-1
aF19.385999999999999
aF21.651
aF0
aa(lp114
S'4HQJ'
p115
aI0
aI3
aI3
aI-1
aI3
aI3
aI-1
aF14.103
aF14.318
aF0
aa(lp116
S'4DV3'
p117
aI0
aI0
aI0
aI-1
aI0
aI0
aI-1
aF8.3740000000000006
aF8.8989999999999991
aF0
aa(lp118
S'4NWW'
p119
aI14
aI14
aI14
aI-1
aI0
aI0
aI-1
aF0.71799999999999997
aF0.40500000000000003
aF0
aa(lp120
S'3V6V'
p121
aI0
aI0
aI0
aI-1
aI0
aI0
aI-1
aF9.6560000000000006
aF9.2759999999999998
aF0
aa(lp122
S'4NXM'
p123
aI0
aI0
aI0
aI-1
aI0
aI0
aI-1
aF8.5220000000000002
aF8.5109999999999992
aF0
aa(lp124
S'4DV4'
p125
aI0
aI0
aI0
aI-1
aI0
aI0
aI-1
aF8.6560000000000006
aF8.4930000000000003
aF0
aa(lp126
S'3R3I'
p127
aI0
aI2
aI2
aI-1
aI1
aI1
aI-1
aF15.85
aF8.2430000000000003
aF0
aa(lp128
S'4HQP'
p129
aI0
aI8
aI8
aI-1
aI2
aI2
aI-1
aF4.8860000000000001
aF1.9019999999999999
aF0
aa(lp130
S'3V6W'
p131
aI0
aI0
aI0
aI-1
aI0
aI0
aI-1
aF14.146000000000001
aF14.302
aF0
aa(lp132
S'4NXN'
p133
aI0
aI0
aI0
aI-1
aI0
aI0
aI-1
aF7.8250000000000002
aF6.6369999999999996
aF0
aa(lp134
S'4KDG'
p135
aI0
aI0
aI0
aI-1
aI0
aI0
aI-1
aF6.7990000000000004
aF6.5620000000000003
aF0
aa(lp136
S'4HTS'
p137
aI0
aI0
aI0
aI-1
aI0
aI0
aI-1
aF0.042000000000000003
aF0.042000000000000003
aF0
aa(lp138
S'1VVP'
p139
aI0
aI0
aI0
aI-1
aI0
aI0
aI-1
aF7.0030000000000001
aF7.0999999999999996
aF0
aa(lp140
S'4HTT'
p141
aI0
aI1
aI1
aI-1
aI1
aI1
aI-1
aF0.114
aF0.115
aF0
aa(lp142
S'4DV5'
p143
aI0
aI0
aI0
aI-1
aI0
aI0
aI-1
aF7.0949999999999998
aF6.7199999999999998
aF0
aa(lp144
S'4HUK'
p145
aI0
aI0
aI0
aI-1
aI0
aI0
aI-1
aF0.13800000000000001
aF0.13600000000000001
aF0
aa(lp146
S'4HUL'
p147
aI0
aI0
aI0
aI-1
aI0
aI0
aI-1
aF0.13600000000000001
aF0.13700000000000001
aF0
aa(lp148
S'4HUN'
p149
aI0
aI0
aI0
aI-1
aI0
aI0
aI-1
aF0.13400000000000001
aF0.13700000000000001
aF0
aa(lp150
S'4NYM'
p151
aI0
aI1
aI1
aI-1
aI1
aI1
aI-1
aF0.55200000000000005
aF0.56399999999999995
aF0
aa(lp152
S'4HVZ'
p153
aI0
aI3
aI3
aI-1
aI1
aI1
aI-1
aF0.39500000000000002
aF0.312
aF0
aa(lp154
S'4HW9'
p155
aI0
aI6
aI6
aI-1
aI1
aI1
aI-1
aF1.0109999999999999
aF0.60299999999999998
aF0
aa(lp156
S'4O02'
p157
aI0
aI0
aI0
aI-1
aI0
aI0
aI-1
aF1.0640000000000001
aF1.2130000000000001
aF0
aa(lp158
S'4KDH'
p159
aI0
aI2
aI2
aI-1
aI1
aI1
aI-1
aF15.9
aF16.696999999999999
aF0
aa(lp160
S'4HWA'
p161
aI0
aI6
aI6
aI-1
aI1
aI1
aI-1
aF1.27
aF0.71699999999999997
aF0
aa(lp162
S'3R4F'
p163
aI0
aI0
aI0
aI-1
aI0
aI0
aI-1
aF0.02
aF0.02
aF0
aa(lp164
S'1VVQ'
p165
aI0
aI0
aI0
aI-1
aI0
aI0
aI-1
aF15.743
aF14.286
aF0
aa(lp166
S'4O0P'
p167
aI0
aI1
aI1
aI-1
aI1
aI1
aI-1
aF3.242
aF3.105
aF0
aa(lp168
S'3R9J'
p169
aI0
aI2
aI2
aI-1
aI2
aI2
aI-1
aF0.998
aF0.88500000000000001
aF0
aa(lp170
S'4E0S'
p171
aI0
aI0
aI0
aI-1
aI0
aI0
aI-1
aF0.63400000000000001
aF0.66800000000000004
aF0
aa(lp172
S'4HXI'
p173
aI0
aI0
aI0
aI-1
aI0
aI0
aI-1
aF0.13600000000000001
aF0.13400000000000001
aF0
aa(lp174
S'3RFG'
p175
aI0
aI1
aI1
aI-1
aI1
aI1
aI-1
aF0.17899999999999999
aF0.19500000000000001
aF0
aa(lp176
S'4HYC'
p177
aI0
aI7
aI7
aI-1
aI1
aI1
aI-1
aF1.446
aF0.60799999999999998
aF0
aa(lp178
S'4E2I'
p179
aI0
aI21
aI21
aI-1
aI2
aI2
aI-1
aF11.885999999999999
aF3.964
aF0
aa(lp180
S'3V6X'
p181
aI0
aI0
aI0
aI-1
aI0
aI0
aI-1
aF14.346
aF15.462
aF0
aa(lp182
S'3RFM'
p183
aI0
aI0
aI0
aI-1
aI0
aI0
aI-1
aF0.057000000000000002
aF0.055
aF0
aa(lp184
S'4O5I'
p185
aI0
aI17
aI20
aI-1
aI5
aI4
aI-1
aF57.372999999999998
aF19.760999999999999
aF0
aa(lp186
S'4HYD'
p187
aI0
aI3
aI3
aI-1
aI1
aI1
aI-1
aF0.48599999999999999
aF0.42599999999999999
aF0
aa(lp188
S'3RIA'
p189
aI0
aI9
aI9
aI-1
aI5
aI4
aI-1
aF30.776
aF14.444000000000001
aF0
aa(lp190
S'4HZU'
p191
aI0
aI0
aI0
aI-1
aI0
aI0
aI-1
aF2.355
aF2.161
aF0
aa(lp192
S'3MAW'
p193
aI0
aI1
aI1
aI-1
aI1
aI1
aI-1
aF0.20499999999999999
aF0.20499999999999999
aF0
aa(lp194
S'4I2W'
p195
aI0
aI0
aI0
aI-1
aI0
aI0
aI-1
aF0.22
aF0.222
aF0
aa(lp196
S'3ME1'
p197
aI2
aI2
aI2
aI-1
aI1
aI1
aI-1
aF4.4790000000000001
aF2.573
aF0
aa(lp198
S'4I34'
p199
aI0
aI5
aI5
aI-1
aI1
aI1
aI-1
aF17.983000000000001
aF6.0940000000000003
aF0
aa(lp200
S'4E3C'
p201
aI0
aI5
aI5
aI-1
aI1
aI1
aI-1
aF26.893999999999998
aF6.0620000000000003
aF0
aa(lp202
S'3MH6'
p203
aI0
aI0
aI0
aI-1
aI0
aI0
aI-1
aF0.091999999999999998
aF0.092999999999999999
aF0
aa(lp204
S'3MIV'
p205
aI0
aI1
aI1
aI-1
aI1
aI1
aI-1
aF0.34699999999999998
aF0.35799999999999998
aF0
aa(lp206
S'1VVR'
p207
aI0
aI0
aI0
aI-1
aI0
aI0
aI-1
aF7.681
aF7.8170000000000002
aF0
aa(lp208
S'4KDJ'
p209
aI0
aI0
aI0
aI-1
aI0
aI0
aI-1
aF6.7320000000000002
aF6.5439999999999996
aF0
aa(lp210
S'3MJU'
p211
aI0
aI0
aI0
aI-1
aI0
aI0
aI-1
aF0.34499999999999997
aF0.34499999999999997
aF0
aa(lp212
S'3MK3'
p213
aI0
aI45
aI59
aI-1
aI6
aI1
aI-1
aF841.12199999999996
aF23.992000000000001
aF0
aa(lp214
S'3V79'
p215
aI0
aI0
aI0
aI-1
aI0
aI0
aI-1
aF0.183
aF0.185
aF0
aa(lp216
S'3V8F'
p217
aI0
aI2
aI2
aI-1
aI1
aI1
aI-1
aF4.4039999999999999
aF2.367
aF0
aa(lp218
S'4KDK'
p219
aI0
aI2
aI2
aI-1
aI1
aI1
aI-1
aF16.838999999999999
aF15.904999999999999
aF0
aa(lp220
S'4I3H'
p221
aI0
aI1
aI1
aI-1
aI1
aI1
aI-1
aF15.672000000000001
aF15.529999999999999
aF0
aa(lp222
S'3V8G'
p223
aI0
aI5
aI5
aI-1
aI1
aI1
aI-1
aF33.116999999999997
aF10.597
aF0
aa(lp224
S'1VVS'
p225
aI0
aI0
aI0
aI-1
aI0
aI0
aI-1
aF14.131
aF13.114000000000001
aF0
aa(lp226
S'3RJ1'
p227
aI0
aI6
aI6
aI-1
aI5
aI5
aI-1
aF13.986000000000001
aF8.1869999999999994
aF0
aa(lp228
S'4E4X'
p229
aI0
aI1
aI1
aI-1
aI1
aI1
aI-1
aF1.1990000000000001
aF1.204
aF0
aa(lp230
S'4E8M'
p231
aI0
aI0
aI0
aI-1
aI0
aI0
aI-1
aF0.156
aF0.157
aF0
aa(lp232
S'4E8V'
p233
aI0
aI0
aI0
aI-1
aI0
aI0
aI-1
aF0.14599999999999999
aF0.14899999999999999
aF0
aa(lp234
S'4EC8'
p235
aI0
aI0
aI0
aI-1
aI0
aI0
aI-1
aF0.14000000000000001
aF0.14099999999999999
aF0
aa(lp236
S'4ECK'
p237
aI0
aI1
aI1
aI-1
aI1
aI1
aI-1
aF0.35899999999999999
aF0.36099999999999999
aF0
aa(lp238
S'4EEB'
p239
aI0
aI4
aI4
aI-1
aI1
aI1
aI-1
aF10.412000000000001
aF3.1859999999999999
aF0
aa(lp240
S'4UL2'
p241
aI0
aI0
aI0
aI-1
aI0
aI0
aI-1
aF9.5269999999999992
aF9.3979999999999997
aF0
aa(lp242
S'1VVT'
p243
aI0
aI0
aI0
aI-1
aI0
aI0
aI-1
aF8.0790000000000006
aF6.6059999999999999
aF0
aa(lp244
S'3RK3'
p245
aI0
aI0
aI0
aI-1
aI0
aI0
aI-1
aF0.17499999999999999
aF0.152
aF0
aa(lp246
S'4I4L'
p247
aI10
aI5
aI5
aI-1
aI1
aI1
aI-1
aF18.547000000000001
aF8.2050000000000001
aF0
aa(lp248
S'3RL0'
p249
aI0
aI32
aI35
aI-1
aI6
aI5
aI-1
aF18.52
aF4.5869999999999997
aF0
aa(lp250
S'4KDP'
p251
aI0
aI6
aI6
aI-1
aI1
aI1
aI-1
aF5.0279999999999996
aF1.127
aF0
aa(lp252
S'4EED'
p253
aI0
aI4
aI4
aI-1
aI1
aI1
aI-1
aF13.747999999999999
aF6.6479999999999997
aF0
aa(lp254
S'4OAA'
p255
aI0
aI1
aI1
aI-1
aI1
aI1
aI-1
aF0.47399999999999998
aF0.38600000000000001
aF0
aa(lp256
S'4KIT'
p257
aI0
aI0
aI0
aI-1
aI0
aI0
aI-1
aF0.47399999999999998
aF0.52300000000000002
aF0
aa(lp258
S'4OD5'
p259
aI0
aI5
aI5
aI-1
aI1
aI1
aI-1
aF1.137
aF0.68500000000000005
aF0
aa(lp260
S'4KMU'
p261
aI0
aI5
aI5
aI-1
aI4
aI4
aI-1
aF122.241
aF78.204999999999998
aF0
aa(lp262
S'4OFD'
p263
aI0
aI1
aI1
aI-1
aI1
aI1
aI-1
aF0.71399999999999997
aF0.73099999999999998
aF0
aa(lp264
S'3VBR'
p265
aI4
aI4
aI4
aI-1
aI0
aI0
aI-1
aF0.071999999999999995
aF0.073999999999999996
aF0
aa(lp266
S'1VVU'
p267
aI0
aI0
aI0
aI-1
aI0
aI0
aI-1
aF13.734
aF13.727
aF0
aa(lp268
S'3VBU'
p269
aI4
aI4
aI4
aI-1
aI0
aI0
aI-1
aF0.10000000000000001
aF0.099000000000000005
aF0
aa(lp270
S'4OGA'
p271
aI0
aI0
aI0
aI-1
aI0
aI0
aI-1
aF0.27800000000000002
aF0.27100000000000002
aF0
aa(lp272
S'3VD2'
p273
aI0
aI10
aI10
aI-1
aI2
aI2
aI-1
aF8.4800000000000004
aF2.718
aF0
aa(lp274
S'4OH6'
p275
aI0
aI0
aI0
aI-1
aI0
aI0
aI-1
aF0.062
aF0.064000000000000001
aF0
aa(lp276
S'4UL3'
p277
aI0
aI1
aI1
aI-1
aI1
aI1
aI-1
aF30.940999999999999
aF30.417999999999999
aF0
aa(lp278
S'4OIA'
p279
aI0
aI1
aI1
aI-1
aI1
aI1
aI-1
aF2.4900000000000002
aF2.5030000000000001
aF0
aa(lp280
S'3RPU'
p281
aI0
aI6
aI6
aI-1
aI3
aI2
aI-1
aF10.58
aF4.9950000000000001
aF0
aa(lp282
S'4EHG'
p283
aI0
aI1
aI1
aI-1
aI1
aI1
aI-1
aF0.95699999999999996
aF0.96899999999999997
aF0
aa(lp284
S'4OIB'
p285
aI0
aI0
aI0
aI-1
aI0
aI0
aI-1
aF0.073999999999999996
aF0.074999999999999997
aF0
aa(lp286
S'4OIQ'
p287
aI0
aI1
aI1
aI-1
aI1
aI1
aI-1
aF1.617
aF1.679
aF0
aa(lp288
S'4I5O'
p289
aI0
aI5
aI5
aI-1
aI1
aI1
aI-1
aF21.686
aF7.8310000000000004
aF0
aa(lp290
S'4EIW'
p291
aI2
aI5
aI5
aI-1
aI1
aI1
aI-1
aF23.172999999999998
aF8.1699999999999999
aF0
aa(lp292
S'3VKH'
p293
aI0
aI1
aI1
aI-1
aI1
aI1
aI-1
aF136.518
aF138.68199999999999
aF0
aa(lp294
S'4OM2'
p295
aI0
aI3
aI3
aI-1
aI1
aI1
aI-1
aF1.268
aF0.77800000000000002
aF0
aa(lp296
S'4OMT'
p297
aI0
aI0
aI0
aI-1
aI0
aI0
aI-1
aF0.17899999999999999
aF0.183
aF0
aa(lp298
S'4OQA'
p299
aI0
aI3
aI3
aI-1
aI3
aI3
aI-1
aF3.2349999999999999
aF2.9860000000000002
aF0
aa(lp300
S'3RQC'
p301
aI0
aI6
aI6
aI-1
aI1
aI1
aI-1
aF9.7219999999999995
aF2.5920000000000001
aF0
aa(lp302
S'1VVV'
p303
aI0
aI0
aI0
aI-1
aI0
aI0
aI-1
aF7.1749999999999998
aF6.3460000000000001
aF0
aa(lp304
S'4ORH'
p305
aI0
aI7
aI7
aI-1
aI3
aI3
aI-1
aF11.086
aF5.7380000000000004
aF0
aa(lp306
S'3RRN'
p307
aI0
aI0
aI0
aI-1
aI0
aI0
aI-1
aF0.17299999999999999
aF0.17599999999999999
aF0
aa(lp308
S'3RWR'
p309
aI0
aI21
aI22
aI-1
aI3
aI2
aI-1
aF44.847000000000001
aF9.6020000000000003
aF0
aa(lp310
S'1VVW'
p311
aI0
aI0
aI0
aI-1
aI0
aI0
aI-1
aF14.026999999999999
aF13.632
aF0
aa(lp312
S'4I63'
p313
aI0
aI5
aI5
aI-1
aI1
aI1
aI-1
aF20.773
aF7.2199999999999998
aF0
aa(lp314
S'4EJ9'
p315
aI0
aI0
aI0
aI-1
aI0
aI0
aI-1
aF8.8200000000000003
aF8.3870000000000005
aF0
aa(lp316
S'4OVV'
p317
aI0
aI0
aI0
aI-1
aI0
aI0
aI-1
aF0.32500000000000001
aF0.32700000000000001
aF0
aa(lp318
S'4OX9'
p319
aI0
aI0
aI0
aI-1
aI0
aI0
aI-1
aF9.875
aF9.2469999999999999
aF0
aa(lp320
S'4UP6'
p321
aI0
aI1
aI1
aI-1
aI1
aI1
aI-1
aF0.28799999999999998
aF0.29999999999999999
aF0
aa(lp322
S'4EJA'
p323
aI0
aI0
aI0
aI-1
aI0
aI0
aI-1
aF9.3949999999999996
aF7.7389999999999999
aF0
aa(lp324
S'4UV3'
p325
aI9
aI11
aI17
aI-1
aI2
aI1
aI-1
aF51.744999999999997
aF10.67
aF0
aa(lp326
S'1VVX'
p327
aI0
aI0
aI0
aI-1
aI0
aI0
aI-1
aF6.6849999999999996
aF6.218
aF0
aa(lp328
S'4I81'
p329
aI0
aI5
aI5
aI-1
aI1
aI1
aI-1
aF15.569000000000001
aF5.976
aF0
aa(lp330
S'4OYE'
p331
aI11
aI11
aI11
aI-1
aI1
aI1
aI-1
aF42.917999999999999
aF21.826000000000001
aF0
aa(lp332
S'4EJB'
p333
aI0
aI0
aI0
aI-1
aI0
aI0
aI-1
aF19.760999999999999
aF18.986999999999998
aF0
aa(lp334
S'1VVY'
p335
aI0
aI0
aI0
aI-1
aI0
aI0
aI-1
aF13.406000000000001
aF13.257999999999999
aF0
aa(lp336
S'4I9K'
p337
aI0
aI1
aI1
aI-1
aI1
aI1
aI-1
aF1.3049999999999999
aF1.2
aF0
aa(lp338
S'3RY6'
p339
aI0
aI1
aI1
aI-1
aI1
aI1
aI-1
aF0.77000000000000002
aF0.76400000000000001
aF0
aa(lp340
S'4IGC'
p341
aI0
aI5
aI5
aI-1
aI4
aI4
aI-1
aF120.42100000000001
aF100.236
aF0
aa(lp342
S'3RYT'
p343
aI0
aI1
aI1
aI-1
aI1
aI1
aI-1
aF4.548
aF4.5369999999999999
aF0
aa(lp344
S'3RZF'
p345
aI0
aI0
aI0
aI-1
aI0
aI0
aI-1
aF0.10199999999999999
aF0.10199999999999999
aF0
aa(lp346
S'3S0X'
p347
aI0
aI0
aI0
aI-1
aI0
aI0
aI-1
aF0.075999999999999998
aF0.070000000000000007
aF0
aa(lp348
S'1VVZ'
p349
aI0
aI0
aI0
aI-1
aI0
aI0
aI-1
aF6.1660000000000004
aF6.2439999999999998
aF0
aa(lp350
S'3S33'
p351
aI0
aI0
aI0
aI-1
aI0
aI0
aI-1
aF0.13700000000000001
aF0.14899999999999999
aF0
aa(lp352
S'3S38'
p353
aI0
aI0
aI0
aI-1
aI0
aI0
aI-1
aF0.13600000000000001
aF0.13600000000000001
aF0
aa(lp354
S'3S39'
p355
aI0
aI0
aI0
aI-1
aI0
aI0
aI-1
aF0.13700000000000001
aF0.13800000000000001
aF0
aa(lp356
S'3S3A'
p357
aI0
aI0
aI0
aI-1
aI0
aI0
aI-1
aF0.14899999999999999
aF0.13600000000000001
aF0
aa(lp358
S'3S3C'
p359
aI0
aI0
aI0
aI-1
aI0
aI0
aI-1
aF0.13400000000000001
aF0.13500000000000001
aF0
aa(lp360
S'3S3D'
p361
aI0
aI0
aI0
aI-1
aI0
aI0
aI-1
aF0.17000000000000001
aF0.18099999999999999
aF0
aa(lp362
S'4EJC'
p363
aI0
aI0
aI0
aI-1
aI0
aI0
aI-1
aF15.734999999999999
aF15.768000000000001
aF0
aa(lp364
S'3S4G'
p365
aI59
aI59
aI59
aI-1
aI0
aI0
aI-1
aF0.28899999999999998
aF0.29299999999999998
aF0
aa(lp366
S'3S4Z'
p367
aI0
aI2
aI2
aI-1
aI1
aI1
aI-1
aF1.0649999999999999
aF1.0129999999999999
aF0
aa(lp368
S'1VW0'
p369
aI0
aI0
aI0
aI-1
aI0
aI0
aI-1
aF13.680999999999999
aF13.275
aF0
aa(lp370
S'4UW0'
p371
aI0
aI0
aI0
aI-1
aI0
aI0
aI-1
aF0.095000000000000001
aF0.097000000000000003
aF0
aa(lp372
S'3S5C'
p373
aI0
aI6
aI6
aI-1
aI1
aI1
aI-1
aF5.2190000000000003
aF1.3360000000000001
aF0
aa(lp374
S'4UXV'
p375
aI0
aI0
aI0
aI-1
aI0
aI0
aI-1
aF0.094
aF0.095000000000000001
aF0
aa(lp376
S'4V2C'
p377
aI0
aI2
aI2
aI-1
aI2
aI2
aI-1
aF0.309
aF0.31
aF0
aa(lp378
S'4W2A'
p379
aI0
aI0
aI0
aI-1
aI0
aI0
aI-1
aF6.8380000000000001
aF6.6900000000000004
aF0
aa(lp380
S'3S62'
p381
aI0
aI0
aI0
aI-1
aI0
aI0
aI-1
aF0.55400000000000005
aF0.55900000000000005
aF0
aa(lp382
S'4OYG'
p383
aI0
aI5
aI5
aI-1
aI1
aI1
aI-1
aF1.369
aF0.93999999999999995
aF0
aa(lp384
S'3S7Y'
p385
aI0
aI1
aI1
aI-1
aI1
aI1
aI-1
aF2.4390000000000001
aF2.4689999999999999
aF0
aa(lp386
S'4P0R'
p387
aI0
aI5
aI5
aI-1
aI5
aI5
aI-1
aF3.8580000000000001
aF3.0190000000000001
aF0
aa(lp388
S'3SAQ'
p389
aI0
aI1
aI1
aI-1
aI1
aI1
aI-1
aF3.0470000000000002
aF3.0249999999999999
aF0
aa(lp390
S'4W2B'
p391
aI0
aI0
aI0
aI-1
aI0
aI0
aI-1
aF14.336
aF13.958
aF0
aa(lp392
S'4P0S'
p393
aI0
aI15
aI15
aI-1
aI5
aI5
aI-1
aF18.294
aF9.5060000000000002
aF0
aa(lp394
S'3SDJ'
p395
aI0
aI13
aI13
aI-1
aI1
aI1
aI-1
aF99.260000000000005
aF11.492000000000001
aF0
aa(lp396
S'1VW1'
p397
aI0
aI2
aI4
aI-1
aI2
aI1
aI-1
aF5.3979999999999997
aF3.8980000000000001
aF0
aa(lp398
S'4EJX'
p399
aI0
aI0
aI0
aI-1
aI0
aI0
aI-1
aF0.38200000000000001
aF0.40699999999999997
aF0
aa(lp400
S'4EKC'
p401
aI1
aI2
aI2
aI-1
aI2
aI2
aI-1
aF0.34399999999999997
aF0.34499999999999997
aF0
aa(lp402
S'4EP0'
p403
aI0
aI11
aI11
aI-1
aI1
aI1
aI-1
aF7.6139999999999999
aF2.8610000000000002
aF0
aa(lp404
S'1VW2'
p405
aI0
aI1
aI4
aI-1
aI1
aI1
aI-1
aF371.08699999999999
aF87.543999999999997
aF0
aa(lp406
S'4ERM'
p407
aI0
aI6
aI6
aI-1
aI2
aI2
aI-1
aF54.026000000000003
aF25.824000000000002
aF0
aa(lp408
S'4P1A'
p409
aI2
aI2
aI2
aI-1
aI1
aI1
aI-1
aF7.0110000000000001
aF4.593
aF0
aa(lp410
S'4W2C'
p411
aI0
aI0
aI0
aI-1
aI0
aI0
aI-1
aF8.6590000000000007
aF7.3860000000000001
aF0
aa(lp412
S'4P3E'
p413
aI0
aI0
aI0
aI-1
aI0
aI0
aI-1
aF0.113
aF0.11600000000000001
aF0
aa(lp414
S'4KN4'
p415
aI0
aI5
aI5
aI-1
aI4
aI4
aI-1
aF114.461
aF89.486999999999995
aF0
aa(lp416
S'4P3J'
p417
aI2
aI2
aI2
aI-1
aI1
aI1
aI-1
aF6.7530000000000001
aF4.2560000000000002
aF0
aa(lp418
S'4W2D'
p419
aI0
aI0
aI0
aI-1
aI0
aI0
aI-1
aF17.242000000000001
aF17.006
aF0
aa(lp420
S'4P6H'
p421
aI0
aI2
aI2
aI-1
aI1
aI1
aI-1
aF0.36899999999999999
aF0.35799999999999998
aF0
aa(lp422
S'4P8Z'
p423
aI0
aI0
aI0
aI-1
aI0
aI0
aI-1
aF0.050999999999999997
aF0.052999999999999999
aF0
aa(lp424
S'4PBU'
p425
aI0
aI19
aI19
aI-1
aI19
aI19
aI-1
aF30.263000000000002
aF25.579000000000001
aF0
aa(lp426
S'4W8F'
p427
aI0
aI1
aI1
aI-1
aI1
aI1
aI-1
aF99.454999999999998
aF92.933999999999997
aF0
aa(lp428
S'4ERP'
p429
aI0
aI6
aI6
aI-1
aI2
aI2
aI-1
aF56.195999999999998
aF24.841999999999999
aF0
aa(lp430
S'3SDM'
p431
aI0
aI6
aI6
aI-1
aI1
aI1
aI-1
aF1.5960000000000001
aF0.91800000000000004
aF0
aa(lp432
S'4PCU'
p433
aI0
aI1
aI1
aI-1
aI1
aI1
aI-1
aF3.492
aF3.4729999999999999
aF0
aa(lp434
S'3SE3'
p435
aI0
aI0
aI0
aI-1
aI0
aI0
aI-1
aF0.109
aF0.111
aF0
aa(lp436
S'3SE4'
p437
aI0
aI0
aI0
aI-1
aI0
aI0
aI-1
aF0.113
aF0.114
aF0
aa(lp438
S'3SGI'
p439
aI0
aI0
aI0
aI-1
aI0
aI0
aI-1
aF0.071999999999999995
aF0.071999999999999995
aF0
aa(lp440
S'3SHF'
p441
aI0
aI0
aI0
aI-1
aI0
aI0
aI-1
aF0.20399999999999999
aF0.20599999999999999
aF0
aa(lp442
S'3SJD'
p443
aI0
aI3
aI3
aI-1
aI2
aI2
aI-1
aF3.0950000000000002
aF2.1499999999999999
aF0
aa(lp444
S'4PE5'
p445
aI0
aI2
aI2
aI-1
aI2
aI2
aI-1
aF48.969999999999999
aF42.572000000000003
aF0
aa(lp446
S'3SKU'
p447
aI0
aI4
aI4
aI-1
aI2
aI2
aI-1
aF2.8740000000000001
aF1.9119999999999999
aF0
aa(lp448
S'3VLC'
p449
aI0
aI0
aI0
aI-1
aI0
aI0
aI-1
aF0.067000000000000004
aF0.067000000000000004
aF0
aa(lp450
S'3VLF'
p451
aI0
aI2
aI2
aI-1
aI2
aI2
aI-1
aF3.2210000000000001
aF2.9809999999999999
aF0
aa(lp452
S'3SNH'
p453
aI0
aI0
aI0
aI-1
aI0
aI0
aI-1
aF0.121
aF0.123
aF0
aa(lp454
S'3SOA'
p455
aI0
aI0
aI0
aI-1
aI0
aI0
aI-1
aF0.083000000000000004
aF0.085000000000000006
aF0
aa(lp456
S'3SOH'
p457
aI0
aI2
aI2
aI-1
aI2
aI2
aI-1
aF0.14399999999999999
aF0.14699999999999999
aF0
aa(lp458
S'3SR2'
p459
aI0
aI6
aI6
aI-1
aI2
aI2
aI-1
aF4.5739999999999998
aF2.7250000000000001
aF0
aa(lp460
S'3VMR'
p461
aI0
aI0
aI0
aI-1
aI0
aI0
aI-1
aF0.044999999999999998
aF0.044999999999999998
aF0
aa(lp462
S'3VQK'
p463
aI0
aI5
aI5
aI-1
aI1
aI1
aI-1
aF0.32600000000000001
aF0.193
aF0
aa(lp464
S'3VR5'
p465
aI0
aI4
aI4
aI-1
aI2
aI2
aI-1
aF20.486000000000001
aF14.382999999999999
aF0
aa(lp466
S'3SUA'
p467
aI0
aI4
aI4
aI-1
aI2
aI2
aI-1
aF9.8780000000000001
aF6.9359999999999999
aF0
aa(lp468
S'4IGG'
p469
aI0
aI1
aI1
aI-1
aI1
aI1
aI-1
aF8.3719999999999999
aF7.806
aF0
aa(lp470
S'3SWM'
p471
aI0
aI3
aI3
aI-1
aI1
aI1
aI-1
aF1.788
aF1.149
aF0
aa(lp472
S'3SWP'
p473
aI0
aI3
aI3
aI-1
aI1
aI1
aI-1
aF1.6339999999999999
aF1.0760000000000001
aF0
aa(lp474
S'3SYO'
p475
aI0
aI0
aI0
aI-1
aI0
aI0
aI-1
aF0.078
aF0.079000000000000001
aF0
aa(lp476
S'3SZR'
p477
aI0
aI0
aI0
aI-1
aI0
aI0
aI-1
aF0.13900000000000001
aF0.14299999999999999
aF0
aa(lp478
S'3T0E'
p479
aI0
aI0
aI0
aI-1
aI0
aI0
aI-1
aF1.752
aF1.629
aF0
aa(lp480
S'4IH4'
p481
aI0
aI3
aI3
aI-1
aI1
aI1
aI-1
aF0.36499999999999999
aF0.313
aF0
aa(lp482
S'4F5X'
p483
aI59
aI59
aI59
aI-1
aI0
aI0
aI-1
aF28.623999999999999
aF28.491
aF0
aa(lp484
S'3VUD'
p485
aI0
aI0
aI0
aI-1
aI0
aI0
aI-1
aF0.088999999999999996
aF0.088999999999999996
aF0
aa(lp486
S'4II7'
p487
aI0
aI3
aI3
aI-1
aI1
aI1
aI-1
aF20.663
aF11.677
aF0
aa(lp488
S'3VUO'
p489
aI0
aI0
aI0
aI-1
aI0
aI0
aI-1
aF0.28199999999999997
aF0.28000000000000003
aF0
aa(lp490
S'3T1P'
p491
aI0
aI0
aI0
aI-1
aI0
aI0
aI-1
aF0.066000000000000003
aF0.066000000000000003
aF0
aa(lp492
S'3VUT'
p493
aI0
aI0
aI0
aI-1
aI0
aI0
aI-1
aF0.111
aF0.083000000000000004
aF0
aa(lp494
S'3T35'
p495
aI0
aI3
aI3
aI-1
aI1
aI1
aI-1
aF0.752
aF0.60299999999999998
aF0
aa(lp496
S'3W03'
p497
aI0
aI2
aI2
aI-1
aI2
aI2
aI-1
aF1.1319999999999999
aF0.86499999999999999
aF0
aa(lp498
S'3T4B'
p499
aI0
aI0
aI0
aI-1
aI0
aI0
aI-1
aF0.035000000000000003
aF0.036999999999999998
aF0
aa(lp500
S'3W11'
p501
aI0
aI0
aI0
aI-1
aI0
aI0
aI-1
aF0.32200000000000001
aF0.35099999999999998
aF0
aa(lp502
S'3T51'
p503
aI0
aI1
aI1
aI-1
aI1
aI1
aI-1
aF0.44
aF0.39700000000000002
aF0
aa(lp504
S'3W12'
p505
aI0
aI0
aI0
aI-1
aI0
aI0
aI-1
aF0.37
aF0.36199999999999999
aF0
aa(lp506
S'3T72'
p507
aI0
aI46
aI46
aI-1
aI4
aI4
aI-1
aF43.765000000000001
aF2.532
aF0
aa(lp508
S'3W13'
p509
aI0
aI0
aI0
aI-1
aI0
aI0
aI-1
aF0.35099999999999998
aF0.35199999999999998
aF0
aa(lp510
S'3W14'
p511
aI0
aI5
aI5
aI-1
aI5
aI5
aI-1
aF2.75
aF1.9390000000000001
aF0
aa(lp512
S'3W1H'
p513
aI0
aI4
aI3
aI-1
aI1
aI2
aI-1
aF27.181999999999999
aF11.101000000000001
aF0
aa(lp514
S'4PGW'
p515
aI0
aI0
aI0
aI-1
aI0
aI0
aI-1
aF0.050000000000000003
aF0.043999999999999997
aF0
aa(lp516
S'4IIT'
p517
aI0
aI0
aI0
aI-1
aI0
aI0
aI-1
aF0.152
aF0.11799999999999999
aF0
aa(lp518
S'4PIR'
p519
aI0
aI8
aI8
aI-1
aI2
aI2
aI-1
aF18.771000000000001
aF7.0099999999999998
aF0
aa(lp520
S'4IJ2'
p521
aI0
aI4
aI4
aI-1
aI3
aI3
aI-1
aF5.0250000000000004
aF3.3860000000000001
aF0
aa(lp522
S'4ILA'
p523
aI0
aI4
aI4
aI-1
aI1
aI1
aI-1
aF15.257
aF7.4720000000000004
aF0
aa(lp524
S'4F61'
p525
aI0
aI6
aI6
aI-1
aI2
aI2
aI-1
aF48.316000000000003
aF24.829000000000001
aF0
aa(lp526
S'3T79'
p527
aI0
aI2
aI2
aI-1
aI2
aI2
aI-1
aF0.311
aF0.32000000000000001
aF0
aa(lp528
S'4KN7'
p529
aI0
aI5
aI5
aI-1
aI4
aI4
aI-1
aF92.593999999999994
aF71.486999999999995
aF0
aa(lp530
S'4PKN'
p531
aI0
aI26
aI26
aI-1
aI2
aI2
aI-1
aF26.355
aF5.2960000000000003
aF0
aa(lp532
S'3T8S'
p533
aI0
aI1
aI1
aI-1
aI1
aI1
aI-1
aF4.6420000000000003
aF4.1520000000000001
aF0
aa(lp534
S'3W1K'
p535
aI0
aI8
aI8
aI-1
aI2
aI2
aI-1
aF1.9670000000000001
aF1.335
aF0
aa(lp536
S'3W3A'
p537
aI0
aI12
aI12
aI-1
aI4
aI4
aI-1
aF46.409999999999997
aF14.002000000000001
aF0
aa(lp538
S'4IM8'
p539
aI0
aI0
aI0
aI-1
aI0
aI0
aI-1
aF0.082000000000000003
aF0.051999999999999998
aF0
aa(lp540
S'4INM'
p541
aI0
aI13
aI15
aI-1
aI7
aI7
aI-1
aF10.185
aF4.3470000000000004
aF0
aa(lp542
S'3TB8'
p543
aI0
aI0
aI0
aI-1
aI0
aI0
aI-1
aF0.036999999999999998
aF0.036999999999999998
aF0
aa(lp544
S'3TCX'
p545
aI0
aI26
aI26
aI-1
aI2
aI2
aI-1
aF14.744
aF2.3220000000000001
aF0
aa(lp546
S'4IOC'
p547
aI0
aI0
aI0
aI-1
aI0
aI0
aI-1
aF17.701000000000001
aF15.442
aF0
aa(lp548
S'4WL1'
p549
aI0
aI31
aI31
aI-1
aI1
aI1
aI-1
aF67.730000000000004
aF3.6549999999999998
aF0
aa(lp550
S'3THZ'
p551
aI0
aI0
aI0
aI-1
aI0
aI0
aI-1
aF10.426
aF9.3109999999999999
aF0
aa(lp552
S'4PKO'
p553
aI0
aI26
aI26
aI-1
aI2
aI2
aI-1
aF32.576999999999998
aF5.6529999999999996
aF0
aa(lp554
S'3TIH'
p555
aI0
aI3
aI3
aI-1
aI1
aI1
aI-1
aF0.60199999999999998
aF0.51200000000000001
aF0
aa(lp556
S'3TIR'
p557
aI0
aI0
aI0
aI-1
aI0
aI0
aI-1
aF0.058999999999999997
aF0.058000000000000003
aF0
aa(lp558
S'3TMH'
p559
aI0
aI5
aI5
aI-1
aI3
aI3
aI-1
aF0.42999999999999999
aF0.379
aF0
aa(lp560
S'3TUJ'
p561
aI0
aI2
aI2
aI-1
aI2
aI2
aI-1
aF1.0369999999999999
aF0.81799999999999995
aF0
aa(lp562
S'4IOV'
p563
aI59
aI59
aI59
aI-1
aI0
aI0
aI-1
aF0.375
aF0.38
aF0
aa(lp564
S'3U5Z'
p565
aI0
aI15
aI15
aI-1
aI5
aI5
aI-1
aF24.166
aF6.1479999999999997
aF0
aa(lp566
S'4IRM'
p567
aI0
aI1
aI1
aI-1
aI1
aI1
aI-1
aF3.0350000000000001
aF2.1880000000000002
aF0
aa(lp568
S'3W5V'
p569
aI1
aI2
aI2
aI-1
aI2
aI2
aI-1
aF0.215
aF0.214
aF0
aa(lp570
S'4F6L'
p571
aI0
aI1
aI1
aI-1
aI1
aI1
aI-1
aF2.0289999999999999
aF2.0539999999999998
aF0
aa(lp572
S'4ITV'
p573
aI0
aI11
aI11
aI-1
aI1
aI1
aI-1
aF5.593
aF2.6040000000000001
aF0
aa(lp574
S'3WC1'
p575
aI0
aI4
aI4
aI-1
aI2
aI2
aI-1
aF0.442
aF0.39900000000000002
aF0
aa(lp576
S'4PSL'
p577
aI0
aI3
aI3
aI-1
aI1
aI1
aI-1
aF1.8260000000000001
aF0.99399999999999999
aF0
aa(lp578
S'3WC2'
p579
aI0
aI4
aI4
aI-1
aI2
aI2
aI-1
aF0.68500000000000005
aF0.57499999999999996
aF0
aa(lp580
S'4F9P'
p581
aI0
aI2
aI2
aI-1
aI2
aI2
aI-1
aF4.0720000000000001
aF2.9529999999999998
aF0
aa(lp582
S'3WFP'
p583
aI0
aI6
aI7
aI-1
aI2
aI1
aI-1
aF51.688000000000002
aF16.657
aF0
aa(lp584
S'4PU4'
p585
aI0
aI2
aI2
aI-1
aI2
aI2
aI-1
aF3.0089999999999999
aF2.7570000000000001
aF0
aa(lp586
S'4IVJ'
p587
aI0
aI2
aI2
aI-1
aI1
aI1
aI-1
aF0.56000000000000005
aF0.52500000000000002
aF0
aa(lp588
S'4IW0'
p589
aI0
aI0
aI0
aI-1
aI0
aI0
aI-1
aF0.126
aF0.12
aF0
aa(lp590
S'4FB3'
p591
aI0
aI2
aI2
aI-1
aI1
aI1
aI-1
aF0.51800000000000002
aF0.46800000000000003
aF0
aa(lp592
S'4IXQ'
p593
aI0
aI7
aI7
aI-1
aI7
aI7
aI-1
aF37.142000000000003
aF25.923999999999999
aF0
aa(lp594
S'4PW6'
p595
aI0
aI1
aI1
aI-1
aI1
aI1
aI-1
aF0.10100000000000001
aF0.13700000000000001
aF0
aa(lp596
S'4FBY'
p597
aI0
aI9
aI9
aI-1
aI9
aI9
aI-1
aF31.451000000000001
aF27.111000000000001
aF0
aa(lp598
S'4PWX'
p599
aI0
aI3
aI3
aI-1
aI3
aI3
aI-1
aF7.7279999999999998
aF6.2009999999999996
aF0
aa(lp600
S'3U6N'
p601
aI0
aI7
aI7
aI-1
aI1
aI1
aI-1
aF4.0869999999999997
aF2.133
aF0
aa(lp602
S'3U9S'
p603
aI0
aI9
aI8
aI-1
aI2
aI3
aI-1
aF226.72800000000001
aF123.599
aF0
aa(lp604
S'4Q2A'
p605
aI0
aI0
aI0
aI-1
aI0
aI0
aI-1
aF0.070999999999999994
aF0.069000000000000006
aF0
aa(lp606
S'4Q54'
p607
aI0
aI18
aI18
aI-1
aI18
aI18
aI-1
aF32.633000000000003
aF30.577999999999999
aF0
aa(lp608
S'4FCT'
p609
aI0
aI0
aI0
aI-1
aI0
aI0
aI-1
aF0.055
aF0.082000000000000003
aF0
aa(lp610
S'3WFQ'
p611
aI0
aI6
aI6
aI-1
aI2
aI2
aI-1
aF18.931000000000001
aF9.0690000000000008
aF0
aa(lp612
S'4FCY'
p613
aI0
aI1
aI1
aI-1
aI1
aI1
aI-1
aF2.8700000000000001
aF2.7650000000000001
aF0
aa(lp614
S'4IXR'
p615
aI0
aI7
aI7
aI-1
aI7
aI7
aI-1
aF38.195
aF27.920000000000002
aF0
aa(lp616
S'4APK'
p617
aI1
aI2
aI2
aI-1
aI2
aI2
aI-1
aF381.74200000000002
aF291.76499999999999
aF0
aa(lp618
S'4FDG'
p619
aI0
aI4
aI4
aI-1
aI1
aI1
aI-1
aF1.7350000000000001
aF1.22
aF0
aa(lp620
S'4FE1'
p621
aI0
aI0
aI0
aI-1
aI0
aI0
aI-1
aF10.349
aF9.1620000000000008
aF0
aa(lp622
S'4KR4'
p623
aI0
aI2
aI2
aI-1
aI1
aI1
aI-1
aF5.1399999999999997
aF3.7349999999999999
aF0
aa(lp624
S'4Q58'
p625
aI0
aI2
aI2
aI-1
aI2
aI2
aI-1
aF2.6970000000000001
aF1.77
aF0
aa(lp626
S'4KR9'
p627
aI5
aI2
aI2
aI-1
aI2
aI2
aI-1
aF0.33100000000000002
aF0.33400000000000002
aF0
aa(lp628
S'4KSB'
p629
aI0
aI0
aI0
aI-1
aI0
aI0
aI-1
aF0.20599999999999999
aF0.217
aF0
aa(lp630
S'3WFR'
p631
aI0
aI6
aI6
aI-1
aI2
aI2
aI-1
aF15.268000000000001
aF7.7080000000000002
aF0
aa(lp632
S'4Q6I'
p633
aI0
aI9
aI9
aI-1
aI3
aI3
aI-1
aF10.952
aF5.0899999999999999
aF0
aa(lp634
S'4KSC'
p635
aI0
aI0
aI0
aI-1
aI0
aI0
aI-1
aF0.28499999999999998
aF0.28100000000000003
aF0
aa(lp636
S'4KSD'
p637
aI0
aI0
aI0
aI-1
aI0
aI0
aI-1
aF0.307
aF0.312
aF0
aa(lp638
S'4FEA'
p639
aI0
aI1
aI1
aI-1
aI1
aI1
aI-1
aF0.68600000000000005
aF0.64400000000000002
aF0
aa(lp640
S'4KSR'
p641
aI0
aI2
aI2
aI-1
aI1
aI1
aI-1
aF0.46400000000000002
aF0.49199999999999999
aF0
aa(lp642
S'4FFZ'
p643
aI0
aI3
aI3
aI-1
aI3
aI3
aI-1
aF2.298
aF1.7889999999999999
aF0
aa(lp644
S'4KSS'
p645
aI0
aI5
aI5
aI-1
aI1
aI1
aI-1
aF1.881
aF1.224
aF0
aa(lp646
S'4KVB'
p647
aI0
aI0
aI0
aI-1
aI0
aI0
aI-1
aF5.7699999999999996
aF5.7009999999999996
aF0
aa(lp648
S'4FG0'
p649
aI0
aI0
aI0
aI-1
aI0
aI0
aI-1
aF0.091999999999999998
aF0.095000000000000001
aF0
aa(lp650
S'4FGU'
p651
aI0
aI1
aI1
aI-1
aI1
aI1
aI-1
aF2.7469999999999999
aF2.7040000000000002
aF0
aa(lp652
S'4Q8J'
p653
aI0
aI9
aI10
aI-1
aI3
aI2
aI-1
aF109.21599999999999
aF47.173999999999999
aF0
aa(lp654
S'4FHM'
p655
aI0
aI0
aI0
aI-1
aI0
aI0
aI-1
aF0.23499999999999999
aF0.23799999999999999
aF0
aa(lp656
S'3WHE'
p657
aI0
aI33
aI33
aI-1
aI3
aI3
aI-1
aF104.895
aF19.542000000000002
aF0
aa(lp658
S'4FHN'
p659
aI0
aI2
aI2
aI-1
aI2
aI2
aI-1
aF18.422999999999998
aF15.542999999999999
aF0
aa(lp660
S'4KZX'
p661
aI0
aI0
aI0
aI-1
aI0
aI0
aI-1
aF28.516999999999999
aF28.869
aF0
aa(lp662
S'4IY2'
p663
aI0
aI1
aI1
aI-1
aI1
aI1
aI-1
aF0.075999999999999998
aF0.075999999999999998
aF0
aa(lp664
S'4IY3'
p665
aI0
aI3
aI3
aI-1
aI1
aI1
aI-1
aF1.546
aF0.84199999999999997
aF0
aa(lp666
S'4IZM'
p667
aI0
aI2
aI2
aI-1
aI1
aI1
aI-1
aF0.47799999999999998
aF0.46200000000000002
aF0
aa(lp668
S'1VW5'
p669
aI0
aI43
aI46
aI-1
aI3
aI2
aI-1
aF101.831
aF8.0609999999999999
aF0
aa(lp670
S'4J23'
p671
aI0
aI0
aI0
aI-1
aI0
aI0
aI-1
aF0.085000000000000006
aF0.084000000000000005
aF0
aa(lp672
S'4J3O'
p673
aI0
aI0
aI0
aI-1
aI0
aI0
aI-1
aF0.65600000000000003
aF0.64800000000000002
aF0
aa(lp674
S'4J7C'
p675
aI0
aI10
aI10
aI-1
aI2
aI2
aI-1
aF10.795999999999999
aF3.448
aF0
aa(lp676
S'4FME'
p677
aI0
aI3
aI3
aI-1
aI3
aI3
aI-1
aF1.6419999999999999
aF1.3540000000000001
aF0
aa(lp678
S'4FNA'
p679
aI0
aI2
aI2
aI-1
aI1
aI1
aI-1
aF3.7709999999999999
aF2.5579999999999998
aF0
aa(lp680
S'4J9U'
p681
aI0
aI6
aI6
aI-1
aI2
aI2
aI-1
aF79.697000000000003
aF30.960000000000001
aF0
aa(lp682
S'4FNU'
p683
aI0
aI3
aI3
aI-1
aI1
aI1
aI-1
aF1.446
aF1.1359999999999999
aF0
aa(lp684
S'4FOM'
p685
aI0
aI0
aI0
aI-1
aI0
aI0
aI-1
aF0.060999999999999999
aF0.062
aF0
aa(lp686
S'4FQK'
p687
aI0
aI3
aI3
aI-1
aI3
aI3
aI-1
aF6.9180000000000001
aF5.1239999999999997
aF0
aa(lp688
S'4KZY'
p689
aI0
aI0
aI0
aI-1
aI0
aI0
aI-1
aF29.867000000000001
aF29.847000000000001
aF0
aa(lp690
S'4FQP'
p691
aI0
aI0
aI0
aI-1
aI0
aI0
aI-1
aF0.081000000000000003
aF0.082000000000000003
aF0
aa(lp692
S'4FQR'
p693
aI0
aI32
aI44
aI-1
aI7
aI4
aI-1
aF170.00899999999999
aF31.588999999999999
aF0
aa(lp694
S'4KZZ'
p695
aI0
aI0
aI0
aI-1
aI0
aI0
aI-1
aF30.780000000000001
aF28.753
aF0
aa(lp696
S'3WHL'
p697
aI0
aI6
aI6
aI-1
aI2
aI2
aI-1
aF5.9119999999999999
aF2.9990000000000001
aF0
aa(lp698
S'1VW6'
p699
aI0
aI40
aI46
aI-1
aI4
aI2
aI-1
aF97.388999999999996
aF8.4629999999999992
aF0
aa(lp700
S'3WIN'
p701
aI0
aI1
aI1
aI-1
aI1
aI1
aI-1
aF0.42799999999999999
aF0.495
aF0
aa(lp702
S'3WKT'
p703
aI0
aI2
aI2
aI-1
aI2
aI2
aI-1
aF6.0700000000000003
aF5.9000000000000004
aF0
aa(lp704
S'4Q9U'
p705
aI0
aI3
aI3
aI-1
aI2
aI2
aI-1
aF2.3239999999999998
aF2.089
aF0
aa(lp706
S'3WOD'
p707
aI0
aI1
aI1
aI-1
aI1
aI1
aI-1
aF1.829
aF1.575
aF0
aa(lp708
S'4QEX'
p709
aI0
aI3
aI3
aI-1
aI3
aI3
aI-1
aF8.9640000000000004
aF9.0879999999999992
aF0
aa(lp710
S'4JA3'
p711
aI0
aI1
aI1
aI-1
aI1
aI1
aI-1
aF2.8929999999999998
aF3.0350000000000001
aF0
aa(lp712
S'3WR1'
p713
aI0
aI0
aI0
aI-1
aI0
aI0
aI-1
aF0.27400000000000002
aF0.27800000000000002
aF0
aa(lp714
S'3WUQ'
p715
aI0
aI0
aI0
aI-1
aI0
aI0
aI-1
aF0.066000000000000003
aF0.066000000000000003
aF0
aa(lp716
S'3WVL'
p717
aI0
aI24
aI26
aI-1
aI3
aI2
aI-1
aF20.164000000000001
aF4.843
aF0
aa(lp718
S'4JA4'
p719
aI0
aI2
aI2
aI-1
aI1
aI1
aI-1
aF9.2569999999999997
aF6.0780000000000003
aF0
aa(lp720
S'4QFS'
p721
aI0
aI0
aI0
aI-1
aI0
aI0
aI-1
aF0.19700000000000001
aF0.20300000000000001
aF0
aa(lp722
S'4QIQ'
p723
aI0
aI0
aI0
aI-1
aI0
aI0
aI-1
aF0.10299999999999999
aF0.104
aF0
aa(lp724
S'4QIW'
p725
aI0
aI11
aI11
aI-1
aI11
aI11
aI-1
aF12.468
aF12.598000000000001
aF0
aa(lp726
S'4JBW'
p727
aI0
aI8
aI8
aI-1
aI4
aI4
aI-1
aF5.5119999999999996
aF5.0899999999999999
aF0
aa(lp728
S'4L3B'
p729
aI14
aI14
aI14
aI-1
aI0
aI0
aI-1
aF0.251
aF0.251
aF0
aa(lp730
S'4L3I'
p731
aI0
aI1
aI1
aI-1
aI1
aI1
aI-1
aF3.742
aF3.3460000000000001
aF0
aa(lp732
S'3ZE4'
p733
aI2
aI1
aI1
aI-1
aI1
aI1
aI-1
aF0.28699999999999998
aF0.26300000000000001
aF0
aa(lp734
S'3ZJY'
p735
aI0
aI3
aI3
aI-1
aI2
aI2
aI-1
aF42.286000000000001
aF34.469000000000001
aF0
aa(lp736
S'4L3V'
p737
aI0
aI2
aI2
aI-1
aI1
aI1
aI-1
aF7.5149999999999997
aF3.9350000000000001
aF0
aa(lp738
S'4JC9'
p739
aI0
aI26
aI26
aI-1
aI2
aI2
aI-1
aF17.459
aF3.9540000000000002
aF0
aa(lp740
S'3MKT'
p741
aI0
aI1
aI1
aI-1
aI1
aI1
aI-1
aF0.32400000000000001
aF0.32100000000000001
aF0
aa(lp742
S'3MKU'
p743
aI0
aI1
aI1
aI-1
aI1
aI1
aI-1
aF0.32600000000000001
aF0.32600000000000001
aF0
aa(lp744
S'3ML0'
p745
aI0
aI0
aI0
aI-1
aI0
aI0
aI-1
aF0.17599999999999999
aF0.17799999999999999
aF0
aa(lp746
S'3ML6'
p747
aI0
aI5
aI5
aI-1
aI1
aI1
aI-1
aF22.478000000000002
aF7.6180000000000003
aF0
aa(lp748
S'4L6V'
p749
aI0
aI20
aI20
aI-1
aI10
aI10
aI-1
aF90.075999999999993
aF49.908999999999999
aF0
aa(lp750
S'4QJH'
p751
aI0
aI3
aI3
aI-1
aI2
aI2
aI-1
aF0.26700000000000002
aF0.22500000000000001
aF0
aa(lp752
S'4QL7'
p753
aI0
aI4
aI4
aI-1
aI1
aI1
aI-1
aF3.3730000000000002
aF1.4139999999999999
aF0
aa(lp754
S'4QPG'
p755
aI29
aI29
aI29
aI-1
aI0
aI0
aI-1
aF0.55000000000000004
aF0.53400000000000003
aF0
aa(lp756
S'4JCB'
p757
aI0
aI26
aI26
aI-1
aI2
aI2
aI-1
aF17.425000000000001
aF5.2380000000000004
aF0
aa(lp758
S'4QS0'
p759
aI0
aI0
aI0
aI-1
aI0
aI0
aI-1
aF8.5869999999999997
aF8.4350000000000005
aF0
aa(lp760
S'3MME'
p761
aI0
aI3
aI3
aI-1
aI2
aI2
aI-1
aF10.147
aF5.867
aF0
aa(lp762
S'4QS1'
p763
aI0
aI2
aI2
aI-1
aI1
aI1
aI-1
aF19.634
aF16.678999999999998
aF0
aa(lp764
S'1VY0'
p765
aI0
aI0
aI0
aI-1
aI0
aI0
aI-1
aF8.1620000000000008
aF6.9669999999999996
aF0
aa(lp766
S'4JD6'
p767
aI5
aI5
aI5
aI-1
aI1
aI1
aI-1
aF18.196000000000002
aF8.6240000000000006
aF0
aa(lp768
S'3MR8'
p769
aI0
aI0
aI0
aI-1
aI0
aI0
aI-1
aF6.3360000000000003
aF7.657
aF0
aa(lp770
S'3UBI'
p771
aI0
aI0
aI0
aI-1
aI0
aI0
aI-1
aF0.035000000000000003
aF0.035000000000000003
aF0
aa(lp772
S'3UGT'
p773
aI0
aI3
aI3
aI-1
aI1
aI1
aI-1
aF14.956
aF7.9059999999999997
aF0
aa(lp774
S'1VY1'
p775
aI0
aI0
aI0
aI-1
aI0
aI0
aI-1
aF15.035
aF17.286000000000001
aF0
aa(lp776
S'3MRZ'
p777
aI0
aI0
aI0
aI-1
aI0
aI0
aI-1
aF14.609999999999999
aF12.949999999999999
aF0
aa(lp778
S'3ZKR'
p779
aI0
aI9
aI9
aI-1
aI1
aI1
aI-1
aF23.783000000000001
aF10.989000000000001
aF0
aa(lp780
S'4JDQ'
p781
aI0
aI5
aI4
aI-1
aI1
aI2
aI-1
aF1.4970000000000001
aF0.55500000000000005
aF0
aa(lp782
S'4FQV'
p783
aI0
aI8
aI8
aI-1
aI4
aI4
aI-1
aF8.8670000000000009
aF4.242
aF0
aa(lp784
S'4JFB'
p785
aI0
aI5
aI5
aI-1
aI1
aI1
aI-1
aF1.3160000000000001
aF0.83599999999999997
aF0
aa(lp786
S'4QS2'
p787
aI0
aI0
aI0
aI-1
aI0
aI0
aI-1
aF7.3120000000000003
aF7.0510000000000002
aF0
aa(lp788
S'3UJ0'
p789
aI0
aI1
aI1
aI-1
aI1
aI1
aI-1
aF0.39000000000000001
aF0.34699999999999998
aF0
aa(lp790
S'4JHW'
p791
aI0
aI0
aI0
aI-1
aI0
aI0
aI-1
aF0.77500000000000002
aF0.72999999999999998
aF0
aa(lp792
S'3UJ3'
p793
aI0
aI0
aI0
aI-1
aI0
aI0
aI-1
aF0.024
aF0.025000000000000001
aF0
aa(lp794
S'4JI2'
p795
aI0
aI0
aI0
aI-1
aI0
aI0
aI-1
aF7.5869999999999997
aF6.7119999999999997
aF0
aa(lp796
S'3UKI'
p797
aI0
aI3
aI3
aI-1
aI1
aI1
aI-1
aF3.6960000000000002
aF2.1699999999999999
aF0
aa(lp798
S'4FQY'
p799
aI0
aI0
aI0
aI-1
aI0
aI0
aI-1
aF0.79400000000000004
aF0.66000000000000003
aF0
aa(lp800
S'3ULA'
p801
aI0
aI1
aI1
aI-1
aI1
aI1
aI-1
aF1.2669999999999999
aF1.0940000000000001
aF0
aa(lp802
S'4FRW'
p803
aI0
aI5
aI5
aI-1
aI1
aI1
aI-1
aF9.3960000000000008
aF3.2410000000000001
aF0
aa(lp804
S'1VY2'
p805
aI0
aI0
aI0
aI-1
aI0
aI0
aI-1
aF6.3250000000000002
aF7.0599999999999996
aF0
aa(lp806
S'4QS3'
p807
aI0
aI2
aI2
aI-1
aI1
aI1
aI-1
aF18.925999999999998
aF21.335999999999999
aF0
aa(lp808
S'3ULU'
p809
aI0
aI0
aI0
aI-1
aI0
aI0
aI-1
aF8.6690000000000005
aF8.5670000000000002
aF0
aa(lp810
S'3MS0'
p811
aI0
aI0
aI0
aI-1
aI0
aI0
aI-1
aF6.3179999999999996
aF6.5
aF0
aa(lp812
S'4JI4'
p813
aI0
aI0
aI0
aI-1
aI0
aI0
aI-1
aF7.9080000000000004
aF7.0090000000000003
aF0
aa(lp814
S'4FSC'
p815
aI0
aI1
aI3
aI-1
aI1
aI1
aI-1
aF4.3179999999999996
aF2.718
aF0
aa(lp816
S'3ZLP'
p817
aI0
aI39
aI39
aI-1
aI1
aI1
aI-1
aF316.03100000000001
aF13.268000000000001
aF0
aa(lp818
S'1VY3'
p819
aI0
aI0
aI0
aI-1
aI0
aI0
aI-1
aF13.657999999999999
aF13.02
aF0
aa(lp820
S'3MS1'
p821
aI0
aI0
aI0
aI-1
aI0
aI0
aI-1
aF12.715999999999999
aF12.571999999999999
aF0
aa(lp822
S'3ULV'
p823
aI0
aI0
aI0
aI-1
aI0
aI0
aI-1
aF8.9450000000000003
aF8.3179999999999996
aF0
aa(lp824
S'4FSJ'
p825
aI19
aI19
aI19
aI-1
aI0
aI0
aI-1
aF0.67800000000000005
aF0.68100000000000005
aF0
aa(lp826
S'4JI5'
p827
aI0
aI0
aI0
aI-1
aI0
aI0
aI-1
aF6.8810000000000002
aF5.9359999999999999
aF0
aa(lp828
S'4FTE'
p829
aI19
aI19
aI19
aI-1
aI0
aI0
aI-1
aF0.628
aF0.64000000000000001
aF0
aa(lp830
S'4FXG'
p831
aI0
aI5
aI5
aI-1
aI5
aI5
aI-1
aF25.254000000000001
aF19.539000000000001
aF0
aa(lp832
S'4JI6'
p833
aI0
aI0
aI0
aI-1
aI0
aI0
aI-1
aF6.7089999999999996
aF6.6289999999999996
aF0
aa(lp834
S'3UM3'
p835
aI0
aI0
aI0
aI-1
aI0
aI0
aI-1
aF0.070000000000000007
aF0.070000000000000007
aF0
aa(lp836
S'3UOQ'
p837
aI0
aI0
aI0
aI-1
aI0
aI0
aI-1
aF6.859
aF6.6630000000000003
aF0
aa(lp838
S'4R0D'
p839
aI0
aI0
aI0
aI-1
aI0
aI0
aI-1
aF0.25600000000000001
aF0.28199999999999997
aF0
aa(lp840
S'2X53'
p841
aI0
aI24
aI24
aI-1
aI3
aI3
aI-1
aF112.328
aF8.8970000000000002
aF0
aa(lp842
S'3MWY'
p843
aI0
aI0
aI0
aI-1
aI0
aI0
aI-1
aF0.16900000000000001
aF0.14499999999999999
aF0
aa(lp844
S'4R32'
p845
aI0
aI0
aI0
aI-1
aI0
aI0
aI-1
aF0.040000000000000001
aF0.040000000000000001
aF0
aa(lp846
S'4R3Z'
p847
aI0
aI0
aI0
aI-1
aI0
aI0
aI-1
aF0.316
aF0.31900000000000001
aF0
aa(lp848
S'3MX0'
p849
aI0
aI2
aI2
aI-1
aI2
aI2
aI-1
aF0.29699999999999999
aF0.29599999999999999
aF0
aa(lp850
S'4R4F'
p851
aI0
aI0
aI0
aI-1
aI0
aI0
aI-1
aF0.77500000000000002
aF0.81399999999999995
aF0
aa(lp852
S'3N23'
p853
aI0
aI3
aI3
aI-1
aI3
aI3
aI-1
aF0.83799999999999997
aF0.74399999999999999
aF0
aa(lp854
S'4JI7'
p855
aI0
aI0
aI0
aI-1
aI0
aI0
aI-1
aF9.452
aF8.7080000000000002
aF0
aa(lp856
S'4R4H'
p857
aI0
aI0
aI0
aI-1
aI0
aI0
aI-1
aF0.88400000000000001
aF0.86899999999999999
aF0
aa(lp858
S'3N2F'
p859
aI0
aI3
aI3
aI-1
aI3
aI3
aI-1
aF0.74199999999999999
aF0.71999999999999997
aF0
aa(lp860
S'4LD0'
p861
aI0
aI1
aI1
aI-1
aI1
aI1
aI-1
aF0.53600000000000003
aF0.53800000000000003
aF0
aa(lp862
S'3N2G'
p863
aI0
aI2
aI2
aI-1
aI2
aI2
aI-1
aF15.939
aF11.369
aF0
aa(lp864
S'4R4N'
p865
aI0
aI28
aI28
aI-1
aI4
aI4
aI-1
aF85.665000000000006
aF29.663
aF0
aa(lp866
S'3UOS'
p867
aI0
aI3
aI3
aI-1
aI1
aI1
aI-1
aF16.390000000000001
aF16.501000000000001
aF0
aa(lp868
S'4LDI'
p869
aI0
aI1
aI1
aI-1
aI1
aI1
aI-1
aF0.17899999999999999
aF0.18099999999999999
aF0
aa(lp870
S'4LF5'
p871
aI0
aI0
aI0
aI-1
aI0
aI0
aI-1
aF7.8819999999999997
aF6.4359999999999999
aF0
aa(lp872
S'4JI8'
p873
aI0
aI0
aI0
aI-1
aI0
aI0
aI-1
aF8.3689999999999998
aF7.4939999999999998
aF0
aa(lp874
S'4FXK'
p875
aI0
aI0
aI0
aI-1
aI0
aI0
aI-1
aF6.069
aF5.7599999999999998
aF0
aa(lp876
S'4LFA'
p877
aI0
aI0
aI0
aI-1
aI0
aI0
aI-1
aF6.452
aF7.0780000000000003
aF0
aa(lp878
S'3N2K'
p879
aI0
aI2
aI2
aI-1
aI2
aI2
aI-1
aF15.022
aF13.000999999999999
aF0
aa(lp880
S'4FZ5'
p881
aI0
aI1
aI1
aI-1
aI1
aI1
aI-1
aF0.20999999999999999
aF0.186
aF0
aa(lp882
S'4FZF'
p883
aI0
aI0
aI0
aI-1
aI0
aI0
aI-1
aF1.4750000000000001
aF1.1439999999999999
aF0
aa(lp884
S'4JIO'
p885
aI0
aI1
aI1
aI-1
aI1
aI1
aI-1
aF1.667
aF1.5589999999999999
aF0
aa(lp886
S'3UQ4'
p887
aI0
aI9
aI9
aI-1
aI1
aI1
aI-1
aF19.492000000000001
aF9.4800000000000004
aF0
aa(lp888
S'4LFC'
p889
aI0
aI0
aI0
aI-1
aI0
aI0
aI-1
aF8.0879999999999992
aF8.3230000000000004
aF0
aa(lp890
S'4FZH'
p891
aI0
aI3
aI3
aI-1
aI1
aI1
aI-1
aF9.9250000000000007
aF3.5790000000000002
aF0
aa(lp892
S'4JJY'
p893
aI0
aI1
aI1
aI-1
aI1
aI1
aI-1
aF0.22800000000000001
aF0.23200000000000001
aF0
aa(lp894
S'4JK1'
p895
aI0
aI5
aI5
aI-1
aI4
aI4
aI-1
aF112.29000000000001
aF85.152000000000001
aF0
aa(lp896
S'4G0H'
p897
aI0
aI0
aI0
aI-1
aI0
aI0
aI-1
aF0.078
aF0.079000000000000001
aF0
aa(lp898
S'4G5S'
p899
aI0
aI5
aI5
aI-1
aI2
aI2
aI-1
aF8.0869999999999997
aF4.5890000000000004
aF0
aa(lp900
S'4LJZ'
p901
aI12
aI7
aI7
aI-1
aI5
aI5
aI-1
aF114.392
aF91.974999999999994
aF0
aa(lp902
S'3N7N'
p903
aI0
aI3
aI3
aI-1
aI2
aI2
aI-1
aF2.4399999999999999
aF1.3169999999999999
aF0
aa(lp904
S'3NAO'
p905
aI0
aI0
aI0
aI-1
aI0
aI0
aI-1
aF0.045999999999999999
aF0.047
aF0
aa(lp906
S'3NJT'
p907
aI0
aI0
aI0
aI-1
aI0
aI0
aI-1
aF0.11899999999999999
aF0.112
aF0
aa(lp908
S'3UQ5'
p909
aI0
aI6
aI9
aI-1
aI2
aI1
aI-1
aF12.026999999999999
aF2.113
aF0
aa(lp910
S'4G7Z'
p911
aI0
aI9
aI9
aI-1
aI7
aI7
aI-1
aF36.857999999999997
aF33.853000000000002
aF0
aa(lp912
S'3NMS'
p913
aI0
aI0
aI0
aI-1
aI0
aI0
aI-1
aF0.22600000000000001
aF0.22600000000000001
aF0
aa(lp914
S'3NQ4'
p915
aI0
aI26
aI29
aI-1
aI2
aI1
aI-1
aF164.32400000000001
aF11.577999999999999
aF0
aa(lp916
S'3UQ7'
p917
aI0
aI9
aI9
aI-1
aI1
aI1
aI-1
aF2.5169999999999999
aF1.3759999999999999
aF0
aa(lp918
S'3UR1'
p919
aI0
aI1
aI1
aI-1
aI1
aI1
aI-1
aF0.121
aF0.121
aF0
aa(lp920
S'3URO'
p921
aI0
aI0
aI0
aI-1
aI0
aI0
aI-1
aF0.037999999999999999
aF0.039
aF0
aa(lp922
S'3US2'
p923
aI0
aI3
aI6
aI-1
aI2
aI2
aI-1
aF9.5619999999999994
aF3.0059999999999998
aF0
aa(lp924
S'3USJ'
p925
aI0
aI1
aI1
aI-1
aI1
aI1
aI-1
aF0.25800000000000001
aF0.26000000000000001
aF0
aa(lp926
S'3USK'
p927
aI0
aI3
aI3
aI-1
aI1
aI1
aI-1
aF1.083
aF0.85099999999999998
aF0
aa(lp928
S'2X54'
p929
aI0
aI24
aI24
aI-1
aI3
aI3
aI-1
aF109.928
aF12.500999999999999
aF0
aa(lp930
S'3USO'
p931
aI0
aI1
aI1
aI-1
aI1
aI1
aI-1
aF0.249
aF0.249
aF0
aa(lp932
S'3USV'
p933
aI0
aI1
aI1
aI-1
aI1
aI1
aI-1
aF0.182
aF0.17999999999999999
aF0
aa(lp934
S'3UU2'
p935
aI0
aI2
aI2
aI-1
aI1
aI1
aI-1
aF0.44800000000000001
aF0.38900000000000001
aF0
aa(lp936
S'4R7Z'
p937
aI15
aI15
aI15
aI-1
aI1
aI1
aI-1
aF13.005000000000001
aF3.121
aF0
aa(lp938
S'3UUS'
p939
aI0
aI6
aI6
aI-1
aI2
aI2
aI-1
aF10.387
aF4.4649999999999999
aF0
aa(lp940
S'3UUX'
p941
aI0
aI2
aI2
aI-1
aI2
aI2
aI-1
aF1.266
aF1.01
aF0
aa(lp942
S'4R89'
p943
aI0
aI4
aI4
aI-1
aI4
aI4
aI-1
aF0.377
aF0.377
aF0
aa(lp944
S'4RB4'
p945
aI1
aI11
aI11
aI-1
aI1
aI1
aI-1
aF121.67400000000001
aF21.954999999999998
aF0
aa(lp946
S'3UW0'
p947
aI0
aI0
aI0
aI-1
aI0
aI0
aI-1
aF0.058999999999999997
aF0.059999999999999998
aF0
aa(lp948
S'3UWX'
p949
aI0
aI0
aI0
aI-1
aI0
aI0
aI-1
aF0.28999999999999998
aF0.33100000000000002
aF0
aa(lp950
S'4G80'
p951
aI3
aI9
aI9
aI-1
aI3
aI3
aI-1
aF11.869999999999999
aF5.734
aF0
aa(lp952
S'3UZS'
p953
aI0
aI0
aI0
aI-1
aI0
aI0
aI-1
aF0.25800000000000001
aF0.26200000000000001
aF0
aa(lp954
S'3UZT'
p955
aI0
aI0
aI0
aI-1
aI0
aI0
aI-1
aF0.151
aF0.151
aF0
aa(lp956
S'4G83'
p957
aI1
aI2
aI2
aI-1
aI2
aI2
aI-1
aF0.11600000000000001
aF0.11600000000000001
aF0
aa(lp958
S'4G93'
p959
aI59
aI59
aI59
aI-1
aI0
aI0
aI-1
aF0.79800000000000004
aF0.80000000000000004
aF0
aa(lp960
S'4G9C'
p961
aI0
aI1
aI1
aI-1
aI1
aI1
aI-1
aF0.93300000000000005
aF0.94099999999999995
aF0
aa(lp962
S'4G9I'
p963
aI0
aI5
aI5
aI-1
aI1
aI1
aI-1
aF93.295000000000002
aF43.725999999999999
aF0
aa(lp964
S'2X5A'
p965
aI0
aI24
aI24
aI-1
aI3
aI3
aI-1
aF117.95099999999999
aF8.8949999999999996
aF0
aa(lp966
S'4JK2'
p967
aI0
aI5
aI5
aI-1
aI4
aI4
aI-1
aF112.79600000000001
aF86.590999999999994
aF0
aa(lp968
S'3NR7'
p969
aI0
aI1
aI1
aI-1
aI1
aI1
aI-1
aF0.058999999999999997
aF0.058000000000000003
aF0
aa(lp970
S'3O2Z'
p971
aI0
aI2
aI2
aI-1
aI2
aI2
aI-1
aF13.760999999999999
aF13.728999999999999
aF0
aa(lp972
S'4LK0'
p973
aI17
aI8
aI8
aI-1
aI6
aI6
aI-1
aF147.012
aF111.288
aF0
aa(lp974
S'4AQB'
p975
aI0
aI0
aI0
aI-1
aI0
aI0
aI-1
aF0.10000000000000001
aF0.10199999999999999
aF0
aa(lp976
S'4AQQ'
p977
aI59
aI59
aI59
aI-1
aI0
aI0
aI-1
aF0.33800000000000002
aF0.46300000000000002
aF0
aa(lp978
S'3O30'
p979
aI0
aI2
aI2
aI-1
aI2
aI2
aI-1
aF10.701000000000001
aF10.914999999999999
aF0
aa(lp980
S'4AQY'
p981
aI0
aI0
aI0
aI-1
aI0
aI0
aI-1
aF8.1920000000000002
aF7.173
aF0
aa(lp982
S'4TLL'
p983
aI0
aI2
aI2
aI-1
aI2
aI2
aI-1
aF59.090000000000003
aF39.466999999999999
aF0
aa(lp984
S'3ZO6'
p985
aI0
aI11
aI11
aI-1
aI1
aI1
aI-1
aF2.6909999999999998
aF0.48999999999999999
aF0
aa(lp986
S'3ZQQ'
p987
aI0
aI1
aI1
aI-1
aI1
aI1
aI-1
aF0.26700000000000002
aF0.27100000000000002
aF0
aa(lp988
S'3ZRY'
p989
aI0
aI13
aI13
aI-1
aI3
aI3
aI-1
aF53.533000000000001
aF20.626000000000001
aF0
aa(lp990
S'4AR2'
p991
aI59
aI59
aI59
aI-1
aI0
aI0
aI-1
aF0.46500000000000002
aF0.46600000000000003
aF0
aa(lp992
S'4ASN'
p993
aI0
aI2
aI2
aI-1
aI1
aI1
aI-1
aF0.111
aF0.099000000000000005
aF0
aa(lp994
S'4ASO'
p995
aI0
aI13
aI21
aI-1
aI3
aI3
aI-1
aF2.165
aF0.86599999999999999
aF0
aa(lp996
S'3O3C'
p997
aI0
aI3
aI3
aI-1
aI1
aI1
aI-1
aF23.988
aF14.247999999999999
aF0
aa(lp998
S'4ASS'
p999
aI0
aI4
aI8
aI-1
aI2
aI1
aI-1
aF0.74299999999999999
aF0.40500000000000003
aF0
aa(lp1000
S'4GA4'
p1001
aI0
aI1
aI1
aI-1
aI1
aI1
aI-1
aF0.26700000000000002
aF0.26400000000000001
aF0
aa(lp1002
S'4GBR'
p1003
aI0
aI0
aI0
aI-1
aI0
aI0
aI-1
aF0.084000000000000005
aF0.099000000000000005
aF0
aa(lp1004
S'4ATS'
p1005
aI0
aI0
aI0
aI-1
aI0
aI0
aI-1
aF0.059999999999999998
aF0.053999999999999999
aF0
aa(lp1006
S'4GCF'
p1007
aI0
aI0
aI0
aI-1
aI0
aI0
aI-1
aF0.025999999999999999
aF0.025999999999999999
aF0
aa(lp1008
S'4ATV'
p1009
aI3
aI3
aI3
aI-1
aI1
aI1
aI-1
aF9.7680000000000007
aF4.7380000000000004
aF0
aa(lp1010
S'4GFA'
p1011
aI0
aI3
aI3
aI-1
aI1
aI1
aI-1
aF1.444
aF0.68000000000000005
aF0
aa(lp1012
S'4GFH'
p1013
aI0
aI5
aI5
aI-1
aI5
aI5
aI-1
aF16.588999999999999
aF16.373000000000001
aF0
aa(lp1014
S'4AU5'
p1015
aI3
aI3
aI3
aI-1
aI1
aI1
aI-1
aF12.759
aF6.6639999999999997
aF0
aa(lp1016
S'3O58'
p1017
aI0
aI5
aI5
aI-1
aI3
aI3
aI-1
aF29.672000000000001
aF28.501999999999999
aF0
aa(lp1018
S'4AV6'
p1019
aI1
aI1
aI1
aI-1
aI1
aI1
aI-1
aF5.585
aF5.593
aF0
aa(lp1020
S'4GL2'
p1021
aI0
aI3
aI3
aI-1
aI3
aI3
aI-1
aF5.4969999999999999
aF5.3760000000000003
aF0
aa(lp1022
S'4AYZ'
p1023
aI0
aI1
aI1
aI-1
aI1
aI1
aI-1
aF0.54900000000000004
aF0.52000000000000002
aF0
aa(lp1024
S'4GL7'
p1025
aI0
aI0
aI0
aI-1
aI0
aI0
aI-1
aF0.082000000000000003
aF0.083000000000000004
aF0
aa(lp1026
S'2X6J'
p1027
aI1
aI1
aI1
aI-1
aI1
aI1
aI-1
aF3.96
aF4.056
aF0
aa(lp1028
S'4B0Y'
p1029
aI0
aI0
aI0
aI-1
aI0
aI0
aI-1
aF0.033000000000000002
aF0.033000000000000002
aF0
aa(lp1030
S'4GL9'
p1031
aI0
aI8
aI8
aI-1
aI3
aI3
aI-1
aF4.5599999999999996
aF2.1499999999999999
aF0
aa(lp1032
S'4B1O'
p1033
aI15
aI0
aI0
aI-1
aI0
aI0
aI-1
aF1.2649999999999999
aF1.2829999999999999
aF0
aa(lp1034
S'4B1P'
p1035
aI15
aI0
aI0
aI-1
aI0
aI0
aI-1
aF1.53
aF1.6220000000000001
aF0
aa(lp1036
S'3ZVO'
p1037
aI0
aI0
aI0
aI-1
aI0
aI0
aI-1
aF8.1400000000000006
aF8.5329999999999995
aF0
aa(lp1038
S'4GLP'
p1039
aI0
aI0
aI0
aI-1
aI0
aI0
aI-1
aF0.056000000000000001
aF0.053999999999999999
aF0
aa(lp1040
S'2X79'
p1041
aI0
aI0
aI0
aI-1
aI0
aI0
aI-1
aF0.085999999999999993
aF0.086999999999999994
aF0
aa(lp1042
S'4GMA'
p1043
aI0
aI0
aI0
aI-1
aI0
aI0
aI-1
aF0.053999999999999999
aF0.056000000000000001
aF0
aa(lp1044
S'4B2T'
p1045
aI0
aI1
aI1
aI-1
aI1
aI1
aI-1
aF147.36500000000001
aF130.04599999999999
aF0
aa(lp1046
S'2X7O'
p1047
aI4
aI4
aI4
aI-1
aI1
aI1
aI-1
aF0.70999999999999996
aF0.52200000000000002
aF0
aa(lp1048
S'4GMP'
p1049
aI4
aI4
aI4
aI-1
aI0
aI0
aI-1
aF0.070999999999999994
aF0.072999999999999995
aF0
aa(lp1050
S'4GNK'
p1051
aI0
aI2
aI2
aI-1
aI2
aI2
aI-1
aF10.394
aF11.502000000000001
aF0
aa(lp1052
S'2XBO'
p1053
aI59
aI59
aI59
aI-1
aI0
aI0
aI-1
aF0.996
aF1.0049999999999999
aF0
aa(lp1054
S'2XCR'
p1055
aI0
aI6
aI6
aI-1
aI2
aI2
aI-1
aF40.713999999999999
aF20.972999999999999
aF0
aa(lp1056
S'4TLM'
p1057
aI0
aI2
aI2
aI-1
aI2
aI2
aI-1
aF62.871000000000002
aF48.308999999999997
aF0
aa(lp1058
S'3ZVP'
p1059
aI0
aI1
aI1
aI-1
aI1
aI1
aI-1
aF19.52
aF14.977
aF0
aa(lp1060
S'4GPO'
p1061
aI0
aI1
aI1
aI-1
aI1
aI1
aI-1
aF1.2450000000000001
aF1.343
aF0
aa(lp1062
S'3O5D'
p1063
aI0
aI1
aI1
aI-1
aI1
aI1
aI-1
aF0.17000000000000001
aF0.17199999999999999
aF0
aa(lp1064
S'3O5H'
p1065
aI0
aI0
aI0
aI-1
aI0
aI0
aI-1
aF32.363
aF30.963000000000001
aF0
aa(lp1066
S'4GRG'
p1067
aI0
aI2
aI2
aI-1
aI2
aI2
aI-1
aF0.89200000000000002
aF0.91200000000000003
aF0
aa(lp1068
S'4GU3'
p1069
aI0
aI2
aI2
aI-1
aI1
aI1
aI-1
aF1.6080000000000001
aF0.96799999999999997
aF0
aa(lp1070
S'4GU4'
p1071
aI0
aI2
aI2
aI-1
aI1
aI1
aI-1
aF1.6299999999999999
aF0.99299999999999999
aF0
aa(lp1072
S'4GUQ'
p1073
aI1
aI2
aI2
aI-1
aI2
aI2
aI-1
aF0.73399999999999999
aF0.72799999999999998
aF0
aa(lp1074
S'4GWP'
p1075
aI0
aI0
aI0
aI-1
aI0
aI0
aI-1
aF1.468
aF1.482
aF0
aa(lp1076
S'3ZXU'
p1077
aI2
aI2
aI2
aI-1
aI2
aI2
aI-1
aF3.3490000000000002
aF3.0030000000000001
aF0
aa(lp1078
S'4GWQ'
p1079
aI0
aI0
aI0
aI-1
aI0
aI0
aI-1
aF1.476
aF1.444
aF0
aa(lp1080
S'4GX5'
p1081
aI0
aI2
aI2
aI-1
aI2
aI2
aI-1
aF7.923
aF6.0800000000000001
aF0
aa(lp1082
S'3ZZI'
p1083
aI0
aI7
aI7
aI-1
aI1
aI1
aI-1
aF3.153
aF1.873
aF0
aa(lp1084
S'4JKR'
p1085
aI3
aI7
aI7
aI-1
aI5
aI5
aI-1
aF154.19900000000001
aF131.10400000000001
aF0
aa(lp1086
S'4A0A'
p1087
aI0
aI0
aI0
aI-1
aI0
aI0
aI-1
aF0.28899999999999998
aF0.28599999999999998
aF0
aa(lp1088
S'4A0B'
p1089
aI0
aI4
aI4
aI-1
aI4
aI4
aI-1
aF18.992000000000001
aF17.771000000000001
aF0
aa(lp1090
S'2XGK'
p1091
aI59
aI59
aI59
aI-1
aI0
aI0
aI-1
aF0.38600000000000001
aF0.501
aF0
aa(lp1092
S'4GZA'
p1093
aI0
aI5
aI5
aI-1
aI1
aI1
aI-1
aF2.024
aF1.282
aF0
aa(lp1094
S'2XI1'
p1095
aI0
aI1
aI1
aI-1
aI1
aI1
aI-1
aF0.23300000000000001
aF0.20200000000000001
aF0
aa(lp1096
S'2XND'
p1097
aI0
aI11
aI11
aI-1
aI3
aI3
aI-1
aF40.289000000000001
aF18.085000000000001
aF0
aa(lp1098
S'4GZY'
p1099
aI0
aI1
aI1
aI-1
aI1
aI1
aI-1
aF0.85499999999999998
aF0.81699999999999995
aF0
aa(lp1100
S'4GZZ'
p1101
aI0
aI1
aI1
aI-1
aI1
aI1
aI-1
aF0.85399999999999998
aF0.81100000000000005
aF0
aa(lp1102
S'4H54'
p1103
aI0
aI1
aI1
aI-1
aI1
aI1
aI-1
aF1.2789999999999999
aF1.284
aF0
aa(lp1104
S'4H56'
p1105
aI0
aI13
aI13
aI-1
aI1
aI1
aI-1
aF9.9610000000000003
aF3.536
aF0
aa(lp1106
S'3O6X'
p1107
aI0
aI5
aI5
aI-1
aI1
aI1
aI-1
aF52.115000000000002
aF27.422000000000001
aF0
aa(lp1108
S'4H5O'
p1109
aI0
aI10
aI10
aI-1
aI2
aI2
aI-1
aF8.8859999999999992
aF6.8070000000000004
aF0
aa(lp1110
S'4A0C'
p1111
aI0
aI3
aI3
aI-1
aI3
aI3
aI-1
aF32.518999999999998
aF26.402000000000001
aF0
aa(lp1112
S'4TNH'
p1113
aI0
aI6
aI6
aI-1
aI6
aI6
aI-1
aF36.104999999999997
aF31.073
aF0
aa(lp1114
S'2XNY'
p1115
aI0
aI2
aI2
aI-1
aI2
aI2
aI-1
aF4.1859999999999999
aF3.214
aF0
aa(lp1116
S'2XQ3'
p1117
aI0
aI4
aI4
aI-1
aI1
aI1
aI-1
aF4.9589999999999996
aF1.5149999999999999
aF0
aa(lp1118
S'4LK1'
p1119
aI15
aI7
aI7
aI-1
aI5
aI5
aI-1
aF143.25200000000001
aF103.224
aF0
aa(lp1120
S'2XQ4'
p1121
aI0
aI4
aI4
aI-1
aI1
aI1
aI-1
aF4.8170000000000002
aF1.496
aF0
aa(lp1122
S'2XQ5'
p1123
aI0
aI4
aI4
aI-1
aI1
aI1
aI-1
aF6.4320000000000004
aF1.7789999999999999
aF0
aa(lp1124
S'4A0K'
p1125
aI0
aI0
aI0
aI-1
aI0
aI0
aI-1
aF0.55500000000000005
aF0.53700000000000003
aF0
aa(lp1126
S'2XQ6'
p1127
aI0
aI4
aI4
aI-1
aI1
aI1
aI-1
aF6.5720000000000001
aF2.0699999999999998
aF0
aa(lp1128
S'4A0L'
p1129
aI0
aI4
aI4
aI-1
aI4
aI4
aI-1
aF2.3900000000000001
aF2.4079999999999999
aF0
aa(lp1130
S'3OGC'
p1131
aI0
aI0
aI0
aI-1
aI0
aI0
aI-1
aF0.82199999999999995
aF0.81999999999999995
aF0
aa(lp1132
S'4A17'
p1133
aI0
aI0
aI0
aI-1
aI0
aI0
aI-1
aF28.161000000000001
aF28.289999999999999
aF0
aa(lp1134
S'3OHX'
p1135
aI0
aI4
aI4
aI-1
aI4
aI4
aI-1
aF2.3330000000000002
aF2.2749999999999999
aF0.0040000000000000001
aa(lp1136
S'2XQ8'
p1137
aI0
aI4
aI4
aI-1
aI1
aI1
aI-1
aF9.9369999999999994
aF2.738
aF0
aa(lp1138
S'3OMV'
p1139
aI0
aI1
aI1
aI-1
aI1
aI1
aI-1
aF0.182
aF0.183
aF0
aa(lp1140
S'3OPO'
p1141
aI0
aI1
aI1
aI-1
aI1
aI1
aI-1
aF1.3280000000000001
aF1.163
aF0
aa(lp1142
S'4TNI'
p1143
aI0
aI7
aI7
aI-1
aI7
aI7
aI-1
aF34.353999999999999
aF28.303000000000001
aF0
aa(lp1144
S'3OQ9'
p1145
aI0
aI8
aI8
aI-1
aI2
aI2
aI-1
aF3.157
aF0.89300000000000002
aF0
aa(lp1146
S'2XQA'
p1147
aI0
aI4
aI4
aI-1
aI1
aI1
aI-1
aF6.2830000000000004
aF1.974
aF0
aa(lp1148
S'3ORG'
p1149
aI0
aI3
aI3
aI-1
aI1
aI1
aI-1
aF0.80900000000000005
aF0.61899999999999999
aF0
aa(lp1150
S'3OSL'
p1151
aI0
aI2
aI2
aI-1
aI2
aI2
aI-1
aF0.35999999999999999
aF0.33500000000000002
aF0
aa(lp1152
S'2XRD'
p1153
aI0
aI0
aI0
aI-1
aI0
aI0
aI-1
aF0.065000000000000002
aF0.064000000000000001
aF0
aa(lp1154
S'3OTO'
p1155
aI0
aI0
aI0
aI-1
aI0
aI0
aI-1
aF6.7629999999999999
aF6.5540000000000003
aF0
aa(lp1156
S'2XSM'
p1157
aI0
aI13
aI13
aI-1
aI2
aI2
aI-1
aF134.226
aF28.841999999999999
aF0
aa(lp1158
S'3OTP'
p1159
aI0
aI9
aI9
aI-1
aI2
aI2
aI-1
aF30.013000000000002
aF9.7750000000000004
aF0
aa(lp1160
S'4A18'
p1161
aI0
aI0
aI0
aI-1
aI0
aI0
aI-1
aF7.548
aF7.5709999999999997
aF0
aa(lp1162
S'4A19'
p1163
aI0
aI0
aI0
aI-1
aI0
aI0
aI-1
aF7.2789999999999999
aF6.149
aF0
aa(lp1164
S'4TNJ'
p1165
aI0
aI5
aI5
aI-1
aI5
aI5
aI-1
aF35.061
aF22.966000000000001
aF0
aa(lp1166
S'3OW7'
p1167
aI0
aI1
aI1
aI-1
aI1
aI1
aI-1
aF1.5309999999999999
aF1.528
aF0
aa(lp1168
S'3OXL'
p1169
aI0
aI0
aI0
aI-1
aI0
aI0
aI-1
aF0.106
aF0.104
aF0
aa(lp1170
S'3P0A'
p1171
aI0
aI19
aI19
aI-1
aI1
aI1
aI-1
aF68.584000000000003
aF8.1159999999999997
aF0
aa(lp1172
S'4A1A'
p1173
aI0
aI0
aI0
aI-1
aI0
aI0
aI-1
aF30.337
aF27.553000000000001
aF0
aa(lp1174
S'4B3P'
p1175
aI0
aI0
aI0
aI-1
aI0
aI0
aI-1
aF0.23799999999999999
aF0.23899999999999999
aF0
aa(lp1176
S'4B3Q'
p1177
aI0
aI0
aI0
aI-1
aI0
aI0
aI-1
aF0.251
aF0.251
aF0
aa(lp1178
S'4B4A'
p1179
aI0
aI0
aI0
aI-1
aI0
aI0
aI-1
aF0.058000000000000003
aF0.058999999999999997
aF0
aa(lp1180
S'4B7W'
p1181
aI2
aI3
aI3
aI-1
aI1
aI1
aI-1
aF2.6819999999999999
aF1.4399999999999999
aF0
aa(lp1182
S'4B86'
p1183
aI0
aI6
aI7
aI-1
aI5
aI5
aI-1
aF1.798
aF1.6180000000000001
aF0
aa(lp1184
S'4B8D'
p1185
aI0
aI0
aI0
aI-1
aI0
aI0
aI-1
aF0.012999999999999999
aF0.012999999999999999
aF0
aa(lp1186
S'4B8F'
p1187
aI0
aI0
aI0
aI-1
aI0
aI0
aI-1
aF7.29
aF7.1840000000000002
aF0
aa(lp1188
S'4B8G'
p1189
aI0
aI0
aI0
aI-1
aI0
aI0
aI-1
aF13.750999999999999
aF12.869
aF0
aa(lp1190
S'4TNK'
p1191
aI0
aI9
aI9
aI-1
aI9
aI9
aI-1
aF30.643000000000001
aF26.32
aF0
aa(lp1192
S'4A1B'
p1193
aI0
aI0
aI0
aI-1
aI0
aI0
aI-1
aF6.1980000000000004
aF6.242
aF0
aa(lp1194
S'4B8H'
p1195
aI0
aI0
aI0
aI-1
aI0
aI0
aI-1
aF8.8650000000000002
aF8.8759999999999994
aF0
aa(lp1196
S'4A1C'
p1197
aI0
aI0
aI0
aI-1
aI0
aI0
aI-1
aF29.385999999999999
aF26.765000000000001
aF0
aa(lp1198
S'3P0G'
p1199
aI0
aI0
aI0
aI-1
aI0
aI0
aI-1
aF0.070999999999999994
aF0.071999999999999995
aF0
aa(lp1200
S'3P11'
p1201
aI0
aI0
aI0
aI-1
aI0
aI0
aI-1
aF0.63
aF0.63100000000000001
aF0
aa(lp1202
S'4JLU'
p1203
aI0
aI0
aI0
aI-1
aI0
aI0
aI-1
aF0.050999999999999997
aF0.051999999999999998
aF0
aa(lp1204
S'3P3W'
p1205
aI0
aI3
aI3
aI-1
aI1
aI1
aI-1
aF11.789
aF7.2409999999999997
aF0
aa(lp1206
S'4JNT'
p1207
aI0
aI1
aI1
aI-1
aI1
aI1
aI-1
aF0.23400000000000001
aF0.23599999999999999
aF0
aa(lp1208
S'4JPO'
p1209
aI0
aI2
aI2
aI-1
aI2
aI2
aI-1
aF3.5129999999999999
aF3.427
aF0
aa(lp1210
S'4B8I'
p1211
aI0
aI0
aI0
aI-1
aI0
aI0
aI-1
aF18.154
aF16.657
aF0
aa(lp1212
S'4JQ0'
p1213
aI0
aI0
aI0
aI-1
aI0
aI0
aI-1
aF0.90900000000000003
aF0.93000000000000005
aF0
aa(lp1214
S'4JS5'
p1215
aI1
aI2
aI2
aI-1
aI2
aI2
aI-1
aF0.39800000000000002
aF0.41799999999999998
aF0
aa(lp1216
S'4JSV'
p1217
aI0
aI2
aI2
aI-1
aI2
aI2
aI-1
aF0.89100000000000001
aF0.73799999999999999
aF0
aa(lp1218
S'2XTE'
p1219
aI0
aI11
aI11
aI-1
aI1
aI1
aI-1
aF1.456
aF0.40699999999999997
aF0
aa(lp1220
S'3P49'
p1221
aI0
aI0
aI0
aI-1
aI0
aI0
aI-1
aF0.067000000000000004
aF0.069000000000000006
aF0
aa(lp1222
S'4TNV'
p1223
aI0
aI27
aI27
aI-1
aI3
aI3
aI-1
aF132.589
aF31.466000000000001
aF0
aa(lp1224
S'3P56'
p1225
aI0
aI3
aI3
aI-1
aI3
aI3
aI-1
aF1.4570000000000001
aF1.4299999999999999
aF0
aa(lp1226
S'4JSX'
p1227
aI0
aI2
aI2
aI-1
aI2
aI2
aI-1
aF15.109999999999999
aF15.045999999999999
aF0
aa(lp1228
S'2XUT'
p1229
aI2
aI2
aI2
aI-1
aI1
aI1
aI-1
aF0.40500000000000003
aF0.39100000000000001
aF0
aa(lp1230
S'2XWJ'
p1231
aI0
aI9
aI9
aI-1
aI3
aI3
aI-1
aF122.777
aF44.287999999999997
aF0
aa(lp1232
S'3P5C'
p1233
aI0
aI0
aI0
aI-1
aI0
aI0
aI-1
aF2.8170000000000002
aF2.7109999999999999
aF0
aa(lp1234
S'3P5N'
p1235
aI0
aI1
aI1
aI-1
aI1
aI1
aI-1
aF0.086999999999999994
aF0.086999999999999994
aF0
aa(lp1236
S'3P9D'
p1237
aI0
aI8
aI8
aI-1
aI8
aI8
aI-1
aF370.25099999999998
aF279.072
aF0
aa(lp1238
S'4LKV'
p1239
aI0
aI3
aI3
aI-1
aI1
aI1
aI-1
aF7.1200000000000001
aF3.6629999999999998
aF0
aa(lp1240
S'4BBS'
p1241
aI0
aI0
aI0
aI-1
aI0
aI0
aI-1
aF3.4460000000000002
aF3.3540000000000001
aF0
aa(lp1242
S'4A1D'
p1243
aI0
aI0
aI0
aI-1
aI0
aI0
aI-1
aF8.0690000000000008
aF7.4619999999999997
aF0
aa(lp1244
S'4LL0'
p1245
aI0
aI1
aI1
aI-1
aI1
aI1
aI-1
aF1.365
aF1.4059999999999999
aF0
aa(lp1246
S'4JT6'
p1247
aI0
aI2
aI2
aI-1
aI2
aI2
aI-1
aF14.699999999999999
aF14.988
aF0
aa(lp1248
S'4BDV'
p1249
aI0
aI0
aI0
aI-1
aI0
aI0
aI-1
aF5.9400000000000004
aF6.6870000000000003
aF0
aa(lp1250
S'4LL8'
p1251
aI0
aI1
aI1
aI-1
aI1
aI1
aI-1
aF0.39600000000000002
aF0.39300000000000002
aF0
aa(lp1252
S'4LLG'
p1253
aI17
aI8
aI8
aI-1
aI6
aI6
aI-1
aF140.672
aF98.912000000000006
aF0
aa(lp1254
S'4A1E'
p1255
aI0
aI0
aI0
aI-1
aI0
aI0
aI-1
aF29.504999999999999
aF28.672999999999998
aF0
aa(lp1256
S'4BEV'
p1257
aI0
aI0
aI0
aI-1
aI0
aI0
aI-1
aF0.12
aF0.122
aF0
aa(lp1258
S'4BIU'
p1259
aI0
aI5
aI5
aI-1
aI1
aI1
aI-1
aF13.898999999999999
aF4.899
aF0
aa(lp1260
S'4JUO'
p1261
aI0
aI0
aI0
aI-1
aI0
aI0
aI-1
aF3.2210000000000001
aF3.2189999999999999
aF0
aa(lp1262
S'4BK4'
p1263
aI0
aI0
aI0
aI-1
aI0
aI0
aI-1
aF0.19700000000000001
aF0.20799999999999999
aF0
aa(lp1264
S'4JVH'
p1265
aI0
aI0
aI0
aI-1
aI0
aI0
aI-1
aF0.051999999999999998
aF0.055
aF0
aa(lp1266
S'4BK5'
p1267
aI0
aI0
aI0
aI-1
aI0
aI0
aI-1
aF0.11600000000000001
aF0.14499999999999999
aF0
aa(lp1268
S'4K0E'
p1269
aI0
aI2
aI2
aI-1
aI1
aI1
aI-1
aF36.719000000000001
aF24.298999999999999
aF0
aa(lp1270
S'4BKA'
p1271
aI0
aI0
aI0
aI-1
aI0
aI0
aI-1
aF0.112
aF0.112
aF0
aa(lp1272
S'4BKF'
p1273
aI0
aI2
aI2
aI-1
aI2
aI2
aI-1
aF0.46000000000000002
aF0.502
aF0
aa(lp1274
S'4BL4'
p1275
aI3
aI3
aI3
aI-1
aI1
aI1
aI-1
aF0.35099999999999998
aF0.28799999999999998
aF0
aa(lp1276
S'4BLA'
p1277
aI0
aI3
aI3
aI-1
aI1
aI1
aI-1
aF40.994999999999997
aF20.594000000000001
aF0
aa(lp1278
S'4A2W'
p1279
aI1
aI1
aI1
aI-1
aI1
aI1
aI-1
aF6.0810000000000004
aF5.6820000000000004
aF0
aa(lp1280
S'4A2X'
p1281
aI3
aI5
aI5
aI-1
aI3
aI3
aI-1
aF0.248
aF0.20499999999999999
aF0
aa(lp1282
S'4A36'
p1283
aI1
aI3
aI3
aI-1
aI3
aI3
aI-1
aF3.698
aF3.6640000000000001
aF0
aa(lp1284
S'4A3B'
p1285
aI0
aI0
aI0
aI-1
aI0
aI0
aI-1
aF1.891
aF1.8979999999999999
aF0
aa(lp1286
S'4A3C'
p1287
aI0
aI0
aI0
aI-1
aI0
aI0
aI-1
aF1.905
aF1.581
aF0
aa(lp1288
S'4K0V'
p1289
aI0
aI0
aI0
aI-1
aI0
aI0
aI-1
aF0.14899999999999999
aF0.126
aF0
aa(lp1290
S'4K1N'
p1291
aI0
aI1
aI1
aI-1
aI1
aI1
aI-1
aF0.254
aF0.252
aF0
aa(lp1292
S'4K24'
p1293
aI0
aI0
aI0
aI-1
aI0
aI0
aI-1
aF0.65400000000000003
aF0.64900000000000002
aF0
aa(lp1294
S'4A3F'
p1295
aI0
aI0
aI0
aI-1
aI0
aI0
aI-1
aF1.611
aF1.524
aF0
aa(lp1296
S'4K7H'
p1297
aI0
aI4
aI4
aI-1
aI1
aI1
aI-1
aF1.548
aF1.137
aF0
aa(lp1298
S'4BM5'
p1299
aI0
aI0
aI0
aI-1
aI0
aI0
aI-1
aF0.043999999999999997
aF0.042999999999999997
aF0
aa(lp1300
S'4A3G'
p1301
aI0
aI0
aI0
aI-1
aI0
aI0
aI-1
aF1.54
aF1.514
aF0
aa(lp1302
S'4BPE'
p1303
aI0
aI0
aI0
aI-1
aI0
aI0
aI-1
aF30.989999999999998
aF31.391999999999999
aF0
aa(lp1304
S'4K7Q'
p1305
aI0
aI0
aI0
aI-1
aI0
aI0
aI-1
aF0.184
aF0.187
aF0
aa(lp1306
S'4K95'
p1307
aI0
aI11
aI11
aI-1
aI1
aI1
aI-1
aF5.7359999999999998
aF2.0529999999999999
aF0
aa(lp1308
S'4A3I'
p1309
aI0
aI0
aI0
aI-1
aI0
aI0
aI-1
aF1.5389999999999999
aF1.496
aF0
aa(lp1310
S'4A3J'
p1311
aI0
aI0
aI0
aI-1
aI0
aI0
aI-1
aF1.5109999999999999
aF1.5089999999999999
aF0
aa(lp1312
S'4KBT'
p1313
aI0
aI0
aI0
aI-1
aI0
aI0
aI-1
aF6.742
aF6.9800000000000004
aF0
aa(lp1314
S'4A3K'
p1315
aI0
aI0
aI0
aI-1
aI0
aI0
aI-1
aF1.532
aF1.5069999999999999
aF0
aa(lp1316
S'4TPG'
p1317
aI0
aI1
aI1
aI-1
aI1
aI1
aI-1
aF2.738
aF2.6440000000000001
aF0
aa(lp1318
S'4A3L'
p1319
aI0
aI0
aI0
aI-1
aI0
aI0
aI-1
aF1.512
aF1.4870000000000001
aF0
aa(lp1320
S'4A3M'
p1321
aI0
aI0
aI0
aI-1
aI0
aI0
aI-1
aF1.6160000000000001
aF1.4670000000000001
aF0
aa(lp1322
S'2XXA'
p1323
aI0
aI3
aI3
aI-1
aI3
aI3
aI-1
aF2.9460000000000002
aF2.6899999999999999
aF0
aa(lp1324
S'4TUG'
p1325
aI0
aI5
aI5
aI-1
aI1
aI1
aI-1
aF21.648
aF7.7969999999999997
aF0
aa(lp1326
S'4KBU'
p1327
aI0
aI2
aI2
aI-1
aI1
aI1
aI-1
aF15.435
aF15.432
aF0
aa(lp1328
S'4A3V'
p1329
aI0
aI2
aI2
aI-1
aI2
aI2
aI-1
aF3.6499999999999999
aF3.5619999999999998
aF0
aa(lp1330
S'2XZM'
p1331
aI0
aI0
aI0
aI-1
aI0
aI0
aI-1
aF29.670000000000002
aF30.908000000000001
aF0
aa(lp1332
S'4A55'
p1333
aI0
aI0
aI0
aI-1
aI0
aI0
aI-1
aF0.28699999999999998
aF0.28899999999999998
aF0
aa(lp1334
S'4A5W'
p1335
aI0
aI0
aI0
aI-1
aI0
aI0
aI-1
aF0.58699999999999997
aF0.628
aF0
aa(lp1336
S'4A8K'
p1337
aI0
aI2
aI2
aI-1
aI1
aI1
aI-1
aF0.83899999999999997
aF0.78100000000000003
aF0
aa(lp1338
S'4A98'
p1339
aI0
aI9
aI9
aI-1
aI1
aI1
aI-1
aF3.839
aF1.5840000000000001
aF0
aa(lp1340
S'4AC5'
p1341
aI0
aI0
aI0
aI-1
aI0
aI0
aI-1
aF2.5819999999999999
aF2.75
aF0
aa(lp1342
S'4TUI'
p1343
aI0
aI5
aI5
aI-1
aI1
aI1
aI-1
aF17.763000000000002
aF6.6420000000000003
aF0
aa(lp1344
S'4ACQ'
p1345
aI3
aI3
aI3
aI-1
aI1
aI1
aI-1
aF71.831000000000003
aF25.003
aF0
aa(lp1346
S'4KBV'
p1347
aI0
aI0
aI0
aI-1
aI0
aI0
aI-1
aF7.3659999999999997
aF7.7530000000000001
aF0
aa(lp1348
S'4BPN'
p1349
aI0
aI0
aI0
aI-1
aI0
aI0
aI-1
aF39.128
aF37.463999999999999
aF0
aa(lp1350
S'4KBW'
p1351
aI0
aI2
aI2
aI-1
aI1
aI1
aI-1
aF23.747
aF22.52
aF0
aa(lp1352
S'4TVW'
p1353
aI0
aI3
aI3
aI-1
aI1
aI1
aI-1
aF0.48599999999999999
aF0.57099999999999995
aF0
aa(lp1354
S'4TWF'
p1355
aI0
aI9
aI9
aI-1
aI1
aI1
aI-1
aF27.812999999999999
aF13.169
aF0
aa(lp1356
S'2XZN'
p1357
aI0
aI0
aI0
aI-1
aI0
aI0
aI-1
aF35.970999999999997
aF31.021999999999998
aF0
aa(lp1358
S'4KC9'
p1359
aI0
aI0
aI0
aI-1
aI0
aI0
aI-1
aF0.105
aF0.104
aF0
aa(lp1360
S'4KCY'
p1361
aI0
aI0
aI0
aI-1
aI0
aI0
aI-1
aF7.718
aF6.7869999999999999
aF0
aa(lp1362
S'4TWH'
p1363
aI0
aI9
aI9
aI-1
aI1
aI1
aI-1
aF2.4980000000000002
aF1.466
aF0
aa(lp1364
S'4LML'
p1365
aI0
aI4
aI4
aI-1
aI1
aI1
aI-1
aF0.871
aF0.65300000000000002
aF0
aa(lp1366
S'4TZP'
p1367
aI0
aI3
aI3
aI-1
aI3
aI3
aI-1
aF0.498
aF0.39600000000000002
aF0
aa(lp1368
S'4TZV'
p1369
aI0
aI0
aI0
aI-1
aI0
aI0
aI-1
aF0.183
aF0.152
aF0
aa(lp1370
S'4LNV'
p1371
aI0
aI1
aI1
aI-1
aI1
aI1
aI-1
aF24.948
aF22.925999999999998
aF0
aa(lp1372
S'4TZW'
p1373
aI0
aI0
aI0
aI-1
aI0
aI0
aI-1
aF0.23300000000000001
aF0.17299999999999999
aF0
aa(lp1374
S'4TZZ'
p1375
aI0
aI9
aI9
aI-1
aI3
aI3
aI-1
aF3.0179999999999998
aF1.4890000000000001
aF0
aa(lp1376
S'4BPO'
p1377
aI0
aI0
aI0
aI-1
aI0
aI0
aI-1
aF36.951000000000001
aF32.351999999999997
aF0
aa(lp1378
S'4KCZ'
p1379
aI0
aI2
aI2
aI-1
aI1
aI1
aI-1
aF15.369999999999999
aF15.686999999999999
aF0
aa(lp1380
S'4U1C'
p1381
aI0
aI0
aI0
aI-1
aI0
aI0
aI-1
aF0.14299999999999999
aF0.14499999999999999
aF0
aa(lp1382
S'4U1Y'
p1383
aI0
aI3
aI3
aI-1
aI1
aI1
aI-1
aF41.796999999999997
aF23.254999999999999
aF0
aa(lp1384
S'4AD8'
p1385
aI0
aI0
aI0
aI-1
aI0
aI0
aI-1
aF0.104
aF0.106
aF0
aa(lp1386
S'4ADF'
p1387
aI21
aI22
aI22
aI-1
aI2
aI2
aI-1
aF49.521000000000001
aF9.5280000000000005
aF0
aa(lp1388
S'2Y0S'
p1389
aI1
aI11
aI11
aI-1
aI11
aI11
aI-1
aF5.4779999999999998
aF4.8789999999999996
aF0
aa(lp1390
S'2Y22'
p1391
aI5
aI4
aI4
aI-1
aI2
aI2
aI-1
aF1.3500000000000001
aF0.90200000000000002
aF0
aa(lp1392
S'4KD0'
p1393
aI0
aI0
aI0
aI-1
aI0
aI0
aI-1
aF6.4459999999999997
aF6.4480000000000004
aF0
aa(lp1394
S'2Y25'
p1395
aI0
aI3
aI3
aI-1
aI1
aI1
aI-1
aF4.9470000000000001
aF2.734
aF0
aa(lp1396
S'4LO7'
p1397
aI0
aI5
aI5
aI-1
aI3
aI3
aI-1
aF1.3109999999999999
aF1.2490000000000001
aF0
aa(lp1398
S'2Y54'
p1399
aI0
aI4
aI4
aI-1
aI1
aI1
aI-1
aF3.7010000000000001
aF2.2549999999999999
aF0
aa(lp1400
S'4LP5'
p1401
aI0
aI0
aI0
aI-1
aI0
aI0
aI-1
aF0.092999999999999999
aF0.094
aF0
aa(lp1402
S'4KD2'
p1403
aI0
aI2
aI2
aI-1
aI1
aI1
aI-1
aF19.210000000000001
aF18.513000000000002
aF0
aa(lp1404
S'4LQP'
p1405
aI0
aI0
aI0
aI-1
aI0
aI0
aI-1
aF0.095000000000000001
aF0.096000000000000002
aF0
aa(lp1406
S'4LQQ'
p1407
aI0
aI1
aI1
aI-1
aI1
aI1
aI-1
aF0.49299999999999999
aF0.51300000000000001
aF0
aa(lp1408
S'2Y56'
p1409
aI0
aI4
aI4
aI-1
aI1
aI1
aI-1
aF4.8680000000000003
aF1.8220000000000001
aF0
aa(lp1410
S'4LRM'
p1411
aI0
aI4
aI4
aI-1
aI1
aI1
aI-1
aF13.470000000000001
aF5.6349999999999998
aF0
aa(lp1412
S'2Y9A'
p1413
aI3
aI15
aI15
aI-1
aI8
aI8
aI-1
aF12.471
aF8.0719999999999992
aF0
aa(lp1414
S'4BPP'
p1415
aI0
aI0
aI0
aI-1
aI0
aI0
aI-1
aF31.076000000000001
aF36.042000000000002
aF0
aa(lp1416
S'4U2Q'
p1417
aI0
aI3
aI3
aI-1
aI1
aI1
aI-1
aF41.656999999999996
aF21.719999999999999
aF0
aa(lp1418
S'4LSG'
p1419
aI0
aI1
aI1
aI-1
aI1
aI1
aI-1
aF0.621
aF0.81000000000000005
aF0
aa(lp1420
S'4LTP'
p1421
aI3
aI3
aI3
aI-1
aI1
aI1
aI-1
aF0.97299999999999998
aF1.117
aF0
aa(lp1422
S'4ADQ'
p1423
aI5
aI6
aI6
aI-1
aI2
aI2
aI-1
aF3.5619999999999998
aF2.2709999999999999
aF0
aa(lp1424
S'4LTQ'
p1425
aI7
aI7
aI7
aI-1
aI1
aI1
aI-1
aF0.91500000000000004
aF0.496
aF0
aa(lp1426
S'2Y9B'
p1427
aI3
aI16
aI16
aI-1
aI8
aI8
aI-1
aF11.493
aF7.4130000000000003
aF0
aa(lp1428
S'4LTR'
p1429
aI3
aI3
aI3
aI-1
aI1
aI1
aI-1
aF0.35499999999999998
aF0.29499999999999998
aF0
aa(lp1430
S'4ADS'
p1431
aI0
aI10
aI10
aI-1
aI2
aI2
aI-1
aF1.921
aF1.113
aF0
aa(lp1432
S'4LXC'
p1433
aI0
aI3
aI3
aI-1
aI1
aI1
aI-1
aF4.4720000000000004
aF2.363
aF0
aa(lp1434
S'4ADW'
p1435
aI0
aI1
aI1
aI-1
aI1
aI1
aI-1
aF0.23599999999999999
aF0.23599999999999999
aF0
aa(lp1436
S'4AED'
p1437
aI119
aI119
aI119
aI-1
aI0
aI0
aI-1
aF2.8660000000000001
aF2.875
aF0
aa(lp1438
S'4LY6'
p1439
aI0
aI20
aI23
aI-1
aI2
aI1
aI-1
aF87.093000000000004
aF8.0630000000000006
aF0
aa(lp1440
S'4AGE'
p1441
aI0
aI4
aI6
aI-1
aI2
aI1
aI-1
aF0.93000000000000005
aF0.52500000000000002
aF0
aa(lp1442
S'4AGF'
p1443
aI0
aI4
aI6
aI-1
aI2
aI1
aI-1
aF5.1890000000000001
aF1.3109999999999999
aF0
aa(lp1444
S'2Y9C'
p1445
aI3
aI15
aI15
aI-1
aI8
aI8
aI-1
aF11.368
aF7.2590000000000003
aF0
aa(lp1446
S'4AH6'
p1447
aI0
aI3
aI3
aI-1
aI1
aI1
aI-1
aF0.81200000000000006
aF0.64000000000000001
aF0
aa(lp1448
S'4AK3'
p1449
aI0
aI0
aI0
aI-1
aI0
aI0
aI-1
aF0.055
aF0.055
aF0
aa(lp1450
S'2Y9D'
p1451
aI3
aI16
aI16
aI-1
aI8
aI8
aI-1
aF13.577
aF6.6239999999999997
aF0
aa(lp1452
S'4U4F'
p1453
aI0
aI3
aI3
aI-1
aI1
aI1
aI-1
aF23.047999999999998
aF8.1329999999999991
aF0
aa(lp1454
S'4BQ7'
p1455
aI2
aI2
aI2
aI-1
aI2
aI2
aI-1
aF0.28699999999999998
aF0.27800000000000002
aF0
aa(lp1456
S'4BSK'
p1457
aI0
aI0
aI0
aI-1
aI0
aI0
aI-1
aF0.048000000000000001
aF0.049000000000000002
aF0
aa(lp1458
S'4BSM'
p1459
aI0
aI0
aI0
aI-1
aI0
aI0
aI-1
aF0.156
aF0.158
aF0
aa(lp1460
S'4BSN'
p1461
aI0
aI0
aI0
aI-1
aI0
aI0
aI-1
aF0.121
aF0.122
aF0
aa(lp1462
S'2Y9Z'
p1463
aI0
aI0
aI0
aI-1
aI0
aI0
aI-1
aF0.26400000000000001
aF0.26300000000000001
aF0
aa(lp1464
S'4BST'
p1465
aI0
aI2
aI2
aI-1
aI2
aI2
aI-1
aF2.8460000000000001
aF2.7949999999999999
aF0
aa(lp1466
S'2YAU'
p1467
aI1
aI1
aI1
aI-1
aI1
aI1
aI-1
aF0.24099999999999999
aF0.23899999999999999
aF0
aa(lp1468
S'2YCZ'
p1469
aI0
aI1
aI1
aI-1
aI1
aI1
aI-1
aF1.0820000000000001
aF1.046
aF0
aa(lp1470
S'2YEY'
p1471
aI0
aI13
aI13
aI-1
aI1
aI1
aI-1
aF8.3079999999999998
aF2.7970000000000002
aF0
aa(lp1472
S'4BTP'
p1473
aI0
aI9
aI9
aI-1
aI1
aI1
aI-1
aF5.4320000000000004
aF2.379
aF0
aa(lp1474
S'4BUJ'
p1475
aI4
aI5
aI5
aI-1
aI3
aI3
aI-1
aF52.933
aF47.426000000000002
aF0
aa(lp1476
S'2YGQ'
p1477
aI0
aI0
aI0
aI-1
aI0
aI0
aI-1
aF0.045999999999999999
aF0.047
aF0
aa(lp1478
S'2YHB'
p1479
aI0
aI0
aI0
aI-1
aI0
aI0
aI-1
aF0.064000000000000001
aF0.064000000000000001
aF0
aa(lp1480
S'2YHJ'
p1481
aI1
aI1
aI1
aI-1
aI1
aI1
aI-1
aF0.13800000000000001
aF0.14299999999999999
aF0
aa(lp1482
S'4U4G'
p1483
aI0
aI3
aI3
aI-1
aI1
aI1
aI-1
aF1.4590000000000001
aF1.1990000000000001
aF0
aa(lp1484
S'2YHM'
p1485
aI0
aI9
aI9
aI-1
aI1
aI1
aI-1
aF2.9750000000000001
aF1.232
aF0
aa(lp1486
S'4U5B'
p1487
aI0
aI4
aI4
aI-1
aI2
aI2
aI-1
aF42.667000000000002
aF26.079000000000001
aF0
aa(lp1488
S'2YHP'
p1489
aI0
aI18
aI20
aI-1
aI3
aI2
aI-1
aF15.824999999999999
aF3.1659999999999999
aF0
aa(lp1490
S'4LZ9'
p1491
aI0
aI0
aI0
aI-1
aI0
aI0
aI-1
aF0.058999999999999997
aF0.059999999999999998
aF0
aa(lp1492
S'4M1C'
p1493
aI0
aI2
aI2
aI-1
aI2
aI2
aI-1
aF13.984
aF14.071
aF0
aa(lp1494
S'2YHQ'
p1495
aI0
aI18
aI20
aI-1
aI3
aI2
aI-1
aF15.782999999999999
aF3.0859999999999999
aF0
aa(lp1496
S'2YI2'
p1497
aI0
aI16
aI19
aI-1
aI2
aI1
aI-1
aF23.992000000000001
aF5.149
aF0
aa(lp1498
S'4M1M'
p1499
aI0
aI1
aI1
aI-1
aI1
aI1
aI-1
aF17.457999999999998
aF17.741
aF0
aa(lp1500
S'4U5C'
p1501
aI0
aI4
aI4
aI-1
aI2
aI2
aI-1
aF42.276000000000003
aF22.381
aF0
aa(lp1502
S'2YI3'
p1503
aI0
aI16
aI19
aI-1
aI2
aI1
aI-1
aF19.474
aF3.9990000000000001
aF0
aa(lp1504
S'4M2S'
p1505
aI0
aI1
aI1
aI-1
aI1
aI1
aI-1
aF17.637
aF18.067
aF0
aa(lp1506
S'4BWB'
p1507
aI1
aI1
aI1
aI-1
aI1
aI1
aI-1
aF1.1659999999999999
aF1.1279999999999999
aF0
aa(lp1508
S'4BWP'
p1509
aI1
aI1
aI1
aI-1
aI1
aI1
aI-1
aF1.798
aF1.8100000000000001
aF0
aa(lp1510
S'2YI4'
p1511
aI0
aI15
aI19
aI-1
aI2
aI1
aI-1
aF18.263999999999999
aF4.0860000000000003
aF0
aa(lp1512
S'4BXZ'
p1513
aI0
aI0
aI0
aI-1
aI0
aI0
aI-1
aF1.7509999999999999
aF1.72
aF0
aa(lp1514
S'4BY1'
p1515
aI0
aI0
aI0
aI-1
aI0
aI0
aI-1
aF1.921
aF1.913
aF0
aa(lp1516
S'4C2T'
p1517
aI0
aI5
aI5
aI-1
aI3
aI3
aI-1
aF30.561
aF15.872999999999999
aF0
aa(lp1518
S'4M2T'
p1519
aI0
aI1
aI1
aI-1
aI1
aI1
aI-1
aF17.931000000000001
aF18.608000000000001
aF0
aa(lp1520
S'2YIB'
p1521
aI0
aI3
aI3
aI-1
aI1
aI1
aI-1
aF22.594999999999999
aF8.1679999999999993
aF0
aa(lp1522
S'4U5D'
p1523
aI0
aI4
aI4
aI-1
aI2
aI2
aI-1
aF46.886000000000003
aF23.231999999999999
aF0
aa(lp1524
S'2YJF'
p1525
aI0
aI3
aI4
aI-1
aI1
aI1
aI-1
aF15.493
aF8.4499999999999993
aF0
aa(lp1526
S'4C53'
p1527
aI0
aI0
aI0
aI-1
aI0
aI0
aI-1
aF0.32200000000000001
aF0.35299999999999998
aF0
aa(lp1528
S'4M40'
p1529
aI0
aI4
aI4
aI-1
aI2
aI2
aI-1
aF1.175
aF0.77500000000000002
aF0
aa(lp1530
S'4C8Q'
p1531
aI0
aI0
aI0
aI-1
aI0
aI0
aI-1
aF0.98699999999999999
aF0.98099999999999998
aF0
aa(lp1532
S'4M4W'
p1533
aI0
aI12
aI12
aI-1
aI3
aI3
aI-1
aF12.26
aF4.7599999999999998
aF0
aa(lp1534
S'4CAS'
p1535
aI0
aI0
aI0
aI-1
aI0
aI0
aI-1
aF2.149
aF2.1440000000000001
aF0
aa(lp1536
S'4CDI'
p1537
aI0
aI0
aI0
aI-1
aI0
aI0
aI-1
aF0.187
aF0.185
aF0
aa(lp1538
S'4CFF'
p1539
aI0
aI3
aI3
aI-1
aI3
aI3
aI-1
aF3.8439999999999999
aF3.8340000000000001
aF0
aa(lp1540
S'4CI3'
p1541
aI0
aI0
aI0
aI-1
aI0
aI0
aI-1
aF0.26100000000000001
aF0.26500000000000001
aF0
aa(lp1542
S'2YOE'
p1543
aI0
aI9
aI9
aI-1
aI1
aI1
aI-1
aF25.827999999999999
aF4.1230000000000002
aF0
aa(lp1544
S'4M6F'
p1545
aI0
aI0
aI0
aI-1
aI0
aI0
aI-1
aF0.044999999999999998
aF0.044999999999999998
aF0
aa(lp1546
S'4CIU'
p1547
aI0
aI0
aI0
aI-1
aI0
aI0
aI-1
aF0.123
aF0.125
aF0
aa(lp1548
S'4M7E'
p1549
aI0
aI2
aI2
aI-1
aI2
aI2
aI-1
aF6.907
aF7.2060000000000004
aF0
aa(lp1550
S'4CJ8'
p1551
aI0
aI15
aI15
aI-1
aI1
aI1
aI-1
aF77.572999999999993
aF10.802
aF0
aa(lp1552
S'3P9E'
p1553
aI0
aI8
aI8
aI-1
aI8
aI8
aI-1
aF377.80799999999999
aF280.59199999999998
aF0
aa(lp1554
S'4M9Y'
p1555
aI0
aI1
aI1
aI-1
aI1
aI1
aI-1
aF4.1079999999999997
aF4.1050000000000004
aF0
aa(lp1556
S'4U5E'
p1557
aI0
aI4
aI4
aI-1
aI2
aI2
aI-1
aF42.277999999999999
aF22.709
aF0
aa(lp1558
S'4MBJ'
p1559
aI0
aI1
aI1
aI-1
aI1
aI1
aI-1
aF1.1819999999999999
aF1.165
aF0
aa(lp1560
S'4MBR'
p1561
aI0
aI0
aI0
aI-1
aI0
aI0
aI-1
aF0.058999999999999997
aF0.058999999999999997
aF0
aa(lp1562
S'2YPT'
p1563
aI3
aI5
aI5
aI-1
aI3
aI3
aI-1
aF13.613
aF7.4279999999999999
aF0
aa(lp1564
S'4MD9'
p1565
aI0
aI14
aI14
aI-1
aI2
aI2
aI-1
aF40.258000000000003
aF13.053000000000001
aF0
aa(lp1566
S'2YQ0'
p1567
aI0
aI0
aI0
aI-1
aI0
aI0
aI-1
aF0.023
aF0.023
aF0
aa(lp1568
S'3AE7'
p1569
aI0
aI0
aI0
aI-1
aI0
aI0
aI-1
aF0.19800000000000001
aF0.20000000000000001
aF0
aa(lp1570
S'3AEC'
p1571
aI0
aI0
aI0
aI-1
aI0
aI0
aI-1
aF0.19900000000000001
aF0.20300000000000001
aF0
aa(lp1572
S'3AED'
p1573
aI0
aI0
aI0
aI-1
aI0
aI0
aI-1
aF0.20200000000000001
aF0.20100000000000001
aF0
aa(lp1574
S'3AL8'
p1575
aI0
aI0
aI0
aI-1
aI0
aI0
aI-1
aF3.3279999999999998
aF3.3420000000000001
aF0
aa(lp1576
S'3ALW'
p1577
aI0
aI0
aI0
aI-1
aI0
aI0
aI-1
aF0.087999999999999995
aF0.088999999999999996
aF0
aa(lp1578
S'3ALZ'
p1579
aI0
aI0
aI0
aI-1
aI0
aI0
aI-1
aF0.099000000000000005
aF0.099000000000000005
aF0
aa(lp1580
S'3AN2'
p1581
aI0
aI5
aI5
aI-1
aI5
aI5
aI-1
aF1.9259999999999999
aF1.665
aF0
aa(lp1582
S'3AOH'
p1583
aI0
aI13
aI13
aI-1
aI5
aI5
aI-1
aF173.703
aF96.869
aF0
aa(lp1584
S'4MEX'
p1585
aI0
aI5
aI5
aI-1
aI5
aI5
aI-1
aF94.253
aF75.224000000000004
aF0
aa(lp1586
S'4U5F'
p1587
aI0
aI4
aI4
aI-1
aI2
aI2
aI-1
aF45.448999999999998
aF22.498000000000001
aF0
aa(lp1588
S'4CL1'
p1589
aI2
aI2
aI3
aI-1
aI1
aI1
aI-1
aF2.0169999999999999
aF1.2589999999999999
aF0
aa(lp1590
S'4CL4'
p1591
aI1
aI1
aI1
aI-1
aI1
aI1
aI-1
aF0.311
aF0.311
aF0
aa(lp1592
S'4CL5'
p1593
aI1
aI1
aI1
aI-1
aI1
aI1
aI-1
aF0.32100000000000001
aF0.32300000000000001
aF0
aa(lp1594
S'4CV5'
p1595
aI2
aI2
aI2
aI-1
aI2
aI2
aI-1
aF1.6419999999999999
aF1.591
aF0
aa(lp1596
S'4CWU'
p1597
aI59
aI59
aI59
aI-1
aI0
aI0
aI-1
aF63.334000000000003
aF62.765999999999998
aF0
aa(lp1598
S'4U7P'
p1599
aI0
aI0
aI0
aI-1
aI0
aI0
aI-1
aF0.114
aF0.115
aF0
aa(lp1600
S'4UKZ'
p1601
aI0
aI0
aI0
aI-1
aI0
aI0
aI-1
aF29.702000000000002
aF29.475999999999999
aF0
aa(lp1602
S'4D0M'
p1603
aI0
aI30
aI32
aI-1
aI5
aI4
aI-1
aF21.768999999999998
aF5.4000000000000004
aF0
aa(lp1604
S'4MEY'
p1605
aI0
aI5
aI5
aI-1
aI5
aI5
aI-1
aF96.364999999999995
aF76.742000000000004
aF0
aa(lp1606
S'4D10'
p1607
aI0
aI7
aI7
aI-1
aI7
aI7
aI-1
aF39.030000000000001
aF32.747999999999998
aF0
aa(lp1608
S'4D18'
p1609
aI0
aI8
aI8
aI-1
aI8
aI8
aI-1
aF50.447000000000003
aF39.116
aF0
aa(lp1610
S'3AOI'
p1611
aI0
aI14
aI14
aI-1
aI6
aI6
aI-1
aF168.17400000000001
aF90.709999999999994
aF0
aa(lp1612
S'4D1B'
p1613
aI0
aI0
aI0
aI-1
aI0
aI0
aI-1
aF0.085999999999999993
aF0.086999999999999994
aF0
aa(lp1614
S'4D1C'
p1615
aI0
aI0
aI0
aI-1
aI0
aI0
aI-1
aF0.084000000000000005
aF0.085000000000000006
aF0
aa(lp1616
S'4D1D'
p1617
aI0
aI0
aI0
aI-1
aI0
aI0
aI-1
aF0.086999999999999994
aF0.087999999999999995
aF0
aa(lp1618
S'4MGU'
p1619
aI59
aI59
aI59
aI-1
aI0
aI0
aI-1
aF0.373
aF0.37
aF0
aa(lp1620
S'4D87'
p1621
aI0
aI1
aI1
aI-1
aI1
aI1
aI-1
aF1.0349999999999999
aF1.173
aF0
aa(lp1622
S'4MHH'
p1623
aI0
aI8
aI8
aI-1
aI4
aI4
aI-1
aF10.502000000000001
aF6.2599999999999998
aF0
aa(lp1624
S'4D8J'
p1625
aI0
aI13
aI13
aI-1
aI3
aI3
aI-1
aF5.782
aF1.9199999999999999
aF0
aa(lp1626
S'4D8Q'
p1627
aI0
aI5
aI5
aI-1
aI5
aI5
aI-1
aF365.03699999999998
aF271.197
aF0
aa(lp1628
S'4MHJ'
p1629
aI0
aI20
aI20
aI-1
aI4
aI4
aI-1
aF56.372
aF18.419
aF0
aa(lp1630
S'4MJN'
p1631
aI0
aI13
aI13
aI-1
aI1
aI1
aI-1
aF2.2549999999999999
aF0.32800000000000001
aF0
aa(lp1632
S'4MNA'
p1633
aI0
aI0
aI0
aI-1
aI0
aI0
aI-1
aF0.11700000000000001
aF0.11899999999999999
aF0
aa(lp1634
S'4MQS'
p1635
aI0
aI0
aI0
aI-1
aI0
aI0
aI-1
aF0.068000000000000005
aF0.069000000000000006
aF0
aa(lp1636
S'4MQT'
p1637
aI0
aI0
aI0
aI-1
aI0
aI0
aI-1
aF0.074999999999999997
aF0.068000000000000005
aF0
aa(lp1638
S'4MQX'
p1639
aI0
aI3
aI3
aI-1
aI3
aI3
aI-1
aF4.5750000000000002
aF4.1660000000000004
aF0
aa(lp1640
S'4MT1'
p1641
aI0
aI0
aI0
aI-1
aI0
aI0
aI-1
aF0.17299999999999999
aF0.17399999999999999
aF0
aa(lp1642
S'4MT6'
p1643
aI0
aI0
aI0
aI-1
aI0
aI0
aI-1
aF0.073999999999999996
aF0.073999999999999996
aF0
aa(lp1644
S'4MT7'
p1645
aI0
aI0
aI0
aI-1
aI0
aI0
aI-1
aF0.062
aF0.063
aF0
aa(lp1646
S'4MTP'
p1647
aI0
aI3
aI3
aI-1
aI1
aI1
aI-1
aF19.616
aF8.2889999999999997
aF0
aa(lp1648
S'4MVD'
p1649
aI0
aI7
aI7
aI-1
aI1
aI1
aI-1
aF14.016999999999999
aF3.9500000000000002
aF0
aa(lp1650
S'4MWT'
p1651
aI0
aI1
aI1
aI-1
aI1
aI1
aI-1
aF2.1520000000000001
aF2.1389999999999998
aF0
aa(lp1652
S'4MX3'
p1653
aI0
aI1
aI1
aI-1
aI1
aI1
aI-1
aF0.91900000000000004
aF0.93100000000000005
aF0
aa(lp1654
S'3AP3'
p1655
aI0
aI3
aI3
aI-1
aI1
aI1
aI-1
aF6.2949999999999999
aF3.3170000000000002
aF0
aa(lp1656
S'4MXW'
p1657
aI0
aI5
aI6
aI-1
aI5
aI4
aI-1
aF6.3460000000000001
aF4.6260000000000003
aF0
aa(lp1658
S'3AQK'
p1659
aI0
aI0
aI0
aI-1
aI0
aI0
aI-1
aF0.069000000000000006
aF0.069000000000000006
aF0
aa(lp1660
S'3AQS'
p1661
aI0
aI3
aI3
aI-1
aI1
aI1
aI-1
aF1.774
aF1.135
aF0
aa(lp1662
S'4MYT'
p1663
aI0
aI0
aI0
aI-1
aI0
aI0
aI-1
aF0.11700000000000001
aF0.12
aF0
aa(lp1664
S'3ATB'
p1665
aI0
aI0
aI0
aI-1
aI0
aI0
aI-1
aF0.035999999999999997
aF0.035999999999999997
aF0
aa(lp1666
S'4N0U'
p1667
aI0
aI0
aI0
aI-1
aI0
aI0
aI-1
aF0.223
aF0.23300000000000001
aF0
aa(lp1668
S'4N43'
p1669
aI4
aI4
aI4
aI-1
aI0
aI0
aI-1
aF0.073999999999999996
aF0.081000000000000003
aF0
aa(lp1670
S'3AUW'
p1671
aI0
aI2
aI2
aI-1
aI2
aI2
aI-1
aF0.123
aF0.123
aF0
aa(lp1672
S'4NAB'
p1673
aI0
aI0
aI0
aI-1
aI0
aI0
aI-1
aF0.155
aF0.158
aF0
aa(lp1674
S'3B0V'
p1675
aI0
aI2
aI2
aI-1
aI2
aI2
aI-1
aF0.24399999999999999
aF0.23699999999999999
aF0
aa(lp1676
S'4NCO'
p1677
aI0
aI8
aI8
aI-1
aI4
aI4
aI-1
aF5.3570000000000002
aF3.371
aF0
aa(lp1678
S'3LG8'
p1679
aI0
aI1
aI1
aI-1
aI1
aI1
aI-1
aF0.047
aF0.048000000000000001
aF0
aa(lp1680
S'3LJ5'
p1681
aI0
aI7
aI11
aI-1
aI3
aI1
aI-1
aF7.4820000000000002
aF2.9340000000000002
aF0
aa(lp1682
S'4NDL'
p1683
aI0
aI2
aI2
aI-1
aI1
aI1
aI-1
aF0.115
aF0.11799999999999999
aF0
aa(lp1684
S'4NDY'
p1685
aI0
aI20
aI17
aI-1
aI4
aI4
aI-1
aF5.234
aF1.554
aF0
aa(lp1686
S'3LOB'
p1687
aI59
aI59
aI59
aI-1
aI0
aI0
aI-1
aF2.1230000000000002
aF2.1440000000000001
aF0
aa(lp1688
S'4NE1'
p1689
aI0
aI44
aI37
aI-1
aI4
aI4
aI-1
aF43.011000000000003
aF4.2990000000000004
aF0
aa(lp1690
S'3LOH'
p1691
aI0
aI0
aI0
aI-1
aI0
aI0
aI-1
aF3.202
aF3.1869999999999998
aF0
aa(lp1692
S'3LQQ'
p1693
aI0
aI1
aI1
aI-1
aI1
aI1
aI-1
aF3.2549999999999999
aF3.2829999999999999
aF0
aa(lp1694
S'3LQR'
p1695
aI0
aI1
aI1
aI-1
aI1
aI1
aI-1
aF3.7519999999999998
aF3.5049999999999999
aF0
aa(lp1696
S'3PAW'
p1697
aI0
aI3
aI3
aI-1
aI1
aI1
aI-1
aF1.117
aF0.71199999999999997
aF0
aa(lp1698
S'3PCQ'
p1699
aI0
aI0
aI0
aI-1
aI0
aI0
aI-1
aF9.1329999999999991
aF8.8219999999999992
aF0
aa(lp1700
S'3LRB'
p1701
aI0
aI1
aI1
aI-1
aI1
aI1
aI-1
aF0.19500000000000001
aF0.20599999999999999
aF0
aa(lp1702
S'3LRC'
p1703
aI0
aI3
aI3
aI-1
aI1
aI1
aI-1
aF0.54000000000000004
aF0.45700000000000002
aF0
aa(lp1704
S'3LVG'
p1705
aI0
aI3
aI3
aI-1
aI2
aI2
aI-1
aF0.78300000000000003
aF0.73099999999999998
aF0
aa(lp1706
S'3LVH'
p1707
aI0
aI3
aI3
aI-1
aI2
aI2
aI-1
aF0.97599999999999998
aF0.93500000000000005
aF0
aa(lp1708
S'3PDS'
p1709
aI0
aI0
aI0
aI-1
aI0
aI0
aI-1
aF0.084000000000000005
aF0.085000000000000006
aF0
aa(lp1710
S'3PFQ'
p1711
aI0
aI0
aI0
aI-1
aI0
aI0
aI-1
aF0.092999999999999999
aF0.094
aF0
aa(lp1712
S'3PGW'
p1713
aI0
aI11
aI11
aI-1
aI11
aI11
aI-1
aF6.4260000000000002
aF5.0700000000000003
aF0
aa(lp1714
S'4NHG'
p1715
aI0
aI12
aI15
aI-1
aI3
aI3
aI-1
aF57.773000000000003
aF15.282
aF0
aa(lp1716
S'3PHF'
p1717
aI0
aI30
aI30
aI-1
aI2
aI2
aI-1
aF28.071999999999999
aF6.3570000000000002
aF0
aa(lp1718
S'3PJS'
p1719
aI0
aI5
aI5
aI-1
aI3
aI3
aI-1
aF2.4180000000000001
aF1.883
aF0
aa(lp1720
S'3PJZ'
p1721
aI1
aI1
aI1
aI-1
aI1
aI1
aI-1
aF0.22800000000000001
aF0.22600000000000001
aF0
aa(lp1722
S'3PPJ'
p1723
aI0
aI1
aI1
aI-1
aI1
aI1
aI-1
aF0.86799999999999999
aF0.874
aF0
aa(lp1724
S'3PRI'
p1725
aI0
aI1
aI1
aI-1
aI1
aI1
aI-1
aF0.13200000000000001
aF0.13100000000000001
aF0
aa(lp1726
S'3PRX'
p1727
aI0
aI3
aI3
aI-1
aI3
aI3
aI-1
aF1.772
aF1.76
aF0
aa(lp1728
S'3PSD'
p1729
aI0
aI1
aI1
aI-1
aI1
aI1
aI-1
aF0.87
aF0.877
aF0
aa(lp1730
S'3PTA'
p1731
aI0
aI0
aI0
aI-1
aI0
aI0
aI-1
aF0.17199999999999999
aF0.17100000000000001
aF0
aa(lp1732
S'3PVM'
p1733
aI0
aI2
aI2
aI-1
aI2
aI2
aI-1
aF1.6080000000000001
aF1.585
aF0
aa(lp1734
S'3PWY'
p1735
aI0
aI0
aI0
aI-1
aI0
aI0
aI-1
aF0.050000000000000003
aF0.050999999999999997
aF0
aa(lp1736
S'4NHH'
p1737
aI0
aI4
aI13
aI-1
aI2
aI4
aI-1
aF62.545000000000002
aF17.992000000000001
aF0
aa(lp1738
S'3PXG'
p1739
aI0
aI10
aI10
aI-1
aI2
aI2
aI-1
aF32.594999999999999
aF12.185
aF0
aa(lp1740
S'3PXI'
p1741
aI0
aI4
aI4
aI-1
aI2
aI2
aI-1
aF18.850999999999999
aF12.944000000000001
aF0
aa(lp1742
S'3PYN'
p1743
aI0
aI0
aI0
aI-1
aI0
aI0
aI-1
aF5.9569999999999999
aF5.9480000000000004
aF0
aa(lp1744
S'4NKM'
p1745
aI0
aI6
aI6
aI-1
aI2
aI2
aI-1
aF2.5880000000000001
aF1.232
aF0
aa(lp1746
S'4NL8'
p1747
aI0
aI3
aI3
aI-1
aI2
aI2
aI-1
aF11.601000000000001
aF7.8899999999999997
aF0
aa(lp1748
S'3PYO'
p1749
aI0
aI0
aI0
aI-1
aI0
aI0
aI-1
aF14.459
aF14.294
aF0
aa(lp1750
S'4NM8'
p1751
aI0
aI8
aI8
aI-1
aI4
aI4
aI-1
aF10.022
aF5.3650000000000002
aF0
aa(lp1752
S'3PYQ'
p1753
aI0
aI0
aI0
aI-1
aI0
aI0
aI-1
aF6.9240000000000004
aF6.1079999999999997
aF0
aa(lp1754
S'4NN7'
p1755
aI0
aI0
aI0
aI-1
aI0
aI0
aI-1
aF0.57899999999999996
aF0.54700000000000004
aF0
aa(lp1756
S'4NPQ'
p1757
aI0
aI19
aI19
aI-1
aI1
aI1
aI-1
aF125.755
aF15.706
aF0
aa(lp1758
S'3PYR'
p1759
aI0
aI0
aI0
aI-1
aI0
aI0
aI-1
aF13.239000000000001
aF13.268000000000001
aF0
aa(lp1760
S'3Q16'
p1761
aI0
aI4
aI4
aI-1
aI1
aI1
aI-1
aF1.6100000000000001
aF1.214
aF0
aa(lp1762
S'3Q17'
p1763
aI0
aI1
aI1
aI-1
aI1
aI1
aI-1
aF0.20899999999999999
aF0.21099999999999999
aF0
aa(lp1764
S'3Q1Q'
p1765
aI0
aI0
aI0
aI-1
aI0
aI0
aI-1
aF0.129
aF0.13
aF0
aa(lp1766
S'3Q1R'
p1767
aI0
aI0
aI0
aI-1
aI0
aI0
aI-1
aF0.129
aF0.128
aF0
aa(lp1768
S'3Q4F'
p1769
aI0
aI6
aI6
aI-1
aI2
aI2
aI-1
aF0.59399999999999997
aF0.48799999999999999
aF0
aa(lp1770
S'3Q8W'
p1771
aI0
aI1
aI1
aI-1
aI1
aI1
aI-1
aF0.36199999999999999
aF0.39200000000000002
aF0
aa(lp1772
S'3QA8'
p1773
aI0
aI7
aI6
aI-1
aI1
aI2
aI-1
aF48.637
aF9.4149999999999991
aF0
aa(lp1774
S'3QAZ'
p1775
aI0
aI33
aI33
aI-1
aI3
aI3
aI-1
aF119.47499999999999
aF21.193999999999999
aF0
aa(lp1776
S'4NQK'
p1777
aI0
aI8
aI8
aI-1
aI2
aI2
aI-1
aF1.6499999999999999
aF0.93300000000000005
aF0
aa(lp1778
S'4D8R'
p1779
aI0
aI3
aI3
aI-1
aI3
aI3
aI-1
aF397.33699999999999
aF401.387
aF0
aa(lp1780
S'3QBN'
p1781
aI0
aI0
aI0
aI-1
aI0
aI0
aI-1
aF0.043999999999999997
aF0.044999999999999998
aF0
aa(lp1782
S'3QD6'
p1783
aI0
aI8
aI8
aI-1
aI2
aI2
aI-1
aF3.141
aF1.0189999999999999
aF0
aa(lp1784
S'3QIL'
p1785
aI0
aI22
aI22
aI-1
aI2
aI2
aI-1
aF7.0839999999999996
aF1.23
aF0
aa(lp1786
S'3QJO'
p1787
aI0
aI1
aI1
aI-1
aI1
aI1
aI-1
aF0.245
aF0.24299999999999999
aF0
aa(lp1788
S'3QLV'
p1789
aI0
aI8
aI8
aI-1
aI2
aI2
aI-1
aF42.174999999999997
aF14.670999999999999
aF0
aa(lp1790
S'3QMU'
p1791
aI0
aI6
aI11
aI-1
aI3
aI1
aI-1
aF64.825999999999993
aF8.4160000000000004
aF0
aa(lp1792
S'3QMZ'
p1793
aI0
aI2
aI2
aI-1
aI2
aI2
aI-1
aF1.486
aF1.4850000000000001
aF0
aa(lp1794
S'3QPR'
p1795
aI4
aI4
aI4
aI-1
aI0
aI0
aI-1
aF0.16500000000000001
aF0.16700000000000001
aF0
aa(lp1796
S'4D9J'
p1797
aI0
aI11
aI11
aI-1
aI1
aI1
aI-1
aF7.1870000000000003
aF2.5619999999999998
aF0
aa(lp1798
S'4DB4'
p1799
aI0
aI4
aI4
aI-1
aI2
aI2
aI-1
aF0.51000000000000001
aF0.58599999999999997
aF0
aa(lp1800
S'4DDI'
p1801
aI0
aI7
aI7
aI-1
aI2
aI2
aI-1
aF1.105
aF0.80900000000000005
aF0
aa(lp1802
S'4DDW'
p1803
aI0
aI0
aI0
aI-1
aI0
aI0
aI-1
aF0.29899999999999999
aF0.30499999999999999
aF0
aa(lp1804
S'4DDX'
p1805
aI0
aI1
aI1
aI-1
aI1
aI1
aI-1
aF0.88200000000000001
aF0.78700000000000003
aF0
aa(lp1806
S'4DFS'
p1807
aI0
aI1
aI1
aI-1
aI1
aI1
aI-1
aF1.325
aF1.383
aF0
aa(lp1808
S'4DG7'
p1809
aI0
aI7
aI7
aI-1
aI1
aI1
aI-1
aF21.084
aF4.7460000000000004
aF0
aa(lp1810
S'4DIN'
p1811
aI0
aI0
aI0
aI-1
aI0
aI0
aI-1
aF2.1760000000000002
aF2.0680000000000001
aF0
aa(lp1812
S'4DIV'
p1813
aI0
aI22
aI22
aI-1
aI2
aI2
aI-1
aF155.65299999999999
aF18.969999999999999
aF0
aa(lp1814
S'4DIW'
p1815
aI0
aI50
aI53
aI-1
aI2
aI1
aI-1
aF881.548
aF21.077000000000002
aF0
aa(lp1816
S'4DJE'
p1817
aI0
aI3
aI3
aI-1
aI3
aI3
aI-1
aF2.4239999999999999
aF2.4860000000000002
aF0
aa(lp1818
S'4DK0'
p1819
aI0
aI0
aI0
aI-1
aI0
aI0
aI-1
aF0.084000000000000005
aF0.085000000000000006
aF0
aa(lp1820
S'4DNR'
p1821
aI0
aI1
aI1
aI-1
aI1
aI1
aI-1
aF2.1219999999999999
aF2.1200000000000001
aF0
aa(lp1822
S'4DOP'
p1823
aI0
aI1
aI1
aI-1
aI1
aI1
aI-1
aF2.1360000000000001
aF2.1070000000000002
aF0
aa(lp1824
S'4DR1'
p1825
aI0
aI0
aI0
aI-1
aI0
aI0
aI-1
aF8.8960000000000008
aF9.1349999999999998
aF0
aa(lp1826
S'4DR4'
p1827
aI0
aI0
aI0
aI-1
aI0
aI0
aI-1
aF8.843
aF8.7899999999999991
aF0
aa(lp1828
S'4DR7'
p1829
aI0
aI0
aI0
aI-1
aI0
aI0
aI-1
aF9.4060000000000006
aF9.5009999999999994
aF0
aa.