(lp1
(lp2
F2.2999999999999998
aF1.8
aa(lp3
F2.8999999999999999
aF2.7000000000000002
aa(lp4
F10.300000000000001
aF13.5
aa(lp5
F14.800000000000001
aF13.1
aa(lp6
F1.6000000000000001
aF0.90000000000000002
aa(lp7
F2.1000000000000001
aF1.3999999999999999
aa(lp8
F8.3000000000000007
aF7.5
aa(lp9
F6.0999999999999996
aF7
aa(lp10
F25.5
aF26
aa(lp11
F5.5999999999999996
aF4.7000000000000002
aa(lp12
F4.0999999999999996
aF2.2999999999999998
aa(lp13
F4.2000000000000002
aF2.5
aa(lp14
F14.199999999999999
aF13.4
aa(lp15
F5.7000000000000002
aF6.2999999999999998
aa(lp16
F8.3000000000000007
aF11.1
aa(lp17
F4.2999999999999998
aF5.4000000000000004
aa(lp18
F1.5
aF0.90000000000000002
aa(lp19
F5.5
aF2.5
aa(lp20
F3.1000000000000001
aF2.6000000000000001
aa(lp21
F1.8
aF0
aa(lp22
F9.5
aF11.6
aa(lp23
F4.5999999999999996
aF4
aa(lp24
F17.300000000000001
aF18.100000000000001
aa(lp25
F6
aF8.4000000000000004
aa(lp26
F6.7999999999999998
aF5.9000000000000004
aa(lp27
F15.1
aF11.699999999999999
aa(lp28
F4.2999999999999998
aF5.5999999999999996
aa(lp29
F3.3999999999999999
aF4.0999999999999996
aa(lp30
F4.7000000000000002
aF6.5999999999999996
aa(lp31
F14.9
aF15.9
aa(lp32
F2.5
aF1.3
aa(lp33
F9.0999999999999996
aF19.899999999999999
aa(lp34
F16.800000000000001
aF36.200000000000003
aa(lp35
F24.399999999999999
aF28.800000000000001
aa(lp36
F3.8999999999999999
aF4.9000000000000004
aa(lp37
F2.1000000000000001
aF2.1000000000000001
aa(lp38
F1.7
aF2.2000000000000002
aa(lp39
F8.0999999999999996
aF7.4000000000000004
aa(lp40
F1.8999999999999999
aF1.6000000000000001
aa(lp41
F11
aF13.9
aa(lp42
F17.399999999999999
aF16.899999999999999
aa(lp43
F2.6000000000000001
aF1.8999999999999999
aa(lp44
F4.7000000000000002
aF2.5
aa(lp45
F8
aF7.5999999999999996
aa(lp46
F11.699999999999999
aF13.5
aa(lp47
F17.399999999999999
aF16.600000000000001
aa(lp48
F3.5
aF2.7000000000000002
aa(lp49
F10.5
aF15.199999999999999
aa(lp50
F4.7000000000000002
aF3.1000000000000001
aa(lp51
F1.5
aF1.8999999999999999
aa(lp52
F5.5
aF3.7000000000000002
aa(lp53
F2.2000000000000002
aF2.3999999999999999
aa(lp54
F2.7000000000000002
aF2.7999999999999998
aa(lp55
F5.9000000000000004
aF6.2999999999999998
aa(lp56
F7.5999999999999996
aF8.6999999999999993
aa(lp57
F11.199999999999999
aF11.699999999999999
aa(lp58
F6.0999999999999996
aF7.7999999999999998
aa(lp59
F2.3999999999999999
aF1.7
aa(lp60
F12.199999999999999
aF9.1999999999999993
aa(lp61
F0
aF0
aa(lp62
F21.199999999999999
aF32.100000000000001
aa(lp63
F4.7999999999999998
aF2.2000000000000002
aa(lp64
F4.5
aF0.80000000000000004
aa(lp65
F7.2999999999999998
aF7.2999999999999998
aa(lp66
F4.5999999999999996
aF4.4000000000000004
aa(lp67
F6.7999999999999998
aF3.7999999999999998
aa(lp68
F5.4000000000000004
aF6.5999999999999996
aa(lp69
F5.5
aF6.7000000000000002
aa(lp70
F0.69999999999999996
aF1
aa(lp71
F3
aF2.6000000000000001
aa(lp72
F4.7999999999999998
aF1.1000000000000001
aa(lp73
F15.300000000000001
aF15
aa(lp74
F7.2999999999999998
aF5.5
aa(lp75
F6.9000000000000004
aF5.7000000000000002
aa(lp76
F2.3999999999999999
aF2.2999999999999998
aa(lp77
F6.5999999999999996
aF7.4000000000000004
aa(lp78
F4.0999999999999996
aF3.8999999999999999
aa(lp79
F4.9000000000000004
aF4.2999999999999998
aa(lp80
F8
aF8
aa(lp81
F13.800000000000001
aF9.8000000000000007
aa(lp82
F4.5
aF4.7999999999999998
aa(lp83
F1
aF1.1000000000000001
aa(lp84
F2.6000000000000001
aF2.7000000000000002
aa(lp85
F4.9000000000000004
aF4.2000000000000002
aa(lp86
F9.4000000000000004
aF15.5
aa(lp87
F8.5999999999999996
aF6.0999999999999996
aa(lp88
F9.3000000000000007
aF9.5
aa(lp89
F8.1999999999999993
aF7.4000000000000004
aa(lp90
F7.2999999999999998
aF8.1999999999999993
aa(lp91
F0.29999999999999999
aF0.20000000000000001
aa(lp92
F4.5
aF4.2000000000000002
aa(lp93
F1.2
aF1.8
aa(lp94
F11.9
aF10.9
aa(lp95
F14
aF18
aa(lp96
F5.7999999999999998
aF4.0999999999999996
aa(lp97
F10.199999999999999
aF9.9000000000000004
aa(lp98
F2.6000000000000001
aF2.7000000000000002
aa(lp99
F18
aF22
aa(lp100
F30.199999999999999
aF10.9
aa(lp101
F3
aF3.8999999999999999
aa(lp102
F1.2
aF0.59999999999999998
aa(lp103
F3.7999999999999998
aF2.7999999999999998
aa(lp104
F2.2000000000000002
aF0.20000000000000001
aa(lp105
F2.6000000000000001
aF6.0999999999999996
aa(lp106
F7.7000000000000002
aF7.2000000000000002
aa(lp107
F5.2999999999999998
aF6.2999999999999998
aa(lp108
F3.6000000000000001
aF1.3999999999999999
aa(lp109
F6.7999999999999998
aF5.4000000000000004
aa(lp110
F6.2999999999999998
aF5.7000000000000002
aa(lp111
F14.800000000000001
aF15
aa(lp112
F8.5
aF5.2000000000000002
aa(lp113
F2.1000000000000001
aF2.2000000000000002
aa(lp114
F10.699999999999999
aF7.5999999999999996
aa(lp115
F11.4
aF17.300000000000001
aa(lp116
F2.2999999999999998
aF2.2999999999999998
aa(lp117
F1.5
aF1.2
aa(lp118
F6.5
aF4.0999999999999996
aa(lp119
F5.2000000000000002
aF1.8
aa(lp120
F10
aF9.5999999999999996
aa(lp121
F2.6000000000000001
aF1.2
aa(lp122
F8.4000000000000004
aF7.5
aa(lp123
F14.199999999999999
aF11.6
aa(lp124
F6.7999999999999998
aF6.5999999999999996
aa(lp125
F27.199999999999999
aF21.600000000000001
aa(lp126
F7.9000000000000004
aF10.300000000000001
aa(lp127
F1.8
aF2.8999999999999999
aa(lp128
F4.0999999999999996
aF4.0999999999999996
aa(lp129
F6.2000000000000002
aF4.2999999999999998
aa(lp130
F5.5999999999999996
aF6
aa(lp131
F7.7999999999999998
aF10.199999999999999
aa(lp132
F2.2999999999999998
aF3.1000000000000001
aa(lp133
F3
aF2.2000000000000002
aa(lp134
F10.699999999999999
aF11.9
aa(lp135
F11.300000000000001
aF13.6
aa(lp136
F2.1000000000000001
aF3
aa(lp137
F3.3999999999999999
aF3.6000000000000001
aa(lp138
F9.5
aF10.9
aa(lp139
F5.9000000000000004
aF4.5999999999999996
aa(lp140
F1.1000000000000001
aF2.1000000000000001
aa(lp141
F1.5
aF1.8999999999999999
aa(lp142
F41.799999999999997
aF0
aa(lp143
F9.1999999999999993
aF10.4
aa(lp144
F3.8999999999999999
aF4.0999999999999996
aa(lp145
F4.7000000000000002
aF4.7999999999999998
aa(lp146
F6.5
aF5.5999999999999996
aa(lp147
F4.4000000000000004
aF4.2999999999999998
aa(lp148
F8.5999999999999996
aF10.6
aa(lp149
F4.0999999999999996
aF6.7999999999999998
aa(lp150
F14.300000000000001
aF13.199999999999999
aa(lp151
F11
aF10.699999999999999
aa(lp152
F7.4000000000000004
aF7.0999999999999996
aa(lp153
F4.2000000000000002
aF1.2
aa(lp154
F3
aF3
aa(lp155
F7.5
aF7.7000000000000002
aa(lp156
F4.5999999999999996
aF8.5
aa(lp157
F24
aF36.299999999999997
aa(lp158
F13.199999999999999
aF11.699999999999999
aa(lp159
F3.2000000000000002
aF5.2000000000000002
aa(lp160
F4.5999999999999996
aF4.2999999999999998
aa(lp161
F4.7999999999999998
aF4.7000000000000002
aa(lp162
F1.7
aF0.90000000000000002
aa(lp163
F5
aF4.4000000000000004
aa(lp164
F10.1
aF9.5999999999999996
aa(lp165
F2.3999999999999999
aF1.3
aa(lp166
F3.7999999999999998
aF3.5
aa(lp167
F5.5
aF3.8999999999999999
aa(lp168
F11.300000000000001
aF7.9000000000000004
aa(lp169
F2
aF1.8999999999999999
aa(lp170
F13.699999999999999
aF22.300000000000001
aa(lp171
F2.7000000000000002
aF2
aa(lp172
F1.3999999999999999
aF2
aa(lp173
F8.4000000000000004
aF12.9
aa(lp174
F4.5
aF7.0999999999999996
aa(lp175
F2.2999999999999998
aF2.8999999999999999
aa(lp176
F12.199999999999999
aF15.300000000000001
aa(lp177
F5.2000000000000002
aF3
aa(lp178
F13.9
aF21.600000000000001
aa(lp179
F9.8000000000000007
aF8.0999999999999996
aa(lp180
F5.0999999999999996
aF5.7999999999999998
aa(lp181
F5
aF4
aa(lp182
F3.3999999999999999
aF2.3999999999999999
aa(lp183
F15.5
aF17.399999999999999
aa(lp184
F1.5
aF1.5
aa(lp185
F6
aF5.5999999999999996
aa(lp186
F1.3999999999999999
aF1.2
aa(lp187
F5.0999999999999996
aF5.7000000000000002
aa(lp188
F0.59999999999999998
aF1.2
aa(lp189
F4.2000000000000002
aF4.9000000000000004
aa(lp190
F18.399999999999999
aF25.300000000000001
aa(lp191
F0
aF0
aa(lp192
F3
aF0.59999999999999998
aa(lp193
F13.699999999999999
aF13.6
aa(lp194
F2.8999999999999999
aF2.6000000000000001
aa(lp195
F12.800000000000001
aF11.699999999999999
aa(lp196
F3.7999999999999998
aF2.8999999999999999
aa(lp197
F2.8999999999999999
aF3.8999999999999999
aa(lp198
F1.6000000000000001
aF1.3999999999999999
aa(lp199
F5
aF5
aa(lp200
F3.5
aF2.6000000000000001
aa(lp201
F4.0999999999999996
aF3.2999999999999998
aa(lp202
F17.199999999999999
aF21.399999999999999
aa(lp203
F17.199999999999999
aF18.300000000000001
aa(lp204
F19.600000000000001
aF27.100000000000001
aa(lp205
F6.2999999999999998
aF6.2000000000000002
aa(lp206
F5.7000000000000002
aF5.4000000000000004
aa(lp207
F4.2000000000000002
aF2.5
aa(lp208
F10.199999999999999
aF8.3000000000000007
aa(lp209
F12.4
aF13.9
aa(lp210
F1.8999999999999999
aF0.69999999999999996
aa(lp211
F4.5
aF3.6000000000000001
aa(lp212
F13
aF18
aa(lp213
F1.3999999999999999
aF0.69999999999999996
aa(lp214
F2.1000000000000001
aF0.40000000000000002
aa(lp215
F14
aF24
aa(lp216
F6.4000000000000004
aF3.6000000000000001
aa(lp217
F7.5999999999999996
aF7.5
aa(lp218
F0.29999999999999999
aF0.90000000000000002
aa(lp219
F2.5
aF1.5
aa(lp220
F8.9000000000000004
aF16.399999999999999
aa(lp221
F5.2999999999999998
aF6
aa(lp222
F0.59999999999999998
aF0.80000000000000004
aa(lp223
F2.6000000000000001
aF2.1000000000000001
aa(lp224
F2.6000000000000001
aF2.3999999999999999
aa(lp225
F2.1000000000000001
aF2.6000000000000001
aa(lp226
F5.7000000000000002
aF4.5
aa(lp227
F9.5999999999999996
aF7.5999999999999996
aa(lp228
F3.2000000000000002
aF1.6000000000000001
aa(lp229
F1.3999999999999999
aF4.7000000000000002
aa(lp230
F16.399999999999999
aF19.199999999999999
aa(lp231
F16.199999999999999
aF17.300000000000001
aa(lp232
F3.7999999999999998
aF3.5
aa(lp233
F8.6999999999999993
aF8.1999999999999993
aa(lp234
F6.2000000000000002
aF6.9000000000000004
aa(lp235
F13.6
aF16.600000000000001
aa(lp236
F3.7999999999999998
aF4.7999999999999998
aa(lp237
F2.8999999999999999
aF2.2000000000000002
aa(lp238
F5.0999999999999996
aF4.9000000000000004
aa(lp239
F1.8
aF1.1000000000000001
aa(lp240
F1
aF1.8
aa(lp241
F1.7
aF1.1000000000000001
aa(lp242
F4.5
aF8.8000000000000007
aa(lp243
F2.2000000000000002
aF3.1000000000000001
aa(lp244
F3.2000000000000002
aF4.5999999999999996
aa(lp245
F4.7999999999999998
aF2.8999999999999999
aa(lp246
F9.8000000000000007
aF9.6999999999999993
aa(lp247
F1.5
aF1.5
aa(lp248
F5.0999999999999996
aF5.7999999999999998
aa(lp249
F4
aF3.2999999999999998
aa(lp250
F6.5
aF7.2999999999999998
aa(lp251
F5.7000000000000002
aF3.5
aa(lp252
F11.199999999999999
aF13.300000000000001
aa(lp253
F5.7000000000000002
aF4.2999999999999998
aa(lp254
F8.4000000000000004
aF4.4000000000000004
aa(lp255
F2.8999999999999999
aF2
aa(lp256
F1.5
aF1.5
aa(lp257
F4.9000000000000004
aF5.2000000000000002
aa(lp258
F4.7000000000000002
aF5.5999999999999996
aa(lp259
F8.5999999999999996
aF6.9000000000000004
aa(lp260
F5
aF3.5
aa(lp261
F0.59999999999999998
aF1.3999999999999999
aa(lp262
F6
aF3.2000000000000002
aa(lp263
F12.300000000000001
aF11.6
aa(lp264
F4.7999999999999998
aF5
aa(lp265
F5
aF1.8
aa(lp266
F1
aF0.29999999999999999
aa(lp267
F2.5
aF0.90000000000000002
aa(lp268
F7.2000000000000002
aF13.800000000000001
aa(lp269
F1.6000000000000001
aF4.0999999999999996
aa(lp270
F2.7000000000000002
aF1.2
aa(lp271
F8
aF5.5
aa(lp272
F4.7000000000000002
aF5.2999999999999998
aa(lp273
F4.5999999999999996
aF6.2000000000000002
aa(lp274
F4.2000000000000002
aF3.6000000000000001
aa(lp275
F4.2000000000000002
aF5.5999999999999996
aa(lp276
F3.5
aF4.5
aa(lp277
F3.3999999999999999
aF2.7999999999999998
aa(lp278
F1
aF1.1000000000000001
aa(lp279
F7.9000000000000004
aF7.2000000000000002
aa(lp280
F15.800000000000001
aF25.300000000000001
aa(lp281
F9
aF17.399999999999999
aa(lp282
F5.4000000000000004
aF6.5
aa(lp283
F6.7000000000000002
aF5.4000000000000004
aa(lp284
F3.2000000000000002
aF1.8
aa(lp285
F9.3000000000000007
aF10.4
aa(lp286
F9.4000000000000004
aF10.199999999999999
aa(lp287
F8.1999999999999993
aF11.199999999999999
aa(lp288
F5.2999999999999998
aF3.1000000000000001
aa(lp289
F2.6000000000000001
aF2.5
aa(lp290
F10.800000000000001
aF5.5
aa(lp291
F3
aF2.7999999999999998
aa(lp292
F2.3999999999999999
aF1.3
aa(lp293
F3.2999999999999998
aF2.6000000000000001
aa(lp294
F2.2999999999999998
aF2.2000000000000002
aa(lp295
F7.7999999999999998
aF4
aa(lp296
F16.399999999999999
aF21.300000000000001
aa(lp297
F2.3999999999999999
aF3.2999999999999998
aa(lp298
F6.5999999999999996
aF6.5
aa(lp299
F8.9000000000000004
aF18.399999999999999
aa(lp300
F4.2999999999999998
aF4.7999999999999998
aa(lp301
F5.2999999999999998
aF4.9000000000000004
aa(lp302
F0
aF0
aa(lp303
F17.699999999999999
aF25.399999999999999
aa(lp304
F9.6999999999999993
aF8.6999999999999993
aa(lp305
F3.3999999999999999
aF5
aa(lp306
F3.7999999999999998
aF7.7000000000000002
aa(lp307
F2.2999999999999998
aF1.6000000000000001
aa(lp308
F3
aF2.2000000000000002
aa(lp309
F2.1000000000000001
aF1.1000000000000001
aa(lp310
F2.2999999999999998
aF1
aa(lp311
F4.9000000000000004
aF9.3000000000000007
aa(lp312
F22
aF20.199999999999999
aa(lp313
F11.1
aF26.399999999999999
aa(lp314
F2.1000000000000001
aF4.4000000000000004
aa(lp315
F3.1000000000000001
aF2.7999999999999998
aa(lp316
F18.300000000000001
aF20.100000000000001
aa(lp317
F3.2000000000000002
aF2.2000000000000002
aa(lp318
F6.5
aF5.5999999999999996
aa(lp319
F14.9
aF17.199999999999999
aa(lp320
F5.5999999999999996
aF2.1000000000000001
aa(lp321
F1.7
aF1.7
aa(lp322
F3.2000000000000002
aF3.7999999999999998
aa(lp323
F2.7999999999999998
aF1.8
aa(lp324
F4.2999999999999998
aF5.4000000000000004
aa(lp325
F5.7999999999999998
aF4.5
aa(lp326
F8
aF7.7999999999999998
aa(lp327
F1.3999999999999999
aF1.3999999999999999
aa(lp328
F10.699999999999999
aF12.800000000000001
aa(lp329
F5.2999999999999998
aF8.9000000000000004
aa(lp330
F3.5
aF5
aa(lp331
F19.600000000000001
aF25.300000000000001
aa(lp332
F4.5
aF5.7000000000000002
aa(lp333
F6.2000000000000002
aF5
aa(lp334
F10.1
aF6.7999999999999998
aa(lp335
F5.9000000000000004
aF3.6000000000000001
aa(lp336
F0
aF0
aa(lp337
F1.7
aF1.2
aa(lp338
F16.399999999999999
aF21.600000000000001
aa(lp339
F2.2999999999999998
aF2.2000000000000002
aa(lp340
F4.5999999999999996
aF6
aa(lp341
F2.7999999999999998
aF2.8999999999999999
aa(lp342
F3
aF3
aa(lp343
F1.8999999999999999
aF1.3
aa(lp344
F11.300000000000001
aF10.4
aa(lp345
F3.5
aF2.2999999999999998
aa(lp346
F5.5
aF5.7999999999999998
aa(lp347
F1.3
aF1.7
aa(lp348
F9.3000000000000007
aF9.5
aa(lp349
F10.1
aF13.6
aa(lp350
F10.9
aF9.9000000000000004
aa(lp351
F0.5
aF1.8999999999999999
aa(lp352
F4.5999999999999996
aF2.3999999999999999
aa(lp353
F4.0999999999999996
aF4.7999999999999998
aa(lp354
F3.1000000000000001
aF2.7000000000000002
aa(lp355
F16.199999999999999
aF6.2999999999999998
aa(lp356
F1.8
aF1.5
aa(lp357
F19.600000000000001
aF32.5
aa(lp358
F16.199999999999999
aF13.199999999999999
aa(lp359
F2.6000000000000001
aF4.5999999999999996
aa(lp360
F8
aF7.2000000000000002
aa(lp361
F3.5
aF3.7999999999999998
aa(lp362
F11.199999999999999
aF12.800000000000001
aa(lp363
F8
aF8
aa(lp364
F4.0999999999999996
aF3.3999999999999999
aa(lp365
F9.0999999999999996
aF11
aa(lp366
F3
aF0.80000000000000004
aa(lp367
F26
aF33.299999999999997
aa(lp368
F2
aF0.5
aa(lp369
F5
aF6.0999999999999996
aa(lp370
F6.2000000000000002
aF6.2000000000000002
aa(lp371
F1.8999999999999999
aF1.3999999999999999
aa(lp372
F8.6999999999999993
aF9.0999999999999996
aa(lp373
F2.6000000000000001
aF2.6000000000000001
aa(lp374
F3.3999999999999999
aF2
aa(lp375
F0.40000000000000002
aF0.80000000000000004
aa(lp376
F2.2000000000000002
aF2.7999999999999998
aa(lp377
F1.8999999999999999
aF0.20000000000000001
aa(lp378
F3.7000000000000002
aF3.2000000000000002
aa(lp379
F8.3000000000000007
aF10.4
aa(lp380
F6.7000000000000002
aF6.7000000000000002
aa(lp381
F6.0999999999999996
aF4.4000000000000004
aa(lp382
F1.6000000000000001
aF1.3999999999999999
aa(lp383
F2.3999999999999999
aF3
aa(lp384
F33.399999999999999
aF80.200000000000003
aa(lp385
F28.600000000000001
aF17.800000000000001
aa(lp386
F6
aF5.4000000000000004
aa(lp387
F3
aF2
aa(lp388
F11.9
aF15.800000000000001
aa(lp389
F3.7999999999999998
aF1.8999999999999999
aa(lp390
F6.4000000000000004
aF7
aa(lp391
F5.7999999999999998
aF2.2000000000000002
aa(lp392
F36.299999999999997
aF41.200000000000003
aa(lp393
F2.2000000000000002
aF1.2
aa(lp394
F5.2999999999999998
aF8.1999999999999993
aa(lp395
F1.8
aF1.2
aa(lp396
F3.2000000000000002
aF3.2999999999999998
aa(lp397
F5.2000000000000002
aF5.0999999999999996
aa(lp398
F6.2999999999999998
aF12.699999999999999
aa(lp399
F15.6
aF24.5
aa(lp400
F16.100000000000001
aF26.800000000000001
aa(lp401
F7.0999999999999996
aF11.6
aa(lp402
F4.0999999999999996
aF4.7000000000000002
aa(lp403
F8.9000000000000004
aF10.800000000000001
aa(lp404
F6.7000000000000002
aF4.2000000000000002
aa(lp405
F5
aF7.0999999999999996
aa(lp406
F7
aF2.6000000000000001
aa(lp407
F5.2999999999999998
aF5.7999999999999998
aa(lp408
F6.9000000000000004
aF7.5999999999999996
aa(lp409
F13.1
aF11.6
aa(lp410
F6.4000000000000004
aF8.4000000000000004
aa(lp411
F4.9000000000000004
aF3.5
aa(lp412
F9.5999999999999996
aF12.800000000000001
aa(lp413
F13.6
aF22
aa(lp414
F8.9000000000000004
aF4.2999999999999998
aa(lp415
F7
aF5.2999999999999998
aa(lp416
F6.7000000000000002
aF8.5
aa(lp417
F9.9000000000000004
aF9.4000000000000004
aa(lp418
F9.6999999999999993
aF13.1
aa(lp419
F4.2000000000000002
aF5.2999999999999998
aa(lp420
F8
aF5.7999999999999998
aa(lp421
F3.7000000000000002
aF3.7000000000000002
aa(lp422
F9.5
aF12.9
aa(lp423
F4.4000000000000004
aF5.7000000000000002
aa(lp424
F12.4
aF3.7000000000000002
aa(lp425
F3.8999999999999999
aF2.2000000000000002
aa(lp426
F12.4
aF15.199999999999999
aa(lp427
F8.8000000000000007
aF7.7000000000000002
aa(lp428
F4.0999999999999996
aF3.5
aa(lp429
F7.7000000000000002
aF8.0999999999999996
aa(lp430
F7.4000000000000004
aF3.2000000000000002
aa(lp431
F6.2999999999999998
aF7
aa(lp432
F1.8999999999999999
aF1.3
aa(lp433
F2.5
aF6.0999999999999996
aa(lp434
F11.1
aF14.300000000000001
aa(lp435
F2.5
aF1.3
aa(lp436
F4
aF3.3999999999999999
aa(lp437
F6.2999999999999998
aF7.7999999999999998
aa(lp438
F7.7000000000000002
aF9.0999999999999996
aa(lp439
F3.5
aF4.9000000000000004
aa(lp440
F3
aF1.1000000000000001
aa(lp441
F3.6000000000000001
aF3.3999999999999999
aa(lp442
F2.3999999999999999
aF1.2
aa(lp443
F8.9000000000000004
aF9.6999999999999993
aa(lp444
F4.0999999999999996
aF4.7000000000000002
aa(lp445
F3.2000000000000002
aF2.2000000000000002
aa(lp446
F11.300000000000001
aF7.9000000000000004
aa(lp447
F5.4000000000000004
aF5.0999999999999996
aa(lp448
F4.5
aF4.9000000000000004
aa(lp449
F0.90000000000000002
aF1.2
aa(lp450
F2.2000000000000002
aF1.2
aa(lp451
F8.6999999999999993
aF12.5
aa(lp452
F6.5999999999999996
aF3.7000000000000002
aa(lp453
F3
aF3
aa(lp454
F4.5999999999999996
aF4.9000000000000004
aa(lp455
F7.4000000000000004
aF8.5999999999999996
aa(lp456
F4.5999999999999996
aF3
aa(lp457
F0.5
aF0
aa(lp458
F13.5
aF14.6
aa(lp459
F14.5
aF18.300000000000001
aa(lp460
F6.9000000000000004
aF5.5999999999999996
aa(lp461
F13.4
aF11.9
aa(lp462
F24.899999999999999
aF34.100000000000001
aa(lp463
F3
aF6.2999999999999998
aa(lp464
F3.3999999999999999
aF5.7000000000000002
aa(lp465
F1.8999999999999999
aF2
aa(lp466
F9.9000000000000004
aF14.9
aa(lp467
F4.7000000000000002
aF3.2000000000000002
aa(lp468
F14.5
aF14
aa(lp469
F3.7000000000000002
aF2.7999999999999998
aa(lp470
F17.5
aF17.5
aa(lp471
F1.8
aF0.90000000000000002
aa(lp472
F9.1999999999999993
aF8
aa(lp473
F16.100000000000001
aF15.1
aa(lp474
F9.3000000000000007
aF7.7999999999999998
aa.