(lp1
(lp2
F6.2999999999999998
aF4.7999999999999998
aF12.6861
aF15.3687
aS'1l6f'
p3
aa(lp4
F4.2000000000000002
aF3.8999999999999999
aF6.2693000000000003
aF6.6376999999999997
aS'1qui'
p5
aa(lp6
F19
aF18.600000000000001
aF5.3167999999999997
aF4.2573999999999996
aS'2aqu'
p7
aa(lp8
F10.9
aF11
aF3.5055000000000001
aF2.4807999999999999
aS'1q7a'
p9
aa(lp10
F23.899999999999999
aF20.300000000000001
aF8.8160000000000007
aF8.7103000000000002
aS'2ziw'
p11
aa(lp12
F12.4
aF6.2999999999999998
aF27.539400000000001
aF26.720099999999999
aS'3v8x'
p13
aa(lp14
F4.9000000000000004
aF4
aF8.0554000000000006
aF7.5343
aS'2aq2'
p15
aa(lp16
F0.5
aF0.5
aF6.9809999999999999
aF5.2039
aS'3ege'
p17
aa(lp18
F12.5
aF9.9000000000000004
aF9.2667000000000002
aF8.8754000000000008
aS'1jvy'
p19
aa(lp20
F2.2000000000000002
aF2.5
aF12.6136
aF17.575399999999998
aS'4bcc'
p21
aa(lp22
F2.2999999999999998
aF2.2999999999999998
aF37.729900000000001
aF35.167900000000003
aS'2fxj'
p23
aa(lp24
F3.7999999999999998
aF4.5
aF16.732600000000001
aF23.150400000000001
aS'2o74'
p25
aa(lp26
F29.800000000000001
aF25.899999999999999
aF34.520000000000003
aF39.344999999999999
aS'3u60'
p27
aa(lp28
F17.600000000000001
aF13.6
aF9.5838999999999999
aF10.510199999999999
aS'2ywg'
p29
aa(lp30
F2.6000000000000001
aF3
aF4.5648999999999997
aF3.1669
aS'1gb3'
p31
aa(lp32
F0.90000000000000002
aF0.90000000000000002
aF4.5789
aF3.1006
aS'4hxn'
p33
aa(lp34
F7.2999999999999998
aF4.9000000000000004
aF24.430599999999998
aF25.971599999999999
aS'2po6'
p35
aa(lp36
F1.3
aF1.8999999999999999
aF10.187200000000001
aF6.7228000000000003
aS'1nki'
p37
aa(lp38
F20.100000000000001
aF18.300000000000001
aF5.7102000000000004
aF5.7874999999999996
aS'2pae'
p39
aa(lp40
F1.1000000000000001
aF0.5
aF7.3811
aF6.1279000000000003
aS'2a84'
p41
aa(lp42
F1.3
aF1.2
aF9.7447999999999997
aF11.6873
aS'1s5w'
p43
aa(lp44
F3.3999999999999999
aF1.8999999999999999
aF6.7615999999999996
aF7.1749000000000001
aS'3q54'
p45
aa(lp46
F8.6999999999999993
aF9.0999999999999996
aF19.1708
aF19.987300000000001
aS'1lk7'
p47
aa(lp48
F10.1
aF8.8000000000000007
aF31.919699999999999
aF44.197299999999998
aS'3our'
p49
aa(lp50
F1
aF0.20000000000000001
aF6.0622999999999996
aF5.9515000000000002
aS'1g1f'
p51
aa(lp52
F30.300000000000001
aF8.1999999999999993
aF27.9573
aF26.578099999999999
aS'1wg1'
p53
aa(lp54
F1.5
aF1.5
aF16.334299999999999
aF15.3895
aS'4bl0'
p55
aa(lp56
F4.4000000000000004
aF3.1000000000000001
aF6.7382999999999997
aF5.673
aS'3rm3'
p57
aa(lp58
F4.4000000000000004
aF7.5
aF13.087199999999999
aF21.121700000000001
aS'2jyk'
p59
aa(lp60
F2.3999999999999999
aF1.6000000000000001
aF9.4989000000000008
aF9.5442
aS'3p84'
p61
aa(lp62
F6.2999999999999998
aF5
aF7.3364000000000003
aF6.7458999999999998
aS'3vm8'
p63
aa(lp64
F40
aF32.5
aF6.1900000000000004
aF6.9189999999999996
aS'1abi'
p65
aa(lp66
F23.399999999999999
aF18.5
aF21.706900000000001
aF25.964400000000001
aS'2cx4'
p67
aa(lp68
F17.399999999999999
aF2
aF35.2988
aF43.347700000000003
aS'4iie'
p69
aa(lp70
F12.1
aF10.300000000000001
aF14.8432
aF18.7592
aS'1t8e'
p71
aa(lp72
F4.9000000000000004
aF3.8999999999999999
aF4.7510000000000003
aF3.0552000000000001
aS'3qrl'
p73
aa(lp74
F17.600000000000001
aF15.800000000000001
aF3.1939000000000002
aF1.8672
aS'1avv'
p75
aa(lp76
F11.9
aF9.6999999999999993
aF7.2680999999999996
aF7.5149999999999997
aS'1vsc'
p77
aa(lp78
F0.90000000000000002
aF0
aF2.9836
aF1.2783
aS'1ypb'
p79
aa(lp80
F6.2999999999999998
aF8.0999999999999996
aF7.7976999999999999
aF10.427
aS'3krg'
p81
aa(lp82
F0.69999999999999996
aF0.29999999999999999
aF112.0998
aF129.7089
aS'3j1b'
p83
aa(lp84
F4.7999999999999998
aF2.7999999999999998
aF24.1203
aF29.501300000000001
aS'1ova'
p85
aa(lp86
F8.8000000000000007
aF6.9000000000000004
aF20.197099999999999
aF27.199000000000002
aS'3mji'
p87
aa(lp88
F3.1000000000000001
aF2.6000000000000001
aF8.8605
aF7.0735999999999999
aS'4e2k'
p89
aa(lp90
F1.8999999999999999
aF2
aF16.167000000000002
aF18.346
aS'3cph'
p91
aa(lp92
F11.9
aF8.5
aF31.0548
aF40.420499999999997
aS'1i33'
p93
aa(lp94
F8.5999999999999996
aF4.4000000000000004
aF5.4829999999999997
aF3.2168999999999999
aS'1rcc'
p95
aa(lp96
F1.6000000000000001
aF2.3999999999999999
aF7.2405999999999997
aF7.7267999999999999
aS'1smh'
p97
aa(lp98
F9.4000000000000004
aF5.5
aF9.1811000000000007
aF6.8019999999999996
aS'3d98'
p99
aa(lp100
F1.7
aF1.1000000000000001
aF12.037000000000001
aF15.5017
aS'4lao'
p101
aa(lp102
F3.5
aF3
aF17.542899999999999
aF23.7515
aS'3vsi'
p103
aa(lp104
F3
aF3.6000000000000001
aF11.4772
aF10.867900000000001
aS'1te2'
p105
aa(lp106
F1.2
aF1
aF6.9199000000000002
aF5.4313000000000002
aS'4ftq'
p107
aa(lp108
F7.0999999999999996
aF4.5
aF8.6493000000000002
aF8.3453999999999997
aS'1lap'
p109
aa(lp110
F11.5
aF9.5999999999999996
aF10.724
aF11.702400000000001
aS'3bre'
p111
aa(lp112
F4.4000000000000004
aF3.2000000000000002
aF7.2929000000000004
aF6.0477999999999996
aS'3vbq'
p113
aa(lp114
F48.799999999999997
aF38.5
aF1.7932999999999999
aF0.36009999999999998
aS'385d'
p115
aa(lp116
F2.2999999999999998
aF1.8
aF3.214
aF2.1113
aS'2lve'
p117
aa(lp118
F3.2000000000000002
aF2.7999999999999998
aF8.7866
aF7.2275
aS'1mkz'
p119
aa(lp120
F17.899999999999999
aF9.0999999999999996
aF8.0370000000000008
aF9.2128999999999994
aS'2bc5'
p121
aa(lp122
F14.800000000000001
aF11.5
aF19.339099999999998
aF19.784099999999999
aS'2dqs'
p123
aa(lp124
F9.9000000000000004
aF8.0999999999999996
aF16.0976
aF20.636099999999999
aS'1uiv'
p125
aa(lp126
F27.5
aF5.9000000000000004
aF32.722200000000001
aF29.7986
aS'2ee8'
p127
aa(lp128
F4.4000000000000004
aF4.7999999999999998
aF7.1528999999999998
aF5.5377000000000001
aS'2ozu'
p129
aa(lp130
F2.1000000000000001
aF0.80000000000000004
aF13.7803
aF17.567900000000002
aS'1nqv'
p131
aa(lp132
F6
aF3.5
aF11.792199999999999
aF9.6526999999999994
aS'2vi7'
p133
aa(lp134
F3.3999999999999999
aF2.8999999999999999
aF11.368
aF12.746
aS'3du8'
p135
aa(lp136
F13.9
aF12.800000000000001
aF18.924099999999999
aF24.150099999999998
aS'2ioa'
p137
aa(lp138
F12
aF8.5
aF61.280200000000001
aF89.686099999999996
aS'1ppj'
p139
aa(lp140
F5.9000000000000004
aF3.7000000000000002
aF6.2807000000000004
aF6.8724999999999996
aS'3t4p'
p141
aa(lp142
F5.7999999999999998
aF5
aF8.3537999999999997
aF7.3052999999999999
aS'3sl1'
p143
aa(lp144
F1.6000000000000001
aF1.5
aF62.868400000000001
aF77.7166
aS'4kc5'
p145
aa(lp146
F1.2
aF1.8
aF11.831200000000001
aF14.2202
aS'4bbb'
p147
aa(lp148
F26.5
aF25.399999999999999
aF5.7683
aF6.0199999999999996
aS'3vhb'
p149
aa(lp150
F6.5
aF5.7000000000000002
aF5.3871000000000002
aF5.1634000000000002
aS'3o6y'
p151
aa(lp152
F14
aF9
aF4.9404000000000003
aF4.4958
aS'2psx'
p153
aa(lp154
F8.9000000000000004
aF7
aF13.8918
aF12.1311
aS'4aej'
p155
aa(lp156
F13
aF6.4000000000000004
aF6.3085000000000004
aF6.4029999999999996
aS'2oka'
p157
aa(lp158
F19.5
aF14.4
aF8.2027000000000001
aF8.6519999999999992
aS'2irp'
p159
aa(lp160
F58
aF43
aF2.0421999999999998
aF1.3487
aS'1zf1'
p161
aa(lp162
F5.9000000000000004
aF6
aF11.495200000000001
aF13.194699999999999
aS'1tw2'
p163
aa(lp164
F11.699999999999999
aF10.9
aF12.9171
aF13.541
aS'3dut'
p165
aa(lp166
F6.5
aF5.5
aF13.473000000000001
aF14.657299999999999
aS'1xf6'
p167
aa(lp168
F3.1000000000000001
aF2.7999999999999998
aF23.576499999999999
aF22.996500000000001
aS'4jim'
p169
aa(lp170
F22.5
aF14.6
aF8.5043000000000006
aF7.3415999999999997
aS'2elb'
p171
aa(lp172
F13
aF8.5999999999999996
aF8.9039999999999999
aF7.7634999999999996
aS'1f0o'
p173
aa(lp174
F10
aF8.8000000000000007
aF14.3651
aF20.1281
aS'1kbl'
p175
aa(lp176
F2.6000000000000001
aF2.1000000000000001
aF19.713999999999999
aF20.229800000000001
aS'2ode'
p177
aa(lp178
F4.7999999999999998
aF3.2000000000000002
aF7.2904
aF8.4268999999999998
aS'1lfk'
p179
aa(lp180
F14.4
aF4.0999999999999996
aF8.3927999999999994
aF9.1316000000000006
aS'2j9j'
p181
aa(lp182
F5
aF4.9000000000000004
aF5.1302000000000003
aF3.1785000000000001
aS'1qcz'
p183
aa(lp184
F10.4
aF5.7000000000000002
aF7.3647999999999998
aF7.9363000000000001
aS'2z58'
p185
aa(lp186
F12.800000000000001
aF9.4000000000000004
aF11.277799999999999
aF13.372
aS'2isn'
p187
aa(lp188
F16.5
aF14.1
aF11.961399999999999
aF13.873200000000001
aS'3nm8'
p189
aa(lp190
F2.7999999999999998
aF3.6000000000000001
aF22.789999999999999
aF20.558499999999999
aS'2v1x'
p191
aa(lp192
F7.2000000000000002
aF5
aF9.0396000000000001
aF10.044700000000001
aS'2vst'
p193
aa(lp194
F2.7999999999999998
aF2.1000000000000001
aF3.0015999999999998
aF1.2058
aS'4aqv'
p195
aa(lp196
F19.800000000000001
aF14.4
aF9.9481999999999999
aF9.2139000000000006
aS'3ew3'
p197
aa(lp198
F3.2000000000000002
aF2.8999999999999999
aF16.502600000000001
aF23.027899999999999
aS'3oid'
p199
aa(lp200
F11
aF4
aF24.0794
aF30.2332
aS'3w3g'
p201
aa(lp202
F7.0999999999999996
aF5.4000000000000004
aF13.0951
aF12.851599999999999
aS'2ayq'
p203
aa(lp204
F22.600000000000001
aF17.699999999999999
aF16.0047
aF18.174099999999999
aS'1s1w'
p205
aa(lp206
F4.7999999999999998
aF3.6000000000000001
aF5.9025999999999996
aF4.4146000000000001
aS'1ywd'
p207
aa(lp208
F2.3999999999999999
aF0.90000000000000002
aF4.9058000000000002
aF4.2003000000000004
aS'1v2n'
p209
aa(lp210
F10.800000000000001
aF9.4000000000000004
aF7.1410999999999998
aF8.1197999999999997
aS'4fno'
p211
aa(lp212
F9.9000000000000004
aF3.1000000000000001
aF9.3592999999999993
aF11.575799999999999
aS'1dwq'
p213
aa(lp214
F3.2000000000000002
aF2.7000000000000002
aF10.2638
aF11.0466
aS'3kt4'
p215
aa(lp216
F0.29999999999999999
aF0.69999999999999996
aF9.1661999999999999
aF8.6544000000000008
aS'3ovv'
p217
aa(lp218
F3.3999999999999999
aF3.1000000000000001
aF13.3071
aF11.1134
aS'1nzm'
p219
aa(lp220
F1.7
aF3.2000000000000002
aF7.0179999999999998
aF6.4330999999999996
aS'4g0h'
p221
aa(lp222
F4.2000000000000002
aF2
aF4.4432
aF3.1581999999999999
aS'4gnd'
p223
aa(lp224
F5.7000000000000002
aF4.4000000000000004
aF4.1340000000000003
aF2.3711000000000002
aS'4hp9'
p225
aa(lp226
F15.4
aF13
aF10.0466
aF11.0799
aS'2pgh'
p227
aa(lp228
F9.4000000000000004
aF5.5
aF7.6086999999999998
aF7.5998000000000001
aS'1kk2'
p229
aa(lp230
F5.7000000000000002
aF6.7000000000000002
aF19.215900000000001
aF22.714600000000001
aS'3ih6'
p231
aa(lp232
F7.4000000000000004
aF7.9000000000000004
aF5.6379000000000001
aF5.4748999999999999
aS'1ki0'
p233
aa(lp234
F11
aF10.1
aF3.3275999999999999
aF2.1526999999999998
aS'1j80'
p235
aa(lp236
F19.300000000000001
aF14.1
aF18.653600000000001
aF26.0138
aS'1jst'
p237
aa(lp238
F4.2000000000000002
aF4.2000000000000002
aF12.2098
aF11.3637
aS'4hac'
p239
aa(lp240
F41.799999999999997
aF15.300000000000001
aF36.5124
aF35.090299999999999
aS'2cpz'
p241
aa(lp242
F1.3
aF1.5
aF17.1904
aF17.457000000000001
aS'2dda'
p243
aa(lp244
F8.9000000000000004
aF6.2999999999999998
aF9.9122000000000003
aF10.5687
aS'2qu0'
p245
aa(lp246
F10.9
aF5.7999999999999998
aF8.6532
aF9.9521999999999995
aS'1huc'
p247
aa(lp248
F3.6000000000000001
aF3
aF2.6366999999999998
aF1.4913000000000001
aS'3mye'
p249
aa(lp250
F9.0999999999999996
aF8.3000000000000007
aF20.393899999999999
aF26.2285
aS'2qry'
p251
aa(lp252
F8.5
aF5.9000000000000004
aF5.4972000000000003
aF3.3233999999999999
aS'2w0p'
p253
aa(lp254
F7.4000000000000004
aF7.7000000000000002
aF18.755600000000001
aF21.088100000000001
aS'1isx'
p255
aa(lp256
F28.5
aF14.199999999999999
aF11.534800000000001
aF10.9427
aS'4fn0'
p257
aa(lp258
F9.8000000000000007
aF8.5999999999999996
aF11.315099999999999
aF14.684699999999999
aS'1eyj'
p259
aa(lp260
F4.2999999999999998
aF2.6000000000000001
aF10.6967
aF10.8429
aS'1x1z'
p261
aa(lp262
F2.2000000000000002
aF1.2
aF5.8653000000000004
aF6.5240999999999998
aS'2yb1'
p263
aa(lp264
F4.2000000000000002
aF2.8999999999999999
aF12.7607
aF14.142099999999999
aS'1krc'
p265
aa(lp266
F11.9
aF4.4000000000000004
aF2.5665
aF1.0908
aS'1qkw'
p267
aa(lp268
F30.800000000000001
aF22.600000000000001
aF54.460099999999997
aF74.394300000000001
aS'1jjk'
p269
aa(lp270
F7.5
aF5.2999999999999998
aF18.097899999999999
aF21.4923
aS'3s40'
p271
aa(lp272
F0
aF0
aF2.0112999999999999
aF2.9649999999999999
aS'2fvo'
p273
aa(lp274
F3.7000000000000002
aF3.7999999999999998
aF11.3683
aF10.0245
aS'4b5n'
p275
aa(lp276
F4.2000000000000002
aF0
aF10.2818
aF8.4808000000000003
aS'2l7v'
p277
aa(lp278
F8.5999999999999996
aF6.5999999999999996
aF17.576599999999999
aF15.777200000000001
aS'3btv'
p279
aa(lp280
F2
aF2.1000000000000001
aF13.092000000000001
aF12.5306
aS'3sks'
p281
aa(lp282
F8.0999999999999996
aF6.0999999999999996
aF6.7053000000000003
aF5.5060000000000002
aS'1slv'
p283
aa(lp284
F6.5
aF5.9000000000000004
aF7.5602999999999998
aF7.8356000000000003
aS'1w50'
p285
aa(lp286
F12.800000000000001
aF9
aF21.822399999999998
aF27.651900000000001
aS'2oyh'
p287
aa(lp288
F7.9000000000000004
aF4.5
aF7.3086000000000002
aF6.0500999999999996
aS'2we2'
p289
aa(lp290
F2.6000000000000001
aF4.0999999999999996
aF88.426299999999998
aF121.1811
aS'4fcc'
p291
aa(lp292
F23.600000000000001
aF5.9000000000000004
aF27.732600000000001
aF32.143799999999999
aS'2q45'
p293
aa(lp294
F7.7000000000000002
aF7.9000000000000004
aF4.6642999999999999
aF4.1403999999999996
aS'3o8g'
p295
aa(lp296
F39.600000000000001
aF31.800000000000001
aF8.7707999999999995
aF9.6329999999999991
aS'3crw'
p297
aa(lp298
F8.9000000000000004
aF8
aF6.1794000000000002
aF6.0312999999999999
aS'2p1z'
p299
aa(lp300
F9.0999999999999996
aF8.0999999999999996
aF120.8036
aF87.662499999999994
aS'3is8'
p301
aa(lp302
F13.699999999999999
aF9.6999999999999993
aF12.321199999999999
aF13.363200000000001
aS'3qiw'
p303
aa(lp304
F10.9
aF9.6999999999999993
aF6.3000999999999996
aF5.9724000000000004
aS'1nkn'
p305
aa(lp306
F6.5
aF5.2000000000000002
aF5.9462999999999999
aF5.9105999999999996
aS'1j1l'
p307
aa(lp308
F6.2999999999999998
aF5
aF115.82599999999999
aF121.9845
aS'3dby'
p309
aa(lp310
F10.9
aF8.8000000000000007
aF13.1265
aF15.663500000000001
aS'3iwz'
p311
aa(lp312
F7.9000000000000004
aF6.4000000000000004
aF3.9148999999999998
aF2.9447999999999999
aS'3bt8'
p313
aa(lp314
F6.2999999999999998
aF5
aF4.5423999999999998
aF4.4096000000000002
aS'2g6d'
p315
aa(lp316
F1.8999999999999999
aF1.5
aF11.172599999999999
aF10.5739
aS'3f3d'
p317
aa(lp318
F4.2999999999999998
aF3.2999999999999998
aF6.5719000000000003
aF6.5115999999999996
aS'4kvv'
p319
aa(lp320
F4.2000000000000002
aF3.2999999999999998
aF12.0867
aF15.2529
aS'2pup'
p321
aa(lp322
F52.299999999999997
aF23.600000000000001
aF27.032699999999998
aF33.152900000000002
aS'2ljc'
p323
aa(lp324
F5.7000000000000002
aF5
aF13.430899999999999
aF15.6957
aS'2vl5'
p325
aa(lp326
F9.1999999999999993
aF6
aF11.5754
aF9.8679000000000006
aS'3nkh'
p327
aa(lp328
F9.5999999999999996
aF4.9000000000000004
aF16.310400000000001
aF17.432500000000001
aS'2pk9'
p329
aa(lp330
F8.3000000000000007
aF6.7999999999999998
aF6.8901000000000003
aF7.5305
aS'1pt9'
p331
aa(lp332
F8.8000000000000007
aF8.3000000000000007
aF8.9413
aF9.7119999999999997
aS'2oa8'
p333
aa(lp334
F10.800000000000001
aF7.7999999999999998
aF5.1390000000000002
aF4.5563000000000002
aS'1bxi'
p335
aa(lp336
F14
aF12.4
aF5.3754999999999997
aF3.8458000000000001
aS'4ew4'
p337
aa(lp338
F3.5
aF1.8999999999999999
aF7.2824
aF6.3483999999999998
aS'3m58'
p339
aa(lp340
F9
aF7.5
aF11.441599999999999
aF12.1378
aS'2ecf'
p341
aa(lp342
F17.199999999999999
aF16.600000000000001
aF3.4700000000000002
aF2.2168999999999999
aS'1z3m'
p343
aa(lp344
F0
aF0
aF6.9290000000000003
aF8.1051000000000002
aS'1but'
p345
aa(lp346
F7.4000000000000004
aF5.4000000000000004
aF12.7088
aF13.316700000000001
aS'1fpn'
p347
aa(lp348
F1.5
aF1.2
aF11.5997
aF10.4259
aS'4b8w'
p349
aa(lp350
F3.7000000000000002
aF3.2999999999999998
aF7.3242000000000003
aF8.4710000000000001
aS'1t1x'
p351
aa(lp352
F20.899999999999999
aF16.800000000000001
aF20.8218
aF26.915199999999999
aS'1gpw'
p353
aa(lp354
F9.0999999999999996
aF7.4000000000000004
aF6.4699
aF5.0315000000000003
aS'1kea'
p355
aa(lp356
F9.6999999999999993
aF7.7000000000000002
aF6.1919000000000004
aF6.8334000000000001
aS'3qxo'
p357
aa(lp358
F6.2999999999999998
aF6.2000000000000002
aF28.840499999999999
aF30.003599999999999
aS'1f76'
p359
aa(lp360
F10.1
aF8.3000000000000007
aF5.3220999999999998
aF4.9764999999999997
aS'4e7o'
p361
aa(lp362
F29.5
aF18.600000000000001
aF9.3572000000000006
aF10.303599999999999
aS'3tff'
p363
aa(lp364
F2.7000000000000002
aF1.7
aF6.4946000000000002
aF6.7831999999999999
aS'1rej'
p365
aa(lp366
F16.699999999999999
aF13.6
aF13.8582
aF12.5733
aS'3qvu'
p367
aa(lp368
F15.5
aF11.300000000000001
aF7.3665000000000003
aF7.2172000000000001
aS'3um0'
p369
aa(lp370
F3.6000000000000001
aF4
aF4.0319000000000003
aF3.0007999999999999
aS'2iwp'
p371
aa(lp372
F6.7000000000000002
aF5.2000000000000002
aF9.8005999999999993
aF11.138199999999999
aS'1rq4'
p373
aa(lp374
F37.700000000000003
aF35.399999999999999
aF136.17490000000001
aF159.55000000000001
aS'3zn7'
p375
aa(lp376
F26.899999999999999
aF16.899999999999999
aF73.163200000000003
aF86.957099999999997
aS'1jro'
p377
aa(lp378
F7
aF4.0999999999999996
aF7.6125999999999996
aF6.2735000000000003
aS'2i4h'
p379
aa(lp380
F25
aF21.300000000000001
aF12.974399999999999
aF14.164099999999999
aS'1qse'
p381
aa(lp382
F5.7999999999999998
aF4.4000000000000004
aF6.883
aF7.3305999999999996
aS'1m2p'
p383
aa(lp384
F7.7999999999999998
aF6.4000000000000004
aF9.2423000000000002
aF11.7166
aS'3fw6'
p385
aa(lp386
F30.100000000000001
aF14.699999999999999
aF92.196100000000001
aF133.4597
aS'2q4i'
p387
aa(lp388
F5.2999999999999998
aF0
aF30.915199999999999
aF32.305999999999997
aS'2kx0'
p389
aa(lp390
F16.800000000000001
aF13.5
aF10.2203
aF12.1252
aS'1jk0'
p391
aa(lp392
F13.699999999999999
aF11.9
aF8.0534999999999997
aF8.9756999999999998
aS'2dpt'
p393
aa(lp394
F4.4000000000000004
aF3.8999999999999999
aF6.9450000000000003
aF7.8743999999999996
aS'2o14'
p395
aa(lp396
F4.2000000000000002
aF2.8999999999999999
aF14.111800000000001
aF10.043100000000001
aS'3oia'
p397
aa(lp398
F13.6
aF9.9000000000000004
aF6.2194000000000003
aF5.5510000000000002
aS'4l45'
p399
aa(lp400
F11.4
aF10.800000000000001
aF4.3849999999999998
aF2.6057999999999999
aS'2chd'
p401
aa(lp402
F23.5
aF19
aF15.975099999999999
aF16.581600000000002
aS'1i5l'
p403
aa(lp404
F1.8999999999999999
aF3.2000000000000002
aF7.4185999999999996
aF5.9142999999999999
aS'3d96'
p405
aa(lp406
F10.800000000000001
aF8
aF6.2270000000000003
aF6.2680999999999996
aS'3fau'
p407
aa(lp408
F7.7999999999999998
aF6.2999999999999998
aF5.5088999999999997
aF5.8133999999999997
aS'2aix'
p409
aa(lp410
F20.600000000000001
aF16.5
aF5.9874999999999998
aF6.1318999999999999
aS'1ea3'
p411
aa(lp412
F9.8000000000000007
aF7.2999999999999998
aF5.4016999999999999
aF5.0972
aS'1es6'
p413
aa(lp414
F9.5
aF7.4000000000000004
aF8.4878
aF8.0105000000000004
aS'1avg'
p415
aa(lp416
F6.4000000000000004
aF5.5999999999999996
aF19.098299999999998
aF28.6174
aS'1e4l'
p417
aa(lp418
F8.0999999999999996
aF6.2999999999999998
aF7.3266
aF7.2142999999999997
aS'1a5y'
p419
aa(lp420
F25.800000000000001
aF26.699999999999999
aF10.7829
aF13.708600000000001
aS'1lbz'
p421
aa(lp422
F3.8999999999999999
aF4.7999999999999998
aF8.7904
aF7.1791
aS'1ukk'
p423
aa(lp424
F1.5
aF1.8999999999999999
aF12.502599999999999
aF9.9937000000000005
aS'3ekh'
p425
aa(lp426
F7.5999999999999996
aF4
aF5.2267999999999999
aF3.9449999999999998
aS'1wzw'
p427
aa(lp428
F1.2
aF1.3
aF2.9186000000000001
aF1.2077
aS'1be7'
p429
aa(lp430
F8.9000000000000004
aF4.0999999999999996
aF4.952
aF4.0387000000000004
aS'3exq'
p431
aa(lp432
F1.6000000000000001
aF1.8
aF7.8829000000000002
aF5.7930999999999999
aS'1o3k'
p433
aa(lp434
F1.6000000000000001
aF0
aF31.506
aF32.288600000000002
aS'1wh6'
p435
aa(lp436
F5.9000000000000004
aF0
aF12.038600000000001
aF7.1246999999999998
aS'1ho0'
p437
aa(lp438
F18.899999999999999
aF15.699999999999999
aF7.3483999999999998
aF8.4045000000000005
aS'3mkw'
p439
aa(lp440
F18.699999999999999
aF13.699999999999999
aF8.3638999999999992
aF6.9977999999999998
aS'2w4z'
p441
aa(lp442
F14
aF11.300000000000001
aF80.081800000000001
aF102.93689999999999
aS'3ng9'
p443
aa(lp444
F3.2999999999999998
aF1.8999999999999999
aF5.2502000000000004
aF3.2437999999999998
aS'1bso'
p445
aa(lp446
F7
aF5.7000000000000002
aF5.6054000000000004
aF5.1153000000000004
aS'4fot'
p447
aa(lp448
F33.700000000000003
aF11.4
aF23.957699999999999
aF24.043500000000002
aS'2cud'
p449
aa(lp450
F2.8999999999999999
aF1.3999999999999999
aF8.9358000000000004
aF5.1691000000000003
aS'4lor'
p451
aa(lp452
F2.2000000000000002
aF1.7
aF46.099699999999999
aF45.742800000000003
aS'4jub'
p453
aa(lp454
F2.6000000000000001
aF1.8999999999999999
aF10.7363
aF12.0558
aS'2y1j'
p455
aa(lp456
F2.2999999999999998
aF1.6000000000000001
aF9.7177000000000007
aF8.5908999999999995
aS'4lc0'
p457
aa(lp458
F5.4000000000000004
aF3.2999999999999998
aF6.0388000000000002
aF5.6996000000000002
aS'1rks'
p459
aa(lp460
F6.0999999999999996
aF4.2000000000000002
aF4.1162000000000001
aF3.5005999999999999
aS'1lyg'
p461
aa(lp462
F8
aF9.1999999999999993
aF8.4616000000000007
aF8.2645999999999997
aS'3d02'
p463
aa(lp464
F10.199999999999999
aF6.2000000000000002
aF6.4873000000000003
aF6.2439
aS'3txm'
p465
aa(lp466
F21.600000000000001
aF17.100000000000001
aF5.0129000000000001
aF4.0145
aS'4g78'
p467
aa(lp468
F3.7999999999999998
aF3.5
aF5.7930000000000001
aF4.6614000000000004
aS'3ng5'
p469
aa(lp470
F10.4
aF0
aF1.4542999999999999
aF0.1148
aS'3q2x'
p471
aa(lp472
F22.5
aF8.8000000000000007
aF6.9962
aF6.4451000000000001
aS'1a7b'
p473
aa(lp474
F20
aF17.800000000000001
aF20.766500000000001
aF27.526900000000001
aS'2f8n'
p475
aa(lp476
F0.5
aF0.29999999999999999
aF13.825900000000001
aF13.6503
aS'4bba'
p477
aa(lp478
F11.6
aF9.5
aF19.220300000000002
aF18.922799999999999
aS'2i7g'
p479
aa(lp480
F4.2000000000000002
aF2.2000000000000002
aF24.7608
aF28.500800000000002
aS'4acr'
p481
aa(lp482
F4
aF1.3
aF9.6816999999999993
aF10.6355
aS'2dab'
p483
aa(lp484
F23.300000000000001
aF18.800000000000001
aF8.4039000000000001
aF9.0888000000000009
aS'3pm0'
p485
aa(lp486
F7.5
aF5.7000000000000002
aF6.3630000000000004
aF5.3360000000000003
aS'2hl5'
p487
aa(lp488
F2.3999999999999999
aF2.5
aF24.681799999999999
aF25.182600000000001
aS'2xi3'
p489
aa(lp490
F3
aF2.1000000000000001
aF52.270699999999998
aF57.404800000000002
aS'2y2w'
p491
aa(lp492
F15.6
aF13.4
aF10.940799999999999
aF9.2222000000000008
aS'1ybw'
p493
aa(lp494
F7.2000000000000002
aF6.7000000000000002
aF9.2247000000000003
aF10.8504
aS'3p98'
p495
aa(lp496
F13.5
aF9.5
aF5.8318000000000003
aF6.6670999999999996
aS'1okc'
p497
aa(lp498
F6.7999999999999998
aF3.7000000000000002
aF14.823700000000001
aF15.1869
aS'1rad'
p499
aa(lp500
F8.9000000000000004
aF9.5999999999999996
aF4.6510999999999996
aF4.0475000000000003
aS'1ayw'
p501
aa(lp502
F2.2999999999999998
aF3.7000000000000002
aF2.2772000000000001
aF1.3059000000000001
aS'3cgq'
p503
aa(lp504
F5.2000000000000002
aF3.6000000000000001
aF6.2721999999999998
aF6.5266999999999999
aS'1u58'
p505
aa(lp506
F5
aF4
aF6.8647999999999998
aF7.7857000000000003
aS'3m5c'
p507
aa(lp508
F4.7999999999999998
aF4.4000000000000004
aF5.7295999999999996
aF6.8779000000000003
aS'2guv'
p509
aa(lp510
F8.4000000000000004
aF5.7000000000000002
aF7.6172000000000004
aF9.0633999999999997
aS'1xdc'
p511
aa(lp512
F6.7000000000000002
aF6.5999999999999996
aF9.1989000000000001
aF7.3943000000000003
aS'2uuk'
p513
aa(lp514
F1.3999999999999999
aF1.5
aF8.1293000000000006
aF6.8815999999999997
aS'1sve'
p515
aa(lp516
F13.800000000000001
aF12.1
aF14.9574
aF17.6187
aS'3pzp'
p517
aa(lp518
F12
aF9.6999999999999993
aF5.8476999999999997
aF5.6456999999999997
aS'1jlk'
p519
aa(lp520
F0.40000000000000002
aF0.40000000000000002
aF5.1569000000000003
aF2.8184
aS'4kqt'
p521
aa(lp522
F2.7000000000000002
aF2
aF17.485700000000001
aF15.478999999999999
aS'3op2'
p523
aa(lp524
F0.80000000000000004
aF1.1000000000000001
aF21.459499999999998
aF23.8277
aS'3hky'
p525
aa(lp526
F6.0999999999999996
aF4.9000000000000004
aF6.4603000000000002
aF5.8125
aS'1gkc'
p527
aa(lp528
F26.5
aF6.9000000000000004
aF5.7979000000000003
aF3.9771999999999998
aS'1xda'
p529
aa(lp530
F2.7999999999999998
aF2.2000000000000002
aF14.869
aF10.7773
aS'4ed8'
p531
aa(lp532
F16.699999999999999
aF11.5
aF5.8098999999999998
aF5.3775000000000004
aS'1acb'
p533
aa(lp534
F6.5999999999999996
aF4.5
aF12.8131
aF10.104699999999999
aS'2y2p'
p535
aa(lp536
F5
aF4.2999999999999998
aF7.6135000000000002
aF5.5358000000000001
aS'3pp1'
p537
aa(lp538
F8.4000000000000004
aF7.4000000000000004
aF23.347100000000001
aF18.5913
aS'1t5t'
p539
aa(lp540
F4.7999999999999998
aF4.2999999999999998
aF6.6588000000000003
aF7.7531999999999996
aS'2rhu'
p541
aa(lp542
F4.7999999999999998
aF3.8999999999999999
aF8.8961000000000006
aF11.109500000000001
aS'3pjf'
p543
aa(lp544
F37.700000000000003
aF14.300000000000001
aF31.636099999999999
aF32.999099999999999
aS'2div'
p545
aa(lp546
F3
aF2.5
aF13.6424
aF14.0593
aS'2znv'
p547
aa(lp548
F16.300000000000001
aF15.4
aF4.2294999999999998
aF3.8449
aS'2ew1'
p549
aa(lp550
F3.7000000000000002
aF1.6000000000000001
aF3.3210000000000002
aF1.8879999999999999
aS'2p09'
p551
aa(lp552
F10.4
aF7.7000000000000002
aF4.7061999999999999
aF3.8267000000000002
aS'3oiq'
p553
aa(lp554
F9.6999999999999993
aF8.4000000000000004
aF18.125399999999999
aF17.575299999999999
aS'2c14'
p555
aa(lp556
F6.5
aF5
aF6.9292999999999996
aF7.5399000000000003
aS'3eyd'
p557
aa(lp558
F5.2000000000000002
aF3.8999999999999999
aF9.6678999999999995
aF7.6642000000000001
aS'4dt1'
p559
aa(lp560
F1.2
aF5.2999999999999998
aF5.4512999999999998
aF5.8787000000000003
aS'4e3d'
p561
aa(lp562
F6.2000000000000002
aF20.800000000000001
aF16.085000000000001
aF20.1035
aS'1unc'
p563
aa(lp564
F4.4000000000000004
aF2.7999999999999998
aF9.2064000000000004
aF9.9099000000000004
aS'1obw'
p565
aa(lp566
F2.7999999999999998
aF2.5
aF15.417400000000001
aF14.6501
aS'3src'
p567
aa(lp568
F2.1000000000000001
aF1.6000000000000001
aF18.927199999999999
aF21.342400000000001
aS'2i9p'
p569
aa(lp570
F5
aF3.7999999999999998
aF10.727399999999999
aF12.790699999999999
aS'2g07'
p571
aa(lp572
F2.1000000000000001
aF4.2000000000000002
aF6.0895000000000001
aF4.9130000000000003
aS'3kdc'
p573
aa(lp574
F14.300000000000001
aF4.2999999999999998
aF6.5777999999999999
aF3.1671999999999998
aS'3o5o'
p575
aa(lp576
F3.8999999999999999
aF4
aF4.4734999999999996
aF3.8940999999999999
aS'1ec2'
p577
aa(lp578
F11.699999999999999
aF9.6999999999999993
aF7.7263999999999999
aF6.4347000000000003
aS'3r9d'
p579
aa(lp580
F0.20000000000000001
aF0.69999999999999996
aF7.5782999999999996
aF6.3711000000000002
aS'3sbm'
p581
aa(lp582
F53.700000000000003
aF22
aF16.517900000000001
aF20.985800000000001
aS'1yyj'
p583
aa(lp584
F38.399999999999999
aF19.100000000000001
aF4.7058
aF3.093
aS'1qjp'
p585
aa(lp586
F22.100000000000001
aF9.1999999999999993
aF6.2076000000000002
aF6.1829999999999998
aS'2kry'
p587
aa(lp588
F3.6000000000000001
aF1.6000000000000001
aF12.3432
aF10.6066
aS'4ecw'
p589
aa(lp590
F1.8
aF1.3999999999999999
aF18.057200000000002
aF20.723800000000001
aS'3orh'
p591
aa(lp592
F6.7999999999999998
aF0
aF23.941099999999999
aF25.3674
aS'2kg5'
p593
aa(lp594
F3.6000000000000001
aF3.6000000000000001
aF7.0250000000000004
aF7.5782999999999996
aS'1g5n'
p595
aa(lp596
F2.6000000000000001
aF1.6000000000000001
aF9.2100000000000009
aF7.7590000000000003
aS'4gqk'
p597
aa(lp598
F2.8999999999999999
aF2.2999999999999998
aF9.9335000000000004
aF12.842499999999999
aS'3ztv'
p599
aa(lp600
F2.6000000000000001
aF2.2999999999999998
aF9.7971000000000004
aF11.910600000000001
aS'6std'
p601
aa(lp602
F10.1
aF7.2000000000000002
aF9.5463000000000005
aF12.600199999999999
aS'3js8'
p603
aa(lp604
F3.7999999999999998
aF2.5
aF5.4237000000000002
aF3.5977999999999999
aS'4g1h'
p605
aa(lp606
F10.1
aF7.7000000000000002
aF12.975099999999999
aF15.520099999999999
aS'1tuu'
p607
aa(lp608
F4
aF1.7
aF2.7542
aF1.7222999999999999
aS'1ehd'
p609
aa(lp610
F8.8000000000000007
aF7.7999999999999998
aF28.738199999999999
aF28.427199999999999
aS'2qm1'
p611
aa(lp612
F6.7000000000000002
aF3.5
aF7.3708
aF7.8391999999999999
aS'3kbs'
p613
aa(lp614
F6
aF4
aF5.6719999999999997
aF4.9345999999999997
aS'4fc8'
p615
aa(lp616
F22.699999999999999
aF18.600000000000001
aF21.096599999999999
aF28.492999999999999
aS'2e21'
p617
aa(lp618
F6.4000000000000004
aF5.2000000000000002
aF5.8678999999999997
aF5.0541
aS'2f9j'
p619
aa(lp620
F0.5
aF0.5
aF9.0888000000000009
aF8.5508000000000006
aS'4c1b'
p621
aa(lp622
F17.699999999999999
aF13.1
aF30.934699999999999
aF38.920099999999998
aS'2jlg'
p623
aa(lp624
F2.6000000000000001
aF2.5
aF9.8402999999999992
aF8.6015999999999995
aS'3fjv'
p625
aa(lp626
F3.3999999999999999
aF2.8999999999999999
aF4.516
aF4.1196999999999999
aS'3vce'
p627
aa(lp628
F13.5
aF4.0999999999999996
aF7.1422999999999996
aF6.0186999999999999
aS'3de4'
p629
aa(lp630
F1.6000000000000001
aF1.3999999999999999
aF13.182399999999999
aF15.696400000000001
aS'2hnk'
p631
aa(lp632
F34.5
aF5.2999999999999998
aF43.290700000000001
aF41.850099999999998
aS'2ee7'
p633
aa(lp634
F5.5999999999999996
aF3.2000000000000002
aF6.8010999999999999
aF5.0929000000000002
aS'4hza'
p635
aa(lp636
F13.1
aF10.1
aF10.228300000000001
aF9.8419000000000008
aS'2xza'
p637
aa(lp638
F6.5
aF6.2999999999999998
aF50.208399999999997
aF46.1539
aS'4ip7'
p639
aa(lp640
F3.2000000000000002
aF3.7999999999999998
aF4.8254999999999999
aF4.0315000000000003
aS'1w3q'
p641
aa(lp642
F9.4000000000000004
aF6.7000000000000002
aF4.0876999999999999
aF3.4327000000000001
aS'3lc9'
p643
aa(lp644
F8.3000000000000007
aF6.7000000000000002
aF11.6585
aF15.7643
aS'2d0g'
p645
aa(lp646
F9.8000000000000007
aF8
aF3.8820999999999999
aF3.2938000000000001
aS'1u2q'
p647
aa(lp648
F2.2999999999999998
aF2.2000000000000002
aF10.7554
aF13.7118
aS'2psh'
p649
aa(lp650
F15.300000000000001
aF13.4
aF21.876000000000001
aF33.531599999999997
aS'1p7t'
p651
aa(lp652
F1.1000000000000001
aF1.7
aF24.208300000000001
aF23.171299999999999
aS'3pay'
p653
aa(lp654
F5.9000000000000004
aF5.9000000000000004
aF7.4328000000000003
aF7.7300000000000004
aS'1m3q'
p655
aa(lp656
F2.6000000000000001
aF2.5
aF10.8025
aF12.772600000000001
aS'3myo'
p657
aa(lp658
F9.3000000000000007
aF8.0999999999999996
aF3.8755000000000002
aF2.9727000000000001
aS'3par'
p659
aa(lp660
F3.7000000000000002
aF2.8999999999999999
aF9.0924999999999994
aF8.9405000000000001
aS'1rgy'
p661
aa(lp662
F0.40000000000000002
aF0.40000000000000002
aF8.1850000000000005
aF7.5762
aS'4mpq'
p663
aa(lp664
F4.0999999999999996
aF4.5999999999999996
aF7.2164000000000001
aF6.4119000000000002
aS'3m3x'
p665
aa(lp666
F29.300000000000001
aF12.300000000000001
aF8.8481000000000005
aF4.4157999999999999
aS'3qm8'
p667
aa(lp668
F11.199999999999999
aF10.5
aF6.5415999999999999
aF6.7880000000000003
aS'1r2y'
p669
aa(lp670
F4.0999999999999996
aF10.1
aF8.5228000000000002
aF7.7881
aS'1r4e'
p671
aa(lp672
F7.7000000000000002
aF6.2000000000000002
aF13.1214
aF16.360700000000001
aS'4g43'
p673
aa(lp674
F11.6
aF9.8000000000000007
aF9.1311
aF8.8354999999999997
aS'2ady'
p675
aa(lp676
F4.5
aF2.2000000000000002
aF5.1830999999999996
aF5.4044999999999996
aS'3fck'
p677
aa(lp678
F7.5
aF6.0999999999999996
aF3.8826999999999998
aF3.4573
aS'1zcn'
p679
aa(lp680
F5.0999999999999996
aF3.7999999999999998
aF17.430199999999999
aF18.354800000000001
aS'1el8'
p681
aa(lp682
F8.0999999999999996
aF8.4000000000000004
aF6.1978999999999997
aF6.7324000000000002
aS'2x8o'
p683
aa(lp684
F21.399999999999999
aF18
aF25.986799999999999
aF34.082500000000003
aS'3qnq'
p685
aa(lp686
F6.2999999999999998
aF4.0999999999999996
aF5.4642999999999997
aF4.8811
aS'7prn'
p687
aa(lp688
F2.8999999999999999
aF0.90000000000000002
aF14.2559
aF14.316700000000001
aS'3o8e'
p689
aa(lp690
F5.2999999999999998
aF4.5
aF13.670299999999999
aF10.3184
aS'4b0z'
p691
aa(lp692
F4.7000000000000002
aF4.2999999999999998
aF17.247299999999999
aF20.524899999999999
aS'4g03'
p693
aa(lp694
F6.9000000000000004
aF6
aF11.124499999999999
aF8.9461999999999993
aS'3sz0'
p695
aa(lp696
F2.2000000000000002
aF2.2999999999999998
aF4.6677999999999997
aF2.7014
aS'3eer'
p697
aa(lp698
F3.5
aF2.6000000000000001
aF7.2670000000000003
aF6.7877000000000001
aS'1bt5'
p699
aa(lp700
F5.0999999999999996
aF5
aF7.7587000000000002
aF7.7671999999999999
aS'2zq7'
p701
aa(lp702
F2.6000000000000001
aF2
aF9.8127999999999993
aF8.7515999999999998
aS'4aw2'
p703
aa(lp704
F6.7999999999999998
aF7.4000000000000004
aF32.527700000000003
aF46.988700000000001
aS'2c9j'
p705
aa(lp706
F25.800000000000001
aF26.899999999999999
aF6.1237000000000004
aF5.6786000000000003
aS'3oa6'
p707
aa(lp708
F11.699999999999999
aF6.7000000000000002
aF7.7355999999999998
aF7.1345000000000001
aS'3php'
p709
aa(lp710
F1.1000000000000001
aF0
aF4.0228999999999999
aF2.1276999999999999
aS'3uh8'
p711
aa(lp712
F4.5
aF3.7999999999999998
aF18.7455
aF16.7925
aS'3ia7'
p713
aa(lp714
F8.5999999999999996
aF5.4000000000000004
aF41.383499999999998
aF50.631
aS'2yev'
p715
aa(lp716
F12.5
aF8
aF1.8137000000000001
aF0.56869999999999998
aS'3g2a'
p717
aa(lp718
F64.200000000000003
aF34.799999999999997
aF70.665599999999998
aF91.174599999999998
aS'1w8x'
p719
aa(lp720
F6.9000000000000004
aF0
aF28.742699999999999
aF34.2408
aS'1axx'
p721
aa(lp722
F22.600000000000001
aF12.6
aF4.7489999999999997
aF4.5651000000000002
aS'1jv7'
p723
aa(lp724
F8.5
aF2.7999999999999998
aF7.7927999999999997
aF5.8619000000000003
aS'3kxc'
p725
aa(lp726
F8.1999999999999993
aF6.4000000000000004
aF5.2539999999999996
aF3.3218999999999999
aS'1vrk'
p727
aa(lp728
F5.7999999999999998
aF4.4000000000000004
aF5.4854000000000003
aF4.6459000000000001
aS'3buc'
p729
aa(lp730
F6.7000000000000002
aF2.5
aF8.6170000000000009
aF10.2288
aS'4a2d'
p731
aa(lp732
F12.199999999999999
aF4.9000000000000004
aF3.0447000000000002
aF1.5968
aS'3gk1'
p733
aa(lp734
F0
aF0
aF2.0106999999999999
aF0.84919999999999995
aS'2kar'
p735
aa(lp736
F6.7999999999999998
aF6.5
aF25.8005
aF24.630199999999999
aS'4hcr'
p737
aa(lp738
F23.100000000000001
aF16.600000000000001
aF58.753799999999998
aF78.801900000000003
aS'3l75'
p739
aa(lp740
F5
aF4.5
aF7.7565
aF7.9329999999999998
aS'1k0n'
p741
aa(lp742
F5.9000000000000004
aF3.6000000000000001
aF9.2484000000000002
aF11.354100000000001
aS'1t96'
p743
aa(lp744
F27
aF25.300000000000001
aF4.2541000000000002
aF3.7326999999999999
aS'2q21'
p745
aa(lp746
F2.2000000000000002
aF1.8999999999999999
aF14.803000000000001
aF19.438400000000001
aS'4fyx'
p747
aa(lp748
F8.1999999999999993
aF5.5
aF4.6966000000000001
aF2.883
aS'2g0f'
p749
aa(lp750
F3.2999999999999998
aF2.7000000000000002
aF47.045099999999998
aF73.527500000000003
aS'3p93'
p751
aa(lp752
F2.1000000000000001
aF1
aF10.3665
aF7.1837
aS'3qtv'
p753
aa(lp754
F24.399999999999999
aF19.899999999999999
aF7.3742000000000001
aF6.8552
aS'3eyq'
p755
aa(lp756
F2.6000000000000001
aF2.2000000000000002
aF15.534000000000001
aF17.7424
aS'3cik'
p757
aa(lp758
F0.5
aF0.90000000000000002
aF9.3724000000000007
aF7.7073
aS'3ke3'
p759
aa(lp760
F15.699999999999999
aF11.800000000000001
aF10.4117
aF10.286899999999999
aS'2xzc'
p761
aa(lp762
F25.899999999999999
aF22.300000000000001
aF7.5065999999999997
aF7.6805000000000003
aS'2plf'
p763
aa(lp764
F2.1000000000000001
aF1
aF4.6547999999999998
aF3.9611999999999998
aS'2f8o'
p765
aa(lp766
F5.5999999999999996
aF3.2999999999999998
aF10.5245
aF12.3078
aS'4elr'
p767
aa(lp768
F14.699999999999999
aF8.6999999999999993
aF45.539299999999997
aF49.227400000000003
aS'3csy'
p769
aa(lp770
F2.1000000000000001
aF1.8
aF28.396599999999999
aF26.543099999999999
aS'2bhp'
p771
aa(lp772
F1.7
aF2.2000000000000002
aF5.4351000000000003
aF3.9192999999999998
aS'4dlz'
p773
aa(lp774
F1.2
aF1.3
aF5.7241
aF4.5904999999999996
aS'3hz8'
p775
aa(lp776
F14.5
aF10.699999999999999
aF9.5612999999999992
aF12.553599999999999
aS'1zvr'
p777
aa(lp778
F4.2999999999999998
aF3
aF7.6421999999999999
aF6.6787999999999998
aS'2gp0'
p779
aa(lp780
F0
aF0
aF1.5165
aF0.77659999999999996
aS'1t1o'
p781
aa(lp782
F3.1000000000000001
aF2.7000000000000002
aF8.7832000000000008
aF7.9842000000000004
aS'1riv'
p783
aa.