(dp1
S'3k7x'
p2
(lp3
F9.5
aF4.7999999999999998
asS'4dgj'
p4
(lp5
F6.7000000000000002
aF3.3999999999999999
asS'2w23'
p6
(lp7
F4.5
aF2.5
asS'1p91'
p8
(lp9
F41.299999999999997
aF27.899999999999999
asS'3hsj'
p10
(lp11
F13.800000000000001
aF6.4000000000000004
asS'1gbt'
p12
(lp13
F14.300000000000001
aF3.7000000000000002
asS'2qfv'
p14
(lp15
F18.800000000000001
aF10.6
asS'3n1t'
p16
(lp17
F26.300000000000001
aF20.800000000000001
asS'2jd9'
p18
(lp19
F15.5
aF11.699999999999999
asS'1uas'
p20
(lp21
F9.3000000000000007
aF3.6000000000000001
asS'3f1o'
p22
(lp23
F9.3000000000000007
aF4.5999999999999996
asS'3dzr'
p24
(lp25
F8.4000000000000004
aF3.2000000000000002
asS'1bub'
p26
(lp27
F32.700000000000003
aF14.300000000000001
asS'4gyo'
p28
(lp29
F2.8999999999999999
aF1.6000000000000001
asS'3gvx'
p30
(lp31
F12.800000000000001
aF6.4000000000000004
asS'2zlx'
p32
(lp33
F26.199999999999999
aF12.699999999999999
asS'2dki'
p34
(lp35
F11.800000000000001
aF6
asS'3tkq'
p36
(lp37
F12
aF4.7999999999999998
asS'2xhv'
p38
(lp39
F7.7000000000000002
aF3.1000000000000001
asS'3dyp'
p40
(lp41
F14.300000000000001
aF5.5
asS'3d5b'
p42
(lp43
F23.399999999999999
aF14.5
asS'2xz5'
p44
(lp45
F5.4000000000000004
aF3.8999999999999999
asS'1gi9'
p46
(lp47
F14.800000000000001
aF7.0999999999999996
asS'4dqh'
p48
(lp49
F5.4000000000000004
aF2.5
asS'2fn8'
p50
(lp51
F3.7999999999999998
aF1.8
asS'1jv5'
p52
(lp53
F18.100000000000001
aF7.2999999999999998
asS'2qrb'
p54
(lp55
F19.600000000000001
aF10.5
asS'3e1c'
p56
(lp57
F3.5
aF1.2
asS'2prm'
p58
(lp59
F17.899999999999999
aF6.2999999999999998
asS'1qpl'
p60
(lp61
F6.5999999999999996
aF2.5
asS'2vyc'
p62
(lp63
F7.2999999999999998
aF3.2000000000000002
asS'3o2y'
p64
(lp65
F22.800000000000001
aF16.5
asS'1wl4'
p66
(lp67
F9.6999999999999993
aF4.0999999999999996
asS'2i99'
p68
(lp69
F18.100000000000001
aF11.800000000000001
asS'1f3s'
p70
(lp71
F17.300000000000001
aF6.9000000000000004
asS'2vfd'
p72
(lp73
F3.5
aF0.40000000000000002
asS'1bfg'
p74
(lp75
F12.6
aF11.300000000000001
asS'2m0z'
p76
(lp77
F3.3999999999999999
aF0.69999999999999996
asS'3cfb'
p78
(lp79
F7
aF3.2999999999999998
asS'3dol'
p80
(lp81
F21.199999999999999
aF11.800000000000001
asS'3v9q'
p82
(lp83
F4
aF2.7000000000000002
asS'3h7i'
p84
(lp85
F5.7999999999999998
aF3
asS'3rk9'
p86
(lp87
F15.5
aF6.4000000000000004
asS'2hi9'
p88
(lp89
F20.699999999999999
aF11.5
asS'4blp'
p90
(lp91
F2.7999999999999998
aF1.1000000000000001
asS'3blr'
p92
(lp93
F10.5
aF4
asS'2v53'
p94
(lp95
F44
aF22
asS'3htx'
p96
(lp97
F33.899999999999999
aF21.899999999999999
asS'1a1z'
p98
(lp99
F30.5
aF2.2000000000000002
asS'1w9w'
p100
(lp101
F7.4000000000000004
aF0.90000000000000002
asS'3q40'
p102
(lp103
F6.0999999999999996
aF1.7
asS'2fec'
p104
(lp105
F9.4000000000000004
aF5
asS'4hlw'
p106
(lp107
F6.7999999999999998
aF1.3
asS'1zhi'
p108
(lp109
F9.8000000000000007
aF5.0999999999999996
asS'1ro5'
p110
(lp111
F17.899999999999999
aF13.5
asS'2wov'
p112
(lp113
F9.6999999999999993
aF3.2999999999999998
asS'2zs6'
p114
(lp115
F4
aF1.3999999999999999
asS'1ff7'
p116
(lp117
F24.600000000000001
aF1.6000000000000001
asS'2m9x'
p118
(lp119
F9.3000000000000007
aF1.6000000000000001
asS'3ubk'
p120
(lp121
F14.6
aF12.699999999999999
asS'1c5v'
p122
(lp123
F7.4000000000000004
aF2.7000000000000002
asS'3bcm'
p124
(lp125
F18.100000000000001
aF9.0999999999999996
asS'4fl9'
p126
(lp127
F13.1
aF5.0999999999999996
asS'1nnk'
p128
(lp129
F15.1
aF8.3000000000000007
asS'1wlc'
p130
(lp131
F7.5999999999999996
aF2.7999999999999998
asS'1aeu'
p132
(lp133
F6
aF2.7999999999999998
asS'3mpr'
p134
(lp135
F9.9000000000000004
aF5.7000000000000002
asS'4g1y'
p136
(lp137
F20.300000000000001
aF10.699999999999999
asS'3ozo'
p138
(lp139
F3.7999999999999998
aF1.3
asS'3p3t'
p140
(lp141
F13.6
aF10.800000000000001
asS'1lfg'
p142
(lp143
F29.800000000000001
aF19.300000000000001
asS'3bsq'
p144
(lp145
F29.5
aF27.399999999999999
asS'2p0v'
p146
(lp147
F11.1
aF5.7999999999999998
asS'4g01'
p148
(lp149
F7.7000000000000002
aF3.1000000000000001
asS'2m1r'
p150
(lp151
F3.7000000000000002
aF0
asS'2eu7'
p152
(lp153
F6.7000000000000002
aF2.3999999999999999
asS'1xih'
p154
(lp155
F9.9000000000000004
aF2.7000000000000002
asS'3f92'
p156
(lp157
F5.0999999999999996
aF1.2
asS'4ldc'
p158
(lp159
F15.1
aF9.6999999999999993
asS'4e4d'
p160
(lp161
F3.7000000000000002
aF3.2000000000000002
asS'3n85'
p162
(lp163
F7.7999999999999998
aF3.5
asS'1ecx'
p164
(lp165
F17
aF5.5999999999999996
asS'3kwg'
p166
(lp167
F3.7999999999999998
aF1
asS'1f79'
p168
(lp169
F34.899999999999999
aF33.799999999999997
asS'1ckt'
p170
(lp171
F17.5
aF14.300000000000001
asS'2kez'
p172
(lp173
F3
aF1.3
asS'4bz7'
p174
(lp175
F4.4000000000000004
aF1.5
asS'3lby'
p176
(lp177
F9.1999999999999993
aF4.4000000000000004
asS'1b6g'
p178
(lp179
F23.600000000000001
aF8.0999999999999996
asS'1r2z'
p180
(lp181
F7.7999999999999998
aF4
asS'3uec'
p182
(lp183
F6
aF4.7999999999999998
asS'3kwu'
p184
(lp185
F4.7000000000000002
aF5.0999999999999996
asS'3fa1'
p186
(lp187
F3.6000000000000001
aF4
asS'3ai2'
p188
(lp189
F6.0999999999999996
aF2.5
asS'2oex'
p190
(lp191
F10.5
aF3.7999999999999998
asS'3qwp'
p192
(lp193
F8.5999999999999996
aF6.5999999999999996
asS'2ywr'
p194
(lp195
F15
aF8.3000000000000007
asS'2gw2'
p196
(lp197
F7.7000000000000002
aF1.8999999999999999
asS'2llm'
p198
(lp199
F5.7999999999999998
aF0
asS'1kfr'
p200
(lp201
F10.4
aF5.2000000000000002
asS'4l28'
p202
(lp203
F6.2000000000000002
aF3.1000000000000001
asS'2bvd'
p204
(lp205
F6.5999999999999996
aF3.5
asS'3uyv'
p206
(lp207
F14.300000000000001
aF4.0999999999999996
asS'3uu7'
p208
(lp209
F10.1
aF5.5999999999999996
asS'3cwn'
p210
(lp211
F3.8999999999999999
aF1.2
asS'3fen'
p212
(lp213
F10.800000000000001
aF7.5999999999999996
asS'1lkb'
p214
(lp215
F6.0999999999999996
aF1.8999999999999999
asS'4hs6'
p216
(lp217
F5
aF2.7999999999999998
asS'3nlv'
p218
(lp219
F6.0999999999999996
aF1.7
asS'3ix9'
p220
(lp221
F17
aF7
asS'4fqg'
p222
(lp223
F8.5999999999999996
aF5
asS'2wuh'
p224
(lp225
F13.199999999999999
aF5.9000000000000004
asS'1w21'
p226
(lp227
F10.699999999999999
aF6.7999999999999998
asS'1z2o'
p228
(lp229
F7.5
aF2.7000000000000002
asS'2h0k'
p230
(lp231
F9.5999999999999996
aF2.2999999999999998
asS'3cpm'
p232
(lp233
F23.100000000000001
aF13.800000000000001
asS'1dsr'
p234
(lp235
F22.899999999999999
aF0
asS'3lrv'
p236
(lp237
F13.300000000000001
aF7.0999999999999996
asS'3b01'
p238
(lp239
F7.5999999999999996
aF2
asS'3k1x'
p240
(lp241
F13.800000000000001
aF10.699999999999999
asS'1z2g'
p242
(lp243
F7.4000000000000004
aF0
asS'2dx7'
p244
(lp245
F12.300000000000001
aF3.7999999999999998
asS'4etc'
p246
(lp247
F5.4000000000000004
aF1.5
asS'2noj'
p248
(lp249
F32
aF17.300000000000001
asS'1ea1'
p250
(lp251
F14.9
aF5.4000000000000004
asS'3zrz'
p252
(lp253
F2.3999999999999999
aF0.90000000000000002
asS'1ncy'
p254
(lp255
F16.699999999999999
aF12.5
asS'4dy5'
p256
(lp257
F5.5
aF2.2999999999999998
asS'2ofh'
p258
(lp259
F3.7000000000000002
aF0.90000000000000002
asS'2yof'
p260
(lp261
F5.7000000000000002
aF4.5
asS'3pto'
p262
(lp263
F31.100000000000001
aF20
asS'3tu3'
p264
(lp265
F7.5999999999999996
aF3.7999999999999998
asS'2j65'
p266
(lp267
F18.899999999999999
aF14
asS'4ac4'
p268
(lp269
F10.300000000000001
aF8.0999999999999996
asS'1otf'
p270
(lp271
F15.199999999999999
aF8.8000000000000007
asS'2cho'
p272
(lp273
F5.9000000000000004
aF2.1000000000000001
asS'3hzr'
p274
(lp275
F13.4
aF5.7999999999999998
asS'1npr'
p276
(lp277
F23.600000000000001
aF13.199999999999999
asS'2ofw'
p278
(lp279
F8.9000000000000004
aF4.4000000000000004
asS'2di7'
p280
(lp281
F18.300000000000001
aF8.4000000000000004
asS'3qhb'
p282
(lp283
F15
aF6.2999999999999998
asS'3ltm'
p284
(lp285
F17.600000000000001
aF9.1999999999999993
asS'1xyu'
p286
(lp287
F2.5
aF0
asS'3v6n'
p288
(lp289
F8.5999999999999996
aF3.7999999999999998
asS'3bef'
p290
(lp291
F18.100000000000001
aF8.3000000000000007
asS'2h2y'
p292
(lp293
F26.5
aF15.6
asS'101m'
p294
(lp295
F15.199999999999999
aF14.4
asS'2z1x'
p296
(lp297
F14.199999999999999
aF8.5
asS'3ci7'
p298
(lp299
F5.9000000000000004
aF0.29999999999999999
asS'1hhi'
p300
(lp301
F9.5999999999999996
aF4
asS'2w9m'
p302
(lp303
F16.800000000000001
aF10.699999999999999
asS'4dhl'
p304
(lp305
F12.699999999999999
aF3.6000000000000001
asS'2ial'
p306
(lp307
F9.8000000000000007
aF4
asS'3ena'
p308
(lp309
F6.4000000000000004
aF2.1000000000000001
asS'3fjl'
p310
(lp311
F6.7999999999999998
aF4.2999999999999998
asS'3coi'
p312
(lp313
F6
aF2.3999999999999999
asS'4gph'
p314
(lp315
F5.4000000000000004
aF4.7000000000000002
asS'1jcl'
p316
(lp317
F5.5999999999999996
aF1
asS'2onz'
p318
(lp319
F17.399999999999999
aF6
asS'3b0t'
p320
(lp321
F4
aF1.2
asS'3b37'
p322
(lp323
F5.5
aF2
asS'2ku4'
p324
(lp325
F4.4000000000000004
aF0.59999999999999998
asS'4dox'
p326
(lp327
F9.0999999999999996
aF0.59999999999999998
asS'2axp'
p328
(lp329
F25.100000000000001
aF11.300000000000001
asS'2j3k'
p330
(lp331
F3.2000000000000002
aF1.3999999999999999
asS'1jcg'
p332
(lp333
F24.600000000000001
aF12.699999999999999
asS'2rkm'
p334
(lp335
F9
aF3.7999999999999998
asS'1rfv'
p336
(lp337
F12.300000000000001
aF4.2000000000000002
asS'1awd'
p338
(lp339
F8.5999999999999996
aF1.5
asS'1ani'
p340
(lp341
F13.300000000000001
aF4.5
asS'1rsr'
p342
(lp343
F18.300000000000001
aF7.7000000000000002
asS'3j32'
p344
(lp345
F20.600000000000001
aF21
asS'2kly'
p346
(lp347
F22.399999999999999
aF13.199999999999999
asS'1bje'
p348
(lp349
F22.5
aF10.4
asS'3mg8'
p350
(lp351
F5.0999999999999996
aF3.2000000000000002
asS'3m4r'
p352
(lp353
F6.0999999999999996
aF0.59999999999999998
asS'2wd7'
p354
(lp355
F4.9000000000000004
aF2
asS'4jrf'
p356
(lp357
F1.3
aF0.29999999999999999
asS'3ma0'
p358
(lp359
F5.2999999999999998
aF1.3
asS'4b4v'
p360
(lp361
F1
aF0.59999999999999998
asS'3zey'
p362
(lp363
F26.899999999999999
aF9.5999999999999996
asS'3t42'
p364
(lp365
F9.5
aF5.5999999999999996
asS'4k6a'
p366
(lp367
F4.4000000000000004
aF2.2000000000000002
asS'1qub'
p368
(lp369
F18.600000000000001
aF7.2999999999999998
asS'1ddg'
p370
(lp371
F22.300000000000001
aF9.5999999999999996
asS'3erw'
p372
(lp373
F21.399999999999999
aF13.699999999999999
asS'1idy'
p374
(lp375
F3.2999999999999998
aF0
asS'2ay4'
p376
(lp377
F9.5
aF3.1000000000000001
asS'3cjm'
p378
(lp379
F4.0999999999999996
aF0.90000000000000002
asS'2qcn'
p380
(lp381
F6.4000000000000004
aF1.8999999999999999
asS'2qco'
p382
(lp383
F2.7000000000000002
aF1.2
asS'3u09'
p384
(lp385
F8.4000000000000004
aF6.0999999999999996
asS'2d8b'
p386
(lp387
F8.1999999999999993
aF1.5
asS'2klg'
p388
(lp389
F22.199999999999999
aF4.9000000000000004
asS'1htd'
p390
(lp391
F11.800000000000001
aF4.5999999999999996
asS'1xrm'
p392
(lp393
F20
aF8.6999999999999993
asS'1rcu'
p394
(lp395
F15.1
aF7.2000000000000002
asS'1oog'
p396
(lp397
F8.3000000000000007
aF3.3999999999999999
asS'2q5w'
p398
(lp399
F9
aF2.5
asS'1g1w'
p400
(lp401
F12.800000000000001
aF6.0999999999999996
asS'2hdk'
p402
(lp403
F3.8999999999999999
aF1.3
asS'1rtw'
p404
(lp405
F11.4
aF5.2000000000000002
asS'2wc0'
p406
(lp407
F21.800000000000001
aF11.300000000000001
asS'1pq6'
p408
(lp409
F5.0999999999999996
aF2.2999999999999998
asS'3o8v'
p410
(lp411
F16.199999999999999
aF6.5
asS'1htv'
p412
(lp413
F19.100000000000001
aF10.5
asS'3b8d'
p414
(lp415
F25.600000000000001
aF11.800000000000001
asS'2qrn'
p416
(lp417
F21.899999999999999
aF12.5
asS'2htn'
p418
(lp419
F12
aF4.2000000000000002
asS'1s5y'
p420
(lp421
F14.199999999999999
aF4.7999999999999998
asS'2v0p'
p422
(lp423
F9.5
aF3.2999999999999998
asS'1bzz'
p424
(lp425
F6
aF1.3999999999999999
asS'4ey4'
p426
(lp427
F4.7999999999999998
aF1.5
asS'3dus'
p428
(lp429
F19.899999999999999
aF9.9000000000000004
asS'1avl'
p430
(lp431
F10.800000000000001
aF4.7000000000000002
asS'3lw7'
p432
(lp433
F4.7999999999999998
aF2.3999999999999999
asS'2a49'
p434
(lp435
F9.6999999999999993
aF3.7999999999999998
asS'2d3f'
p436
(lp437
F16.899999999999999
aF5.2999999999999998
asS'3g14'
p438
(lp439
F5.7999999999999998
aF1.8999999999999999
asS'1wxj'
p440
(lp441
F9.0999999999999996
aF7.0999999999999996
asS'2jxs'
p442
(lp443
F22.800000000000001
aF10.4
asS'2efl'
p444
(lp445
F26.399999999999999
aF11.699999999999999
asS'3sja'
p446
(lp447
F17.300000000000001
aF7.2000000000000002
asS'3kl0'
p448
(lp449
F5.2999999999999998
aF1.3999999999999999
asS'2wsh'
p450
(lp451
F11.800000000000001
aF4.7000000000000002
asS'2efd'
p452
(lp453
F14.699999999999999
aF4.9000000000000004
asS'3tqx'
p454
(lp455
F21
aF11.6
asS'3gvq'
p456
(lp457
F9.1999999999999993
aF3.7999999999999998
asS'1p2t'
p458
(lp459
F8.6999999999999993
aF2.7999999999999998
asS'3a42'
p460
(lp461
F25.699999999999999
aF15.5
asS'4gkm'
p462
(lp463
F3.2999999999999998
aF1.8999999999999999
asS'1th7'
p464
(lp465
F12
aF3.6000000000000001
asS'1o34'
p466
(lp467
F5.7999999999999998
aF0.90000000000000002
asS'2k07'
p468
(lp469
F11.699999999999999
aF7.2999999999999998
asS'2kl2'
p470
(lp471
F2.7000000000000002
aF2.1000000000000001
asS'2cqr'
p472
(lp473
F31.5
aF15.199999999999999
asS'3v8p'
p474
(lp475
F9.6999999999999993
aF4
asS'1k1a'
p476
(lp477
F16.199999999999999
aF9.6999999999999993
asS'1owb'
p478
(lp479
F12.9
aF7.5
asS'3zjy'
p480
(lp481
F5.2999999999999998
aF2.2000000000000002
asS'2hzm'
p482
(lp483
F19.100000000000001
aF10.1
asS'4ebf'
p484
(lp485
F11.9
aF6.7999999999999998
asS'1o2m'
p486
(lp487
F6.7999999999999998
aF3.5
asS'1jrs'
p488
(lp489
F4.7000000000000002
aF1.8
asS'3zjs'
p490
(lp491
F13.6
aF5.9000000000000004
asS'2evv'
p492
(lp493
F12
aF5.5
asS'1qr9'
p494
(lp495
F21.899999999999999
aF9.1999999999999993
asS'3muu'
p496
(lp497
F33
aF19.800000000000001
asS'3gk4'
p498
(lp499
F10.6
aF4.7000000000000002
asS'1qke'
p500
(lp501
F31.699999999999999
aF11.4
asS'3t9v'
p502
(lp503
F11.9
aF6.5
asS'3bl0'
p504
(lp505
F3.8999999999999999
aF6.7999999999999998
asS'4juf'
p506
(lp507
F7.0999999999999996
aF2
asS'2v3p'
p508
(lp509
F12.199999999999999
aF3.6000000000000001
asS'3roc'
p510
(lp511
F7.0999999999999996
aF2.5
asS'3so4'
p512
(lp513
F20.100000000000001
aF17.399999999999999
asS'3o0g'
p514
(lp515
F7.2999999999999998
aF5.4000000000000004
asS'3t9g'
p516
(lp517
F25.699999999999999
aF18
asS'1mu0'
p518
(lp519
F20.699999999999999
aF7.7999999999999998
asS'3ui0'
p520
(lp521
F7.9000000000000004
aF1.8999999999999999
asS'2c7g'
p522
(lp523
F4.2000000000000002
aF1.7
asS'2h4r'
p524
(lp525
F14
aF7.9000000000000004
asS'2imj'
p526
(lp527
F10
aF3.6000000000000001
asS'1kgl'
p528
(lp529
F1.8
aF0.90000000000000002
asS'2ija'
p530
(lp531
F6.0999999999999996
aF1.3999999999999999
asS'4ey5'
p532
(lp533
F5.7999999999999998
aF1.8999999999999999
asS'2rhk'
p534
(lp535
F9.6999999999999993
aF3.2999999999999998
asS'4jz7'
p536
(lp537
F21.600000000000001
aF11.4
asS'1vis'
p538
(lp539
F23.899999999999999
aF13.699999999999999
asS'3bym'
p540
(lp541
F11.1
aF5.4000000000000004
asS'1uso'
p542
(lp543
F13
aF3.8999999999999999
asS'3w06'
p544
(lp545
F14.199999999999999
aF12.4
asS'2p3m'
p546
(lp547
F1.6000000000000001
aF0
asS'1wru'
p548
(lp549
F23.5
aF15.1
asS'4byc'
p550
(lp551
F34.399999999999999
aF28.5
asS'1zr0'
p552
(lp553
F10.9
aF8.6999999999999993
asS'1bzw'
p554
(lp555
F9
aF2.8999999999999999
asS'2qtu'
p556
(lp557
F18.300000000000001
aF12.300000000000001
asS'1hom'
p558
(lp559
F7.0999999999999996
aF3.2000000000000002
asS'4e5k'
p560
(lp561
F8.5999999999999996
aF3.7000000000000002
asS'4fo8'
p562
(lp563
F6.7999999999999998
aF3.2000000000000002
asS'4ape'
p564
(lp565
F22.899999999999999
aF18
asS'4c92'
p566
(lp567
F8.8000000000000007
aF4
asS'197d'
p568
(lp569
F15.699999999999999
aF17.800000000000001
asS'2r2b'
p570
(lp571
F7.2000000000000002
aF2.1000000000000001
asS'1jwn'
p572
(lp573
F14.300000000000001
aF3.7000000000000002
asS'3uys'
p574
(lp575
F20.899999999999999
aF11.9
asS'2x63'
p576
(lp577
F9.4000000000000004
aF6.2999999999999998
asS'1c3h'
p578
(lp579
F20.899999999999999
aF12.5
asS'3p1i'
p580
(lp581
F6.5
aF3
asS'2v57'
p582
(lp583
F9.1999999999999993
aF4.2999999999999998
asS'3mw8'
p584
(lp585
F5.7999999999999998
aF3.2999999999999998
asS'2jza'
p586
(lp587
F14.5
aF5
asS'1jgp'
p588
(lp589
F12.699999999999999
aF19.800000000000001
asS'3zz3'
p590
(lp591
F12.4
aF6.9000000000000004
asS'3h9o'
p592
(lp593
F12.199999999999999
aF3.7000000000000002
asS'1jgw'
p594
(lp595
F14.6
aF6.5
asS'3p5w'
p596
(lp597
F6.0999999999999996
aF1.8
asS'4fa3'
p598
(lp599
F5.7999999999999998
aF1.3999999999999999
asS'1muu'
p600
(lp601
F7.9000000000000004
aF4.2999999999999998
asS'1lv8'
p602
(lp603
F21.199999999999999
aF12.6
asS'4a3x'
p604
(lp605
F5
aF1.2
asS'1wjw'
p606
(lp607
F32.700000000000003
aF11.300000000000001
asS'1nhz'
p608
(lp609
F7.9000000000000004
aF5.4000000000000004
asS'1qz4'
p610
(lp611
F6.7999999999999998
aF3.1000000000000001
asS'4jhr'
p612
(lp613
F13.5
aF6.2999999999999998
asS'1jpi'
p614
(lp615
F10
aF4.5
asS'2rog'
p616
(lp617
F0.69999999999999996
aF0
asS'1ej0'
p618
(lp619
F10.5
aF4.2000000000000002
asS'2fft'
p620
(lp621
F5.2999999999999998
aF0
asS'3vh5'
p622
(lp623
F12.199999999999999
aF5.0999999999999996
asS'1i87'
p624
(lp625
F24.699999999999999
aF6
asS'3ozx'
p626
(lp627
F10.4
aF4.9000000000000004
asS'4edj'
p628
(lp629
F11.4
aF5.2999999999999998
asS'1tb6'
p630
(lp631
F21
aF12.699999999999999
asS'1rje'
p632
(lp633
F1
aF0.69999999999999996
asS'1t66'
p634
(lp635
F17.600000000000001
aF10.1
asS'1tu8'
p636
(lp637
F3.7999999999999998
aF2.1000000000000001
asS'3fmu'
p638
(lp639
F15.6
aF2.6000000000000001
asS'3al3'
p640
(lp641
F4.2000000000000002
aF2.3999999999999999
as.