(lp1
(lp2
F8.9000000000000004
aF0
aa(lp3
F14.800000000000001
aF2.2000000000000002
aa(lp4
F20.399999999999999
aF2.5
aa(lp5
F19
aF4.7000000000000002
aa(lp6
F16.899999999999999
aF2.3999999999999999
aa(lp7
F11.699999999999999
aF1.6000000000000001
aa(lp8
F18.100000000000001
aF2.6000000000000001
aa(lp9
F20.699999999999999
aF8.4000000000000004
aa(lp10
F18.199999999999999
aF2.7000000000000002
aa(lp11
F23.600000000000001
aF5.7999999999999998
aa(lp12
F22
aF6.5999999999999996
aa(lp13
F13.800000000000001
aF1.3999999999999999
aa(lp14
F49.899999999999999
aF33.600000000000001
aa(lp15
F19.300000000000001
aF6.5
aa(lp16
F17.899999999999999
aF1.8999999999999999
aa(lp17
F17.399999999999999
aF4.2000000000000002
aa(lp18
F28.5
aF14.4
aa(lp19
F21.800000000000001
aF7.4000000000000004
aa(lp20
F4.7000000000000002
aF0.59999999999999998
aa(lp21
F23.300000000000001
aF15.800000000000001
aa(lp22
F15.6
aF2.6000000000000001
aa(lp23
F32.799999999999997
aF11.300000000000001
aa(lp24
F10.6
aF0.90000000000000002
aa(lp25
F25.100000000000001
aF4.2000000000000002
aa(lp26
F14.6
aF1.8999999999999999
aa(lp27
F29.300000000000001
aF17.600000000000001
aa(lp28
F25.5
aF5.5999999999999996
aa(lp29
F1.5
aF0
aa(lp30
F18.800000000000001
aF1.6000000000000001
aa(lp31
F12.699999999999999
aF3.3999999999999999
aa(lp32
F27.399999999999999
aF8.3000000000000007
aa(lp33
F20.100000000000001
aF5.2999999999999998
aa(lp34
F12.4
aF1.8999999999999999
aa(lp35
F34.399999999999999
aF14.9
aa(lp36
F1.8
aF0
aa(lp37
F20.800000000000001
aF4.0999999999999996
aa(lp38
F23.800000000000001
aF12.6
aa(lp39
F11.199999999999999
aF3.1000000000000001
aa(lp40
F15.699999999999999
aF4
aa(lp41
F14.9
aF4.2000000000000002
aa(lp42
F11.300000000000001
aF2.7999999999999998
aa(lp43
F20.800000000000001
aF5.2000000000000002
aa(lp44
F26.899999999999999
aF7.7999999999999998
aa(lp45
F26.5
aF2.5
aa(lp46
F42.399999999999999
aF16.399999999999999
aa(lp47
F9.5999999999999996
aF1.6000000000000001
aa(lp48
F21
aF6.0999999999999996
aa(lp49
F7.7000000000000002
aF0
aa(lp50
F43.700000000000003
aF23.100000000000001
aa(lp51
F17.699999999999999
aF3.6000000000000001
aa(lp52
F18.899999999999999
aF7.4000000000000004
aa(lp53
F21.600000000000001
aF3.7999999999999998
aa(lp54
F22.600000000000001
aF4.7000000000000002
aa(lp55
F32.600000000000001
aF11.800000000000001
aa(lp56
F20.100000000000001
aF5.7999999999999998
aa(lp57
F14.1
aF1.8999999999999999
aa(lp58
F24.199999999999999
aF4.7000000000000002
aa(lp59
F25.199999999999999
aF10.699999999999999
aa(lp60
F10.199999999999999
aF0.80000000000000004
aa(lp61
F12.6
aF2.6000000000000001
aa(lp62
F7.0999999999999996
aF3.2000000000000002
aa(lp63
F12.4
aF1.3
aa(lp64
F23.300000000000001
aF4
aa(lp65
F17.800000000000001
aF3
aa(lp66
F12.5
aF1.3999999999999999
aa(lp67
F27
aF5.7999999999999998
aa(lp68
F25.5
aF7
aa(lp69
F15.5
aF3.6000000000000001
aa(lp70
F13.300000000000001
aF0.20000000000000001
aa(lp71
F18
aF1.3999999999999999
aa(lp72
F16.699999999999999
aF3.6000000000000001
aa(lp73
F12.4
aF1.8
aa(lp74
F16.699999999999999
aF4.2000000000000002
aa(lp75
F24.399999999999999
aF6.7999999999999998
aa(lp76
F18.800000000000001
aF6.5
aa(lp77
F14.9
aF1.7
aa(lp78
F13.9
aF1.8999999999999999
aa(lp79
F10.699999999999999
aF0.80000000000000004
aa(lp80
F28.600000000000001
aF9.6999999999999993
aa(lp81
F7.0999999999999996
aF0
aa(lp82
F13.199999999999999
aF4.2999999999999998
aa(lp83
F11.199999999999999
aF3
aa(lp84
F35.200000000000003
aF17.699999999999999
aa(lp85
F16.300000000000001
aF1.3999999999999999
aa(lp86
F19.899999999999999
aF1.8
aa(lp87
F9
aF0.69999999999999996
aa(lp88
F7.9000000000000004
aF3.5
aa(lp89
F13.800000000000001
aF6.5999999999999996
aa(lp90
F24
aF4.7000000000000002
aa(lp91
F8.5
aF0
aa(lp92
F17.199999999999999
aF4.7999999999999998
aa(lp93
F23.5
aF9
aa(lp94
F17.399999999999999
aF3
aa(lp95
F11.300000000000001
aF0.80000000000000004
aa(lp96
F24.199999999999999
aF4.5
aa(lp97
F22.399999999999999
aF1.2
aa(lp98
F20.100000000000001
aF3.6000000000000001
aa(lp99
F15.800000000000001
aF2.8999999999999999
aa(lp100
F37.799999999999997
aF10.6
aa(lp101
F23.399999999999999
aF11.5
aa(lp102
F33.299999999999997
aF14.800000000000001
aa(lp103
F29.300000000000001
aF12.800000000000001
aa(lp104
F40.5
aF23.800000000000001
aa(lp105
F16.899999999999999
aF2.1000000000000001
aa(lp106
F10.4
aF1.6000000000000001
aa(lp107
F8
aF9.0999999999999996
aa(lp108
F13.1
aF1.3999999999999999
aa(lp109
F27.300000000000001
aF10.4
aa(lp110
F7.2999999999999998
aF0
aa(lp111
F20.399999999999999
aF8.3000000000000007
aa(lp112
F22.199999999999999
aF6.5
aa(lp113
F22.600000000000001
aF7.4000000000000004
aa(lp114
F30.5
aF9.5999999999999996
aa(lp115
F51.5
aF43
aa(lp116
F23.100000000000001
aF5.7000000000000002
aa(lp117
F23.699999999999999
aF5.2999999999999998
aa(lp118
F26.800000000000001
aF16.399999999999999
aa(lp119
F12
aF14.300000000000001
aa(lp120
F19.899999999999999
aF7.7000000000000002
aa(lp121
F27.5
aF6.0999999999999996
aa(lp122
F15.300000000000001
aF2.2999999999999998
aa(lp123
F26.300000000000001
aF5.7000000000000002
aa(lp124
F33.299999999999997
aF8.3000000000000007
aa(lp125
F16.699999999999999
aF2.2000000000000002
aa(lp126
F25.699999999999999
aF10.300000000000001
aa(lp127
F44.799999999999997
aF24.199999999999999
aa(lp128
F5.9000000000000004
aF0.90000000000000002
aa(lp129
F17.399999999999999
aF11.4
aa(lp130
F16.800000000000001
aF0.59999999999999998
aa(lp131
F34.200000000000003
aF11.800000000000001
aa(lp132
F20.199999999999999
aF4.5999999999999996
aa(lp133
F20.199999999999999
aF6.4000000000000004
aa(lp134
F19
aF3.5
aa(lp135
F19.899999999999999
aF4.5
aa(lp136
F40.299999999999997
aF15.6
aa(lp137
F15.6
aF2
aa(lp138
F23.800000000000001
aF4.5
aa(lp139
F16.899999999999999
aF3.2999999999999998
aa(lp140
F11.199999999999999
aF1.2
aa(lp141
F28.699999999999999
aF10.4
aa(lp142
F36.399999999999999
aF23.199999999999999
aa(lp143
F20.300000000000001
aF4.7000000000000002
aa(lp144
F11.4
aF2.2999999999999998
aa(lp145
F21.5
aF6.5
aa(lp146
F18.800000000000001
aF7
aa(lp147
F28.5
aF15.9
aa(lp148
F37.399999999999999
aF15
aa(lp149
F26.100000000000001
aF8.0999999999999996
aa(lp150
F24
aF8.6999999999999993
aa(lp151
F15.199999999999999
aF4.5
aa(lp152
F21.5
aF7
aa(lp153
F25.100000000000001
aF6.7999999999999998
aa(lp154
F30.800000000000001
aF9.3000000000000007
aa(lp155
F20.899999999999999
aF8.8000000000000007
aa(lp156
F13.9
aF2.7000000000000002
aa(lp157
F20.199999999999999
aF1.5
aa(lp158
F18.199999999999999
aF3.8999999999999999
aa(lp159
F14.6
aF3.1000000000000001
aa(lp160
F19.300000000000001
aF3.2999999999999998
aa(lp161
F14.6
aF4.5999999999999996
aa(lp162
F14.199999999999999
aF1.5
aa(lp163
F27.399999999999999
aF11.5
aa(lp164
F14.4
aF3
aa(lp165
F24.899999999999999
aF4.5999999999999996
aa(lp166
F14.5
aF2.3999999999999999
aa(lp167
F9.5
aF0
aa(lp168
F23.5
aF8.3000000000000007
aa(lp169
F12
aF1.3
aa(lp170
F32.5
aF11.4
aa(lp171
F39
aF9
aa(lp172
F17.5
aF6.7999999999999998
aa(lp173
F18.199999999999999
aF7.5
aa(lp174
F12.300000000000001
aF1.6000000000000001
aa(lp175
F29.5
aF7.9000000000000004
aa(lp176
F19.5
aF5.7000000000000002
aa(lp177
F10.1
aF3.1000000000000001
aa(lp178
F12.4
aF3.2000000000000002
aa(lp179
F26.899999999999999
aF1.1000000000000001
aa(lp180
F10.6
aF1.6000000000000001
aa(lp181
F25.199999999999999
aF6.7000000000000002
aa(lp182
F32.600000000000001
aF13.6
aa(lp183
F22.199999999999999
aF6.5999999999999996
aa(lp184
F31.699999999999999
aF13.699999999999999
aa(lp185
F16.600000000000001
aF3.6000000000000001
aa(lp186
F29.100000000000001
aF6.5999999999999996
aa(lp187
F11.5
aF2.3999999999999999
aa(lp188
F19.699999999999999
aF2.6000000000000001
aa(lp189
F15.699999999999999
aF4.7000000000000002
aa(lp190
F15.4
aF4.9000000000000004
aa(lp191
F21.199999999999999
aF2
aa(lp192
F13.1
aF5.2000000000000002
aa(lp193
F32.399999999999999
aF11.6
aa(lp194
F32.700000000000003
aF26.899999999999999
aa(lp195
F10.699999999999999
aF1.3
aa(lp196
F30.600000000000001
aF13.4
aa(lp197
F23
aF6.7999999999999998
aa(lp198
F16.100000000000001
aF14.6
aa(lp199
F47.799999999999997
aF13.699999999999999
aa(lp200
F54.299999999999997
aF32.5
aa(lp201
F9.9000000000000004
aF3
aa(lp202
F31
aF15.4
aa(lp203
F25.399999999999999
aF12.1
aa(lp204
F19.5
aF5.4000000000000004
aa(lp205
F5.4000000000000004
aF0.40000000000000002
aa(lp206
F25.199999999999999
aF7.2000000000000002
aa(lp207
F13
aF4
aa(lp208
F17.199999999999999
aF3.3999999999999999
aa(lp209
F18.5
aF11.800000000000001
aa(lp210
F31.199999999999999
aF12.800000000000001
aa(lp211
F17.699999999999999
aF5
aa(lp212
F17.100000000000001
aF1.5
aa(lp213
F16
aF4.0999999999999996
aa(lp214
F17
aF4.2999999999999998
aa(lp215
F10.4
aF3.1000000000000001
aa(lp216
F12
aF1.7
aa(lp217
F12.9
aF0.80000000000000004
aa(lp218
F20.899999999999999
aF7.5
aa(lp219
F42.299999999999997
aF20.300000000000001
aa(lp220
F16.800000000000001
aF6.7999999999999998
aa(lp221
F22.100000000000001
aF7.7999999999999998
aa(lp222
F24.300000000000001
aF6.5
aa(lp223
F22.699999999999999
aF10.4
aa(lp224
F44.600000000000001
aF34.299999999999997
aa(lp225
F22.5
aF2
aa(lp226
F17.699999999999999
aF4
aa(lp227
F10.1
aF3.3999999999999999
aa(lp228
F29.699999999999999
aF12.9
aa(lp229
F37.600000000000001
aF21
aa(lp230
F22.600000000000001
aF4.7000000000000002
aa(lp231
F15.300000000000001
aF3
aa(lp232
F11.1
aF0
aa(lp233
F14.199999999999999
aF4
aa(lp234
F38.399999999999999
aF23.100000000000001
aa(lp235
F21.300000000000001
aF3.2999999999999998
aa(lp236
F9.6999999999999993
aF2.1000000000000001
aa(lp237
F14.800000000000001
aF4.0999999999999996
aa(lp238
F30.199999999999999
aF8.1999999999999993
aa(lp239
F12
aF0.59999999999999998
aa(lp240
F9.5999999999999996
aF3.3999999999999999
aa(lp241
F13.1
aF2.6000000000000001
aa(lp242
F11.6
aF1.5
aa(lp243
F12.4
aF2.6000000000000001
aa(lp244
F17
aF2.2999999999999998
aa(lp245
F21.699999999999999
aF2.8999999999999999
aa(lp246
F14
aF2.3999999999999999
aa(lp247
F21.800000000000001
aF3.8999999999999999
aa(lp248
F37.100000000000001
aF22.699999999999999
aa(lp249
F15.5
aF3.3999999999999999
aa(lp250
F28.600000000000001
aF9
aa(lp251
F24.5
aF10.800000000000001
aa(lp252
F30.300000000000001
aF10.9
aa(lp253
F17.100000000000001
aF6.0999999999999996
aa(lp254
F22.100000000000001
aF4.9000000000000004
aa(lp255
F17.300000000000001
aF5
aa(lp256
F15.9
aF7.9000000000000004
aa(lp257
F28.800000000000001
aF16.399999999999999
aa(lp258
F7.2000000000000002
aF1.2
aa(lp259
F24.899999999999999
aF11.800000000000001
aa(lp260
F24.800000000000001
aF11.6
aa(lp261
F15.5
aF4
aa(lp262
F6.0999999999999996
aF0
aa(lp263
F16.100000000000001
aF3.2000000000000002
aa(lp264
F11.300000000000001
aF1.2
aa(lp265
F13.300000000000001
aF2
aa(lp266
F16.399999999999999
aF5
aa(lp267
F30.100000000000001
aF10.4
aa(lp268
F28.199999999999999
aF12.699999999999999
aa(lp269
F15.9
aF5.7000000000000002
aa(lp270
F14
aF2.8999999999999999
aa(lp271
F15.800000000000001
aF2.2000000000000002
aa(lp272
F5
aF2.2000000000000002
aa(lp273
F22.199999999999999
aF3.2000000000000002
aa(lp274
F35.100000000000001
aF28.300000000000001
aa(lp275
F24.300000000000001
aF5.5
aa(lp276
F19.800000000000001
aF2.5
aa(lp277
F39.700000000000003
aF26.399999999999999
aa(lp278
F21.699999999999999
aF13.800000000000001
aa(lp279
F22.5
aF8
aa(lp280
F19.699999999999999
aF3.1000000000000001
aa(lp281
F15.5
aF2.7999999999999998
aa(lp282
F15.5
aF0.40000000000000002
aa(lp283
F26.600000000000001
aF9.8000000000000007
aa(lp284
F31.199999999999999
aF18
aa(lp285
F11.9
aF2.7999999999999998
aa(lp286
F19.399999999999999
aF2.7999999999999998
aa(lp287
F10.9
aF5.7999999999999998
aa(lp288
F25.300000000000001
aF5.9000000000000004
aa(lp289
F35.700000000000003
aF23.300000000000001
aa(lp290
F20.699999999999999
aF2.2999999999999998
aa(lp291
F12
aF1
aa(lp292
F21.199999999999999
aF4.2000000000000002
aa(lp293
F22.800000000000001
aF6.0999999999999996
aa(lp294
F27.800000000000001
aF3.1000000000000001
aa(lp295
F49.299999999999997
aF29.199999999999999
aa(lp296
F13
aF0
aa(lp297
F16.899999999999999
aF2.1000000000000001
aa(lp298
F23.600000000000001
aF3.7999999999999998
aa(lp299
F21.800000000000001
aF7.2000000000000002
aa(lp300
F25.199999999999999
aF1.1000000000000001
aa(lp301
F29
aF6.5999999999999996
aa(lp302
F12.9
aF0.40000000000000002
aa(lp303
F8.5
aF1.1000000000000001
aa(lp304
F14
aF0.80000000000000004
aa(lp305
F11.800000000000001
aF1.3999999999999999
aa(lp306
F14.1
aF6
aa(lp307
F36.399999999999999
aF29.300000000000001
aa(lp308
F11.800000000000001
aF0
aa(lp309
F15.699999999999999
aF2.7000000000000002
aa(lp310
F14.199999999999999
aF3.1000000000000001
aa(lp311
F14.5
aF2.8999999999999999
aa(lp312
F12
aF3.6000000000000001
aa(lp313
F4.7000000000000002
aF2.2999999999999998
aa(lp314
F19
aF5.2000000000000002
aa(lp315
F27.199999999999999
aF17.899999999999999
aa(lp316
F33
aF8.4000000000000004
aa(lp317
F40.200000000000003
aF17.100000000000001
aa(lp318
F15
aF1.7
aa(lp319
F20
aF0
aa(lp320
F9.9000000000000004
aF2.3999999999999999
aa(lp321
F27.100000000000001
aF9.1999999999999993
aa(lp322
F46.200000000000003
aF20.600000000000001
aa(lp323
F40.700000000000003
aF12.4
aa(lp324
F10.199999999999999
aF3.7999999999999998
aa(lp325
F27.800000000000001
aF6.7000000000000002
aa(lp326
F18.600000000000001
aF7.9000000000000004
aa(lp327
F25.899999999999999
aF6
aa(lp328
F12
aF3.2999999999999998
aa(lp329
F27.399999999999999
aF9.5999999999999996
aa(lp330
F15.4
aF5.7000000000000002
aa(lp331
F51.100000000000001
aF18.5
aa(lp332
F17.699999999999999
aF2.2999999999999998
aa(lp333
F10
aF1.8999999999999999
aa(lp334
F6.5999999999999996
aF0
aa(lp335
F16.699999999999999
aF2.8999999999999999
aa(lp336
F23.399999999999999
aF5.5
aa(lp337
F22.800000000000001
aF1.2
aa(lp338
F12
aF5.0999999999999996
aa(lp339
F20
aF5
aa(lp340
F15.4
aF4.0999999999999996
aa(lp341
F20.100000000000001
aF18.300000000000001
aa(lp342
F12.699999999999999
aF1.8
aa(lp343
F8.5
aF1.3
aa(lp344
F14.300000000000001
aF2
aa(lp345
F14.6
aF10.300000000000001
aa(lp346
F16.899999999999999
aF2
aa(lp347
F15.9
aF1.6000000000000001
aa(lp348
F34.600000000000001
aF10.199999999999999
aa(lp349
F25.300000000000001
aF4
aa(lp350
F28.600000000000001
aF10.300000000000001
aa(lp351
F20.600000000000001
aF5.9000000000000004
aa(lp352
F15.300000000000001
aF3.7000000000000002
aa(lp353
F35.899999999999999
aF10.199999999999999
aa(lp354
F7.7999999999999998
aF2.3999999999999999
aa(lp355
F11.300000000000001
aF4.2000000000000002
aa(lp356
F18
aF3.5
aa(lp357
F19.199999999999999
aF4.7000000000000002
aa(lp358
F13.699999999999999
aF3.7999999999999998
aa(lp359
F12.4
aF1.2
aa(lp360
F33.399999999999999
aF14.1
aa(lp361
F18.300000000000001
aF5.7999999999999998
aa(lp362
F17.300000000000001
aF3.2999999999999998
aa(lp363
F16.399999999999999
aF3.2999999999999998
aa(lp364
F17.100000000000001
aF3.2000000000000002
aa(lp365
F21
aF3.2000000000000002
aa(lp366
F14.4
aF3.5
aa(lp367
F15.9
aF2.5
aa(lp368
F33.399999999999999
aF13.5
aa(lp369
F21
aF7
aa(lp370
F11.199999999999999
aF2.5
aa(lp371
F30.100000000000001
aF14.1
aa(lp372
F7.2000000000000002
aF0.40000000000000002
aa(lp373
F17.100000000000001
aF4
aa(lp374
F16.300000000000001
aF9.5
aa(lp375
F19.399999999999999
aF2
aa(lp376
F28.699999999999999
aF8.9000000000000004
aa(lp377
F9.8000000000000007
aF2.8999999999999999
aa(lp378
F39.399999999999999
aF19
aa(lp379
F34.399999999999999
aF12.6
aa(lp380
F17.699999999999999
aF0.69999999999999996
aa(lp381
F35.100000000000001
aF12.1
aa(lp382
F19.5
aF1.8999999999999999
aa(lp383
F10.300000000000001
aF1.2
aa(lp384
F20.399999999999999
aF7.5
aa(lp385
F22.300000000000001
aF5.4000000000000004
aa(lp386
F34.5
aF11.1
aa(lp387
F30.5
aF11.4
aa(lp388
F19.300000000000001
aF4.9000000000000004
aa(lp389
F37.700000000000003
aF14.1
aa(lp390
F12.300000000000001
aF2.2999999999999998
aa(lp391
F20.100000000000001
aF5.2000000000000002
aa(lp392
F19.5
aF3.2000000000000002
aa(lp393
F22.699999999999999
aF5.5999999999999996
aa(lp394
F10.300000000000001
aF1.1000000000000001
aa(lp395
F13.199999999999999
aF4.2000000000000002
aa(lp396
F41.899999999999999
aF4.9000000000000004
aa(lp397
F8.1999999999999993
aF0
aa(lp398
F25.800000000000001
aF6.2999999999999998
aa(lp399
F12.1
aF7.9000000000000004
aa(lp400
F11.4
aF4
aa(lp401
F21.5
aF7.0999999999999996
aa(lp402
F23.699999999999999
aF6.5
aa(lp403
F12.699999999999999
aF3.7000000000000002
aa(lp404
F44.100000000000001
aF20.899999999999999
aa(lp405
F12
aF2.6000000000000001
aa(lp406
F21.699999999999999
aF9.5999999999999996
aa(lp407
F21.600000000000001
aF5.0999999999999996
aa(lp408
F12.699999999999999
aF2.8999999999999999
aa(lp409
F19.899999999999999
aF7.4000000000000004
aa(lp410
F24.899999999999999
aF11.800000000000001
aa(lp411
F20.100000000000001
aF4.4000000000000004
aa(lp412
F16.699999999999999
aF3.6000000000000001
aa(lp413
F8.6999999999999993
aF0.90000000000000002
aa(lp414
F23.199999999999999
aF7.9000000000000004
aa(lp415
F20.899999999999999
aF5.5999999999999996
aa(lp416
F27.600000000000001
aF8
aa(lp417
F34.100000000000001
aF16
aa(lp418
F23.5
aF5.7999999999999998
aa(lp419
F28.300000000000001
aF7.7999999999999998
aa(lp420
F13.699999999999999
aF1.1000000000000001
aa(lp421
F28.199999999999999
aF11.1
aa(lp422
F11.300000000000001
aF0.59999999999999998
aa(lp423
F20.5
aF6.5999999999999996
aa(lp424
F11.300000000000001
aF1.3999999999999999
aa(lp425
F14.4
aF1.3999999999999999
aa(lp426
F27.800000000000001
aF11.9
aa(lp427
F30.399999999999999
aF16
aa(lp428
F19.899999999999999
aF3.5
aa(lp429
F18.300000000000001
aF3.6000000000000001
aa(lp430
F14.4
aF4.2000000000000002
aa(lp431
F25.899999999999999
aF8.4000000000000004
aa(lp432
F7.7999999999999998
aF0
aa(lp433
F22.100000000000001
aF9.1999999999999993
aa(lp434
F17.899999999999999
aF0
aa(lp435
F18.699999999999999
aF6
aa(lp436
F9.3000000000000007
aF2.3999999999999999
aa(lp437
F28.399999999999999
aF19.699999999999999
aa(lp438
F25.899999999999999
aF13.300000000000001
aa(lp439
F21.300000000000001
aF3.5
aa(lp440
F13.300000000000001
aF1.6000000000000001
aa(lp441
F16.100000000000001
aF2.7999999999999998
aa(lp442
F11.9
aF2.5
aa(lp443
F12.5
aF3.6000000000000001
aa(lp444
F16.399999999999999
aF2
aa(lp445
F17.199999999999999
aF2.2000000000000002
aa(lp446
F18.5
aF2.1000000000000001
aa(lp447
F11.5
aF2.2999999999999998
aa(lp448
F18
aF7.2000000000000002
aa(lp449
F19.600000000000001
aF4.5999999999999996
aa(lp450
F27.600000000000001
aF11.199999999999999
aa(lp451
F20.100000000000001
aF3.5
aa(lp452
F33.899999999999999
aF12
aa(lp453
F37.700000000000003
aF29.100000000000001
aa(lp454
F17.5
aF5.7000000000000002
aa(lp455
F30
aF0.5
aa(lp456
F11
aF1.2
aa(lp457
F16.5
aF2.8999999999999999
aa(lp458
F29.699999999999999
aF12.6
aa(lp459
F17.100000000000001
aF2.6000000000000001
aa(lp460
F27.800000000000001
aF5.9000000000000004
aa(lp461
F18.600000000000001
aF2.6000000000000001
aa(lp462
F17.800000000000001
aF4.0999999999999996
aa(lp463
F11.800000000000001
aF1.5
aa(lp464
F38.100000000000001
aF14.199999999999999
aa(lp465
F26
aF7.9000000000000004
aa(lp466
F21.699999999999999
aF6.7000000000000002
aa(lp467
F33.799999999999997
aF15.800000000000001
aa(lp468
F20
aF9.5
aa(lp469
F13.1
aF4.0999999999999996
aa(lp470
F8.5999999999999996
aF2.5
aa(lp471
F20.300000000000001
aF5.4000000000000004
aa(lp472
F11
aF3.1000000000000001
aa(lp473
F21.399999999999999
aF6.5
aa(lp474
F17
aF5.2999999999999998
aa(lp475
F41.799999999999997
aF22.300000000000001
aa(lp476
F10.6
aF4.7999999999999998
aa(lp477
F16.399999999999999
aF3.7000000000000002
aa(lp478
F24.800000000000001
aF3.7999999999999998
aa(lp479
F38.899999999999999
aF17.199999999999999
aa(lp480
F37.600000000000001
aF16.100000000000001
aa(lp481
F4.7999999999999998
aF0.40000000000000002
aa(lp482
F34
aF7.4000000000000004
aa(lp483
F12.6
aF0.20000000000000001
aa(lp484
F14.4
aF2.1000000000000001
aa(lp485
F30.899999999999999
aF12.699999999999999
aa(lp486
F13.9
aF3.1000000000000001
aa(lp487
F12.800000000000001
aF3.2999999999999998
aa(lp488
F29.399999999999999
aF15.699999999999999
aa(lp489
F20.600000000000001
aF8
aa(lp490
F26.399999999999999
aF8.1999999999999993
aa(lp491
F23.699999999999999
aF8.5999999999999996
aa(lp492
F18.800000000000001
aF5.5999999999999996
aa(lp493
F18.800000000000001
aF5.2999999999999998
aa(lp494
F23.5
aF7.7999999999999998
aa(lp495
F30.600000000000001
aF5.7000000000000002
aa(lp496
F17
aF2.2000000000000002
aa(lp497
F12.199999999999999
aF1.8999999999999999
aa(lp498
F13.5
aF6
aa(lp499
F26.399999999999999
aF12.4
aa(lp500
F20.600000000000001
aF7.7999999999999998
aa(lp501
F15.300000000000001
aF2.1000000000000001
aa(lp502
F26.199999999999999
aF1
aa(lp503
F17.5
aF2.7000000000000002
aa(lp504
F27.199999999999999
aF11.300000000000001
aa(lp505
F17
aF3.7000000000000002
aa(lp506
F19.899999999999999
aF7.2999999999999998
aa(lp507
F10.4
aF1.3
aa(lp508
F10.4
aF7.4000000000000004
aa(lp509
F13
aF0.80000000000000004
aa(lp510
F22.699999999999999
aF3.2999999999999998
aa(lp511
F14.699999999999999
aF0.40000000000000002
aa(lp512
F15.800000000000001
aF9.5999999999999996
aa(lp513
F23.800000000000001
aF4
aa(lp514
F30.100000000000001
aF5.4000000000000004
aa(lp515
F14.699999999999999
aF5.9000000000000004
aa(lp516
F27.5
aF9.4000000000000004
aa(lp517
F25.300000000000001
aF8.3000000000000007
aa(lp518
F8.6999999999999993
aF5.9000000000000004
aa(lp519
F14.300000000000001
aF1.8
aa(lp520
F26.399999999999999
aF5.2000000000000002
aa(lp521
F23.699999999999999
aF9.4000000000000004
aa(lp522
F41.200000000000003
aF24.899999999999999
aa(lp523
F10
aF2.3999999999999999
aa(lp524
F22.300000000000001
aF7.2999999999999998
aa(lp525
F13.1
aF1.8999999999999999
aa(lp526
F29.5
aF10.9
aa(lp527
F30.800000000000001
aF15.9
aa(lp528
F20.399999999999999
aF4.7999999999999998
aa(lp529
F11.9
aF0
aa(lp530
F19.300000000000001
aF2.3999999999999999
aa(lp531
F8.5999999999999996
aF0.90000000000000002
aa(lp532
F20.399999999999999
aF7.7000000000000002
aa(lp533
F13.800000000000001
aF3.1000000000000001
aa(lp534
F30.5
aF10.199999999999999
aa(lp535
F22
aF5.7999999999999998
aa(lp536
F53.200000000000003
aF15.699999999999999
aa(lp537
F21.399999999999999
aF6.4000000000000004
aa(lp538
F10.5
aF1.1000000000000001
aa(lp539
F5.5999999999999996
aF0
aa(lp540
F29.699999999999999
aF9.4000000000000004
aa(lp541
F20.399999999999999
aF5.5
aa(lp542
F16.300000000000001
aF0
aa(lp543
F17.300000000000001
aF4
aa(lp544
F16.300000000000001
aF4.0999999999999996
aa(lp545
F9
aF2.1000000000000001
aa(lp546
F20.100000000000001
aF5.5999999999999996
aa(lp547
F14.9
aF0
aa(lp548
F19.399999999999999
aF4.2000000000000002
aa(lp549
F17.600000000000001
aF8.5
aa(lp550
F30.300000000000001
aF17.399999999999999
aa(lp551
F14.199999999999999
aF2.2000000000000002
aa(lp552
F20.199999999999999
aF6.7000000000000002
aa(lp553
F16.699999999999999
aF3.5
aa(lp554
F22.199999999999999
aF9.0999999999999996
aa(lp555
F4.7999999999999998
aF5.0999999999999996
aa(lp556
F0
aF0
aa(lp557
F27
aF6.4000000000000004
aa(lp558
F21.899999999999999
aF5.7000000000000002
aa(lp559
F47.899999999999999
aF5.2999999999999998
aa(lp560
F24.899999999999999
aF10
aa(lp561
F19.300000000000001
aF3.6000000000000001
aa(lp562
F22.399999999999999
aF5.5
aa(lp563
F22.100000000000001
aF3.7999999999999998
aa(lp564
F10.4
aF2.6000000000000001
aa(lp565
F21.199999999999999
aF4.7999999999999998
aa(lp566
F24.899999999999999
aF6.2999999999999998
aa(lp567
F21.699999999999999
aF9.5999999999999996
aa(lp568
F19.300000000000001
aF6.7999999999999998
aa(lp569
F9
aF1.8
aa(lp570
F29.300000000000001
aF6.2999999999999998
aa(lp571
F22.399999999999999
aF7.7000000000000002
aa(lp572
F20.5
aF12.199999999999999
aa(lp573
F11.6
aF1.1000000000000001
aa(lp574
F15.5
aF1.8999999999999999
aa.