(lp1
(lp2
F0
aF0
aF0
aa(lp3
F10.4
aF10.1
aF2.6000000000000001
aa(lp4
F9.6999999999999993
aF8.9000000000000004
aF6.9000000000000004
aa(lp5
F7.4000000000000004
aF6.2999999999999998
aF3
aa(lp6
F7.2999999999999998
aF6.7000000000000002
aF0.69999999999999996
aa(lp7
F29.600000000000001
aF28.300000000000001
aF15.199999999999999
aa(lp8
F39.899999999999999
aF37.799999999999997
aF16.199999999999999
aa(lp9
F9.3000000000000007
aF9.3000000000000007
aF3.3999999999999999
aa(lp10
F50.5
aF32.5
aF19.699999999999999
aa(lp11
F20.5
aF20.5
aF4.4000000000000004
aa(lp12
F5.7000000000000002
aF4.5999999999999996
aF1.3999999999999999
aa(lp13
F29.5
aF28.699999999999999
aF14.300000000000001
aa(lp14
F8.0999999999999996
aF7.9000000000000004
aF3
aa(lp15
F6.2000000000000002
aF5.9000000000000004
aF1.3
aa(lp16
F6.4000000000000004
aF5.2999999999999998
aF6.5999999999999996
aa(lp17
F8.9000000000000004
aF8.5999999999999996
aF1.5
aa(lp18
F10
aF8.8000000000000007
aF13.300000000000001
aa(lp19
F21.899999999999999
aF20.800000000000001
aF13.300000000000001
aa(lp20
F46.5
aF40.5
aF22.800000000000001
aa(lp21
F17.899999999999999
aF14.5
aF7.4000000000000004
aa(lp22
F22.399999999999999
aF22.199999999999999
aF11
aa(lp23
F0.5
aF0.5
aF0
aa(lp24
F47.899999999999999
aF45.100000000000001
aF23
aa(lp25
F11.6
aF11.300000000000001
aF6.5
aa(lp26
F3
aF3
aF0.59999999999999998
aa(lp27
F35.399999999999999
aF32.100000000000001
aF18
aa(lp28
F13.199999999999999
aF12.9
aF5.7000000000000002
aa(lp29
F3.8999999999999999
aF3
aF0.5
aa(lp30
F12.300000000000001
aF12.199999999999999
aF4.5999999999999996
aa(lp31
F11.6
aF11.4
aF5.5
aa(lp32
F33.799999999999997
aF33.799999999999997
aF14.5
aa(lp33
F11
aF10
aF3.1000000000000001
aa(lp34
F22.800000000000001
aF20.699999999999999
aF12.6
aa(lp35
F16.800000000000001
aF16.600000000000001
aF7.5999999999999996
aa(lp36
F43.600000000000001
aF42.299999999999997
aF21.600000000000001
aa(lp37
F10.9
aF10.5
aF4.2000000000000002
aa(lp38
F10.800000000000001
aF9.9000000000000004
aF3.3999999999999999
aa(lp39
F11.9
aF11.4
aF4.7000000000000002
aa(lp40
F9.5
aF8.3000000000000007
aF5.5999999999999996
aa(lp41
F30.899999999999999
aF29.399999999999999
aF9.8000000000000007
aa(lp42
F3.6000000000000001
aF3.5
aF0.59999999999999998
aa(lp43
F33.100000000000001
aF29.5
aF15.9
aa(lp44
F12.300000000000001
aF12.300000000000001
aF5.4000000000000004
aa(lp45
F18.5
aF16.899999999999999
aF7.7999999999999998
aa(lp46
F5.7999999999999998
aF4.9000000000000004
aF2.1000000000000001
aa(lp47
F11.300000000000001
aF8
aF1.6000000000000001
aa(lp48
F32.700000000000003
aF32.700000000000003
aF14.300000000000001
aa(lp49
F6.0999999999999996
aF5.4000000000000004
aF1.3999999999999999
aa(lp50
F6
aF6
aF2
aa(lp51
F14.5
aF12.9
aF6.2000000000000002
aa(lp52
F7.7000000000000002
aF7.4000000000000004
aF2.8999999999999999
aa(lp53
F13.9
aF12.699999999999999
aF2.6000000000000001
aa(lp54
F47.899999999999999
aF46.100000000000001
aF19.699999999999999
aa(lp55
F11
aF10.4
aF6.2000000000000002
aa(lp56
F7.7999999999999998
aF7.2000000000000002
aF2.2999999999999998
aa(lp57
F8.5
aF8.5
aF4.9000000000000004
aa(lp58
F8.9000000000000004
aF8.3000000000000007
aF3.7000000000000002
aa(lp59
F21.5
aF21.199999999999999
aF12
aa(lp60
F33.700000000000003
aF33.200000000000003
aF16.600000000000001
aa(lp61
F39.5
aF32.600000000000001
aF30.699999999999999
aa(lp62
F6.7999999999999998
aF6.5999999999999996
aF2.1000000000000001
aa(lp63
F20.199999999999999
aF18.300000000000001
aF9
aa(lp64
F33.700000000000003
aF30.199999999999999
aF14.6
aa(lp65
F28.699999999999999
aF28.600000000000001
aF11.6
aa(lp66
F48
aF38.100000000000001
aF20.600000000000001
aa(lp67
F35.100000000000001
aF35.100000000000001
aF12.6
aa(lp68
F20.5
aF16.5
aF8.6999999999999993
aa(lp69
F13.199999999999999
aF11.5
aF6
aa(lp70
F16.600000000000001
aF16.100000000000001
aF6.2999999999999998
aa(lp71
F20.899999999999999
aF19.300000000000001
aF12.699999999999999
aa(lp72
F15
aF14.5
aF6.5
aa(lp73
F11.1
aF10.300000000000001
aF2.7999999999999998
aa(lp74
F15.199999999999999
aF13.1
aF6.5
aa(lp75
F17.899999999999999
aF16.5
aF6.7000000000000002
aa(lp76
F9.9000000000000004
aF9.3000000000000007
aF5.9000000000000004
aa(lp77
F12.800000000000001
aF12.199999999999999
aF4.5
aa(lp78
F14.699999999999999
aF14
aF5.5999999999999996
aa(lp79
F8.9000000000000004
aF8.5
aF2.2999999999999998
aa(lp80
F12.199999999999999
aF10.5
aF5.5
aa(lp81
F14.699999999999999
aF7.4000000000000004
aF1.3
aa(lp82
F7.5
aF7
aF2.6000000000000001
aa(lp83
F28
aF25.300000000000001
aF13
aa(lp84
F11.4
aF11.199999999999999
aF4.7999999999999998
aa(lp85
F9.1999999999999993
aF9.0999999999999996
aF3.5
aa(lp86
F39.899999999999999
aF38.600000000000001
aF18
aa(lp87
F12.5
aF11.9
aF6
aa(lp88
F13.699999999999999
aF13.5
aF5.2999999999999998
aa(lp89
F9.8000000000000007
aF9.5999999999999996
aF1.8
aa(lp90
F12.300000000000001
aF12.300000000000001
aF4.9000000000000004
aa(lp91
F5.2000000000000002
aF4.4000000000000004
aF0.90000000000000002
aa(lp92
F10.9
aF10.199999999999999
aF6.7999999999999998
aa(lp93
F6
aF4.2999999999999998
aF0.90000000000000002
aa(lp94
F8.5
aF8.3000000000000007
aF4.9000000000000004
aa(lp95
F12.199999999999999
aF11.699999999999999
aF3.2999999999999998
aa(lp96
F16.199999999999999
aF13.6
aF8.3000000000000007
aa(lp97
F37.399999999999999
aF36
aF18
aa(lp98
F24.300000000000001
aF16.399999999999999
aF15.199999999999999
aa(lp99
F27.899999999999999
aF27.699999999999999
aF26.100000000000001
aa(lp100
F20.600000000000001
aF20.100000000000001
aF12.1
aa(lp101
F35.700000000000003
aF34.200000000000003
aF21.800000000000001
aa(lp102
F9.8000000000000007
aF9.8000000000000007
aF0.80000000000000004
aa(lp103
F50.200000000000003
aF50.200000000000003
aF8.5999999999999996
aa(lp104
F7.5
aF7.5
aF2.2999999999999998
aa(lp105
F6.7999999999999998
aF6.7999999999999998
aF1.3999999999999999
aa(lp106
F8.1999999999999993
aF8.1999999999999993
aF4.2999999999999998
aa(lp107
F1.3999999999999999
aF1.3999999999999999
aF0.59999999999999998
aa(lp108
F2.1000000000000001
aF2.1000000000000001
aF0
aa(lp109
F4.4000000000000004
aF4.4000000000000004
aF0
aa(lp110
F61.5
aF61.5
aF37.5
aa(lp111
F0.20000000000000001
aF0.20000000000000001
aF0
aa(lp112
F18.300000000000001
aF17.199999999999999
aF11.4
aa(lp113
F30.800000000000001
aF30.100000000000001
aF19.199999999999999
aa(lp114
F60.200000000000003
aF60.200000000000003
aF49.299999999999997
aa(lp115
F19.699999999999999
aF17.600000000000001
aF10.6
aa(lp116
F32
aF31
aF16.600000000000001
aa(lp117
F11.1
aF9.6999999999999993
aF3
aa(lp118
F38.200000000000003
aF37.299999999999997
aF17
aa(lp119
F7.5999999999999996
aF6.5999999999999996
aF3.1000000000000001
aa(lp120
F14.4
aF13.800000000000001
aF6.0999999999999996
aa(lp121
F2.8999999999999999
aF2.7000000000000002
aF1
aa(lp122
F8.0999999999999996
aF7.7999999999999998
aF1.3999999999999999
aa(lp123
F10.199999999999999
aF9.5
aF1.5
aa(lp124
F13.6
aF13.6
aF7
aa(lp125
F2.2000000000000002
aF2.1000000000000001
aF0.90000000000000002
aa(lp126
F13.1
aF13.1
aF7.0999999999999996
aa(lp127
F3.1000000000000001
aF2.8999999999999999
aF1.3
aa(lp128
F20.399999999999999
aF20.399999999999999
aF11.800000000000001
aa(lp129
F8.5
aF8.0999999999999996
aF3.7999999999999998
aa(lp130
F7.0999999999999996
aF6.7999999999999998
aF2.2000000000000002
aa(lp131
F23.600000000000001
aF23.5
aF12.5
aa(lp132
F9.4000000000000004
aF9.4000000000000004
aF3.6000000000000001
aa(lp133
F29
aF26.600000000000001
aF11.5
aa(lp134
F19.399999999999999
aF15.9
aF9.9000000000000004
aa(lp135
F25
aF19.100000000000001
aF11.699999999999999
aa(lp136
F10.4
aF7.5999999999999996
aF4.0999999999999996
aa(lp137
F4.7000000000000002
aF4.5999999999999996
aF2.2999999999999998
aa(lp138
F25
aF25
aF11.9
aa(lp139
F11.1
aF9
aF4.2999999999999998
aa(lp140
F8.8000000000000007
aF8.3000000000000007
aF3.5
aa(lp141
F6.7999999999999998
aF6.7999999999999998
aF1
aa(lp142
F9.5999999999999996
aF9.4000000000000004
aF3.2000000000000002
aa(lp143
F7.0999999999999996
aF6.0999999999999996
aF1.3999999999999999
aa(lp144
F51
aF49.200000000000003
aF29.399999999999999
aa(lp145
F16.5
aF12.800000000000001
aF7
aa(lp146
F36.700000000000003
aF36.399999999999999
aF15.199999999999999
aa(lp147
F2.5
aF2.5
aF0.59999999999999998
aa(lp148
F3.1000000000000001
aF3
aF2.2000000000000002
aa(lp149
F9.1999999999999993
aF9.1999999999999993
aF3.7000000000000002
aa(lp150
F6.7000000000000002
aF6.2000000000000002
aF1.2
aa(lp151
F7.2000000000000002
aF7.0999999999999996
aF3.2000000000000002
aa(lp152
F14.199999999999999
aF13
aF4.7000000000000002
aa(lp153
F4.5999999999999996
aF2.7999999999999998
aF0.69999999999999996
aa(lp154
F23.699999999999999
aF23.699999999999999
aF8
aa(lp155
F7.7999999999999998
aF7.7999999999999998
aF5
aa(lp156
F55.600000000000001
aF32.799999999999997
aF22.899999999999999
aa(lp157
F14.4
aF14.199999999999999
aF6.0999999999999996
aa(lp158
F27.399999999999999
aF26.5
aF17.600000000000001
aa(lp159
F66.200000000000003
aF48.799999999999997
aF38.5
aa(lp160
F2.1000000000000001
aF2.1000000000000001
aF0
aa(lp161
F7.9000000000000004
aF7.9000000000000004
aF4
aa(lp162
F11.800000000000001
aF11.300000000000001
aF5.0999999999999996
aa(lp163
F14.6
aF14.199999999999999
aF6.2000000000000002
aa(lp164
F8.3000000000000007
aF8.3000000000000007
aF4.4000000000000004
aa(lp165
F9.9000000000000004
aF9.1999999999999993
aF4.5
aa(lp166
F7.5
aF6.5
aF2.1000000000000001
aa(lp167
F8.6999999999999993
aF7.9000000000000004
aF2.7999999999999998
aa(lp168
F3.5
aF2.2999999999999998
aF0.20000000000000001
aa(lp169
F2.3999999999999999
aF1.8
aF0.40000000000000002
aa(lp170
F39.5
aF38.5
aF20.399999999999999
aa(lp171
F4.4000000000000004
aF4.2999999999999998
aF1.2
aa(lp172
F7
aF6.2999999999999998
aF2.1000000000000001
aa(lp173
F18.800000000000001
aF17.399999999999999
aF12.699999999999999
aa(lp174
F29.899999999999999
aF29.699999999999999
aF13.699999999999999
aa(lp175
F6.7999999999999998
aF6
aF1.8
aa(lp176
F5.5999999999999996
aF4.5
aF1.3999999999999999
aa(lp177
F8.5
aF6.2999999999999998
aF2.7000000000000002
aa(lp178
F52.700000000000003
aF52.299999999999997
aF34.200000000000003
aa(lp179
F19.5
aF17.100000000000001
aF8.1999999999999993
aa(lp180
F6.0999999999999996
aF6.0999999999999996
aF4.5
aa(lp181
F6.4000000000000004
aF6.2000000000000002
aF1.1000000000000001
aa(lp182
F36.899999999999999
aF36.799999999999997
aF24.100000000000001
aa(lp183
F12.800000000000001
aF12.800000000000001
aF3.6000000000000001
aa(lp184
F6.7000000000000002
aF6
aF8.9000000000000004
aa(lp185
F7.5
aF7.0999999999999996
aF3.7999999999999998
aa(lp186
F37.399999999999999
aF36.5
aF18.100000000000001
aa(lp187
F2.8999999999999999
aF2.2000000000000002
aF0.59999999999999998
aa(lp188
F13.6
aF13.199999999999999
aF6
aa(lp189
F11
aF10.800000000000001
aF3.6000000000000001
aa(lp190
F22.5
aF19.600000000000001
aF11.5
aa(lp191
F3
aF2.7000000000000002
aF1
aa(lp192
F9.5999999999999996
aF5.2000000000000002
aF1.8
aa(lp193
F6.2000000000000002
aF5.9000000000000004
aF1.3999999999999999
aa(lp194
F7.7999999999999998
aF7.2000000000000002
aF3.8999999999999999
aa(lp195
F27.399999999999999
aF26.699999999999999
aF12.199999999999999
aa(lp196
F17.699999999999999
aF17.300000000000001
aF7
aa(lp197
F7.2000000000000002
aF7.2000000000000002
aF3
aa(lp198
F15.5
aF12.6
aF4.5999999999999996
aa(lp199
F5
aF4.7999999999999998
aF2.5
aa(lp200
F2.7000000000000002
aF2.7000000000000002
aF0.80000000000000004
aa(lp201
F11.699999999999999
aF10.6
aF4.2000000000000002
aa(lp202
F16.899999999999999
aF16.899999999999999
aF7.0999999999999996
aa(lp203
F51.100000000000001
aF47.399999999999999
aF22.600000000000001
aa(lp204
F5.5999999999999996
aF5.4000000000000004
aF2.5
aa(lp205
F0.5
aF0.5
aF0.29999999999999999
aa(lp206
F15.1
aF14.4
aF6.7999999999999998
aa(lp207
F10.5
aF9.6999999999999993
aF6
aa(lp208
F4
aF3.8999999999999999
aF1.7
aa(lp209
F7.2000000000000002
aF5.7999999999999998
aF3.8999999999999999
aa(lp210
F13.1
aF13.1
aF4
aa(lp211
F12.4
aF10.699999999999999
aF4.5999999999999996
aa(lp212
F3.7999999999999998
aF3.5
aF0.90000000000000002
aa(lp213
F2.8999999999999999
aF2.8999999999999999
aF1.7
aa(lp214
F4.2999999999999998
aF4.2999999999999998
aF5.2999999999999998
aa(lp215
F4.2000000000000002
aF4.2000000000000002
aF1.1000000000000001
aa(lp216
F19.600000000000001
aF19.5
aF8
aa(lp217
F4.7999999999999998
aF4.4000000000000004
aF1.1000000000000001
aa(lp218
F22.300000000000001
aF19.600000000000001
aF8.5
aa(lp219
F26.600000000000001
aF25.199999999999999
aF11.300000000000001
aa(lp220
F4.5
aF3.3999999999999999
aF1.5
aa(lp221
F18.199999999999999
aF18.100000000000001
aF9.6999999999999993
aa(lp222
F4.9000000000000004
aF4.7000000000000002
aF2.1000000000000001
aa(lp223
F18.300000000000001
aF17.399999999999999
aF8.3000000000000007
aa(lp224
F12.1
aF12
aF3.2000000000000002
aa(lp225
F11.5
aF10.6
aF9.0999999999999996
aa(lp226
F9.3000000000000007
aF8.5
aF2.3999999999999999
aa(lp227
F14.800000000000001
aF14.699999999999999
aF7.5999999999999996
aa(lp228
F2.7000000000000002
aF2.3999999999999999
aF1.5
aa(lp229
F3.7000000000000002
aF3.7000000000000002
aF1.2
aa(lp230
F8.1999999999999993
aF6.2999999999999998
aF3.7999999999999998
aa(lp231
F6.0999999999999996
aF5.0999999999999996
aF4.5999999999999996
aa(lp232
F9
aF8.0999999999999996
aF1.7
aa(lp233
F30.5
aF29.600000000000001
aF21.399999999999999
aa(lp234
F15.699999999999999
aF8.9000000000000004
aF5.2000000000000002
aa(lp235
F5.2999999999999998
aF5.2999999999999998
aF3.7999999999999998
aa(lp236
F10.6
aF10.4
aF4.7000000000000002
aa(lp237
F10.199999999999999
aF10.199999999999999
aF4.5999999999999996
aa(lp238
F10.300000000000001
aF10.300000000000001
aF4.7999999999999998
aa(lp239
F0.5
aF0.40000000000000002
aF0.59999999999999998
aa(lp240
F29.399999999999999
aF26.800000000000001
aF12.4
aa(lp241
F15.4
aF14.5
aF7.7999999999999998
aa(lp242
F7.4000000000000004
aF7.2999999999999998
aF2.2000000000000002
aa(lp243
F3.5
aF3.5
aF1.6000000000000001
aa(lp244
F18.199999999999999
aF17.699999999999999
aF8.0999999999999996
aa(lp245
F7
aF6.4000000000000004
aF2.6000000000000001
aa(lp246
F8.5999999999999996
aF8.5999999999999996
aF8.5999999999999996
aa(lp247
F8.9000000000000004
aF8.5
aF3.7000000000000002
aa(lp248
F6.9000000000000004
aF6.5999999999999996
aF0.90000000000000002
aa(lp249
F10.800000000000001
aF9
aF0.80000000000000004
aa(lp250
F9.1999999999999993
aF9.1999999999999993
aF5.2000000000000002
aa(lp251
F21.300000000000001
aF21.100000000000001
aF7.5999999999999996
aa(lp252
F5
aF4.5999999999999996
aF2.8999999999999999
aa(lp253
F7.7999999999999998
aF7.7999999999999998
aF3.7000000000000002
aa(lp254
F18.100000000000001
aF15.9
aF8.6999999999999993
aa(lp255
F27.600000000000001
aF26.5
aF14.9
aa(lp256
F7
aF6.7999999999999998
aF2.7000000000000002
aa(lp257
F9.1999999999999993
aF8.0999999999999996
aF4.5999999999999996
aa(lp258
F5.2000000000000002
aF4.7000000000000002
aF3.2000000000000002
aa(lp259
F26.600000000000001
aF26.600000000000001
aF20.800000000000001
aa(lp260
F5
aF4.7999999999999998
aF1.8999999999999999
aa(lp261
F4
aF3.8999999999999999
aF1
aa(lp262
F8.1999999999999993
aF8.1999999999999993
aF6
aa(lp263
F5.7999999999999998
aF5.5999999999999996
aF1.7
aa(lp264
F6.7000000000000002
aF5.5999999999999996
aF2.6000000000000001
aa(lp265
F23.5
aF22
aF10.800000000000001
aa(lp266
F9.1999999999999993
aF8.6999999999999993
aF3.8999999999999999
aa(lp267
F24.800000000000001
aF24.5
aF12.6
aa(lp268
F4.5
aF4.2000000000000002
aF0.40000000000000002
aa(lp269
F8.4000000000000004
aF7.5
aF2.5
aa(lp270
F5.7999999999999998
aF5.4000000000000004
aF2.2000000000000002
aa(lp271
F42.5
aF41.899999999999999
aF20.300000000000001
aa(lp272
F4.5
aF4
aF1.6000000000000001
aa(lp273
F7.7999999999999998
aF7.0999999999999996
aF3.7999999999999998
aa(lp274
F2.2999999999999998
aF1.8999999999999999
aF0.5
aa(lp275
F21.800000000000001
aF20.699999999999999
aF13.4
aa(lp276
F12.300000000000001
aF12.199999999999999
aF4.9000000000000004
aa(lp277
F3.6000000000000001
aF3.3999999999999999
aF1.5
aa(lp278
F10.4
aF9.3000000000000007
aF4.7000000000000002
aa(lp279
F15.9
aF10.800000000000001
aF7.2000000000000002
aa(lp280
F6.0999999999999996
aF5.7000000000000002
aF3.8999999999999999
aa(lp281
F46.5
aF39.5
aF21.399999999999999
aa(lp282
F3.7000000000000002
aF3.2999999999999998
aF0.80000000000000004
aa(lp283
F5.2999999999999998
aF5.2999999999999998
aF1.3999999999999999
aa(lp284
F11.4
aF10.5
aF1.8
aa(lp285
F172.90000000000001
aF51.200000000000003
aF23.600000000000001
aa(lp286
F14.199999999999999
aF13.9
aF6.5
aa.