(lp1
(lp2
F2.2999999999999998
aF1.8
aS'2npk'
p3
aa(lp4
F2.8999999999999999
aF2.7000000000000002
aS'2vw5'
p5
aa(lp6
F10.300000000000001
aF13.5
aS'1vet'
p7
aa(lp8
F14.800000000000001
aF13.1
aS'3mc2'
p9
aa(lp10
F1.6000000000000001
aF0.90000000000000002
aS'3lc5'
p11
aa(lp12
F2.1000000000000001
aF1.3999999999999999
aS'3zmn'
p13
aa(lp14
F8.3000000000000007
aF7.5
aS'2fg4'
p15
aa(lp16
F6.0999999999999996
aF7
aS'3hnh'
p17
aa(lp18
F25.5
aF26
aS'3nej'
p19
aa(lp20
F5.5999999999999996
aF4.7000000000000002
aS'2f5t'
p21
aa(lp22
F4.0999999999999996
aF2.2999999999999998
aS'2j7c'
p23
aa(lp24
F4.2000000000000002
aF2.5
aS'4kbg'
p25
aa(lp26
F14.199999999999999
aF13.4
aS'2nnw'
p27
aa(lp28
F5.7000000000000002
aF6.2999999999999998
aS'2nmm'
p29
aa(lp30
F8.3000000000000007
aF11.1
aS'4ag4'
p31
aa(lp32
F4.2999999999999998
aF5.4000000000000004
aS'3ihc'
p33
aa(lp34
F1.5
aF0.90000000000000002
aS'3ekv'
p35
aa(lp36
F5.5
aF2.5
aS'3m57'
p37
aa(lp38
F3.1000000000000001
aF2.6000000000000001
aS'1rz4'
p39
aa(lp40
F1.8
aF0
aS'3dl1'
p41
aa(lp42
F9.5
aF11.6
aS'3l64'
p43
aa(lp44
F4.5999999999999996
aF4
aS'1p1u'
p45
aa(lp46
F17.300000000000001
aF18.100000000000001
aS'4l11'
p47
aa(lp48
F6
aF8.4000000000000004
aS'1b6d'
p49
aa(lp50
F6.7999999999999998
aF5.9000000000000004
aS'3nzs'
p51
aa(lp52
F15.1
aF11.699999999999999
aS'1hg7'
p53
aa(lp54
F4.2999999999999998
aF5.5999999999999996
aS'4hym'
p55
aa(lp56
F3.3999999999999999
aF4.0999999999999996
aS'1s7w'
p57
aa(lp58
F4.7000000000000002
aF6.5999999999999996
aS'2brc'
p59
aa(lp60
F14.9
aF15.9
aS'3mjq'
p61
aa(lp62
F2.5
aF1.3
aS'3hgx'
p63
aa(lp64
F9.0999999999999996
aF19.899999999999999
aS'1niq'
p65
aa(lp66
F16.800000000000001
aF36.200000000000003
aS'4f1t'
p67
aa(lp68
F24.399999999999999
aF28.800000000000001
aS'1a0h'
p69
aa(lp70
F3.8999999999999999
aF4.9000000000000004
aS'4g7n'
p71
aa(lp72
F2.1000000000000001
aF2.1000000000000001
aS'2ya4'
p73
aa(lp74
F1.7
aF2.2000000000000002
aS'3leg'
p75
aa(lp76
F8.0999999999999996
aF7.4000000000000004
aS'2w07'
p77
aa(lp78
F1.8999999999999999
aF1.6000000000000001
aS'4efa'
p79
aa(lp80
F11
aF13.9
aS'3tm5'
p81
aa(lp82
F17.399999999999999
aF16.899999999999999
aS'2gj7'
p83
aa(lp84
F2.6000000000000001
aF1.8999999999999999
aS'1xxl'
p85
aa(lp86
F4.7000000000000002
aF2.5
aS'1eve'
p87
aa(lp88
F8
aF7.5999999999999996
aS'1lsn'
p89
aa(lp90
F11.699999999999999
aF13.5
aS'2jj6'
p91
aa(lp92
F17.399999999999999
aF16.600000000000001
aS'1aow'
p93
aa(lp94
F3.5
aF2.7000000000000002
aS'3c35'
p95
aa(lp96
F10.5
aF15.199999999999999
aS'1gow'
p97
aa(lp98
F4.7000000000000002
aF3.1000000000000001
aS'1af3'
p99
aa(lp100
F1.5
aF1.8999999999999999
aS'3dwy'
p101
aa(lp102
F5.5
aF3.7000000000000002
aS'2ddq'
p103
aa(lp104
F2.2000000000000002
aF2.3999999999999999
aS'2ga4'
p105
aa(lp106
F2.7000000000000002
aF2.7999999999999998
aS'3pl3'
p107
aa(lp108
F5.9000000000000004
aF6.2999999999999998
aS'2cxa'
p109
aa(lp110
F7.5999999999999996
aF8.6999999999999993
aS'3d29'
p111
aa(lp112
F11.199999999999999
aF11.699999999999999
aS'2hxr'
p113
aa(lp114
F6.0999999999999996
aF7.7999999999999998
aS'4dp5'
p115
aa(lp116
F2.3999999999999999
aF1.7
aS'3zzf'
p117
aa(lp118
F12.199999999999999
aF9.1999999999999993
aS'1kdq'
p119
aa(lp120
F0
aF0
aS'1bl1'
p121
aa(lp122
F21.199999999999999
aF32.100000000000001
aS'4e0s'
p123
aa(lp124
F4.7999999999999998
aF2.2000000000000002
aS'1e06'
p125
aa(lp126
F4.5
aF0.80000000000000004
aS'1pnj'
p127
aa(lp128
F7.2999999999999998
aF7.2999999999999998
aS'4ff5'
p129
aa(lp130
F4.5999999999999996
aF4.4000000000000004
aS'3cm0'
p131
aa(lp132
F6.7999999999999998
aF3.7999999999999998
aS'2fe5'
p133
aa(lp134
F5.4000000000000004
aF6.5999999999999996
aS'1uwi'
p135
aa(lp136
F5.5
aF6.7000000000000002
aS'3lr6'
p137
aa(lp138
F0.69999999999999996
aF1
aS'3oz0'
p139
aa(lp140
F3
aF2.6000000000000001
aS'1xwb'
p141
aa(lp142
F4.7999999999999998
aF1.1000000000000001
aS'2fke'
p143
aa(lp144
F15.300000000000001
aF15
aS'4i39'
p145
aa(lp146
F7.2999999999999998
aF5.5
aS'2c2y'
p147
aa(lp148
F6.9000000000000004
aF5.7000000000000002
aS'1dyf'
p149
aa(lp150
F2.3999999999999999
aF2.2999999999999998
aS'4jqy'
p151
aa(lp152
F6.5999999999999996
aF7.4000000000000004
aS'3u3s'
p153
aa(lp154
F4.0999999999999996
aF3.8999999999999999
aS'3voq'
p155
aa(lp156
F4.9000000000000004
aF4.2999999999999998
aS'2z3d'
p157
aa(lp158
F8
aF8
aS'2d2o'
p159
aa(lp160
F13.800000000000001
aF9.8000000000000007
aS'3sd6'
p161
aa(lp162
F4.5
aF4.7999999999999998
aS'1ulu'
p163
aa(lp164
F1
aF1.1000000000000001
aS'3daq'
p165
aa(lp166
F2.6000000000000001
aF2.7000000000000002
aS'1kp4'
p167
aa(lp168
F4.9000000000000004
aF4.2000000000000002
aS'2nro'
p169
aa(lp170
F9.4000000000000004
aF15.5
aS'3a4f'
p171
aa(lp172
F8.5999999999999996
aF6.0999999999999996
aS'1ao5'
p173
aa(lp174
F9.3000000000000007
aF9.5
aS'3d1e'
p175
aa(lp176
F8.1999999999999993
aF7.4000000000000004
aS'1mi5'
p177
aa(lp178
F7.2999999999999998
aF8.1999999999999993
aS'3htm'
p179
aa(lp180
F0.29999999999999999
aF0.20000000000000001
aS'2w2b'
p181
aa(lp182
F4.5
aF4.2000000000000002
aS'2aie'
p183
aa(lp184
F1.2
aF1.8
aS'4iyq'
p185
aa(lp186
F11.9
aF10.9
aS'3jt2'
p187
aa(lp188
F14
aF18
aS'3nti'
p189
aa(lp190
F5.7999999999999998
aF4.0999999999999996
aS'1ns0'
p191
aa(lp192
F10.199999999999999
aF9.9000000000000004
aS'1ri3'
p193
aa(lp194
F2.6000000000000001
aF2.7000000000000002
aS'3ufl'
p195
aa(lp196
F18
aF22
aS'3ph0'
p197
aa(lp198
F30.199999999999999
aF10.9
aS'1w7q'
p199
aa(lp200
F3
aF3.8999999999999999
aS'3p97'
p201
aa(lp202
F1.2
aF0.59999999999999998
aS'3cmj'
p203
aa(lp204
F3.7999999999999998
aF2.7999999999999998
aS'3mki'
p205
aa(lp206
F2.2000000000000002
aF0.20000000000000001
aS'4b7n'
p207
aa(lp208
F2.6000000000000001
aF6.0999999999999996
aS'3sgb'
p209
aa(lp210
F7.7000000000000002
aF7.2000000000000002
aS'3k2y'
p211
aa(lp212
F5.2999999999999998
aF6.2999999999999998
aS'4hzk'
p213
aa(lp214
F3.6000000000000001
aF1.3999999999999999
aS'1f2s'
p215
aa(lp216
F6.7999999999999998
aF5.4000000000000004
aS'2qnj'
p217
aa(lp218
F6.2999999999999998
aF5.7000000000000002
aS'3tes'
p219
aa(lp220
F14.800000000000001
aF15
aS'1syq'
p221
aa(lp222
F8.5
aF5.2000000000000002
aS'1poa'
p223
aa(lp224
F2.1000000000000001
aF2.2000000000000002
aS'3fdj'
p225
aa(lp226
F10.699999999999999
aF7.5999999999999996
aS'2rkk'
p227
aa(lp228
F11.4
aF17.300000000000001
aS'1u2k'
p229
aa(lp230
F2.2999999999999998
aF2.2999999999999998
aS'3s13'
p231
aa(lp232
F1.5
aF1.2
aS'1fg6'
p233
aa(lp234
F6.5
aF4.0999999999999996
aS'1oy9'
p235
aa(lp236
F5.2000000000000002
aF1.8
aS'2j22'
p237
aa(lp238
F10
aF9.5999999999999996
aS'2zag'
p239
aa(lp240
F2.6000000000000001
aF1.2
aS'4kip'
p241
aa(lp242
F8.4000000000000004
aF7.5
aS'1tsf'
p243
aa(lp244
F14.199999999999999
aF11.6
aS'3puk'
p245
aa(lp246
F6.7999999999999998
aF6.5999999999999996
aS'2zqq'
p247
aa(lp248
F27.199999999999999
aF21.600000000000001
aS'1y47'
p249
aa(lp250
F7.9000000000000004
aF10.300000000000001
aS'1hsm'
p251
aa(lp252
F1.8
aF2.8999999999999999
aS'2wwx'
p253
aa(lp254
F4.0999999999999996
aF4.0999999999999996
aS'1h01'
p255
aa(lp256
F6.2000000000000002
aF4.2999999999999998
aS'2xen'
p257
aa(lp258
F5.5999999999999996
aF6
aS'2zhi'
p259
aa(lp260
F7.7999999999999998
aF10.199999999999999
aS'1s7v'
p261
aa(lp262
F2.2999999999999998
aF3.1000000000000001
aS'2qw6'
p263
aa(lp264
F3
aF2.2000000000000002
aS'2fk1'
p265
aa(lp266
F10.699999999999999
aF11.9
aS'2pr4'
p267
aa(lp268
F11.300000000000001
aF13.6
aS'1tbx'
p269
aa(lp270
F2.1000000000000001
aF3
aS'4hfs'
p271
aa(lp272
F3.3999999999999999
aF3.6000000000000001
aS'2dex'
p273
aa(lp274
F9.5
aF10.9
aS'1g7k'
p275
aa(lp276
F5.9000000000000004
aF4.5999999999999996
aS'2xng'
p277
aa(lp278
F1.1000000000000001
aF2.1000000000000001
aS'4iu3'
p279
aa(lp280
F1.5
aF1.8999999999999999
aS'2hu7'
p281
aa(lp282
F41.799999999999997
aF0
aS'1a3j'
p283
aa(lp284
F9.1999999999999993
aF10.4
aS'3agk'
p285
aa(lp286
F3.8999999999999999
aF4.0999999999999996
aS'3v39'
p287
aa(lp288
F4.7000000000000002
aF4.7999999999999998
aS'3k26'
p289
aa(lp290
F6.5
aF5.5999999999999996
aS'2dbb'
p291
aa(lp292
F4.4000000000000004
aF4.2999999999999998
aS'3l0i'
p293
aa(lp294
F8.5999999999999996
aF10.6
aS'2ftd'
p295
aa(lp296
F4.0999999999999996
aF6.7999999999999998
aS'3upv'
p297
aa(lp298
F14.300000000000001
aF13.199999999999999
aS'1n1a'
p299
aa(lp300
F11
aF10.699999999999999
aS'1b1e'
p301
aa(lp302
F7.4000000000000004
aF7.0999999999999996
aS'3gbb'
p303
aa(lp304
F4.2000000000000002
aF1.2
aS'3zw2'
p305
aa(lp306
F3
aF3
aS'3p5i'
p307
aa(lp308
F7.5
aF7.7000000000000002
aS'1geq'
p309
aa(lp310
F4.5999999999999996
aF8.5
aS'3ppn'
p311
aa(lp312
F24
aF36.299999999999997
aS'3udb'
p313
aa(lp314
F13.199999999999999
aF11.699999999999999
aS'1dfa'
p315
aa(lp316
F3.2000000000000002
aF5.2000000000000002
aS'3gse'
p317
aa(lp318
F4.5999999999999996
aF4.2999999999999998
aS'3vq8'
p319
aa(lp320
F4.7999999999999998
aF4.7000000000000002
aS'2ejk'
p321
aa(lp322
F1.7
aF0.90000000000000002
aS'3ph9'
p323
aa(lp324
F5
aF4.4000000000000004
aS'3dvt'
p325
aa(lp326
F10.1
aF9.5999999999999996
aS'2p2y'
p327
aa(lp328
F2.3999999999999999
aF1.3
aS'3ozh'
p329
aa(lp330
F3.7999999999999998
aF3.5
aS'3coy'
p331
aa(lp332
F5.5
aF3.8999999999999999
aS'3ce0'
p333
aa(lp334
F11.300000000000001
aF7.9000000000000004
aS'1lyb'
p335
aa(lp336
F2
aF1.8999999999999999
aS'3up6'
p337
aa(lp338
F13.699999999999999
aF22.300000000000001
aS'2r04'
p339
aa(lp340
F2.7000000000000002
aF2
aS'4dno'
p341
aa(lp342
F1.3999999999999999
aF2
aS'2ntp'
p343
aa(lp344
F8.4000000000000004
aF12.9
aS'1nxx'
p345
aa(lp346
F4.5
aF7.0999999999999996
aS'3ljn'
p347
aa(lp348
F2.2999999999999998
aF2.8999999999999999
aS'2vck'
p349
aa(lp350
F12.199999999999999
aF15.300000000000001
aS'2p4b'
p351
aa(lp352
F5.2000000000000002
aF3
aS'3o8w'
p353
aa(lp354
F13.9
aF21.600000000000001
aS'2gue'
p355
aa(lp356
F9.8000000000000007
aF8.0999999999999996
aS'3l76'
p357
aa(lp358
F5.0999999999999996
aF5.7999999999999998
aS'3als'
p359
aa(lp360
F5
aF4
aS'2e2t'
p361
aa(lp362
F3.3999999999999999
aF2.3999999999999999
aS'2ev3'
p363
aa(lp364
F15.5
aF17.399999999999999
aS'2qc2'
p365
aa(lp366
F1.5
aF1.5
aS'4bqt'
p367
aa(lp368
F6
aF5.5999999999999996
aS'2x01'
p369
aa(lp370
F1.3999999999999999
aF1.2
aS'2bk6'
p371
aa(lp372
F5.0999999999999996
aF5.7000000000000002
aS'3zcm'
p373
aa(lp374
F0.59999999999999998
aF1.2
aS'2h2c'
p375
aa(lp376
F4.2000000000000002
aF4.9000000000000004
aS'3btn'
p377
aa(lp378
F18.399999999999999
aF25.300000000000001
aS'3dro'
p379
aa(lp380
F0
aF0
aS'1ng8'
p381
aa(lp382
F3
aF0.59999999999999998
aS'1qqi'
p383
aa(lp384
F13.699999999999999
aF13.6
aS'1t7s'
p385
aa(lp386
F2.8999999999999999
aF2.6000000000000001
aS'1izd'
p387
aa(lp388
F12.800000000000001
aF11.699999999999999
aS'1njh'
p389
aa(lp390
F3.7999999999999998
aF2.8999999999999999
aS'1j0z'
p391
aa(lp392
F2.8999999999999999
aF3.8999999999999999
aS'3gbl'
p393
aa(lp394
F1.6000000000000001
aF1.3999999999999999
aS'4ig6'
p395
aa(lp396
F5
aF5
aS'3t1f'
p397
aa(lp398
F3.5
aF2.6000000000000001
aS'1yii'
p399
aa(lp400
F4.0999999999999996
aF3.2999999999999998
aS'2nxe'
p401
aa(lp402
F17.199999999999999
aF21.399999999999999
aS'2w4b'
p403
aa(lp404
F17.199999999999999
aF18.300000000000001
aS'2z0v'
p405
aa(lp406
F19.600000000000001
aF27.100000000000001
aS'2za2'
p407
aa(lp408
F6.2999999999999998
aF6.2000000000000002
aS'3rl2'
p409
aa(lp410
F5.7000000000000002
aF5.4000000000000004
aS'1w16'
p411
aa(lp412
F4.2000000000000002
aF2.5
aS'4hwi'
p413
aa(lp414
F10.199999999999999
aF8.3000000000000007
aS'1pci'
p415
aa(lp416
F12.4
aF13.9
aS'3ub4'
p417
aa(lp418
F1.8999999999999999
aF0.69999999999999996
aS'4ac7'
p419
aa(lp420
F4.5
aF3.6000000000000001
aS'1g5n'
p421
aa(lp422
F13
aF18
aS'1qsj'
p423
aa(lp424
F1.3999999999999999
aF0.69999999999999996
aS'4hvt'
p425
aa(lp426
F2.1000000000000001
aF0.40000000000000002
aS'2qqj'
p427
aa(lp428
F14
aF24
aS'4eo2'
p429
aa(lp430
F6.4000000000000004
aF3.6000000000000001
aS'1cxk'
p431
aa(lp432
F7.5999999999999996
aF7.5
aS'3mh3'
p433
aa(lp434
F0.29999999999999999
aF0.90000000000000002
aS'3gh6'
p435
aa(lp436
F2.5
aF1.5
aS'1ir7'
p437
aa(lp438
F8.9000000000000004
aF16.399999999999999
aS'1ijn'
p439
aa(lp440
F5.2999999999999998
aF6
aS'1s7k'
p441
aa(lp442
F0.59999999999999998
aF0.80000000000000004
aS'3l3f'
p443
aa(lp444
F2.6000000000000001
aF2.1000000000000001
aS'3kq5'
p445
aa(lp446
F2.6000000000000001
aF2.3999999999999999
aS'4jtj'
p447
aa(lp448
F2.1000000000000001
aF2.6000000000000001
aS'3nsf'
p449
aa(lp450
F5.7000000000000002
aF4.5
aS'1n82'
p451
aa(lp452
F9.5999999999999996
aF7.5999999999999996
aS'4dj7'
p453
aa(lp454
F3.2000000000000002
aF1.6000000000000001
aS'2f9w'
p455
aa(lp456
F1.3999999999999999
aF4.7000000000000002
aS'4mf5'
p457
aa(lp458
F16.399999999999999
aF19.199999999999999
aS'3rpu'
p459
aa(lp460
F16.199999999999999
aF17.300000000000001
aS'3oxn'
p461
aa(lp462
F3.7999999999999998
aF3.5
aS'1pzt'
p463
aa(lp464
F8.6999999999999993
aF8.1999999999999993
aS'2wjl'
p465
aa(lp466
F6.2000000000000002
aF6.9000000000000004
aS'1ois'
p467
aa(lp468
F13.6
aF16.600000000000001
aS'4m4e'
p469
aa(lp470
F3.7999999999999998
aF4.7999999999999998
aS'2e2n'
p471
aa(lp472
F2.8999999999999999
aF2.2000000000000002
aS'3mvp'
p473
aa(lp474
F5.0999999999999996
aF4.9000000000000004
aS'3p2e'
p475
aa(lp476
F1.8
aF1.1000000000000001
aS'3uvn'
p477
aa(lp478
F1
aF1.8
aS'4ipb'
p479
aa(lp480
F1.7
aF1.1000000000000001
aS'2qgo'
p481
aa(lp482
F4.5
aF8.8000000000000007
aS'2o6k'
p483
aa(lp484
F2.2000000000000002
aF3.1000000000000001
aS'4f0j'
p485
aa(lp486
F3.2000000000000002
aF4.5999999999999996
aS'2r5g'
p487
aa(lp488
F4.7999999999999998
aF2.8999999999999999
aS'3zjf'
p489
aa(lp490
F9.8000000000000007
aF9.6999999999999993
aS'3erm'
p491
aa(lp492
F1.5
aF1.5
aS'3a23'
p493
aa(lp494
F5.0999999999999996
aF5.7999999999999998
aS'3baw'
p495
aa(lp496
F4
aF3.2999999999999998
aS'4dv9'
p497
aa(lp498
F6.5
aF7.2999999999999998
aS'3mlt'
p499
aa(lp500
F5.7000000000000002
aF3.5
aS'2qvj'
p501
aa(lp502
F11.199999999999999
aF13.300000000000001
aS'1k89'
p503
aa(lp504
F5.7000000000000002
aF4.2999999999999998
aS'3du6'
p505
aa(lp506
F8.4000000000000004
aF4.4000000000000004
aS'3dwm'
p507
aa(lp508
F2.8999999999999999
aF2
aS'2x6o'
p509
aa(lp510
F1.5
aF1.5
aS'3hkr'
p511
aa(lp512
F4.9000000000000004
aF5.2000000000000002
aS'3n0e'
p513
aa(lp514
F4.7000000000000002
aF5.5999999999999996
aS'3k8e'
p515
aa(lp516
F8.5999999999999996
aF6.9000000000000004
aS'2ak5'
p517
aa(lp518
F5
aF3.5
aS'1k7c'
p519
aa(lp520
F0.59999999999999998
aF1.3999999999999999
aS'4b0j'
p521
aa(lp522
F6
aF3.2000000000000002
aS'4j73'
p523
aa(lp524
F12.300000000000001
aF11.6
aS'3blx'
p525
aa(lp526
F4.7999999999999998
aF5
aS'2ejz'
p527
aa(lp528
F5
aF1.8
aS'1pze'
p529
aa(lp530
F1
aF0.29999999999999999
aS'3omc'
p531
aa(lp532
F2.5
aF0.90000000000000002
aS'2git'
p533
aa(lp534
F7.2000000000000002
aF13.800000000000001
aS'1fks'
p535
aa(lp536
F1.6000000000000001
aF4.0999999999999996
aS'2rik'
p537
aa(lp538
F2.7000000000000002
aF1.2
aS'3o2h'
p539
aa(lp540
F8
aF5.5
aS'3sok'
p541
aa(lp542
F4.7000000000000002
aF5.2999999999999998
aS'3t38'
p543
aa(lp544
F4.5999999999999996
aF6.2000000000000002
aS'2hb0'
p545
aa(lp546
F4.2000000000000002
aF3.6000000000000001
aS'1y3c'
p547
aa(lp548
F4.2000000000000002
aF5.5999999999999996
aS'2dyc'
p549
aa(lp550
F3.5
aF4.5
aS'3i8u'
p551
aa(lp552
F3.3999999999999999
aF2.7999999999999998
aS'1xgd'
p553
aa(lp554
F1
aF1.1000000000000001
aS'4dka'
p555
aa(lp556
F7.9000000000000004
aF7.2000000000000002
aS'3fhf'
p557
aa(lp558
F15.800000000000001
aF25.300000000000001
aS'1poh'
p559
aa(lp560
F9
aF17.399999999999999
aS'3pfb'
p561
aa(lp562
F5.4000000000000004
aF6.5
aS'1sgu'
p563
aa(lp564
F6.7000000000000002
aF5.4000000000000004
aS'3ixs'
p565
aa(lp566
F3.2000000000000002
aF1.8
aS'3p5w'
p567
aa(lp568
F9.3000000000000007
aF10.4
aS'1pxs'
p569
aa(lp570
F9.4000000000000004
aF10.199999999999999
aS'4gmc'
p571
aa(lp572
F8.1999999999999993
aF11.199999999999999
aS'3qrc'
p573
aa(lp574
F5.2999999999999998
aF3.1000000000000001
aS'4gpi'
p575
aa(lp576
F2.6000000000000001
aF2.5
aS'2bgr'
p577
aa(lp578
F10.800000000000001
aF5.5
aS'4dmd'
p579
aa(lp580
F3
aF2.7999999999999998
aS'1azz'
p581
aa(lp582
F2.3999999999999999
aF1.3
aS'4ful'
p583
aa(lp584
F3.2999999999999998
aF2.6000000000000001
aS'2evd'
p585
aa(lp586
F2.2999999999999998
aF2.2000000000000002
aS'4fcf'
p587
aa(lp588
F7.7999999999999998
aF4
aS'3sbg'
p589
aa(lp590
F16.399999999999999
aF21.300000000000001
aS'2a5c'
p591
aa(lp592
F2.3999999999999999
aF3.2999999999999998
aS'2r5p'
p593
aa(lp594
F6.5999999999999996
aF6.5
aS'1hsi'
p595
aa(lp596
F8.9000000000000004
aF18.399999999999999
aS'3dqm'
p597
aa(lp598
F4.2999999999999998
aF4.7999999999999998
aS'1h9h'
p599
aa(lp600
F5.2999999999999998
aF4.9000000000000004
aS'4k8j'
p601
aa(lp602
F0
aF0
aS'3abn'
p603
aa(lp604
F17.699999999999999
aF25.399999999999999
aS'1hus'
p605
aa(lp606
F9.6999999999999993
aF8.6999999999999993
aS'2ge8'
p607
aa(lp608
F3.3999999999999999
aF5
aS'3b80'
p609
aa(lp610
F3.7999999999999998
aF7.7000000000000002
aS'2od6'
p611
aa(lp612
F2.2999999999999998
aF1.6000000000000001
aS'1etk'
p613
aa(lp614
F3
aF2.2000000000000002
aS'3n72'
p615
aa(lp616
F2.1000000000000001
aF1.1000000000000001
aS'2iwo'
p617
aa(lp618
F2.2999999999999998
aF1
aS'3c6f'
p619
aa(lp620
F4.9000000000000004
aF9.3000000000000007
aS'4ev1'
p621
aa(lp622
F22
aF20.199999999999999
aS'3hxk'
p623
aa(lp624
F11.1
aF26.399999999999999
aS'1ivp'
p625
aa(lp626
F2.1000000000000001
aF4.4000000000000004
aS'1pk3'
p627
aa(lp628
F3.1000000000000001
aF2.7999999999999998
aS'3eat'
p629
aa(lp630
F18.300000000000001
aF20.100000000000001
aS'2af7'
p631
aa(lp632
F3.2000000000000002
aF2.2000000000000002
aS'3v47'
p633
aa(lp634
F6.5
aF5.5999999999999996
aS'1gz7'
p635
aa(lp636
F14.9
aF17.199999999999999
aS'2agc'
p637
aa(lp638
F5.5999999999999996
aF2.1000000000000001
aS'3n2t'
p639
aa(lp640
F1.7
aF1.7
aS'4hg7'
p641
aa(lp642
F3.2000000000000002
aF3.7999999999999998
aS'2pn7'
p643
aa(lp644
F2.7999999999999998
aF1.8
aS'2zvw'
p645
aa(lp646
F4.2999999999999998
aF5.4000000000000004
aS'3i8s'
p647
aa(lp648
F5.7999999999999998
aF4.5
aS'4b4c'
p649
aa(lp650
F8
aF7.7999999999999998
aS'1o9q'
p651
aa(lp652
F1.3999999999999999
aF1.3999999999999999
aS'2w2n'
p653
aa(lp654
F10.699999999999999
aF12.800000000000001
aS'2fph'
p655
aa(lp656
F5.2999999999999998
aF8.9000000000000004
aS'3eup'
p657
aa(lp658
F3.5
aF5
aS'3lk2'
p659
aa(lp660
F19.600000000000001
aF25.300000000000001
aS'3ibr'
p661
aa(lp662
F4.5
aF5.7000000000000002
aS'3eym'
p663
aa(lp664
F6.2000000000000002
aF5
aS'2wjw'
p665
aa(lp666
F10.1
aF6.7999999999999998
aS'1smr'
p667
aa(lp668
F5.9000000000000004
aF3.6000000000000001
aS'2vxq'
p669
aa(lp670
F0
aF0
aS'2q9s'
p671
aa(lp672
F1.7
aF1.2
aS'2xfj'
p673
aa(lp674
F16.399999999999999
aF21.600000000000001
aS'1aqk'
p675
aa(lp676
F2.2999999999999998
aF2.2000000000000002
aS'1bng'
p677
aa(lp678
F4.5999999999999996
aF6
aS'3vgi'
p679
aa(lp680
F2.7999999999999998
aF2.8999999999999999
aS'1swt'
p681
aa(lp682
F3
aF3
aS'3zy1'
p683
aa(lp684
F1.8999999999999999
aF1.3
aS'3blk'
p685
aa(lp686
F11.300000000000001
aF10.4
aS'2auk'
p687
aa(lp688
F3.5
aF2.2999999999999998
aS'1v1h'
p689
aa(lp690
F5.5
aF5.7999999999999998
aS'1itx'
p691
aa(lp692
F1.3
aF1.7
aS'2yez'
p693
aa(lp694
F9.3000000000000007
aF9.5
aS'3hdi'
p695
aa(lp696
F10.1
aF13.6
aS'3g56'
p697
aa(lp698
F10.9
aF9.9000000000000004
aS'1tvx'
p699
aa(lp700
F0.5
aF1.8999999999999999
aS'2wql'
p701
aa(lp702
F4.5999999999999996
aF2.3999999999999999
aS'2pso'
p703
aa(lp704
F4.0999999999999996
aF4.7999999999999998
aS'3s5s'
p705
aa(lp706
F3.1000000000000001
aF2.7000000000000002
aS'3cab'
p707
aa(lp708
F16.199999999999999
aF6.2999999999999998
aS'1rav'
p709
aa(lp710
F1.8
aF1.5
aS'2z2m'
p711
aa(lp712
F19.600000000000001
aF32.5
aS'2fgg'
p713
aa(lp714
F16.199999999999999
aF13.199999999999999
aS'3pge'
p715
aa(lp716
F2.6000000000000001
aF4.5999999999999996
aS'2z0x'
p717
aa(lp718
F8
aF7.2000000000000002
aS'1x3f'
p719
aa(lp720
F3.5
aF3.7999999999999998
aS'1o8i'
p721
aa(lp722
F11.199999999999999
aF12.800000000000001
aS'4hyy'
p723
aa(lp724
F8
aF8
aS'1itm'
p725
aa(lp726
F4.0999999999999996
aF3.3999999999999999
aS'3c8n'
p727
aa(lp728
F9.0999999999999996
aF11
aS'1qz1'
p729
aa(lp730
F3
aF0.80000000000000004
aS'3llb'
p731
aa(lp732
F26
aF33.299999999999997
aS'3lj4'
p733
aa(lp734
F2
aF0.5
aS'1u30'
p735
aa(lp736
F5
aF6.0999999999999996
aS'107l'
p737
aa(lp738
F6.2000000000000002
aF6.2000000000000002
aS'2btj'
p739
aa(lp740
F1.8999999999999999
aF1.3999999999999999
aS'2xlg'
p741
aa(lp742
F8.6999999999999993
aF9.0999999999999996
aS'3vhz'
p743
aa(lp744
F2.6000000000000001
aF2.6000000000000001
aS'2h11'
p745
aa(lp746
F3.3999999999999999
aF2
aS'1ejr'
p747
aa(lp748
F0.40000000000000002
aF0.80000000000000004
aS'4e44'
p749
aa(lp750
F2.2000000000000002
aF2.7999999999999998
aS'2ok3'
p751
aa(lp752
F1.8999999999999999
aF0.20000000000000001
aS'3nf1'
p753
aa(lp754
F3.7000000000000002
aF3.2000000000000002
aS'2exi'
p755
aa(lp756
F8.3000000000000007
aF10.4
aS'1gkt'
p757
aa(lp758
F6.7000000000000002
aF6.7000000000000002
aS'1xb2'
p759
aa(lp760
F6.0999999999999996
aF4.4000000000000004
aS'3qaa'
p761
aa(lp762
F1.6000000000000001
aF1.3999999999999999
aS'2ok4'
p763
aa(lp764
F2.3999999999999999
aF3
aS'3erx'
p765
aa(lp766
F33.399999999999999
aF80.200000000000003
aS'1aa5'
p767
aa(lp768
F28.600000000000001
aF17.800000000000001
aS'1cdz'
p769
aa(lp770
F6
aF5.4000000000000004
aS'1kso'
p771
aa(lp772
F3
aF2
aS'1dem'
p773
aa(lp774
F11.9
aF15.800000000000001
aS'3g9h'
p775
aa(lp776
F3.7999999999999998
aF1.8999999999999999
aS'3kg7'
p777
aa(lp778
F6.4000000000000004
aF7
aS'1wv7'
p779
aa(lp780
F5.7999999999999998
aF2.2000000000000002
aS'2izj'
p781
aa(lp782
F36.299999999999997
aF41.200000000000003
aS'3cad'
p783
aa(lp784
F2.2000000000000002
aF1.2
aS'2hpl'
p785
aa(lp786
F5.2999999999999998
aF8.1999999999999993
aS'3f1l'
p787
aa(lp788
F1.8
aF1.2
aS'2pt0'
p789
aa(lp790
F3.2000000000000002
aF3.2999999999999998
aS'1j8e'
p791
aa(lp792
F5.2000000000000002
aF5.0999999999999996
aS'3f42'
p793
aa(lp794
F6.2999999999999998
aF12.699999999999999
aS'4a8u'
p795
aa(lp796
F15.6
aF24.5
aS'3hcy'
p797
aa(lp798
F16.100000000000001
aF26.800000000000001
aS'3iz6'
p799
aa(lp800
F7.0999999999999996
aF11.6
aS'3ebk'
p801
aa(lp802
F4.0999999999999996
aF4.7000000000000002
aS'1viz'
p803
aa(lp804
F8.9000000000000004
aF10.800000000000001
aS'1miq'
p805
aa(lp806
F6.7000000000000002
aF4.2000000000000002
aS'4hsv'
p807
aa(lp808
F5
aF7.0999999999999996
aS'3uyj'
p809
aa(lp810
F7
aF2.6000000000000001
aS'1dn2'
p811
aa(lp812
F5.2999999999999998
aF5.7999999999999998
aS'2opi'
p813
aa(lp814
F6.9000000000000004
aF7.5999999999999996
aS'1t0n'
p815
aa(lp816
F13.1
aF11.6
aS'3t53'
p817
aa(lp818
F6.4000000000000004
aF8.4000000000000004
aS'3eo4'
p819
aa(lp820
F4.9000000000000004
aF3.5
aS'1pf8'
p821
aa(lp822
F9.5999999999999996
aF12.800000000000001
aS'4go6'
p823
aa(lp824
F13.6
aF22
aS'2rs3'
p825
aa(lp826
F8.9000000000000004
aF4.2999999999999998
aS'4b9j'
p827
aa(lp828
F7
aF5.2999999999999998
aS'1h99'
p829
aa(lp830
F6.7000000000000002
aF8.5
aS'1fo2'
p831
aa(lp832
F9.9000000000000004
aF9.4000000000000004
aS'2f0t'
p833
aa(lp834
F9.6999999999999993
aF13.1
aS'2wsq'
p835
aa(lp836
F4.2000000000000002
aF5.2999999999999998
aS'3zfn'
p837
aa(lp838
F8
aF5.7999999999999998
aS'3de6'
p839
aa(lp840
F3.7000000000000002
aF3.7000000000000002
aS'2pxw'
p841
aa(lp842
F9.5
aF12.9
aS'1y7y'
p843
aa(lp844
F4.4000000000000004
aF5.7000000000000002
aS'3h3p'
p845
aa(lp846
F12.4
aF3.7000000000000002
aS'2rta'
p847
aa(lp848
F3.8999999999999999
aF2.2000000000000002
aS'1jdw'
p849
aa(lp850
F12.4
aF15.199999999999999
aS'3drx'
p851
aa(lp852
F8.8000000000000007
aF7.7000000000000002
aS'2wjk'
p853
aa(lp854
F4.0999999999999996
aF3.5
aS'4f2u'
p855
aa(lp856
F7.7000000000000002
aF8.0999999999999996
aS'4log'
p857
aa(lp858
F7.4000000000000004
aF3.2000000000000002
aS'2vi3'
p859
aa(lp860
F6.2999999999999998
aF7
aS'4fzj'
p861
aa(lp862
F1.8999999999999999
aF1.3
aS'1zce'
p863
aa(lp864
F2.5
aF6.0999999999999996
aS'1gvz'
p865
aa(lp866
F11.1
aF14.300000000000001
aS'3syv'
p867
aa(lp868
F2.5
aF1.3
aS'3zfo'
p869
aa(lp870
F4
aF3.3999999999999999
aS'2vaa'
p871
aa(lp872
F6.2999999999999998
aF7.7999999999999998
aS'1oqf'
p873
aa(lp874
F7.7000000000000002
aF9.0999999999999996
aS'2j3t'
p875
aa(lp876
F3.5
aF4.9000000000000004
aS'3sh0'
p877
aa(lp878
F3
aF1.1000000000000001
aS'4end'
p879
aa(lp880
F3.6000000000000001
aF3.3999999999999999
aS'1v7q'
p881
aa(lp882
F2.3999999999999999
aF1.2
aS'3bde'
p883
aa(lp884
F8.9000000000000004
aF9.6999999999999993
aS'1jyf'
p885
aa(lp886
F4.0999999999999996
aF4.7000000000000002
aS'3q6a'
p887
aa(lp888
F3.2000000000000002
aF2.2000000000000002
aS'3lno'
p889
aa(lp890
F11.300000000000001
aF7.9000000000000004
aS'3ide'
p891
aa(lp892
F5.4000000000000004
aF5.0999999999999996
aS'3zz8'
p893
aa(lp894
F4.5
aF4.9000000000000004
aS'1rd6'
p895
aa(lp896
F0.90000000000000002
aF1.2
aS'4k3r'
p897
aa(lp898
F2.2000000000000002
aF1.2
aS'4ay3'
p899
aa(lp900
F8.6999999999999993
aF12.5
aS'2ww0'
p901
aa(lp902
F6.5999999999999996
aF3.7000000000000002
aS'1za4'
p903
aa(lp904
F3
aF3
aS'1kdf'
p905
aa(lp906
F4.5999999999999996
aF4.9000000000000004
aS'3h23'
p907
aa(lp908
F7.4000000000000004
aF8.5999999999999996
aS'1snd'
p909
aa(lp910
F4.5999999999999996
aF3
aS'3pax'
p911
aa(lp912
F0.5
aF0
aS'3k1h'
p913
aa(lp914
F13.5
aF14.6
aS'1xwo'
p915
aa(lp916
F14.5
aF18.300000000000001
aS'2r6c'
p917
aa(lp918
F6.9000000000000004
aF5.5999999999999996
aS'3vp8'
p919
aa(lp920
F13.4
aF11.9
aS'1e69'
p921
aa(lp922
F24.899999999999999
aF34.100000000000001
aS'1b1u'
p923
aa(lp924
F3
aF6.2999999999999998
aS'1e6i'
p925
aa(lp926
F3.3999999999999999
aF5.7000000000000002
aS'3bqv'
p927
aa(lp928
F1.8999999999999999
aF2
aS'3ur9'
p929
aa(lp930
F9.9000000000000004
aF14.9
aS'3ln9'
p931
aa(lp932
F4.7000000000000002
aF3.2000000000000002
aS'3e0w'
p933
aa(lp934
F14.5
aF14
aS'1bui'
p935
aa(lp936
F3.7000000000000002
aF2.7999999999999998
aS'3iux'
p937
aa(lp938
F17.5
aF17.5
aS'2oki'
p939
aa(lp940
F1.8
aF0.90000000000000002
aS'2izv'
p941
aa(lp942
F9.1999999999999993
aF8
aS'3osi'
p943
aa(lp944
F16.100000000000001
aF15.1
aS'1ei8'
p945
aa(lp946
F9.3000000000000007
aF7.7999999999999998
aS'2zb5'
p947
aa.