(dp1
S'3jsz'
p2
(lp3
F6.7000000000000002
aF6
aF8.9000000000000004
asS'4boz'
p4
(lp5
F9.1999999999999993
aF9.1999999999999993
aF5.2000000000000002
asS'3oel'
p6
(lp7
F15.1
aF14.4
aF6.7999999999999998
asS'1g6s'
p8
(lp9
F6.2000000000000002
aF5.9000000000000004
aF1.3
asS'2lag'
p10
(lp11
F8.1999999999999993
aF8.1999999999999993
aF4.2999999999999998
asS'2knb'
p12
(lp13
F6.7999999999999998
aF6.7999999999999998
aF1.3999999999999999
asS'3oxx'
p14
(lp15
F7.2000000000000002
aF5.7999999999999998
aF3.8999999999999999
asS'3khg'
p16
(lp17
F11
aF10.800000000000001
aF3.6000000000000001
asS'2yuw'
p18
(lp19
F23.699999999999999
aF23.699999999999999
aF8
asS'2xr0'
p20
(lp21
F6.7000000000000002
aF6.2000000000000002
aF1.2
asS'4gsm'
p22
(lp23
F24.800000000000001
aF24.5
aF12.6
asS'2r38'
p24
(lp25
F7.0999999999999996
aF6.7999999999999998
aF2.2000000000000002
asS'4he4'
p26
(lp27
F5.7999999999999998
aF5.4000000000000004
aF2.2000000000000002
asS'1j2g'
p28
(lp29
F11.6
aF11.300000000000001
aF6.5
asS'1vxe'
p30
(lp31
F20.199999999999999
aF18.300000000000001
aF9
asS'2wfn'
p32
(lp33
F3.1000000000000001
aF3
aF2.2000000000000002
asS'3dl2'
p34
(lp35
F3.5
aF2.2999999999999998
aF0.20000000000000001
asS'1v5b'
p36
(lp37
F33.700000000000003
aF33.200000000000003
aF16.600000000000001
asS'2lix'
p38
(lp39
F2.1000000000000001
aF2.1000000000000001
aF0
asS'2iwv'
p40
(lp41
F35.700000000000003
aF34.200000000000003
aF21.800000000000001
asS'2hp7'
p42
(lp43
F16.199999999999999
aF13.6
aF8.3000000000000007
asS'1wmi'
p44
(lp45
F48
aF38.100000000000001
aF20.600000000000001
asS'2opa'
p46
(lp47
F7.5999999999999996
aF6.5999999999999996
aF3.1000000000000001
asS'1uqx'
p48
(lp49
F7.7999999999999998
aF7.2000000000000002
aF2.2999999999999998
asS'3c72'
p50
(lp51
F8.3000000000000007
aF8.3000000000000007
aF4.4000000000000004
asS'2ie3'
p52
(lp53
F27.899999999999999
aF27.699999999999999
aF26.100000000000001
asS'2fk7'
p54
(lp55
F9.8000000000000007
aF9.5999999999999996
aF1.8
asS'4h61'
p56
(lp57
F4.5
aF4.2000000000000002
aF0.40000000000000002
asS'3hfm'
p58
(lp59
F52.700000000000003
aF52.299999999999997
aF34.200000000000003
asS'2pb2'
p60
(lp61
F2.2000000000000002
aF2.1000000000000001
aF0.90000000000000002
asS'3mu8'
p62
(lp63
F11.699999999999999
aF10.6
aF4.2000000000000002
asS'4j7p'
p64
(lp65
F12.300000000000001
aF12.199999999999999
aF4.9000000000000004
asS'3zfe'
p66
(lp67
F10.199999999999999
aF10.199999999999999
aF4.5999999999999996
asS'3fdm'
p68
(lp69
F18.800000000000001
aF17.399999999999999
aF12.699999999999999
asS'1c5e'
p70
(lp71
F7.2999999999999998
aF6.7000000000000002
aF0.69999999999999996
asS'1icl'
p72
(lp73
F0.5
aF0.5
aF0
asS'2hsg'
p74
(lp75
F37.399999999999999
aF36
aF18
asS'2q2r'
p76
(lp77
F20.399999999999999
aF20.399999999999999
aF11.800000000000001
asS'1m74'
p78
(lp79
F43.600000000000001
aF42.299999999999997
aF21.600000000000001
asS'1czb'
p80
(lp81
F9.3000000000000007
aF9.3000000000000007
aF3.3999999999999999
asS'2pa2'
p82
(lp83
F13.6
aF13.6
aF7
asS'2w45'
p84
(lp85
F51
aF49.200000000000003
aF29.399999999999999
asS'3i7n'
p86
(lp87
F36.899999999999999
aF36.799999999999997
aF24.100000000000001
asS'1tkl'
p88
(lp89
F13.9
aF12.699999999999999
aF2.6000000000000001
asS'385d'
p90
(lp91
F66.200000000000003
aF48.799999999999997
aF38.5
asS'2k2p'
p92
(lp93
F7.5
aF7.5
aF2.2999999999999998
asS'2r7s'
p94
(lp95
F23.600000000000001
aF23.5
aF12.5
asS'3vwu'
p96
(lp97
F10.6
aF10.4
aF4.7000000000000002
asS'9hvp'
p98
(lp99
F14.199999999999999
aF13.9
aF6.5
asS'3ro2'
p100
(lp101
F4.5
aF3.3999999999999999
aF1.5
asS'3gya'
p102
(lp103
F8.5
aF6.2999999999999998
aF2.7000000000000002
asS'1we0'
p104
(lp105
F28.699999999999999
aF28.600000000000001
aF11.6
asS'4fnu'
p106
(lp107
F8.1999999999999993
aF8.1999999999999993
aF6
asS'248l'
p108
(lp109
F15.199999999999999
aF13.1
aF6.5
asS'1p6j'
p110
(lp111
F12.300000000000001
aF12.300000000000001
aF5.4000000000000004
asS'2p8n'
p112
(lp113
F10.199999999999999
aF9.5
aF1.5
asS'1gqu'
p114
(lp115
F10
aF8.8000000000000007
aF13.300000000000001
asS'1oc8'
p116
(lp117
F9.5
aF8.3000000000000007
aF5.5999999999999996
asS'4an5'
p118
(lp119
F8.5999999999999996
aF8.5999999999999996
aF8.5999999999999996
asS'4kfv'
p120
(lp121
F15.9
aF10.800000000000001
aF7.2000000000000002
asS'2wf5'
p122
(lp123
F2.5
aF2.5
aF0.59999999999999998
asS'3r7s'
p124
(lp125
F22.300000000000001
aF19.600000000000001
aF8.5
asS'3ntw'
p126
(lp127
F16.899999999999999
aF16.899999999999999
aF7.0999999999999996
asS'3qiv'
p128
(lp129
F4.2000000000000002
aF4.2000000000000002
aF1.1000000000000001
asS'2e3x'
p130
(lp131
F39.899999999999999
aF38.600000000000001
aF18
asS'2hox'
p132
(lp133
F12.199999999999999
aF11.699999999999999
aF3.2999999999999998
asS'3r9h'
p134
(lp135
F26.600000000000001
aF25.199999999999999
aF11.300000000000001
asS'1g8n'
p136
(lp137
F6.4000000000000004
aF5.2999999999999998
aF6.5999999999999996
asS'2uwa'
p138
(lp139
F4.7000000000000002
aF4.5999999999999996
aF2.2999999999999998
asS'1d65'
p140
(lp141
F50.5
aF32.5
aF19.699999999999999
asS'2aii'
p142
(lp143
F9.9000000000000004
aF9.3000000000000007
aF5.9000000000000004
asS'4los'
p144
(lp145
F5.2999999999999998
aF5.2999999999999998
aF1.3999999999999999
asS'3l56'
p146
(lp147
F6.2000000000000002
aF5.9000000000000004
aF1.3999999999999999
asS'3hyw'
p148
(lp149
F6.0999999999999996
aF6.0999999999999996
aF4.5
asS'4ail'
p150
(lp151
F3.5
aF3.5
aF1.6000000000000001
asS'3ka0'
p152
(lp153
F13.6
aF13.199999999999999
aF6
asS'1ke1'
p154
(lp155
F12.300000000000001
aF12.199999999999999
aF4.5999999999999996
asS'2e82'
p156
(lp157
F13.699999999999999
aF13.5
aF5.2999999999999998
asS'3k2q'
p158
(lp159
F37.399999999999999
aF36.5
aF18.100000000000001
asS'3r4t'
p160
(lp161
F4.7999999999999998
aF4.4000000000000004
aF1.1000000000000001
asS'4gcn'
p162
(lp163
F6.7000000000000002
aF5.5999999999999996
aF2.6000000000000001
asS'1bsz'
p164
(lp165
F9.6999999999999993
aF8.9000000000000004
aF6.9000000000000004
asS'3egx'
p166
(lp167
F39.5
aF38.5
aF20.399999999999999
asS'3c2p'
p168
(lp169
F14.6
aF14.199999999999999
aF6.2000000000000002
asS'2q18'
p170
(lp171
F3.1000000000000001
aF2.8999999999999999
aF1.3
asS'4j9w'
p172
(lp173
F3.6000000000000001
aF3.3999999999999999
aF1.5
asS'2v6b'
p174
(lp175
F25
aF25
aF11.9
asS'1yfi'
p176
(lp177
F16.600000000000001
aF16.100000000000001
aF6.2999999999999998
asS'4hwb'
p178
(lp179
F4.5
aF4
aF1.6000000000000001
asS'3t5z'
p180
(lp181
F11.5
aF10.6
aF9.0999999999999996
asS'2uv3'
p182
(lp183
F10.4
aF7.5999999999999996
aF4.0999999999999996
asS'1lzz'
p184
(lp185
F16.800000000000001
aF16.600000000000001
aF7.5999999999999996
asS'2ify'
p186
(lp187
F20.600000000000001
aF20.100000000000001
aF12.1
asS'1pii'
p188
(lp189
F18.5
aF16.899999999999999
aF7.7999999999999998
asS'1p3d'
p190
(lp191
F3.6000000000000001
aF3.5
aF0.59999999999999998
asS'3uav'
p192
(lp193
F8.1999999999999993
aF6.2999999999999998
aF3.7999999999999998
asS'2xb4'
p194
(lp195
F9.1999999999999993
aF9.1999999999999993
aF3.7000000000000002
asS'405d'
p196
(lp197
F15.4
aF14.5
aF7.7999999999999998
asS'1lck'
p198
(lp199
F22.800000000000001
aF20.699999999999999
aF12.6
asS'1o1r'
p200
(lp201
F11.9
aF11.4
aF4.7000000000000002
asS'1uwq'
p202
(lp203
F8.9000000000000004
aF8.3000000000000007
aF3.7000000000000002
asS'1l9s'
p204
(lp205
F11
aF10
aF3.1000000000000001
asS'3u8z'
p206
(lp207
F2.7000000000000002
aF2.3999999999999999
aF1.5
asS'2ofc'
p208
(lp209
F11.1
aF9.6999999999999993
aF3
asS'2chc'
p210
(lp211
F7.5
aF7
aF2.6000000000000001
asS'2buz'
p212
(lp213
F8.9000000000000004
aF8.5
aF2.2999999999999998
asS'3kxo'
p214
(lp215
F3
aF2.7000000000000002
aF1
asS'3zxu'
p216
(lp217
F29.399999999999999
aF26.800000000000001
aF12.4
asS'3hzu'
p218
(lp219
F6.4000000000000004
aF6.2000000000000002
aF1.1000000000000001
asS'1eqp'
p220
(lp221
F5.7000000000000002
aF4.5999999999999996
aF1.3999999999999999
asS'3zxg'
p222
(lp223
F0.5
aF0.40000000000000002
aF0.59999999999999998
asS'2zeq'
p224
(lp225
F55.600000000000001
aF32.799999999999997
aF22.899999999999999
asS'3be1'
p226
(lp227
F7.9000000000000004
aF7.9000000000000004
aF4
asS'2fli'
p228
(lp229
F12.300000000000001
aF12.300000000000001
aF4.9000000000000004
asS'1btk'
p230
(lp231
F7.4000000000000004
aF6.2999999999999998
aF3
asS'2z9h'
p232
(lp233
F7.7999999999999998
aF7.7999999999999998
aF5
asS'1hcn'
p234
(lp235
F46.5
aF40.5
aF22.800000000000001
asS'4amz'
p236
(lp237
F7
aF6.4000000000000004
aF2.6000000000000001
asS'2rcw'
p238
(lp239
F29
aF26.600000000000001
aF11.5
asS'3v6j'
p240
(lp241
F30.5
aF29.600000000000001
aF21.399999999999999
asS'2jvc'
p242
(lp243
F9.8000000000000007
aF9.8000000000000007
aF0.80000000000000004
asS'3jri'
p244
(lp245
F12.800000000000001
aF12.800000000000001
aF3.6000000000000001
asS'2mgb'
p246
(lp247
F18.300000000000001
aF17.199999999999999
aF11.4
asS'3c26'
p248
(lp249
F11.800000000000001
aF11.300000000000001
aF5.0999999999999996
asS'4elv'
p250
(lp251
F5.2000000000000002
aF4.7000000000000002
aF3.2000000000000002
asS'4ios'
p252
(lp253
F7.7999999999999998
aF7.0999999999999996
aF3.7999999999999998
asS'1rff'
p254
(lp255
F6
aF6
aF2
asS'2mgh'
p256
(lp257
F30.800000000000001
aF30.100000000000001
aF19.199999999999999
asS'2b1l'
p258
(lp259
F14.699999999999999
aF14
aF5.5999999999999996
asS'2vd8'
p260
(lp261
F8.8000000000000007
aF8.3000000000000007
aF3.5
asS'3cl6'
p262
(lp263
F8.6999999999999993
aF7.9000000000000004
aF2.7999999999999998
asS'1vwt'
p264
(lp265
F6.7999999999999998
aF6.5999999999999996
aF2.1000000000000001
asS'4elh'
p266
(lp267
F9.1999999999999993
aF8.0999999999999996
aF4.5999999999999996
asS'1v4n'
p268
(lp269
F21.5
aF21.199999999999999
aF12
asS'3s9m'
p270
(lp271
F18.199999999999999
aF18.100000000000001
aF9.6999999999999993
asS'3a1r'
p272
(lp273
F2.1000000000000001
aF2.1000000000000001
aF0
asS'3ste'
p274
(lp275
F4.9000000000000004
aF4.7000000000000002
aF2.1000000000000001
asS'3os7'
p276
(lp277
F4
aF3.8999999999999999
aF1.7
asS'2k0s'
p278
(lp279
F50.200000000000003
aF50.200000000000003
aF8.5999999999999996
asS'3cbm'
p280
(lp281
F9.9000000000000004
aF9.1999999999999993
aF4.5
asS'1he7'
p282
(lp283
F17.899999999999999
aF14.5
aF7.4000000000000004
asS'4fb0'
p284
(lp285
F26.600000000000001
aF26.600000000000001
aF20.800000000000001
asS'2r9h'
p286
(lp287
F9.4000000000000004
aF9.4000000000000004
aF3.6000000000000001
asS'3v3h'
p288
(lp289
F9
aF8.0999999999999996
aF1.7
asS'4e4x'
p290
(lp291
F27.600000000000001
aF26.5
aF14.9
asS'3tsu'
p292
(lp293
F14.800000000000001
aF14.699999999999999
aF7.5999999999999996
asS'3m4e'
p294
(lp295
F17.699999999999999
aF17.300000000000001
aF7
asS'2nyl'
p296
(lp297
F60.200000000000003
aF60.200000000000003
aF49.299999999999997
asS'2akr'
p298
(lp299
F12.800000000000001
aF12.199999999999999
aF4.5
asS'1rl4'
p300
(lp301
F14.5
aF12.9
aF6.2000000000000002
asS'3toc'
p302
(lp303
F9.3000000000000007
aF8.5
aF2.3999999999999999
asS'1rce'
p304
(lp305
F6.0999999999999996
aF5.4000000000000004
aF1.3999999999999999
asS'1ydh'
p306
(lp307
F13.199999999999999
aF11.5
aF6
asS'1khm'
p308
(lp309
F33.799999999999997
aF33.799999999999997
aF14.5
asS'3mby'
p310
(lp311
F7.2000000000000002
aF7.2000000000000002
aF3
asS'3qih'
p312
(lp313
F4.2999999999999998
aF4.2999999999999998
aF5.2999999999999998
asS'1ce6'
p314
(lp315
F29.600000000000001
aF28.300000000000001
aF15.199999999999999
asS'1jhb'
p316
(lp317
F3
aF3
aF0.59999999999999998
asS'1htz'
p318
(lp319
F22.399999999999999
aF22.199999999999999
aF11
asS'4a6t'
p320
(lp321
F7.4000000000000004
aF7.2999999999999998
aF2.2000000000000002
asS'3grh'
p322
(lp323
F6.7999999999999998
aF6
aF1.8
asS'3t3m'
p324
(lp325
F12.1
aF12
aF3.2000000000000002
asS'4bm7'
p326
(lp327
F10.800000000000001
aF9
aF0.80000000000000004
asS'2wbp'
p328
(lp329
F16.5
aF12.800000000000001
aF7
asS'3lhr'
p330
(lp331
F7.7999999999999998
aF7.2000000000000002
aF3.8999999999999999
asS'3q0e'
p332
(lp333
F3.7999999999999998
aF3.5
aF0.90000000000000002
asS'3ubi'
p334
(lp335
F6.0999999999999996
aF5.0999999999999996
aF4.5999999999999996
asS'3f5b'
p336
(lp337
F7
aF6.2999999999999998
aF2.1000000000000001
asS'4g37'
p338
(lp339
F5.7999999999999998
aF5.5999999999999996
aF1.7
asS'4ku4'
p340
(lp341
F46.5
aF39.5
aF21.399999999999999
asS'4fmh'
p342
(lp343
F4
aF3.8999999999999999
aF1
asS'2vme'
p344
(lp345
F9.5999999999999996
aF9.4000000000000004
aF3.2000000000000002
asS'2ov2'
p346
(lp347
F2.8999999999999999
aF2.7000000000000002
aF1
asS'3hic'
p348
(lp349
F19.5
aF17.100000000000001
aF8.1999999999999993
asS'4ej0'
p350
(lp351
F7
aF6.7999999999999998
aF2.7000000000000002
asS'3lz9'
p352
(lp353
F27.399999999999999
aF26.699999999999999
aF12.199999999999999
asS'2fns'
p354
(lp355
F5.2000000000000002
aF4.4000000000000004
aF0.90000000000000002
asS'2h1t'
p356
(lp357
F8.5
aF8.3000000000000007
aF4.9000000000000004
asS'3ua9'
p358
(lp359
F3.7000000000000002
aF3.7000000000000002
aF1.2
asS'4ccp'
p360
(lp361
F21.300000000000001
aF21.100000000000001
aF7.5999999999999996
asS'2le2'
p362
(lp363
F1.3999999999999999
aF1.3999999999999999
aF0.59999999999999998
asS'2hu1'
p364
(lp365
F24.300000000000001
aF16.399999999999999
aF15.199999999999999
asS'1ags'
p366
(lp367
F0
aF0
aF0
asS'3vuw'
p368
(lp369
F5.2999999999999998
aF5.2999999999999998
aF3.7999999999999998
asS'1kgu'
p370
(lp371
F11.6
aF11.4
aF5.5
asS'1yll'
p372
(lp373
F20.899999999999999
aF19.300000000000001
aF12.699999999999999
asS'3qus'
p374
(lp375
F19.600000000000001
aF19.5
aF8
asS'2wcf'
p376
(lp377
F36.700000000000003
aF36.399999999999999
aF15.199999999999999
asS'2r05'
p378
(lp379
F8.5
aF8.0999999999999996
aF3.7999999999999998
asS'2lwi'
p380
(lp381
F61.5
aF61.5
aF37.5
asS'1sht'
p382
(lp383
F7.7000000000000002
aF7.4000000000000004
aF2.8999999999999999
asS'3zjd'
p384
(lp385
F10.300000000000001
aF10.300000000000001
aF4.7999999999999998
asS'1qdh'
p386
(lp387
F32.700000000000003
aF32.700000000000003
aF14.300000000000001
asS'1z1q'
p388
(lp389
F11.1
aF10.300000000000001
aF2.7999999999999998
asS'2pqa'
p390
(lp391
F13.1
aF13.1
aF7.0999999999999996
asS'3k2z'
p392
(lp393
F2.8999999999999999
aF2.2000000000000002
aF0.59999999999999998
asS'1jra'
p394
(lp395
F13.199999999999999
aF12.9
aF5.7000000000000002
asS'1wwe'
p396
(lp397
F35.100000000000001
aF35.100000000000001
aF12.6
asS'4hpq'
p398
(lp399
F42.5
aF41.899999999999999
aF20.300000000000001
asS'3moo'
p400
(lp401
F5
aF4.7999999999999998
aF2.5
asS'3mon'
p402
(lp403
F15.5
aF12.6
aF4.5999999999999996
asS'4ake'
p404
(lp405
F18.199999999999999
aF17.699999999999999
aF8.0999999999999996
asS'4jc1'
p406
(lp407
F10.4
aF9.3000000000000007
aF4.7000000000000002
asS'3gdi'
p408
(lp409
F29.899999999999999
aF29.699999999999999
aF13.699999999999999
asS'2lww'
p410
(lp411
F0.20000000000000001
aF0.20000000000000001
aF0
asS'4gks'
p412
(lp413
F23.5
aF22
aF10.800000000000001
asS'2red'
p414
(lp415
F19.399999999999999
aF15.9
aF9.9000000000000004
asS'3gsu'
p416
(lp417
F5.5999999999999996
aF4.5
aF1.3999999999999999
asS'4nn9'
p418
(lp419
F11.4
aF10.5
aF1.8
asS'2w3t'
p420
(lp421
F7.0999999999999996
aF6.0999999999999996
aF1.3999999999999999
asS'1n9k'
p422
(lp423
F10.800000000000001
aF9.9000000000000004
aF3.3999999999999999
asS'2g7o'
p424
(lp425
F6
aF4.2999999999999998
aF0.90000000000000002
asS'2g7b'
p426
(lp427
F10.9
aF10.199999999999999
aF6.7999999999999998
asS'3jxe'
p428
(lp429
F7.5
aF7.0999999999999996
aF3.7999999999999998
asS'4h9e'
p430
(lp431
F8.4000000000000004
aF7.5
aF2.5
asS'3qfj'
p432
(lp433
F2.8999999999999999
aF2.8999999999999999
aF1.7
asS'2xui'
p434
(lp435
F7.2000000000000002
aF7.0999999999999996
aF3.2000000000000002
asS'1cyf'
p436
(lp437
F39.899999999999999
aF37.799999999999997
aF16.199999999999999
asS'1tz0'
p438
(lp439
F11
aF10.4
aF6.2000000000000002
asS'3pob'
p440
(lp441
F13.1
aF13.1
aF4
asS'4b52'
p442
(lp443
F8.9000000000000004
aF8.5
aF3.7000000000000002
asS'2yjm'
p444
(lp445
F4.5999999999999996
aF2.7999999999999998
aF0.69999999999999996
asS'3vmz'
p446
(lp447
F15.699999999999999
aF8.9000000000000004
aF5.2000000000000002
asS'2zyl'
p448
(lp449
F27.399999999999999
aF26.5
aF17.600000000000001
asS'2p49'
p450
(lp451
F8.0999999999999996
aF7.7999999999999998
aF1.3999999999999999
asS'1jwr'
p452
(lp453
F3.8999999999999999
aF3
aF0.5
asS'3nz8'
p454
(lp455
F5.5999999999999996
aF5.4000000000000004
aF2.5
asS'4fh2'
p456
(lp457
F5
aF4.7999999999999998
aF1.8999999999999999
asS'1f3e'
p458
(lp459
F8.0999999999999996
aF7.9000000000000004
aF3
asS'1eui'
p460
(lp461
F29.5
aF28.699999999999999
aF14.300000000000001
asS'2dew'
p462
(lp463
F9.1999999999999993
aF9.0999999999999996
aF3.5
asS'4iqj'
p464
(lp465
F21.800000000000001
aF20.699999999999999
aF13.4
asS'4kov'
p466
(lp467
F6.0999999999999996
aF5.7000000000000002
aF3.8999999999999999
asS'2clo'
p468
(lp469
F11.4
aF11.199999999999999
aF4.7999999999999998
asS'1x08'
p470
(lp471
F20.5
aF16.5
aF8.6999999999999993
asS'3oc7'
p472
(lp473
F0.5
aF0.5
aF0.29999999999999999
asS'3e63'
p474
(lp475
F2.3999999999999999
aF1.8
aF0.40000000000000002
asS'4d9j'
p476
(lp477
F5
aF4.5999999999999996
aF2.8999999999999999
asS'3syb'
p478
(lp479
F18.300000000000001
aF17.399999999999999
aF8.3000000000000007
asS'3pt7'
p480
(lp481
F12.4
aF10.699999999999999
aF4.5999999999999996
asS'2ycx'
p482
(lp483
F14.199999999999999
aF13
aF4.7000000000000002
asS'2zit'
p484
(lp485
F14.4
aF14.199999999999999
aF6.0999999999999996
asS'1vj3'
p486
(lp487
F39.5
aF32.600000000000001
aF30.699999999999999
asS'2uui'
p488
(lp489
F25
aF19.100000000000001
aF11.699999999999999
asS'3mrt'
p490
(lp491
F2.7000000000000002
aF2.7000000000000002
aF0.80000000000000004
asS'2v94'
p492
(lp493
F11.1
aF9
aF4.2999999999999998
asS'3nyl'
p494
(lp495
F51.100000000000001
aF47.399999999999999
aF22.600000000000001
asS'4dl7'
p496
(lp497
F18.100000000000001
aF15.9
aF8.6999999999999993
asS'2c8r'
p498
(lp499
F14.699999999999999
aF7.4000000000000004
aF1.3
asS'2a7w'
p500
(lp501
F17.899999999999999
aF16.5
aF6.7000000000000002
asS'2bz1'
p502
(lp503
F12.199999999999999
aF10.5
aF5.5
asS'1oyk'
p504
(lp505
F30.899999999999999
aF29.399999999999999
aF9.8000000000000007
asS'2ooe'
p506
(lp507
F38.200000000000003
aF37.299999999999997
aF17
asS'1gxf'
p508
(lp509
F21.899999999999999
aF20.800000000000001
aF13.300000000000001
asS'3omd'
p510
(lp511
F10.5
aF9.6999999999999993
aF6
asS'1b3w'
p512
(lp513
F10.4
aF10.1
aF2.6000000000000001
asS'4de7'
p514
(lp515
F7.7999999999999998
aF7.7999999999999998
aF3.7000000000000002
asS'4tgl'
p516
(lp517
F172.90000000000001
aF51.200000000000003
aF23.600000000000001
asS'3kml'
p518
(lp519
F22.5
aF19.600000000000001
aF11.5
asS'1yrz'
p520
(lp521
F15
aF14.5
aF6.5
asS'2o0o'
p522
(lp523
F32
aF31
aF16.600000000000001
asS'1go8'
p524
(lp525
F8.9000000000000004
aF8.5999999999999996
aF1.5
asS'2osl'
p526
(lp527
F14.4
aF13.800000000000001
aF6.0999999999999996
asS'3l2a'
p528
(lp529
F9.5999999999999996
aF5.2000000000000002
aF1.8
asS'1mdz'
p530
(lp531
F10.9
aF10.5
aF4.2000000000000002
asS'1qbn'
p532
(lp533
F5.7999999999999998
aF4.9000000000000004
aF2.1000000000000001
asS'4b7r'
p534
(lp535
F6.9000000000000004
aF6.5999999999999996
aF0.90000000000000002
asS'2vdq'
p536
(lp537
F6.7999999999999998
aF6.7999999999999998
aF1
asS'2ck2'
p538
(lp539
F28
aF25.300000000000001
aF13
asS'3ek2'
p540
(lp541
F4.4000000000000004
aF4.2999999999999998
aF1.2
asS'4lc3'
p542
(lp543
F3.7000000000000002
aF3.2999999999999998
aF0.80000000000000004
asS'2lju'
p544
(lp545
F4.4000000000000004
aF4.4000000000000004
aF0
asS'2o0j'
p546
(lp547
F19.699999999999999
aF17.600000000000001
aF10.6
asS'1p4b'
p548
(lp549
F33.100000000000001
aF29.5
aF15.9
asS'2e41'
p550
(lp551
F12.5
aF11.9
aF6
asS'1eb7'
p552
(lp553
F20.5
aF20.5
aF4.4000000000000004
asS'1tre'
p554
(lp555
F47.899999999999999
aF46.100000000000001
aF19.699999999999999
asS'3cku'
p556
(lp557
F7.5
aF6.5
aF2.1000000000000001
asS'4gmg'
p558
(lp559
F9.1999999999999993
aF8.6999999999999993
aF3.8999999999999999
asS'4iq7'
p560
(lp561
F2.2999999999999998
aF1.8999999999999999
aF0.5
asS'1w6p'
p562
(lp563
F33.700000000000003
aF30.199999999999999
aF14.6
asS'1qc0'
p564
(lp565
F11.300000000000001
aF8
aF1.6000000000000001
asS'1ury'
p566
(lp567
F8.5
aF8.5
aF4.9000000000000004
asS'1ij6'
p568
(lp569
F47.899999999999999
aF45.100000000000001
aF23
asS'1jn4'
p570
(lp571
F35.399999999999999
aF32.100000000000001
aF18
as.