(lp1
(lp2
F15.199999999999999
aF14.4
aa(lp3
F15.699999999999999
aF17.800000000000001
aa(lp4
F30.5
aF2.2000000000000002
aa(lp5
F6
aF2.7999999999999998
aa(lp6
F13.300000000000001
aF4.5
aa(lp7
F10.800000000000001
aF4.7000000000000002
aa(lp8
F8.5999999999999996
aF1.5
aa(lp9
F23.600000000000001
aF8.0999999999999996
aa(lp10
F12.6
aF11.300000000000001
aa(lp11
F22.5
aF10.4
aa(lp12
F32.700000000000003
aF14.300000000000001
aa(lp13
F9
aF2.8999999999999999
aa(lp14
F6
aF1.3999999999999999
aa(lp15
F20.899999999999999
aF12.5
aa(lp16
F7.4000000000000004
aF2.7000000000000002
aa(lp17
F17.5
aF14.300000000000001
aa(lp18
F22.300000000000001
aF9.5999999999999996
aa(lp19
F22.899999999999999
aF0
aa(lp20
F14.9
aF5.4000000000000004
aa(lp21
F17
aF5.5999999999999996
aa(lp22
F10.5
aF4.2000000000000002
aa(lp23
F17.300000000000001
aF6.9000000000000004
aa(lp24
F34.899999999999999
aF33.799999999999997
aa(lp25
F24.600000000000001
aF1.6000000000000001
aa(lp26
F12.800000000000001
aF6.0999999999999996
aa(lp27
F14.300000000000001
aF3.7000000000000002
aa(lp28
F14.800000000000001
aF7.0999999999999996
aa(lp29
F9.5999999999999996
aF4
aa(lp30
F7.0999999999999996
aF3.2000000000000002
aa(lp31
F11.800000000000001
aF4.5999999999999996
aa(lp32
F19.100000000000001
aF10.5
aa(lp33
F24.699999999999999
aF6
aa(lp34
F3.2999999999999998
aF0
aa(lp35
F24.600000000000001
aF12.699999999999999
aa(lp36
F5.5999999999999996
aF1
aa(lp37
F12.699999999999999
aF19.800000000000001
aa(lp38
F14.6
aF6.5
aa(lp39
F10
aF4.5
aa(lp40
F4.7000000000000002
aF1.8
aa(lp41
F18.100000000000001
aF7.2999999999999998
aa(lp42
F14.300000000000001
aF3.7000000000000002
aa(lp43
F16.199999999999999
aF9.6999999999999993
aa(lp44
F10.4
aF5.2000000000000002
aa(lp45
F1.8
aF0.90000000000000002
aa(lp46
F29.800000000000001
aF19.300000000000001
aa(lp47
F6.0999999999999996
aF1.8999999999999999
aa(lp48
F21.199999999999999
aF12.6
aa(lp49
F20.699999999999999
aF7.7999999999999998
aa(lp50
F7.9000000000000004
aF4.2999999999999998
aa(lp51
F16.699999999999999
aF12.5
aa(lp52
F7.9000000000000004
aF5.4000000000000004
aa(lp53
F15.1
aF8.3000000000000007
aa(lp54
F23.600000000000001
aF13.199999999999999
aa(lp55
F6.7999999999999998
aF3.5
aa(lp56
F5.7999999999999998
aF0.90000000000000002
aa(lp57
F8.3000000000000007
aF3.3999999999999999
aa(lp58
F15.199999999999999
aF8.8000000000000007
aa(lp59
F12.9
aF7.5
aa(lp60
F8.6999999999999993
aF2.7999999999999998
aa(lp61
F41.299999999999997
aF27.899999999999999
aa(lp62
F5.0999999999999996
aF2.2999999999999998
aa(lp63
F31.699999999999999
aF11.4
aa(lp64
F6.5999999999999996
aF2.5
aa(lp65
F21.899999999999999
aF9.1999999999999993
aa(lp66
F18.600000000000001
aF7.2999999999999998
aa(lp67
F6.7999999999999998
aF3.1000000000000001
aa(lp68
F7.7999999999999998
aF4
aa(lp69
F15.1
aF7.2000000000000002
aa(lp70
F12.300000000000001
aF4.2000000000000002
aa(lp71
F1
aF0.69999999999999996
aa(lp72
F17.899999999999999
aF13.5
aa(lp73
F18.300000000000001
aF7.7000000000000002
aa(lp74
F11.4
aF5.2000000000000002
aa(lp75
F14.199999999999999
aF4.7999999999999998
aa(lp76
F17.600000000000001
aF10.1
aa(lp77
F21
aF12.699999999999999
aa(lp78
F12
aF3.6000000000000001
aa(lp79
F3.7999999999999998
aF2.1000000000000001
aa(lp80
F9.3000000000000007
aF3.6000000000000001
aa(lp81
F13
aF3.8999999999999999
aa(lp82
F23.899999999999999
aF13.699999999999999
aa(lp83
F10.699999999999999
aF6.7999999999999998
aa(lp84
F7.4000000000000004
aF0.90000000000000002
aa(lp85
F32.700000000000003
aF11.300000000000001
aa(lp86
F9.6999999999999993
aF4.0999999999999996
aa(lp87
F7.5999999999999996
aF2.7999999999999998
aa(lp88
F23.5
aF15.1
aa(lp89
F9.0999999999999996
aF7.0999999999999996
aa(lp90
F9.9000000000000004
aF2.7000000000000002
aa(lp91
F20
aF8.6999999999999993
aa(lp92
F2.5
aF0
aa(lp93
F7.4000000000000004
aF0
aa(lp94
F7.5
aF2.7000000000000002
aa(lp95
F9.8000000000000007
aF5.0999999999999996
aa(lp96
F10.9
aF8.6999999999999993
aa(lp97
F9.6999999999999993
aF3.7999999999999998
aa(lp98
F25.100000000000001
aF11.300000000000001
aa(lp99
F9.5
aF3.1000000000000001
aa(lp100
F6.5999999999999996
aF3.5
aa(lp101
F4.2000000000000002
aF1.7
aa(lp102
F5.9000000000000004
aF2.1000000000000001
aa(lp103
F31.5
aF15.199999999999999
aa(lp104
F16.899999999999999
aF5.2999999999999998
aa(lp105
F8.1999999999999993
aF1.5
aa(lp106
F18.300000000000001
aF8.4000000000000004
aa(lp107
F11.800000000000001
aF6
aa(lp108
F12.300000000000001
aF3.7999999999999998
aa(lp109
F14.699999999999999
aF4.9000000000000004
aa(lp110
F26.399999999999999
aF11.699999999999999
aa(lp111
F6.7000000000000002
aF2.3999999999999999
aa(lp112
F12
aF5.5
aa(lp113
F9.4000000000000004
aF5
aa(lp114
F5.2999999999999998
aF0
aa(lp115
F3.7999999999999998
aF1.8
aa(lp116
F7.7000000000000002
aF1.8999999999999999
aa(lp117
F9.5999999999999996
aF2.2999999999999998
aa(lp118
F26.5
aF15.6
aa(lp119
F14
aF7.9000000000000004
aa(lp120
F3.8999999999999999
aF1.3
aa(lp121
F20.699999999999999
aF11.5
aa(lp122
F12
aF4.2000000000000002
aa(lp123
F19.100000000000001
aF10.1
aa(lp124
F18.100000000000001
aF11.800000000000001
aa(lp125
F9.8000000000000007
aF4
aa(lp126
F6.0999999999999996
aF1.3999999999999999
aa(lp127
F10
aF3.6000000000000001
aa(lp128
F3.2000000000000002
aF1.3999999999999999
aa(lp129
F18.899999999999999
aF14
aa(lp130
F15.5
aF11.699999999999999
aa(lp131
F22.800000000000001
aF10.4
aa(lp132
F14.5
aF5
aa(lp133
F11.699999999999999
aF7.2999999999999998
aa(lp134
F3
aF1.3
aa(lp135
F2.7000000000000002
aF2.1000000000000001
aa(lp136
F22.199999999999999
aF4.9000000000000004
aa(lp137
F22.399999999999999
aF13.199999999999999
aa(lp138
F4.4000000000000004
aF0.59999999999999998
aa(lp139
F5.7999999999999998
aF0
aa(lp140
F3.3999999999999999
aF0.69999999999999996
aa(lp141
F3.7000000000000002
aF0
aa(lp142
F9.3000000000000007
aF1.6000000000000001
aa(lp143
F32
aF17.300000000000001
aa(lp144
F10.5
aF3.7999999999999998
aa(lp145
F3.7000000000000002
aF0.90000000000000002
aa(lp146
F8.9000000000000004
aF4.4000000000000004
aa(lp147
F17.399999999999999
aF6
aa(lp148
F11.1
aF5.7999999999999998
aa(lp149
F1.6000000000000001
aF0
aa(lp150
F17.899999999999999
aF6.2999999999999998
aa(lp151
F9
aF2.5
aa(lp152
F6.4000000000000004
aF1.8999999999999999
aa(lp153
F2.7000000000000002
aF1.2
aa(lp154
F18.800000000000001
aF10.6
aa(lp155
F19.600000000000001
aF10.5
aa(lp156
F21.899999999999999
aF12.5
aa(lp157
F18.300000000000001
aF12.300000000000001
aa(lp158
F7.2000000000000002
aF2.1000000000000001
aa(lp159
F9.6999999999999993
aF3.2999999999999998
aa(lp160
F9
aF3.7999999999999998
aa(lp161
F0.69999999999999996
aF0
aa(lp162
F9.5
aF3.2999999999999998
aa(lp163
F12.199999999999999
aF3.6000000000000001
aa(lp164
F44
aF22
aa(lp165
F9.1999999999999993
aF4.2999999999999998
aa(lp166
F3.5
aF0.40000000000000002
aa(lp167
F7.2999999999999998
aF3.2000000000000002
aa(lp168
F4.5
aF2.5
aa(lp169
F16.800000000000001
aF10.699999999999999
aa(lp170
F21.800000000000001
aF11.300000000000001
aa(lp171
F4.9000000000000004
aF2
aa(lp172
F9.6999999999999993
aF3.2999999999999998
aa(lp173
F11.800000000000001
aF4.7000000000000002
aa(lp174
F13.199999999999999
aF5.9000000000000004
aa(lp175
F9.4000000000000004
aF6.2999999999999998
aa(lp176
F7.7000000000000002
aF3.1000000000000001
aa(lp177
F5.4000000000000004
aF3.8999999999999999
aa(lp178
F5.7000000000000002
aF4.5
aa(lp179
F15
aF8.3000000000000007
aa(lp180
F14.199999999999999
aF8.5
aa(lp181
F26.199999999999999
aF12.699999999999999
aa(lp182
F4
aF1.3999999999999999
aa(lp183
F25.699999999999999
aF15.5
aa(lp184
F6.0999999999999996
aF2.5
aa(lp185
F4.2000000000000002
aF2.3999999999999999
aa(lp186
F7.5999999999999996
aF2
aa(lp187
F4
aF1.2
aa(lp188
F5.5
aF2
aa(lp189
F25.600000000000001
aF11.800000000000001
aa(lp190
F18.100000000000001
aF9.0999999999999996
aa(lp191
F18.100000000000001
aF8.3000000000000007
aa(lp192
F3.8999999999999999
aF6.7999999999999998
aa(lp193
F10.5
aF4
aa(lp194
F29.5
aF27.399999999999999
aa(lp195
F11.1
aF5.4000000000000004
aa(lp196
F7
aF3.2999999999999998
aa(lp197
F5.9000000000000004
aF0.29999999999999999
aa(lp198
F4.0999999999999996
aF0.90000000000000002
aa(lp199
F6
aF2.3999999999999999
aa(lp200
F23.100000000000001
aF13.800000000000001
aa(lp201
F3.8999999999999999
aF1.2
aa(lp202
F23.399999999999999
aF14.5
aa(lp203
F21.199999999999999
aF11.800000000000001
aa(lp204
F19.899999999999999
aF9.9000000000000004
aa(lp205
F14.300000000000001
aF5.5
aa(lp206
F8.4000000000000004
aF3.2000000000000002
aa(lp207
F3.5
aF1.2
aa(lp208
F6.4000000000000004
aF2.1000000000000001
aa(lp209
F21.399999999999999
aF13.699999999999999
aa(lp210
F9.3000000000000007
aF4.5999999999999996
aa(lp211
F5.0999999999999996
aF1.2
aa(lp212
F3.6000000000000001
aF4
aa(lp213
F10.800000000000001
aF7.5999999999999996
aa(lp214
F6.7999999999999998
aF4.2999999999999998
aa(lp215
F15.6
aF2.6000000000000001
aa(lp216
F5.7999999999999998
aF1.8999999999999999
aa(lp217
F10.6
aF4.7000000000000002
aa(lp218
F9.1999999999999993
aF3.7999999999999998
aa(lp219
F12.800000000000001
aF6.4000000000000004
aa(lp220
F5.7999999999999998
aF3
aa(lp221
F12.199999999999999
aF3.7000000000000002
aa(lp222
F13.800000000000001
aF6.4000000000000004
aa(lp223
F33.899999999999999
aF21.899999999999999
aa(lp224
F13.4
aF5.7999999999999998
aa(lp225
F17
aF7
aa(lp226
F20.600000000000001
aF21
aa(lp227
F13.800000000000001
aF10.699999999999999
aa(lp228
F9.5
aF4.7999999999999998
aa(lp229
F5.2999999999999998
aF1.3999999999999999
aa(lp230
F3.7999999999999998
aF1
aa(lp231
F4.7000000000000002
aF5.0999999999999996
aa(lp232
F9.1999999999999993
aF4.4000000000000004
aa(lp233
F13.300000000000001
aF7.0999999999999996
aa(lp234
F17.600000000000001
aF9.1999999999999993
aa(lp235
F4.7999999999999998
aF2.3999999999999999
aa(lp236
F6.0999999999999996
aF0.59999999999999998
aa(lp237
F5.2999999999999998
aF1.3
aa(lp238
F5.0999999999999996
aF3.2000000000000002
aa(lp239
F9.9000000000000004
aF5.7000000000000002
aa(lp240
F33
aF19.800000000000001
aa(lp241
F5.7999999999999998
aF3.2999999999999998
aa(lp242
F26.300000000000001
aF20.800000000000001
aa(lp243
F7.7999999999999998
aF3.5
aa(lp244
F6.0999999999999996
aF1.7
aa(lp245
F7.2999999999999998
aF5.4000000000000004
aa(lp246
F22.800000000000001
aF16.5
aa(lp247
F16.199999999999999
aF6.5
aa(lp248
F3.7999999999999998
aF1.3
aa(lp249
F10.4
aF4.9000000000000004
aa(lp250
F6.5
aF3
aa(lp251
F13.6
aF10.800000000000001
aa(lp252
F6.0999999999999996
aF1.8
aa(lp253
F31.100000000000001
aF20
aa(lp254
F6.0999999999999996
aF1.7
aa(lp255
F15
aF6.2999999999999998
aa(lp256
F8.5999999999999996
aF6.5999999999999996
aa(lp257
F15.5
aF6.4000000000000004
aa(lp258
F7.0999999999999996
aF2.5
aa(lp259
F17.300000000000001
aF7.2000000000000002
aa(lp260
F20.100000000000001
aF17.399999999999999
aa(lp261
F9.5
aF5.5999999999999996
aa(lp262
F25.699999999999999
aF18
aa(lp263
F11.9
aF6.5
aa(lp264
F12
aF4.7999999999999998
aa(lp265
F21
aF11.6
aa(lp266
F7.5999999999999996
aF3.7999999999999998
aa(lp267
F8.4000000000000004
aF6.0999999999999996
aa(lp268
F14.6
aF12.699999999999999
aa(lp269
F6
aF4.7999999999999998
aa(lp270
F7.9000000000000004
aF1.8999999999999999
aa(lp271
F10.1
aF5.5999999999999996
aa(lp272
F20.899999999999999
aF11.9
aa(lp273
F14.300000000000001
aF4.0999999999999996
aa(lp274
F8.5999999999999996
aF3.7999999999999998
aa(lp275
F9.6999999999999993
aF4
aa(lp276
F4
aF2.7000000000000002
aa(lp277
F12.199999999999999
aF5.0999999999999996
aa(lp278
F14.199999999999999
aF12.4
aa(lp279
F26.899999999999999
aF9.5999999999999996
aa(lp280
F13.6
aF5.9000000000000004
aa(lp281
F5.2999999999999998
aF2.2000000000000002
aa(lp282
F2.3999999999999999
aF0.90000000000000002
aa(lp283
F12.4
aF6.9000000000000004
aa(lp284
F5
aF1.2
aa(lp285
F10.300000000000001
aF8.0999999999999996
aa(lp286
F22.899999999999999
aF18
aa(lp287
F1
aF0.59999999999999998
aa(lp288
F2.7999999999999998
aF1.1000000000000001
aa(lp289
F34.399999999999999
aF28.5
aa(lp290
F4.4000000000000004
aF1.5
aa(lp291
F8.8000000000000007
aF4
aa(lp292
F6.7000000000000002
aF3.3999999999999999
aa(lp293
F12.699999999999999
aF3.6000000000000001
aa(lp294
F9.0999999999999996
aF0.59999999999999998
aa(lp295
F5.4000000000000004
aF2.5
aa(lp296
F5.5
aF2.2999999999999998
aa(lp297
F3.7000000000000002
aF3.2000000000000002
aa(lp298
F8.5999999999999996
aF3.7000000000000002
aa(lp299
F11.9
aF6.7999999999999998
aa(lp300
F11.4
aF5.2999999999999998
aa(lp301
F5.4000000000000004
aF1.5
aa(lp302
F4.7999999999999998
aF1.5
aa(lp303
F5.7999999999999998
aF1.8999999999999999
aa(lp304
F5.7999999999999998
aF1.3999999999999999
aa(lp305
F13.1
aF5.0999999999999996
aa(lp306
F6.7999999999999998
aF3.2000000000000002
aa(lp307
F8.5999999999999996
aF5
aa(lp308
F7.7000000000000002
aF3.1000000000000001
aa(lp309
F20.300000000000001
aF10.699999999999999
aa(lp310
F3.2999999999999998
aF1.8999999999999999
aa(lp311
F5.4000000000000004
aF4.7000000000000002
aa(lp312
F2.8999999999999999
aF1.6000000000000001
aa(lp313
F6.7999999999999998
aF1.3
aa(lp314
F5
aF2.7999999999999998
aa(lp315
F13.5
aF6.2999999999999998
aa(lp316
F1.3
aF0.29999999999999999
aa(lp317
F7.0999999999999996
aF2
aa(lp318
F21.600000000000001
aF11.4
aa(lp319
F4.4000000000000004
aF2.2000000000000002
aa(lp320
F6.2000000000000002
aF3.1000000000000001
aa(lp321
F15.1
aF9.6999999999999993
aa.